ARM GAS  C:\Users\ADMINI~1\AppData\Local\Temp\ccSOxefd.s 			page 1


   1              		.cpu cortex-m0
   2              		.fpu softvfp
   3              		.eabi_attribute 20, 1
   4              		.eabi_attribute 21, 1
   5              		.eabi_attribute 23, 3
   6              		.eabi_attribute 24, 1
   7              		.eabi_attribute 25, 1
   8              		.eabi_attribute 26, 1
   9              		.eabi_attribute 30, 6
  10              		.eabi_attribute 34, 0
  11              		.eabi_attribute 18, 4
  12              		.code	16
  13              		.file	"ADC_SAR_Seq.c"
  14              		.text
  15              	.Ltext0:
  16              		.cfi_sections	.debug_frame
  17              		.global	ADC_SAR_Seq_initVar
  18              		.bss
  19              		.type	ADC_SAR_Seq_initVar, %object
  20              		.size	ADC_SAR_Seq_initVar, 1
  21              	ADC_SAR_Seq_initVar:
  22 0000 00       		.space	1
  23              		.comm	ADC_SAR_Seq_offset,2,4
  24              		.comm	ADC_SAR_Seq_countsPer10Volt,4,4
  25              		.section	.rodata
  26              		.align	2
  27              		.type	ADC_SAR_Seq_channelsConfig, %object
  28              		.size	ADC_SAR_Seq_channelsConfig, 4
  29              	ADC_SAR_Seq_channelsConfig:
  30 0000 00010000 		.word	256
  31              		.section	.text.ADC_SAR_Seq_Start,"ax",%progbits
  32              		.align	2
  33              		.global	ADC_SAR_Seq_Start
  34              		.code	16
  35              		.thumb_func
  36              		.type	ADC_SAR_Seq_Start, %function
  37              	ADC_SAR_Seq_Start:
  38              	.LFB2:
  39              		.file 1 ".\\Generated_Source\\PSoC4\\ADC_SAR_Seq.c"
   1:.\Generated_Source\PSoC4/ADC_SAR_Seq.c **** /*******************************************************************************
   2:.\Generated_Source\PSoC4/ADC_SAR_Seq.c **** * File Name: ADC_SAR_Seq.c
   3:.\Generated_Source\PSoC4/ADC_SAR_Seq.c **** * Version 2.20
   4:.\Generated_Source\PSoC4/ADC_SAR_Seq.c **** *
   5:.\Generated_Source\PSoC4/ADC_SAR_Seq.c **** * Description:
   6:.\Generated_Source\PSoC4/ADC_SAR_Seq.c **** *  This file provides the source code to the API for the Sequencing Successive
   7:.\Generated_Source\PSoC4/ADC_SAR_Seq.c **** *  Approximation ADC Component Component.
   8:.\Generated_Source\PSoC4/ADC_SAR_Seq.c **** *
   9:.\Generated_Source\PSoC4/ADC_SAR_Seq.c **** * Note:
  10:.\Generated_Source\PSoC4/ADC_SAR_Seq.c **** *
  11:.\Generated_Source\PSoC4/ADC_SAR_Seq.c **** ********************************************************************************
  12:.\Generated_Source\PSoC4/ADC_SAR_Seq.c **** * Copyright 2008-2015, Cypress Semiconductor Corporation.  All rights reserved.
  13:.\Generated_Source\PSoC4/ADC_SAR_Seq.c **** * You may use this file only in accordance with the license, terms, conditions,
  14:.\Generated_Source\PSoC4/ADC_SAR_Seq.c **** * disclaimers, and limitations in the end user license agreement accompanying
  15:.\Generated_Source\PSoC4/ADC_SAR_Seq.c **** * the software package with which this file was provided.
  16:.\Generated_Source\PSoC4/ADC_SAR_Seq.c **** *******************************************************************************/
  17:.\Generated_Source\PSoC4/ADC_SAR_Seq.c **** 
  18:.\Generated_Source\PSoC4/ADC_SAR_Seq.c **** #include "ADC_SAR_Seq.h"
ARM GAS  C:\Users\ADMINI~1\AppData\Local\Temp\ccSOxefd.s 			page 2


  19:.\Generated_Source\PSoC4/ADC_SAR_Seq.c **** 
  20:.\Generated_Source\PSoC4/ADC_SAR_Seq.c **** 
  21:.\Generated_Source\PSoC4/ADC_SAR_Seq.c **** /***************************************
  22:.\Generated_Source\PSoC4/ADC_SAR_Seq.c **** * Global data allocation
  23:.\Generated_Source\PSoC4/ADC_SAR_Seq.c **** ***************************************/
  24:.\Generated_Source\PSoC4/ADC_SAR_Seq.c **** uint8 ADC_SAR_Seq_initVar = 0u;
  25:.\Generated_Source\PSoC4/ADC_SAR_Seq.c **** volatile int16 ADC_SAR_Seq_offset[ADC_SAR_Seq_TOTAL_CHANNELS_NUM];
  26:.\Generated_Source\PSoC4/ADC_SAR_Seq.c **** volatile int32 ADC_SAR_Seq_countsPer10Volt[ADC_SAR_Seq_TOTAL_CHANNELS_NUM];   /* Gain compensation 
  27:.\Generated_Source\PSoC4/ADC_SAR_Seq.c **** 
  28:.\Generated_Source\PSoC4/ADC_SAR_Seq.c **** 
  29:.\Generated_Source\PSoC4/ADC_SAR_Seq.c **** /***************************************
  30:.\Generated_Source\PSoC4/ADC_SAR_Seq.c **** * Local data allocation
  31:.\Generated_Source\PSoC4/ADC_SAR_Seq.c **** ***************************************/
  32:.\Generated_Source\PSoC4/ADC_SAR_Seq.c **** /* Channels configuration generated by customiser */
  33:.\Generated_Source\PSoC4/ADC_SAR_Seq.c **** static const uint32 CYCODE ADC_SAR_Seq_channelsConfig[] = { 0x00000100u };
  34:.\Generated_Source\PSoC4/ADC_SAR_Seq.c **** 
  35:.\Generated_Source\PSoC4/ADC_SAR_Seq.c **** 
  36:.\Generated_Source\PSoC4/ADC_SAR_Seq.c **** /*******************************************************************************
  37:.\Generated_Source\PSoC4/ADC_SAR_Seq.c **** * Function Name: ADC_SAR_Seq_Start
  38:.\Generated_Source\PSoC4/ADC_SAR_Seq.c **** ********************************************************************************
  39:.\Generated_Source\PSoC4/ADC_SAR_Seq.c **** *
  40:.\Generated_Source\PSoC4/ADC_SAR_Seq.c **** * Summary:
  41:.\Generated_Source\PSoC4/ADC_SAR_Seq.c **** *  Performs all required initialization for this component
  42:.\Generated_Source\PSoC4/ADC_SAR_Seq.c **** *  and enables the power. The power will be set to the appropriate
  43:.\Generated_Source\PSoC4/ADC_SAR_Seq.c **** *  power based on the clock frequency.
  44:.\Generated_Source\PSoC4/ADC_SAR_Seq.c **** *
  45:.\Generated_Source\PSoC4/ADC_SAR_Seq.c **** * Parameters:
  46:.\Generated_Source\PSoC4/ADC_SAR_Seq.c **** *  None.
  47:.\Generated_Source\PSoC4/ADC_SAR_Seq.c **** *
  48:.\Generated_Source\PSoC4/ADC_SAR_Seq.c **** * Return:
  49:.\Generated_Source\PSoC4/ADC_SAR_Seq.c **** *  None.
  50:.\Generated_Source\PSoC4/ADC_SAR_Seq.c **** *
  51:.\Generated_Source\PSoC4/ADC_SAR_Seq.c **** * Global variables:
  52:.\Generated_Source\PSoC4/ADC_SAR_Seq.c **** *  The ADC_SAR_Seq_initVar variable is used to indicate when/if initial
  53:.\Generated_Source\PSoC4/ADC_SAR_Seq.c **** *  configuration of this component has happened. The variable is initialized to
  54:.\Generated_Source\PSoC4/ADC_SAR_Seq.c **** *  zero and set to 1 the first time ADC_Start() is called. This allows for
  55:.\Generated_Source\PSoC4/ADC_SAR_Seq.c **** *  component Re-Start without re-initialization in all subsequent calls to the
  56:.\Generated_Source\PSoC4/ADC_SAR_Seq.c **** *  ADC_SAR_Seq_Start() routine.
  57:.\Generated_Source\PSoC4/ADC_SAR_Seq.c **** *  If re-initialization of the component is required the variable should be set
  58:.\Generated_Source\PSoC4/ADC_SAR_Seq.c **** *  to zero before call of ADC_SAR_Seq_Start() routine, or the user may call
  59:.\Generated_Source\PSoC4/ADC_SAR_Seq.c **** *  ADC_SAR_Seq_Init() and ADC_SAR_Seq_Enable() as done in the
  60:.\Generated_Source\PSoC4/ADC_SAR_Seq.c **** *  ADC_SAR_Seq_Start() routine.
  61:.\Generated_Source\PSoC4/ADC_SAR_Seq.c **** *
  62:.\Generated_Source\PSoC4/ADC_SAR_Seq.c **** *******************************************************************************/
  63:.\Generated_Source\PSoC4/ADC_SAR_Seq.c **** void ADC_SAR_Seq_Start(void)
  64:.\Generated_Source\PSoC4/ADC_SAR_Seq.c **** {
  40              		.loc 1 64 0
  41              		.cfi_startproc
  42 0000 80B5     		push	{r7, lr}
  43              		.cfi_def_cfa_offset 8
  44              		.cfi_offset 7, -8
  45              		.cfi_offset 14, -4
  46 0002 00AF     		add	r7, sp, #0
  47              		.cfi_def_cfa_register 7
  65:.\Generated_Source\PSoC4/ADC_SAR_Seq.c ****     /* If not Initialized then initialize all required hardware and software */
  66:.\Generated_Source\PSoC4/ADC_SAR_Seq.c ****     if(ADC_SAR_Seq_initVar == 0u)
  48              		.loc 1 66 0
ARM GAS  C:\Users\ADMINI~1\AppData\Local\Temp\ccSOxefd.s 			page 3


  49 0004 064B     		ldr	r3, .L3
  50 0006 1B78     		ldrb	r3, [r3]
  51 0008 002B     		cmp	r3, #0
  52 000a 04D1     		bne	.L2
  67:.\Generated_Source\PSoC4/ADC_SAR_Seq.c ****     {
  68:.\Generated_Source\PSoC4/ADC_SAR_Seq.c ****         ADC_SAR_Seq_Init();
  53              		.loc 1 68 0
  54 000c FFF7FEFF 		bl	ADC_SAR_Seq_Init
  69:.\Generated_Source\PSoC4/ADC_SAR_Seq.c ****         ADC_SAR_Seq_initVar = 1u;
  55              		.loc 1 69 0
  56 0010 034B     		ldr	r3, .L3
  57 0012 0122     		mov	r2, #1
  58 0014 1A70     		strb	r2, [r3]
  59              	.L2:
  70:.\Generated_Source\PSoC4/ADC_SAR_Seq.c ****     }
  71:.\Generated_Source\PSoC4/ADC_SAR_Seq.c ****     ADC_SAR_Seq_Enable();
  60              		.loc 1 71 0
  61 0016 FFF7FEFF 		bl	ADC_SAR_Seq_Enable
  72:.\Generated_Source\PSoC4/ADC_SAR_Seq.c **** }
  62              		.loc 1 72 0
  63 001a BD46     		mov	sp, r7
  64              		@ sp needed
  65 001c 80BD     		pop	{r7, pc}
  66              	.L4:
  67 001e C046     		.align	2
  68              	.L3:
  69 0020 00000000 		.word	ADC_SAR_Seq_initVar
  70              		.cfi_endproc
  71              	.LFE2:
  72              		.size	ADC_SAR_Seq_Start, .-ADC_SAR_Seq_Start
  73              		.global	__aeabi_idiv
  74              		.section	.text.ADC_SAR_Seq_Init,"ax",%progbits
  75              		.align	2
  76              		.global	ADC_SAR_Seq_Init
  77              		.code	16
  78              		.thumb_func
  79              		.type	ADC_SAR_Seq_Init, %function
  80              	ADC_SAR_Seq_Init:
  81              	.LFB3:
  73:.\Generated_Source\PSoC4/ADC_SAR_Seq.c **** 
  74:.\Generated_Source\PSoC4/ADC_SAR_Seq.c **** 
  75:.\Generated_Source\PSoC4/ADC_SAR_Seq.c **** /*******************************************************************************
  76:.\Generated_Source\PSoC4/ADC_SAR_Seq.c **** * Function Name: ADC_SAR_Seq_Init
  77:.\Generated_Source\PSoC4/ADC_SAR_Seq.c **** ********************************************************************************
  78:.\Generated_Source\PSoC4/ADC_SAR_Seq.c **** *
  79:.\Generated_Source\PSoC4/ADC_SAR_Seq.c **** * Summary:
  80:.\Generated_Source\PSoC4/ADC_SAR_Seq.c **** *  Initialize component's parameters to the parameters set by user in the
  81:.\Generated_Source\PSoC4/ADC_SAR_Seq.c **** *  customizer of the component placed onto schematic. Usually called in
  82:.\Generated_Source\PSoC4/ADC_SAR_Seq.c **** *  ADC_SAR_Seq_Start().
  83:.\Generated_Source\PSoC4/ADC_SAR_Seq.c **** *
  84:.\Generated_Source\PSoC4/ADC_SAR_Seq.c **** * Parameters:
  85:.\Generated_Source\PSoC4/ADC_SAR_Seq.c **** *  None.
  86:.\Generated_Source\PSoC4/ADC_SAR_Seq.c **** *
  87:.\Generated_Source\PSoC4/ADC_SAR_Seq.c **** * Return:
  88:.\Generated_Source\PSoC4/ADC_SAR_Seq.c **** *  None.
  89:.\Generated_Source\PSoC4/ADC_SAR_Seq.c **** *
  90:.\Generated_Source\PSoC4/ADC_SAR_Seq.c **** * Global variables:
ARM GAS  C:\Users\ADMINI~1\AppData\Local\Temp\ccSOxefd.s 			page 4


  91:.\Generated_Source\PSoC4/ADC_SAR_Seq.c **** *  The ADC_SAR_Seq_offset variable is initialized.
  92:.\Generated_Source\PSoC4/ADC_SAR_Seq.c **** *
  93:.\Generated_Source\PSoC4/ADC_SAR_Seq.c **** *******************************************************************************/
  94:.\Generated_Source\PSoC4/ADC_SAR_Seq.c **** void ADC_SAR_Seq_Init(void)
  95:.\Generated_Source\PSoC4/ADC_SAR_Seq.c **** {
  82              		.loc 1 95 0
  83              		.cfi_startproc
  84 0000 80B5     		push	{r7, lr}
  85              		.cfi_def_cfa_offset 8
  86              		.cfi_offset 7, -8
  87              		.cfi_offset 14, -4
  88 0002 84B0     		sub	sp, sp, #16
  89              		.cfi_def_cfa_offset 24
  90 0004 00AF     		add	r7, sp, #0
  91              		.cfi_def_cfa_register 7
  96:.\Generated_Source\PSoC4/ADC_SAR_Seq.c ****     uint32 chNum;
  97:.\Generated_Source\PSoC4/ADC_SAR_Seq.c ****     uint32 tmpRegVal;
  98:.\Generated_Source\PSoC4/ADC_SAR_Seq.c ****     int32 counts;
  99:.\Generated_Source\PSoC4/ADC_SAR_Seq.c **** 
 100:.\Generated_Source\PSoC4/ADC_SAR_Seq.c ****     #if(ADC_SAR_Seq_TOTAL_CHANNELS_NUM > 1u)
 101:.\Generated_Source\PSoC4/ADC_SAR_Seq.c ****         static const uint8 CYCODE ADC_SAR_Seq_InputsPlacement[] =
 102:.\Generated_Source\PSoC4/ADC_SAR_Seq.c ****         {
 103:.\Generated_Source\PSoC4/ADC_SAR_Seq.c ****             (uint8)(ADC_SAR_Seq_cy_psoc4_sarmux_8__CH_0_PORT << 4u) |
 104:.\Generated_Source\PSoC4/ADC_SAR_Seq.c ****             (uint8)ADC_SAR_Seq_cy_psoc4_sarmux_8__CH_0_PIN
 105:.\Generated_Source\PSoC4/ADC_SAR_Seq.c ****             ,(uint8)(ADC_SAR_Seq_cy_psoc4_sarmux_8__CH_1_PORT << 4u) |
 106:.\Generated_Source\PSoC4/ADC_SAR_Seq.c ****              (uint8)ADC_SAR_Seq_cy_psoc4_sarmux_8__CH_1_PIN
 107:.\Generated_Source\PSoC4/ADC_SAR_Seq.c ****             #if(ADC_SAR_Seq_TOTAL_CHANNELS_NUM > 2u)
 108:.\Generated_Source\PSoC4/ADC_SAR_Seq.c ****                 ,(uint8)(ADC_SAR_Seq_cy_psoc4_sarmux_8__CH_2_PORT << 4u) |
 109:.\Generated_Source\PSoC4/ADC_SAR_Seq.c ****                  (uint8)ADC_SAR_Seq_cy_psoc4_sarmux_8__CH_2_PIN
 110:.\Generated_Source\PSoC4/ADC_SAR_Seq.c ****             #endif /* End ADC_SAR_Seq_TOTAL_CHANNELS_NUM > 2u */
 111:.\Generated_Source\PSoC4/ADC_SAR_Seq.c ****             #if(ADC_SAR_Seq_TOTAL_CHANNELS_NUM > 3u)
 112:.\Generated_Source\PSoC4/ADC_SAR_Seq.c ****                 ,(uint8)(ADC_SAR_Seq_cy_psoc4_sarmux_8__CH_3_PORT << 4u) |
 113:.\Generated_Source\PSoC4/ADC_SAR_Seq.c ****                  (uint8)ADC_SAR_Seq_cy_psoc4_sarmux_8__CH_3_PIN
 114:.\Generated_Source\PSoC4/ADC_SAR_Seq.c ****             #endif /* End ADC_SAR_Seq_TOTAL_CHANNELS_NUM > 3u */
 115:.\Generated_Source\PSoC4/ADC_SAR_Seq.c ****             #if(ADC_SAR_Seq_TOTAL_CHANNELS_NUM > 4u)
 116:.\Generated_Source\PSoC4/ADC_SAR_Seq.c ****                 ,(uint8)(ADC_SAR_Seq_cy_psoc4_sarmux_8__CH_4_PORT << 4u) |
 117:.\Generated_Source\PSoC4/ADC_SAR_Seq.c ****                  (uint8)ADC_SAR_Seq_cy_psoc4_sarmux_8__CH_4_PIN
 118:.\Generated_Source\PSoC4/ADC_SAR_Seq.c ****             #endif /* End ADC_SAR_Seq_TOTAL_CHANNELS_NUM > 4u */
 119:.\Generated_Source\PSoC4/ADC_SAR_Seq.c ****             #if(ADC_SAR_Seq_TOTAL_CHANNELS_NUM > 5u)
 120:.\Generated_Source\PSoC4/ADC_SAR_Seq.c ****                 ,(uint8)(ADC_SAR_Seq_cy_psoc4_sarmux_8__CH_5_PORT << 4u) |
 121:.\Generated_Source\PSoC4/ADC_SAR_Seq.c ****                  (uint8)ADC_SAR_Seq_cy_psoc4_sarmux_8__CH_5_PIN
 122:.\Generated_Source\PSoC4/ADC_SAR_Seq.c ****             #endif /* End ADC_SAR_Seq_TOTAL_CHANNELS_NUM > 5u */
 123:.\Generated_Source\PSoC4/ADC_SAR_Seq.c ****             #if(ADC_SAR_Seq_TOTAL_CHANNELS_NUM > 6u)
 124:.\Generated_Source\PSoC4/ADC_SAR_Seq.c ****                 ,(uint8)(ADC_SAR_Seq_cy_psoc4_sarmux_8__CH_6_PORT << 4u) |
 125:.\Generated_Source\PSoC4/ADC_SAR_Seq.c ****                  (uint8)ADC_SAR_Seq_cy_psoc4_sarmux_8__CH_6_PIN
 126:.\Generated_Source\PSoC4/ADC_SAR_Seq.c ****             #endif /* End ADC_SAR_Seq_TOTAL_CHANNELS_NUM > 6u */
 127:.\Generated_Source\PSoC4/ADC_SAR_Seq.c ****             #if(ADC_SAR_Seq_TOTAL_CHANNELS_NUM > 7u)
 128:.\Generated_Source\PSoC4/ADC_SAR_Seq.c ****                 ,(uint8)(ADC_SAR_Seq_cy_psoc4_sarmux_8__CH_7_PORT << 4u) |
 129:.\Generated_Source\PSoC4/ADC_SAR_Seq.c ****                  (uint8)ADC_SAR_Seq_cy_psoc4_sarmux_8__CH_7_PIN
 130:.\Generated_Source\PSoC4/ADC_SAR_Seq.c ****             #endif /* End ADC_SAR_Seq_TOTAL_CHANNELS_NUM > 7u */
 131:.\Generated_Source\PSoC4/ADC_SAR_Seq.c ****             #if(ADC_SAR_Seq_TOTAL_CHANNELS_NUM > 8u)
 132:.\Generated_Source\PSoC4/ADC_SAR_Seq.c ****                 ,(uint8)(ADC_SAR_Seq_cy_psoc4_sarmux_8__CH_8_PORT << 4u) |
 133:.\Generated_Source\PSoC4/ADC_SAR_Seq.c ****                  (uint8)ADC_SAR_Seq_cy_psoc4_sarmux_8__CH_8_PIN
 134:.\Generated_Source\PSoC4/ADC_SAR_Seq.c ****             #endif /* End ADC_SAR_Seq_TOTAL_CHANNELS_NUM > 8u */
 135:.\Generated_Source\PSoC4/ADC_SAR_Seq.c ****             #if(ADC_SAR_Seq_TOTAL_CHANNELS_NUM > 9u)
 136:.\Generated_Source\PSoC4/ADC_SAR_Seq.c ****                 ,(uint8)(ADC_SAR_Seq_cy_psoc4_sarmux_8__CH_9_PORT << 4u) |
 137:.\Generated_Source\PSoC4/ADC_SAR_Seq.c ****                  (uint8)ADC_SAR_Seq_cy_psoc4_sarmux_8__CH_9_PIN
ARM GAS  C:\Users\ADMINI~1\AppData\Local\Temp\ccSOxefd.s 			page 5


 138:.\Generated_Source\PSoC4/ADC_SAR_Seq.c ****             #endif /* End ADC_SAR_Seq_TOTAL_CHANNELS_NUM > 9u */
 139:.\Generated_Source\PSoC4/ADC_SAR_Seq.c ****             #if(ADC_SAR_Seq_TOTAL_CHANNELS_NUM > 10u)
 140:.\Generated_Source\PSoC4/ADC_SAR_Seq.c ****                 ,(uint8)(ADC_SAR_Seq_cy_psoc4_sarmux_8__CH_10_PORT << 4u) |
 141:.\Generated_Source\PSoC4/ADC_SAR_Seq.c ****                  (uint8)ADC_SAR_Seq_cy_psoc4_sarmux_8__CH_10_PIN
 142:.\Generated_Source\PSoC4/ADC_SAR_Seq.c ****             #endif /* End ADC_SAR_Seq_TOTAL_CHANNELS_NUM > 10u */
 143:.\Generated_Source\PSoC4/ADC_SAR_Seq.c ****             #if(ADC_SAR_Seq_TOTAL_CHANNELS_NUM > 11u)
 144:.\Generated_Source\PSoC4/ADC_SAR_Seq.c ****                 ,(uint8)(ADC_SAR_Seq_cy_psoc4_sarmux_8__CH_11_PORT << 4u) |
 145:.\Generated_Source\PSoC4/ADC_SAR_Seq.c ****                  (uint8)ADC_SAR_Seq_cy_psoc4_sarmux_8__CH_11_PIN
 146:.\Generated_Source\PSoC4/ADC_SAR_Seq.c ****             #endif /* End ADC_SAR_Seq_TOTAL_CHANNELS_NUM > 11u */
 147:.\Generated_Source\PSoC4/ADC_SAR_Seq.c ****             #if(ADC_SAR_Seq_TOTAL_CHANNELS_NUM > 12u)
 148:.\Generated_Source\PSoC4/ADC_SAR_Seq.c ****                 ,(uint8)(ADC_SAR_Seq_cy_psoc4_sarmux_8__CH_12_PORT << 4u) |
 149:.\Generated_Source\PSoC4/ADC_SAR_Seq.c ****                  (uint8)ADC_SAR_Seq_cy_psoc4_sarmux_8__CH_12_PIN
 150:.\Generated_Source\PSoC4/ADC_SAR_Seq.c ****             #endif /* End ADC_SAR_Seq_TOTAL_CHANNELS_NUM > 12u */
 151:.\Generated_Source\PSoC4/ADC_SAR_Seq.c ****             #if(ADC_SAR_Seq_TOTAL_CHANNELS_NUM > 13u)
 152:.\Generated_Source\PSoC4/ADC_SAR_Seq.c ****                 ,(uint8)(ADC_SAR_Seq_cy_psoc4_sarmux_8__CH_13_PORT << 4u) |
 153:.\Generated_Source\PSoC4/ADC_SAR_Seq.c ****                  (uint8)ADC_SAR_Seq_cy_psoc4_sarmux_8__CH_13_PIN
 154:.\Generated_Source\PSoC4/ADC_SAR_Seq.c ****             #endif /* End ADC_SAR_Seq_TOTAL_CHANNELS_NUM > 13u */
 155:.\Generated_Source\PSoC4/ADC_SAR_Seq.c ****             #if(ADC_SAR_Seq_TOTAL_CHANNELS_NUM > 14u)
 156:.\Generated_Source\PSoC4/ADC_SAR_Seq.c ****                 ,(uint8)(ADC_SAR_Seq_cy_psoc4_sarmux_8__CH_14_PORT << 4u) |
 157:.\Generated_Source\PSoC4/ADC_SAR_Seq.c ****                  (uint8)ADC_SAR_Seq_cy_psoc4_sarmux_8__CH_14_PIN
 158:.\Generated_Source\PSoC4/ADC_SAR_Seq.c ****             #endif /* End ADC_SAR_Seq_TOTAL_CHANNELS_NUM > 14u */
 159:.\Generated_Source\PSoC4/ADC_SAR_Seq.c ****             #if(ADC_SAR_Seq_TOTAL_CHANNELS_NUM > 15u)
 160:.\Generated_Source\PSoC4/ADC_SAR_Seq.c ****                 ,(uint8)(ADC_SAR_Seq_cy_psoc4_sarmux_8__CH_15_PORT << 4u) |
 161:.\Generated_Source\PSoC4/ADC_SAR_Seq.c ****                  (uint8)ADC_SAR_Seq_cy_psoc4_sarmux_8__CH_15_PIN
 162:.\Generated_Source\PSoC4/ADC_SAR_Seq.c ****             #endif /* End ADC_SAR_Seq_TOTAL_CHANNELS_NUM > 15u */
 163:.\Generated_Source\PSoC4/ADC_SAR_Seq.c ****             #if(ADC_SAR_Seq_TOTAL_CHANNELS_NUM > 16u)
 164:.\Generated_Source\PSoC4/ADC_SAR_Seq.c ****                 ,(uint8)(ADC_SAR_Seq_cy_psoc4_sarmux_8__CH_16_PORT << 4u) |
 165:.\Generated_Source\PSoC4/ADC_SAR_Seq.c ****                  (uint8)ADC_SAR_Seq_cy_psoc4_sarmux_8__CH_16_PIN
 166:.\Generated_Source\PSoC4/ADC_SAR_Seq.c ****             #endif /* End ADC_SAR_Seq_TOTAL_CHANNELS_NUM > 16u */
 167:.\Generated_Source\PSoC4/ADC_SAR_Seq.c ****         };
 168:.\Generated_Source\PSoC4/ADC_SAR_Seq.c ****     #endif /* End ADC_SAR_Seq_TOTAL_CHANNELS_NUM > 1u */
 169:.\Generated_Source\PSoC4/ADC_SAR_Seq.c **** 
 170:.\Generated_Source\PSoC4/ADC_SAR_Seq.c ****     #if(ADC_SAR_Seq_IRQ_REMOVE == 0u)
 171:.\Generated_Source\PSoC4/ADC_SAR_Seq.c ****         /* Start and set interrupt vector */
 172:.\Generated_Source\PSoC4/ADC_SAR_Seq.c ****         CyIntSetPriority(ADC_SAR_Seq_INTC_NUMBER, ADC_SAR_Seq_INTC_PRIOR_NUMBER);
  92              		.loc 1 172 0
  93 0006 0F20     		mov	r0, #15
  94 0008 0321     		mov	r1, #3
  95 000a FFF7FEFF 		bl	CyIntSetPriority
 173:.\Generated_Source\PSoC4/ADC_SAR_Seq.c ****         (void)CyIntSetVector(ADC_SAR_Seq_INTC_NUMBER, &ADC_SAR_Seq_ISR);
  96              		.loc 1 173 0
  97 000e 554B     		ldr	r3, .L17
  98 0010 0F20     		mov	r0, #15
  99 0012 191C     		mov	r1, r3
 100 0014 FFF7FEFF 		bl	CyIntSetVector
 174:.\Generated_Source\PSoC4/ADC_SAR_Seq.c ****     #endif   /* End ADC_SAR_Seq_IRQ_REMOVE */
 175:.\Generated_Source\PSoC4/ADC_SAR_Seq.c **** 
 176:.\Generated_Source\PSoC4/ADC_SAR_Seq.c ****     /* Init SAR and MUX registers */
 177:.\Generated_Source\PSoC4/ADC_SAR_Seq.c ****     ADC_SAR_Seq_SAR_CHAN_EN_REG = ADC_SAR_Seq_DEFAULT_EN_CHANNELS;
 101              		.loc 1 177 0
 102 0018 534B     		ldr	r3, .L17+4
 103 001a 0122     		mov	r2, #1
 104 001c 1A60     		str	r2, [r3]
 178:.\Generated_Source\PSoC4/ADC_SAR_Seq.c ****     ADC_SAR_Seq_SAR_CTRL_REG |= ADC_SAR_Seq_DEFAULT_CTRL_REG_CFG | 
 179:.\Generated_Source\PSoC4/ADC_SAR_Seq.c ****         /* Enable the SAR internal pump when global pump is enabled */
 180:.\Generated_Source\PSoC4/ADC_SAR_Seq.c ****         (((ADC_SAR_Seq_PUMP_CTRL_REG & ADC_SAR_Seq_PUMP_CTRL_ENABLED) != 0u) ? 
 105              		.loc 1 180 0
ARM GAS  C:\Users\ADMINI~1\AppData\Local\Temp\ccSOxefd.s 			page 6


 106 001e 534B     		ldr	r3, .L17+8
 107 0020 1B68     		ldr	r3, [r3]
 178:.\Generated_Source\PSoC4/ADC_SAR_Seq.c ****     ADC_SAR_Seq_SAR_CTRL_REG |= ADC_SAR_Seq_DEFAULT_CTRL_REG_CFG | 
 108              		.loc 1 178 0
 109 0022 002B     		cmp	r3, #0
 110 0024 01DA     		bge	.L6
 178:.\Generated_Source\PSoC4/ADC_SAR_Seq.c ****     ADC_SAR_Seq_SAR_CTRL_REG |= ADC_SAR_Seq_DEFAULT_CTRL_REG_CFG | 
 111              		.loc 1 178 0 is_stmt 0 discriminator 1
 112 0026 5249     		ldr	r1, .L17+12
 113 0028 00E0     		b	.L7
 114              	.L6:
 178:.\Generated_Source\PSoC4/ADC_SAR_Seq.c ****     ADC_SAR_Seq_SAR_CTRL_REG |= ADC_SAR_Seq_DEFAULT_CTRL_REG_CFG | 
 115              		.loc 1 178 0 discriminator 2
 116 002a 5249     		ldr	r1, .L17+16
 117              	.L7:
 178:.\Generated_Source\PSoC4/ADC_SAR_Seq.c ****     ADC_SAR_Seq_SAR_CTRL_REG |= ADC_SAR_Seq_DEFAULT_CTRL_REG_CFG | 
 118              		.loc 1 178 0 discriminator 4
 119 002c 524B     		ldr	r3, .L17+20
 120 002e 524A     		ldr	r2, .L17+20
 121 0030 1268     		ldr	r2, [r2]
 122 0032 0A43     		orr	r2, r1
 123 0034 1A60     		str	r2, [r3]
 181:.\Generated_Source\PSoC4/ADC_SAR_Seq.c ****         ADC_SAR_Seq_BOOSTPUMP_EN : 0u);
 182:.\Generated_Source\PSoC4/ADC_SAR_Seq.c ****     ADC_SAR_Seq_SAR_SAMPLE_CTRL_REG = ADC_SAR_Seq_DEFAULT_SAMPLE_CTRL_REG_CFG;
 124              		.loc 1 182 0 is_stmt 1 discriminator 4
 125 0036 514B     		ldr	r3, .L17+24
 126 0038 514A     		ldr	r2, .L17+28
 127 003a 1A60     		str	r2, [r3]
 183:.\Generated_Source\PSoC4/ADC_SAR_Seq.c ****     ADC_SAR_Seq_SAR_RANGE_THRES_REG = ADC_SAR_Seq_DEFAULT_RANGE_THRES_REG_CFG;
 128              		.loc 1 183 0 discriminator 4
 129 003c 514B     		ldr	r3, .L17+32
 130 003e 524A     		ldr	r2, .L17+36
 131 0040 1A60     		str	r2, [r3]
 184:.\Generated_Source\PSoC4/ADC_SAR_Seq.c ****     ADC_SAR_Seq_SAR_RANGE_COND_REG  = ADC_SAR_Seq_COMPARE_MODE;
 132              		.loc 1 184 0 discriminator 4
 133 0042 524B     		ldr	r3, .L17+40
 134 0044 0022     		mov	r2, #0
 135 0046 1A60     		str	r2, [r3]
 185:.\Generated_Source\PSoC4/ADC_SAR_Seq.c ****     ADC_SAR_Seq_SAR_SAMPLE_TIME01_REG = ADC_SAR_Seq_DEFAULT_SAMPLE_TIME01_REG_CFG;
 136              		.loc 1 185 0 discriminator 4
 137 0048 514B     		ldr	r3, .L17+44
 138 004a 524A     		ldr	r2, .L17+48
 139 004c 1A60     		str	r2, [r3]
 186:.\Generated_Source\PSoC4/ADC_SAR_Seq.c ****     ADC_SAR_Seq_SAR_SAMPLE_TIME23_REG = ADC_SAR_Seq_DEFAULT_SAMPLE_TIME23_REG_CFG;
 140              		.loc 1 186 0 discriminator 4
 141 004e 524B     		ldr	r3, .L17+52
 142 0050 504A     		ldr	r2, .L17+48
 143 0052 1A60     		str	r2, [r3]
 187:.\Generated_Source\PSoC4/ADC_SAR_Seq.c ****     
 188:.\Generated_Source\PSoC4/ADC_SAR_Seq.c ****     /* Connect Vm to VSSA when even one channel is single-ended or multiple channels configured */
 189:.\Generated_Source\PSoC4/ADC_SAR_Seq.c ****     #if(ADC_SAR_Seq_DEFAULT_MUX_SWITCH0 != 0u)
 190:.\Generated_Source\PSoC4/ADC_SAR_Seq.c ****         ADC_SAR_Seq_MUX_SWITCH0_REG |= ADC_SAR_Seq_DEFAULT_MUX_SWITCH0;
 191:.\Generated_Source\PSoC4/ADC_SAR_Seq.c ****         /* Set MUX_HW_CTRL_VSSA in MUX_SWITCH_HW_CTRL when multiple channels enabled */
 192:.\Generated_Source\PSoC4/ADC_SAR_Seq.c ****         #if(ADC_SAR_Seq_TOTAL_CHANNELS_NUM > 1u)
 193:.\Generated_Source\PSoC4/ADC_SAR_Seq.c ****             ADC_SAR_Seq_MUX_SWITCH_HW_CTRL_REG |= ADC_SAR_Seq_DEFAULT_MUX_SWITCH0;
 194:.\Generated_Source\PSoC4/ADC_SAR_Seq.c ****         #endif /* ADC_SAR_Seq_TOTAL_CHANNELS_NUM > 1u */
 195:.\Generated_Source\PSoC4/ADC_SAR_Seq.c ****     #endif /*ADC_SAR_Seq_CHANNELS_MODE !=0 */
ARM GAS  C:\Users\ADMINI~1\AppData\Local\Temp\ccSOxefd.s 			page 7


 196:.\Generated_Source\PSoC4/ADC_SAR_Seq.c **** 
 197:.\Generated_Source\PSoC4/ADC_SAR_Seq.c ****     ADC_SAR_Seq_SAR_SATURATE_INTR_MASK_REG = 0u;
 144              		.loc 1 197 0 discriminator 4
 145 0054 514B     		ldr	r3, .L17+56
 146 0056 0022     		mov	r2, #0
 147 0058 1A60     		str	r2, [r3]
 198:.\Generated_Source\PSoC4/ADC_SAR_Seq.c ****     ADC_SAR_Seq_SAR_RANGE_INTR_MASK_REG = 0u;
 148              		.loc 1 198 0 discriminator 4
 149 005a 514B     		ldr	r3, .L17+60
 150 005c 0022     		mov	r2, #0
 151 005e 1A60     		str	r2, [r3]
 199:.\Generated_Source\PSoC4/ADC_SAR_Seq.c ****     ADC_SAR_Seq_SAR_INTR_MASK_REG = ADC_SAR_Seq_SAR_INTR_MASK;
 152              		.loc 1 199 0 discriminator 4
 153 0060 504B     		ldr	r3, .L17+64
 154 0062 0122     		mov	r2, #1
 155 0064 1A60     		str	r2, [r3]
 200:.\Generated_Source\PSoC4/ADC_SAR_Seq.c **** 
 201:.\Generated_Source\PSoC4/ADC_SAR_Seq.c ****     #if(ADC_SAR_Seq_CY_SAR_IP_VER == ADC_SAR_Seq_CY_SAR_IP_VER0)
 202:.\Generated_Source\PSoC4/ADC_SAR_Seq.c ****         ADC_SAR_Seq_ANA_TRIM_REG = ADC_SAR_Seq_TRIM_COEF;
 203:.\Generated_Source\PSoC4/ADC_SAR_Seq.c ****     #endif /* (ADC_SAR_Seq_CY_SAR_IP_VER == ADC_SAR_Seq_CY_SAR_IP_VER0) */
 204:.\Generated_Source\PSoC4/ADC_SAR_Seq.c **** 
 205:.\Generated_Source\PSoC4/ADC_SAR_Seq.c ****     /* Read and modify default configuration based on characterization */
 206:.\Generated_Source\PSoC4/ADC_SAR_Seq.c ****     tmpRegVal = ADC_SAR_Seq_SAR_DFT_CTRL_REG;
 156              		.loc 1 206 0 discriminator 4
 157 0066 504B     		ldr	r3, .L17+68
 158 0068 1B68     		ldr	r3, [r3]
 159 006a 7B60     		str	r3, [r7, #4]
 207:.\Generated_Source\PSoC4/ADC_SAR_Seq.c ****     tmpRegVal &= (uint32)~ADC_SAR_Seq_DCEN;
 160              		.loc 1 207 0 discriminator 4
 161 006c 7B68     		ldr	r3, [r7, #4]
 162 006e 4F4A     		ldr	r2, .L17+72
 163 0070 1340     		and	r3, r2
 164 0072 7B60     		str	r3, [r7, #4]
 208:.\Generated_Source\PSoC4/ADC_SAR_Seq.c ****     
 209:.\Generated_Source\PSoC4/ADC_SAR_Seq.c ****     #if(ADC_SAR_Seq_CY_SAR_IP_VER == ADC_SAR_Seq_CY_SAR_IP_VER0)
 210:.\Generated_Source\PSoC4/ADC_SAR_Seq.c ****         #if(ADC_SAR_Seq_NOMINAL_CLOCK_FREQ > (ADC_SAR_Seq_MAX_FREQUENCY / 2))
 211:.\Generated_Source\PSoC4/ADC_SAR_Seq.c ****             tmpRegVal |= ADC_SAR_Seq_SEL_CSEL_DFT_CHAR;
 212:.\Generated_Source\PSoC4/ADC_SAR_Seq.c ****         #else  /* clock speed < 9 Mhz */
 213:.\Generated_Source\PSoC4/ADC_SAR_Seq.c ****             tmpRegVal |= ADC_SAR_Seq_DLY_INC;
 214:.\Generated_Source\PSoC4/ADC_SAR_Seq.c ****         #endif /* clock speed > 9 Mhz */
 215:.\Generated_Source\PSoC4/ADC_SAR_Seq.c ****     #else
 216:.\Generated_Source\PSoC4/ADC_SAR_Seq.c ****         #if ((ADC_SAR_Seq_DEFAULT_VREF_SEL == ADC_SAR_Seq__INTERNAL1024) || \
 217:.\Generated_Source\PSoC4/ADC_SAR_Seq.c ****              (ADC_SAR_Seq_DEFAULT_VREF_SEL == ADC_SAR_Seq__INTERNALVREF))
 218:.\Generated_Source\PSoC4/ADC_SAR_Seq.c ****             tmpRegVal |= ADC_SAR_Seq_DLY_INC;
 219:.\Generated_Source\PSoC4/ADC_SAR_Seq.c ****         #else
 220:.\Generated_Source\PSoC4/ADC_SAR_Seq.c ****             tmpRegVal |= ADC_SAR_Seq_DCEN;
 165              		.loc 1 220 0 discriminator 4
 166 0074 7B68     		ldr	r3, [r7, #4]
 167 0076 8022     		mov	r2, #128
 168 0078 9205     		lsl	r2, r2, #22
 169 007a 1343     		orr	r3, r2
 170 007c 7B60     		str	r3, [r7, #4]
 221:.\Generated_Source\PSoC4/ADC_SAR_Seq.c ****             tmpRegVal &= (uint32)~ADC_SAR_Seq_DLY_INC;
 171              		.loc 1 221 0 discriminator 4
 172 007e 7B68     		ldr	r3, [r7, #4]
 173 0080 0122     		mov	r2, #1
 174 0082 9343     		bic	r3, r2
ARM GAS  C:\Users\ADMINI~1\AppData\Local\Temp\ccSOxefd.s 			page 8


 175 0084 7B60     		str	r3, [r7, #4]
 222:.\Generated_Source\PSoC4/ADC_SAR_Seq.c ****         #endif /* ((ADC_SAR_Seq_DEFAULT_VREF_SEL == ADC_SAR_Seq__INTERNAL1024) || \
 223:.\Generated_Source\PSoC4/ADC_SAR_Seq.c ****                    (ADC_SAR_Seq_DEFAULT_VREF_SEL == ADC_SAR_Seq__INTERNALVREF)) */
 224:.\Generated_Source\PSoC4/ADC_SAR_Seq.c ****     #endif /* (ADC_SAR_Seq_CY_SAR_IP_VER == ADC_SAR_Seq_CY_SAR_IP_VER0) */
 225:.\Generated_Source\PSoC4/ADC_SAR_Seq.c ****     
 226:.\Generated_Source\PSoC4/ADC_SAR_Seq.c ****     ADC_SAR_Seq_SAR_DFT_CTRL_REG = tmpRegVal;
 176              		.loc 1 226 0 discriminator 4
 177 0086 484B     		ldr	r3, .L17+68
 178 0088 7A68     		ldr	r2, [r7, #4]
 179 008a 1A60     		str	r2, [r3]
 227:.\Generated_Source\PSoC4/ADC_SAR_Seq.c **** 
 228:.\Generated_Source\PSoC4/ADC_SAR_Seq.c ****     #if(ADC_SAR_Seq_MAX_RESOLUTION != ADC_SAR_Seq_RESOLUTION_12)
 229:.\Generated_Source\PSoC4/ADC_SAR_Seq.c ****         ADC_SAR_Seq_WOUNDING_REG = ADC_SAR_Seq_ALT_WOUNDING;
 230:.\Generated_Source\PSoC4/ADC_SAR_Seq.c ****     #endif /* ADC_SAR_Seq_MAX_RESOLUTION != ADC_SAR_Seq_RESOLUTION_12 */
 231:.\Generated_Source\PSoC4/ADC_SAR_Seq.c **** 
 232:.\Generated_Source\PSoC4/ADC_SAR_Seq.c ****     for(chNum = 0u; chNum < ADC_SAR_Seq_TOTAL_CHANNELS_NUM; chNum++)
 180              		.loc 1 232 0 discriminator 4
 181 008c 0023     		mov	r3, #0
 182 008e FB60     		str	r3, [r7, #12]
 183 0090 61E0     		b	.L8
 184              	.L16:
 233:.\Generated_Source\PSoC4/ADC_SAR_Seq.c ****     {
 234:.\Generated_Source\PSoC4/ADC_SAR_Seq.c ****         tmpRegVal = (ADC_SAR_Seq_channelsConfig[chNum] & ADC_SAR_Seq_CHANNEL_CONFIG_MASK);
 185              		.loc 1 234 0
 186 0092 8023     		mov	r3, #128
 187 0094 5A00     		lsl	r2, r3, #1
 188 0096 DC23     		mov	r3, #220
 189 0098 9B01     		lsl	r3, r3, #6
 190 009a 1340     		and	r3, r2
 191 009c 7B60     		str	r3, [r7, #4]
 235:.\Generated_Source\PSoC4/ADC_SAR_Seq.c ****         #if(ADC_SAR_Seq_TOTAL_CHANNELS_NUM > 1u)
 236:.\Generated_Source\PSoC4/ADC_SAR_Seq.c ****             tmpRegVal |= ADC_SAR_Seq_InputsPlacement[chNum];
 237:.\Generated_Source\PSoC4/ADC_SAR_Seq.c ****         #endif /* End ADC_SAR_Seq_TOTAL_CHANNELS_NUM > 1u */
 238:.\Generated_Source\PSoC4/ADC_SAR_Seq.c ****         
 239:.\Generated_Source\PSoC4/ADC_SAR_Seq.c ****         
 240:.\Generated_Source\PSoC4/ADC_SAR_Seq.c ****         /* When the part is limited to 10-bit then the SUB_RESOLUTION bit
 241:.\Generated_Source\PSoC4/ADC_SAR_Seq.c ****         *  will be ignored and the RESOLUTION bit selects between 10-bit
 242:.\Generated_Source\PSoC4/ADC_SAR_Seq.c ****         *  (0) and 8-bit (1) resolution.
 243:.\Generated_Source\PSoC4/ADC_SAR_Seq.c ****         */
 244:.\Generated_Source\PSoC4/ADC_SAR_Seq.c ****         #if((ADC_SAR_Seq_MAX_RESOLUTION != ADC_SAR_Seq_RESOLUTION_12) && \
 245:.\Generated_Source\PSoC4/ADC_SAR_Seq.c ****             (ADC_SAR_Seq_ALT_WOUNDING == ADC_SAR_Seq_WOUNDING_10BIT))
 246:.\Generated_Source\PSoC4/ADC_SAR_Seq.c ****             tmpRegVal &= (uint32)(~ADC_SAR_Seq_ALT_RESOLUTION_ON);
 247:.\Generated_Source\PSoC4/ADC_SAR_Seq.c ****         #endif /* ADC_SAR_Seq_MAX_RESOLUTION != ADC_SAR_Seq_RESOLUTION_12 */
 248:.\Generated_Source\PSoC4/ADC_SAR_Seq.c **** 
 249:.\Generated_Source\PSoC4/ADC_SAR_Seq.c ****         #if(ADC_SAR_Seq_INJ_CHANNEL_ENABLED)
 250:.\Generated_Source\PSoC4/ADC_SAR_Seq.c ****         if(chNum < ADC_SAR_Seq_SEQUENCED_CHANNELS_NUM)
 251:.\Generated_Source\PSoC4/ADC_SAR_Seq.c ****         #endif /* ADC_SAR_Seq_INJ_CHANNEL_ENABLED */
 252:.\Generated_Source\PSoC4/ADC_SAR_Seq.c ****         {
 253:.\Generated_Source\PSoC4/ADC_SAR_Seq.c ****             CY_SET_REG32((reg32 *)(ADC_SAR_Seq_SAR_CHAN_CONFIG_IND + (uint32)(chNum << 2)), tmpRegV
 192              		.loc 1 253 0
 193 009e FB68     		ldr	r3, [r7, #12]
 194 00a0 9B00     		lsl	r3, r3, #2
 195 00a2 434A     		ldr	r2, .L17+76
 196 00a4 9446     		mov	ip, r2
 197 00a6 6344     		add	r3, r3, ip
 198 00a8 7A68     		ldr	r2, [r7, #4]
 199 00aa 1A60     		str	r2, [r3]
ARM GAS  C:\Users\ADMINI~1\AppData\Local\Temp\ccSOxefd.s 			page 9


 254:.\Generated_Source\PSoC4/ADC_SAR_Seq.c **** 
 255:.\Generated_Source\PSoC4/ADC_SAR_Seq.c ****             if((ADC_SAR_Seq_channelsConfig[chNum] & ADC_SAR_Seq_IS_SATURATE_EN_MASK) != 0u)
 200              		.loc 1 255 0
 201 00ac 8023     		mov	r3, #128
 202 00ae 5B00     		lsl	r3, r3, #1
 203 00b0 0122     		mov	r2, #1
 204 00b2 1340     		and	r3, r2
 205 00b4 09D0     		beq	.L9
 256:.\Generated_Source\PSoC4/ADC_SAR_Seq.c ****             {
 257:.\Generated_Source\PSoC4/ADC_SAR_Seq.c ****                 ADC_SAR_Seq_SAR_SATURATE_INTR_MASK_REG |= (uint16)((uint16)1 << chNum);
 206              		.loc 1 257 0
 207 00b6 394B     		ldr	r3, .L17+56
 208 00b8 384A     		ldr	r2, .L17+56
 209 00ba 1268     		ldr	r2, [r2]
 210 00bc F968     		ldr	r1, [r7, #12]
 211 00be 0120     		mov	r0, #1
 212 00c0 8840     		lsl	r0, r0, r1
 213 00c2 011C     		mov	r1, r0
 214 00c4 89B2     		uxth	r1, r1
 215 00c6 0A43     		orr	r2, r1
 216 00c8 1A60     		str	r2, [r3]
 217              	.L9:
 258:.\Generated_Source\PSoC4/ADC_SAR_Seq.c ****             }
 259:.\Generated_Source\PSoC4/ADC_SAR_Seq.c **** 
 260:.\Generated_Source\PSoC4/ADC_SAR_Seq.c ****             if((ADC_SAR_Seq_channelsConfig[chNum] & ADC_SAR_Seq_IS_RANGE_CTRL_EN_MASK) != 0u)
 218              		.loc 1 260 0
 219 00ca 8023     		mov	r3, #128
 220 00cc 5B00     		lsl	r3, r3, #1
 221 00ce 0222     		mov	r2, #2
 222 00d0 1340     		and	r3, r2
 223 00d2 09D0     		beq	.L10
 261:.\Generated_Source\PSoC4/ADC_SAR_Seq.c ****             {
 262:.\Generated_Source\PSoC4/ADC_SAR_Seq.c ****                 ADC_SAR_Seq_SAR_RANGE_INTR_MASK_REG |= (uint16)((uint16)1 << chNum);
 224              		.loc 1 262 0
 225 00d4 324B     		ldr	r3, .L17+60
 226 00d6 324A     		ldr	r2, .L17+60
 227 00d8 1268     		ldr	r2, [r2]
 228 00da F968     		ldr	r1, [r7, #12]
 229 00dc 0120     		mov	r0, #1
 230 00de 8840     		lsl	r0, r0, r1
 231 00e0 011C     		mov	r1, r0
 232 00e2 89B2     		uxth	r1, r1
 233 00e4 0A43     		orr	r2, r1
 234 00e6 1A60     		str	r2, [r3]
 235              	.L10:
 263:.\Generated_Source\PSoC4/ADC_SAR_Seq.c ****             }
 264:.\Generated_Source\PSoC4/ADC_SAR_Seq.c ****         }
 265:.\Generated_Source\PSoC4/ADC_SAR_Seq.c ****         #if(ADC_SAR_Seq_INJ_CHANNEL_ENABLED)
 266:.\Generated_Source\PSoC4/ADC_SAR_Seq.c ****             else
 267:.\Generated_Source\PSoC4/ADC_SAR_Seq.c ****             {
 268:.\Generated_Source\PSoC4/ADC_SAR_Seq.c ****                 CY_SET_REG32(ADC_SAR_Seq_SAR_INJ_CHAN_CONFIG_PTR, tmpRegVal | ADC_SAR_Seq_INJ_TAILG
 269:.\Generated_Source\PSoC4/ADC_SAR_Seq.c **** 
 270:.\Generated_Source\PSoC4/ADC_SAR_Seq.c ****                 if((ADC_SAR_Seq_channelsConfig[chNum] & ADC_SAR_Seq_IS_SATURATE_EN_MASK) != 0u)
 271:.\Generated_Source\PSoC4/ADC_SAR_Seq.c ****                 {
 272:.\Generated_Source\PSoC4/ADC_SAR_Seq.c ****                     ADC_SAR_Seq_SAR_INTR_MASK_REG |= ADC_SAR_Seq_INJ_SATURATE_MASK;
 273:.\Generated_Source\PSoC4/ADC_SAR_Seq.c ****                 }
 274:.\Generated_Source\PSoC4/ADC_SAR_Seq.c **** 
ARM GAS  C:\Users\ADMINI~1\AppData\Local\Temp\ccSOxefd.s 			page 10


 275:.\Generated_Source\PSoC4/ADC_SAR_Seq.c ****                 if((ADC_SAR_Seq_channelsConfig[chNum] & ADC_SAR_Seq_IS_RANGE_CTRL_EN_MASK) != 0u)
 276:.\Generated_Source\PSoC4/ADC_SAR_Seq.c ****                 {
 277:.\Generated_Source\PSoC4/ADC_SAR_Seq.c ****                     ADC_SAR_Seq_SAR_INTR_MASK_REG |= ADC_SAR_Seq_INJ_RANGE_MASK;
 278:.\Generated_Source\PSoC4/ADC_SAR_Seq.c ****                 }
 279:.\Generated_Source\PSoC4/ADC_SAR_Seq.c ****             }
 280:.\Generated_Source\PSoC4/ADC_SAR_Seq.c ****         #endif /* ADC_SAR_Seq_INJ_CHANNEL_ENABLED */
 281:.\Generated_Source\PSoC4/ADC_SAR_Seq.c **** 
 282:.\Generated_Source\PSoC4/ADC_SAR_Seq.c ****         if((ADC_SAR_Seq_channelsConfig[chNum] & ADC_SAR_Seq_ALT_RESOLUTION_ON) != 0u)
 236              		.loc 1 282 0
 237 00e8 8023     		mov	r3, #128
 238 00ea 5A00     		lsl	r2, r3, #1
 239 00ec 8023     		mov	r3, #128
 240 00ee 9B00     		lsl	r3, r3, #2
 241 00f0 1340     		and	r3, r2
 242 00f2 03D0     		beq	.L11
 283:.\Generated_Source\PSoC4/ADC_SAR_Seq.c ****         {
 284:.\Generated_Source\PSoC4/ADC_SAR_Seq.c ****                counts = (int32)ADC_SAR_Seq_DEFAULT_MAX_WRK_ALT;
 243              		.loc 1 284 0
 244 00f4 8023     		mov	r3, #128
 245 00f6 5B00     		lsl	r3, r3, #1
 246 00f8 BB60     		str	r3, [r7, #8]
 247 00fa 02E0     		b	.L12
 248              	.L11:
 285:.\Generated_Source\PSoC4/ADC_SAR_Seq.c ****         }
 286:.\Generated_Source\PSoC4/ADC_SAR_Seq.c ****         else
 287:.\Generated_Source\PSoC4/ADC_SAR_Seq.c ****         {
 288:.\Generated_Source\PSoC4/ADC_SAR_Seq.c ****                counts = (int32)ADC_SAR_Seq_SAR_WRK_MAX_12BIT;
 249              		.loc 1 288 0
 250 00fc 8023     		mov	r3, #128
 251 00fe 5B01     		lsl	r3, r3, #5
 252 0100 BB60     		str	r3, [r7, #8]
 253              	.L12:
 289:.\Generated_Source\PSoC4/ADC_SAR_Seq.c ****         }
 290:.\Generated_Source\PSoC4/ADC_SAR_Seq.c **** 
 291:.\Generated_Source\PSoC4/ADC_SAR_Seq.c ****         if((ADC_SAR_Seq_channelsConfig[chNum] & ADC_SAR_Seq_DIFFERENTIAL_EN) == 0u)
 254              		.loc 1 291 0
 255 0102 8023     		mov	r3, #128
 256 0104 5A00     		lsl	r2, r3, #1
 257 0106 8023     		mov	r3, #128
 258 0108 5B00     		lsl	r3, r3, #1
 259 010a 1340     		and	r3, r2
 260 010c 05D1     		bne	.L13
 292:.\Generated_Source\PSoC4/ADC_SAR_Seq.c ****         {
 293:.\Generated_Source\PSoC4/ADC_SAR_Seq.c ****             #if((ADC_SAR_Seq_DEFAULT_SE_RESULT_FORMAT_SEL == ADC_SAR_Seq__FSIGNED) && \
 294:.\Generated_Source\PSoC4/ADC_SAR_Seq.c ****                 (ADC_SAR_Seq_DEFAULT_NEG_INPUT_SEL == ADC_SAR_Seq__VREF))
 295:.\Generated_Source\PSoC4/ADC_SAR_Seq.c ****                 /* Set offset to the minus half scale to convert results to unsigned format */
 296:.\Generated_Source\PSoC4/ADC_SAR_Seq.c ****                 ADC_SAR_Seq_offset[chNum] = (int16)(counts / -2);
 297:.\Generated_Source\PSoC4/ADC_SAR_Seq.c ****             #else
 298:.\Generated_Source\PSoC4/ADC_SAR_Seq.c ****                 ADC_SAR_Seq_offset[chNum] = 0;
 261              		.loc 1 298 0
 262 010e 294B     		ldr	r3, .L17+80
 263 0110 FA68     		ldr	r2, [r7, #12]
 264 0112 5200     		lsl	r2, r2, #1
 265 0114 0021     		mov	r1, #0
 266 0116 D152     		strh	r1, [r2, r3]
 267 0118 09E0     		b	.L14
 268              	.L13:
ARM GAS  C:\Users\ADMINI~1\AppData\Local\Temp\ccSOxefd.s 			page 11


 299:.\Generated_Source\PSoC4/ADC_SAR_Seq.c ****             #endif /* end DEFAULT_SE_RESULT_FORMAT_SEL == ADC_SAR_Seq__FSIGNED */
 300:.\Generated_Source\PSoC4/ADC_SAR_Seq.c ****         }
 301:.\Generated_Source\PSoC4/ADC_SAR_Seq.c ****         else    /* Differential channel */
 302:.\Generated_Source\PSoC4/ADC_SAR_Seq.c ****         {
 303:.\Generated_Source\PSoC4/ADC_SAR_Seq.c ****             #if(ADC_SAR_Seq_DEFAULT_DIFF_RESULT_FORMAT_SEL == ADC_SAR_Seq__FUNSIGNED)
 304:.\Generated_Source\PSoC4/ADC_SAR_Seq.c ****                 /* Set offset to the half scale to convert results to signed format */
 305:.\Generated_Source\PSoC4/ADC_SAR_Seq.c ****                 ADC_SAR_Seq_offset[chNum] = (int16)(counts / 2);
 269              		.loc 1 305 0
 270 011a BB68     		ldr	r3, [r7, #8]
 271 011c 002B     		cmp	r3, #0
 272 011e 00DA     		bge	.L15
 273 0120 0133     		add	r3, r3, #1
 274              	.L15:
 275 0122 5B10     		asr	r3, r3, #1
 276 0124 99B2     		uxth	r1, r3
 277 0126 234B     		ldr	r3, .L17+80
 278 0128 FA68     		ldr	r2, [r7, #12]
 279 012a 5200     		lsl	r2, r2, #1
 280 012c D152     		strh	r1, [r2, r3]
 281              	.L14:
 306:.\Generated_Source\PSoC4/ADC_SAR_Seq.c ****             #else
 307:.\Generated_Source\PSoC4/ADC_SAR_Seq.c ****                 ADC_SAR_Seq_offset[chNum] = 0;
 308:.\Generated_Source\PSoC4/ADC_SAR_Seq.c ****             #endif /* end ADC_SAR_Seq_DEFAULT_DIFF_RESULT_FORMAT_SEL == ADC_SAR_Seq__FUNSIGNED */
 309:.\Generated_Source\PSoC4/ADC_SAR_Seq.c ****         }
 310:.\Generated_Source\PSoC4/ADC_SAR_Seq.c ****         /* Calculate gain in counts per 10 volts with rounding */
 311:.\Generated_Source\PSoC4/ADC_SAR_Seq.c ****         ADC_SAR_Seq_countsPer10Volt[chNum] = (int16)(((counts * ADC_SAR_Seq_10MV_COUNTS) +
 282              		.loc 1 311 0 discriminator 2
 283 012e BB68     		ldr	r3, [r7, #8]
 284 0130 214A     		ldr	r2, .L17+84
 285 0132 5343     		mul	r3, r2
 286 0134 214A     		ldr	r2, .L17+88
 287 0136 9446     		mov	ip, r2
 288 0138 6344     		add	r3, r3, ip
 312:.\Generated_Source\PSoC4/ADC_SAR_Seq.c ****                             ADC_SAR_Seq_DEFAULT_VREF_MV_VALUE) / (ADC_SAR_Seq_DEFAULT_VREF_MV_VALUE
 289              		.loc 1 312 0 discriminator 2
 290 013a 181C     		mov	r0, r3
 291 013c 2049     		ldr	r1, .L17+92
 292 013e FFF7FEFF 		bl	__aeabi_idiv
 293 0142 031C     		mov	r3, r0
 311:.\Generated_Source\PSoC4/ADC_SAR_Seq.c ****                             ADC_SAR_Seq_DEFAULT_VREF_MV_VALUE) / (ADC_SAR_Seq_DEFAULT_VREF_MV_VALUE
 294              		.loc 1 311 0 discriminator 2
 295 0144 9BB2     		uxth	r3, r3
 296 0146 19B2     		sxth	r1, r3
 297 0148 1E4B     		ldr	r3, .L17+96
 298 014a FA68     		ldr	r2, [r7, #12]
 299 014c 9200     		lsl	r2, r2, #2
 300 014e D150     		str	r1, [r2, r3]
 232:.\Generated_Source\PSoC4/ADC_SAR_Seq.c ****     {
 301              		.loc 1 232 0 discriminator 2
 302 0150 FB68     		ldr	r3, [r7, #12]
 303 0152 0133     		add	r3, r3, #1
 304 0154 FB60     		str	r3, [r7, #12]
 305              	.L8:
 232:.\Generated_Source\PSoC4/ADC_SAR_Seq.c ****     {
 306              		.loc 1 232 0 is_stmt 0 discriminator 1
 307 0156 FB68     		ldr	r3, [r7, #12]
 308 0158 002B     		cmp	r3, #0
ARM GAS  C:\Users\ADMINI~1\AppData\Local\Temp\ccSOxefd.s 			page 12


 309 015a 9AD0     		beq	.L16
 313:.\Generated_Source\PSoC4/ADC_SAR_Seq.c ****     }
 314:.\Generated_Source\PSoC4/ADC_SAR_Seq.c **** }
 310              		.loc 1 314 0 is_stmt 1
 311 015c BD46     		mov	sp, r7
 312 015e 04B0     		add	sp, sp, #16
 313              		@ sp needed
 314 0160 80BD     		pop	{r7, pc}
 315              	.L18:
 316 0162 C046     		.align	2
 317              	.L17:
 318 0164 00000000 		.word	ADC_SAR_Seq_ISR
 319 0168 20003A40 		.word	1077542944
 320 016c 80033A40 		.word	1077543808
 321 0170 70021051 		.word	1360003696
 322 0174 70020051 		.word	1358955120
 323 0178 00003A40 		.word	1077542912
 324 017c 04003A40 		.word	1077542916
 325 0180 C4000A80 		.word	-2146828092
 326 0184 18003A40 		.word	1077542936
 327 0188 0000FF07 		.word	134152192
 328 018c 1C003A40 		.word	1077542940
 329 0190 10003A40 		.word	1077542928
 330 0194 04000400 		.word	262148
 331 0198 14003A40 		.word	1077542932
 332 019c 28023A40 		.word	1077543464
 333 01a0 38023A40 		.word	1077543480
 334 01a4 18023A40 		.word	1077543448
 335 01a8 30003A40 		.word	1077542960
 336 01ac FFFFFFDF 		.word	-536870913
 337 01b0 80003A40 		.word	1077543040
 338 01b4 00000000 		.word	ADC_SAR_Seq_offset
 339 01b8 10270000 		.word	10000
 340 01bc E40C0000 		.word	3300
 341 01c0 C8190000 		.word	6600
 342 01c4 00000000 		.word	ADC_SAR_Seq_countsPer10Volt
 343              		.cfi_endproc
 344              	.LFE3:
 345              		.size	ADC_SAR_Seq_Init, .-ADC_SAR_Seq_Init
 346              		.section	.text.ADC_SAR_Seq_Enable,"ax",%progbits
 347              		.align	2
 348              		.global	ADC_SAR_Seq_Enable
 349              		.code	16
 350              		.thumb_func
 351              		.type	ADC_SAR_Seq_Enable, %function
 352              	ADC_SAR_Seq_Enable:
 353              	.LFB4:
 315:.\Generated_Source\PSoC4/ADC_SAR_Seq.c **** 
 316:.\Generated_Source\PSoC4/ADC_SAR_Seq.c **** /*******************************************************************************
 317:.\Generated_Source\PSoC4/ADC_SAR_Seq.c **** * Function Name: ADC_SAR_1_Enable
 318:.\Generated_Source\PSoC4/ADC_SAR_Seq.c **** ********************************************************************************
 319:.\Generated_Source\PSoC4/ADC_SAR_Seq.c **** *
 320:.\Generated_Source\PSoC4/ADC_SAR_Seq.c **** * Summary:
 321:.\Generated_Source\PSoC4/ADC_SAR_Seq.c **** *  Enables the clock and analog power for SAR ADC.
 322:.\Generated_Source\PSoC4/ADC_SAR_Seq.c **** *
 323:.\Generated_Source\PSoC4/ADC_SAR_Seq.c **** * Parameters:
 324:.\Generated_Source\PSoC4/ADC_SAR_Seq.c **** *  None.
ARM GAS  C:\Users\ADMINI~1\AppData\Local\Temp\ccSOxefd.s 			page 13


 325:.\Generated_Source\PSoC4/ADC_SAR_Seq.c **** *
 326:.\Generated_Source\PSoC4/ADC_SAR_Seq.c **** * Return:
 327:.\Generated_Source\PSoC4/ADC_SAR_Seq.c **** *  None.
 328:.\Generated_Source\PSoC4/ADC_SAR_Seq.c **** *
 329:.\Generated_Source\PSoC4/ADC_SAR_Seq.c **** *******************************************************************************/
 330:.\Generated_Source\PSoC4/ADC_SAR_Seq.c **** void ADC_SAR_Seq_Enable(void)
 331:.\Generated_Source\PSoC4/ADC_SAR_Seq.c **** {
 354              		.loc 1 331 0
 355              		.cfi_startproc
 356 0000 80B5     		push	{r7, lr}
 357              		.cfi_def_cfa_offset 8
 358              		.cfi_offset 7, -8
 359              		.cfi_offset 14, -4
 360 0002 00AF     		add	r7, sp, #0
 361              		.cfi_def_cfa_register 7
 332:.\Generated_Source\PSoC4/ADC_SAR_Seq.c ****     if (0u == (ADC_SAR_Seq_SAR_CTRL_REG & ADC_SAR_Seq_ENABLE))
 362              		.loc 1 332 0
 363 0004 0A4B     		ldr	r3, .L22
 364 0006 1B68     		ldr	r3, [r3]
 365 0008 002B     		cmp	r3, #0
 366 000a 0EDB     		blt	.L19
 333:.\Generated_Source\PSoC4/ADC_SAR_Seq.c ****     {
 334:.\Generated_Source\PSoC4/ADC_SAR_Seq.c ****         #if(ADC_SAR_Seq_CY_SAR_IP_VER != ADC_SAR_Seq_CY_SAR_IP_VER0)
 335:.\Generated_Source\PSoC4/ADC_SAR_Seq.c **** 
 336:.\Generated_Source\PSoC4/ADC_SAR_Seq.c ****             while (0u != (ADC_SAR_Seq_SAR_STATUS_REG & ADC_SAR_Seq_STATUS_BUSY))
 367              		.loc 1 336 0
 368 000c C046     		mov	r8, r8
 369              	.L21:
 370              		.loc 1 336 0 is_stmt 0 discriminator 1
 371 000e 094B     		ldr	r3, .L22+4
 372 0010 1B68     		ldr	r3, [r3]
 373 0012 002B     		cmp	r3, #0
 374 0014 FBDB     		blt	.L21
 337:.\Generated_Source\PSoC4/ADC_SAR_Seq.c ****             {
 338:.\Generated_Source\PSoC4/ADC_SAR_Seq.c ****                 /* wait for SAR to go idle to avoid deadlock */
 339:.\Generated_Source\PSoC4/ADC_SAR_Seq.c ****             }
 340:.\Generated_Source\PSoC4/ADC_SAR_Seq.c ****         #endif /* (ADC_SAR_Seq_CY_SAR_IP_VER != ADC_SAR_Seq_CY_SAR_IP_VER0) */
 341:.\Generated_Source\PSoC4/ADC_SAR_Seq.c ****         
 342:.\Generated_Source\PSoC4/ADC_SAR_Seq.c ****         ADC_SAR_Seq_SAR_CTRL_REG |= ADC_SAR_Seq_ENABLE;
 375              		.loc 1 342 0 is_stmt 1
 376 0016 064B     		ldr	r3, .L22
 377 0018 054A     		ldr	r2, .L22
 378 001a 1268     		ldr	r2, [r2]
 379 001c 8021     		mov	r1, #128
 380 001e 0906     		lsl	r1, r1, #24
 381 0020 0A43     		orr	r2, r1
 382 0022 1A60     		str	r2, [r3]
 343:.\Generated_Source\PSoC4/ADC_SAR_Seq.c ****         
 344:.\Generated_Source\PSoC4/ADC_SAR_Seq.c ****         /* The block is ready to use 10 us after the enable signal is set high. */
 345:.\Generated_Source\PSoC4/ADC_SAR_Seq.c ****         CyDelayUs(ADC_SAR_Seq_10US_DELAY);         
 383              		.loc 1 345 0
 384 0024 0A20     		mov	r0, #10
 385 0026 FFF7FEFF 		bl	CyDelayUs
 386              	.L19:
 346:.\Generated_Source\PSoC4/ADC_SAR_Seq.c ****     }
 347:.\Generated_Source\PSoC4/ADC_SAR_Seq.c **** }
 387              		.loc 1 347 0
ARM GAS  C:\Users\ADMINI~1\AppData\Local\Temp\ccSOxefd.s 			page 14


 388 002a BD46     		mov	sp, r7
 389              		@ sp needed
 390 002c 80BD     		pop	{r7, pc}
 391              	.L23:
 392 002e C046     		.align	2
 393              	.L22:
 394 0030 00003A40 		.word	1077542912
 395 0034 08023A40 		.word	1077543432
 396              		.cfi_endproc
 397              	.LFE4:
 398              		.size	ADC_SAR_Seq_Enable, .-ADC_SAR_Seq_Enable
 399              		.section	.text.ADC_SAR_Seq_Stop,"ax",%progbits
 400              		.align	2
 401              		.global	ADC_SAR_Seq_Stop
 402              		.code	16
 403              		.thumb_func
 404              		.type	ADC_SAR_Seq_Stop, %function
 405              	ADC_SAR_Seq_Stop:
 406              	.LFB5:
 348:.\Generated_Source\PSoC4/ADC_SAR_Seq.c **** 
 349:.\Generated_Source\PSoC4/ADC_SAR_Seq.c **** 
 350:.\Generated_Source\PSoC4/ADC_SAR_Seq.c **** /*******************************************************************************
 351:.\Generated_Source\PSoC4/ADC_SAR_Seq.c **** * Function Name: ADC_SAR_Seq_Stop
 352:.\Generated_Source\PSoC4/ADC_SAR_Seq.c **** ********************************************************************************
 353:.\Generated_Source\PSoC4/ADC_SAR_Seq.c **** *
 354:.\Generated_Source\PSoC4/ADC_SAR_Seq.c **** * Summary:
 355:.\Generated_Source\PSoC4/ADC_SAR_Seq.c **** *  This function stops ADC conversions and puts the ADC into its lowest power
 356:.\Generated_Source\PSoC4/ADC_SAR_Seq.c **** *  mode.
 357:.\Generated_Source\PSoC4/ADC_SAR_Seq.c **** *
 358:.\Generated_Source\PSoC4/ADC_SAR_Seq.c **** * Parameters:
 359:.\Generated_Source\PSoC4/ADC_SAR_Seq.c **** *  None.
 360:.\Generated_Source\PSoC4/ADC_SAR_Seq.c **** *
 361:.\Generated_Source\PSoC4/ADC_SAR_Seq.c **** * Return:
 362:.\Generated_Source\PSoC4/ADC_SAR_Seq.c **** *  None.
 363:.\Generated_Source\PSoC4/ADC_SAR_Seq.c **** *
 364:.\Generated_Source\PSoC4/ADC_SAR_Seq.c **** *******************************************************************************/
 365:.\Generated_Source\PSoC4/ADC_SAR_Seq.c **** void ADC_SAR_Seq_Stop(void)
 366:.\Generated_Source\PSoC4/ADC_SAR_Seq.c **** {
 407              		.loc 1 366 0
 408              		.cfi_startproc
 409 0000 80B5     		push	{r7, lr}
 410              		.cfi_def_cfa_offset 8
 411              		.cfi_offset 7, -8
 412              		.cfi_offset 14, -4
 413 0002 00AF     		add	r7, sp, #0
 414              		.cfi_def_cfa_register 7
 367:.\Generated_Source\PSoC4/ADC_SAR_Seq.c ****     ADC_SAR_Seq_SAR_CTRL_REG &= (uint32)~ADC_SAR_Seq_ENABLE;
 415              		.loc 1 367 0
 416 0004 034B     		ldr	r3, .L25
 417 0006 034A     		ldr	r2, .L25
 418 0008 1268     		ldr	r2, [r2]
 419 000a 5200     		lsl	r2, r2, #1
 420 000c 5208     		lsr	r2, r2, #1
 421 000e 1A60     		str	r2, [r3]
 368:.\Generated_Source\PSoC4/ADC_SAR_Seq.c **** }
 422              		.loc 1 368 0
 423 0010 BD46     		mov	sp, r7
ARM GAS  C:\Users\ADMINI~1\AppData\Local\Temp\ccSOxefd.s 			page 15


 424              		@ sp needed
 425 0012 80BD     		pop	{r7, pc}
 426              	.L26:
 427              		.align	2
 428              	.L25:
 429 0014 00003A40 		.word	1077542912
 430              		.cfi_endproc
 431              	.LFE5:
 432              		.size	ADC_SAR_Seq_Stop, .-ADC_SAR_Seq_Stop
 433              		.section	.text.ADC_SAR_Seq_StartConvert,"ax",%progbits
 434              		.align	2
 435              		.global	ADC_SAR_Seq_StartConvert
 436              		.code	16
 437              		.thumb_func
 438              		.type	ADC_SAR_Seq_StartConvert, %function
 439              	ADC_SAR_Seq_StartConvert:
 440              	.LFB6:
 369:.\Generated_Source\PSoC4/ADC_SAR_Seq.c **** 
 370:.\Generated_Source\PSoC4/ADC_SAR_Seq.c **** 
 371:.\Generated_Source\PSoC4/ADC_SAR_Seq.c **** /*******************************************************************************
 372:.\Generated_Source\PSoC4/ADC_SAR_Seq.c **** * Function Name: ADC_SAR_Seq_StartConvert
 373:.\Generated_Source\PSoC4/ADC_SAR_Seq.c **** ********************************************************************************
 374:.\Generated_Source\PSoC4/ADC_SAR_Seq.c **** *
 375:.\Generated_Source\PSoC4/ADC_SAR_Seq.c **** * Summary:
 376:.\Generated_Source\PSoC4/ADC_SAR_Seq.c **** *  Description:
 377:.\Generated_Source\PSoC4/ADC_SAR_Seq.c **** *  For free running mode, this API starts the conversion process and it
 378:.\Generated_Source\PSoC4/ADC_SAR_Seq.c **** *  runs continuously.
 379:.\Generated_Source\PSoC4/ADC_SAR_Seq.c **** *
 380:.\Generated_Source\PSoC4/ADC_SAR_Seq.c **** *  In a triggered mode, this routine triggers every conversion by
 381:.\Generated_Source\PSoC4/ADC_SAR_Seq.c **** *  writing into the FW_TRIGGER bit in SAR_START_CTRL reg. In triggered mode,
 382:.\Generated_Source\PSoC4/ADC_SAR_Seq.c **** *  every conversion has to start by this API.
 383:.\Generated_Source\PSoC4/ADC_SAR_Seq.c **** *
 384:.\Generated_Source\PSoC4/ADC_SAR_Seq.c **** * Parameters:
 385:.\Generated_Source\PSoC4/ADC_SAR_Seq.c **** *  None.
 386:.\Generated_Source\PSoC4/ADC_SAR_Seq.c **** *
 387:.\Generated_Source\PSoC4/ADC_SAR_Seq.c **** * Return:
 388:.\Generated_Source\PSoC4/ADC_SAR_Seq.c **** *  None.
 389:.\Generated_Source\PSoC4/ADC_SAR_Seq.c **** *
 390:.\Generated_Source\PSoC4/ADC_SAR_Seq.c **** *******************************************************************************/
 391:.\Generated_Source\PSoC4/ADC_SAR_Seq.c **** void ADC_SAR_Seq_StartConvert(void)
 392:.\Generated_Source\PSoC4/ADC_SAR_Seq.c **** {
 441              		.loc 1 392 0
 442              		.cfi_startproc
 443 0000 80B5     		push	{r7, lr}
 444              		.cfi_def_cfa_offset 8
 445              		.cfi_offset 7, -8
 446              		.cfi_offset 14, -4
 447 0002 00AF     		add	r7, sp, #0
 448              		.cfi_def_cfa_register 7
 393:.\Generated_Source\PSoC4/ADC_SAR_Seq.c ****     #if(ADC_SAR_Seq_DEFAULT_SAMPLE_MODE_SEL == ADC_SAR_Seq__FREERUNNING)
 394:.\Generated_Source\PSoC4/ADC_SAR_Seq.c ****         ADC_SAR_Seq_SAR_SAMPLE_CTRL_REG |= ADC_SAR_Seq_CONTINUOUS_EN;
 395:.\Generated_Source\PSoC4/ADC_SAR_Seq.c ****     #else /* Firmware trigger */
 396:.\Generated_Source\PSoC4/ADC_SAR_Seq.c ****         ADC_SAR_Seq_SAR_START_CTRL_REG = ADC_SAR_Seq_FW_TRIGGER;
 449              		.loc 1 396 0
 450 0004 024B     		ldr	r3, .L28
 451 0006 0122     		mov	r2, #1
 452 0008 1A60     		str	r2, [r3]
ARM GAS  C:\Users\ADMINI~1\AppData\Local\Temp\ccSOxefd.s 			page 16


 397:.\Generated_Source\PSoC4/ADC_SAR_Seq.c ****     #endif /* End ADC_SAR_Seq_DEFAULT_SAMPLE_MODE == ADC_SAR_Seq__FREERUNNING */
 398:.\Generated_Source\PSoC4/ADC_SAR_Seq.c **** 
 399:.\Generated_Source\PSoC4/ADC_SAR_Seq.c **** }
 453              		.loc 1 399 0
 454 000a BD46     		mov	sp, r7
 455              		@ sp needed
 456 000c 80BD     		pop	{r7, pc}
 457              	.L29:
 458 000e C046     		.align	2
 459              	.L28:
 460 0010 24003A40 		.word	1077542948
 461              		.cfi_endproc
 462              	.LFE6:
 463              		.size	ADC_SAR_Seq_StartConvert, .-ADC_SAR_Seq_StartConvert
 464              		.section	.text.ADC_SAR_Seq_StopConvert,"ax",%progbits
 465              		.align	2
 466              		.global	ADC_SAR_Seq_StopConvert
 467              		.code	16
 468              		.thumb_func
 469              		.type	ADC_SAR_Seq_StopConvert, %function
 470              	ADC_SAR_Seq_StopConvert:
 471              	.LFB7:
 400:.\Generated_Source\PSoC4/ADC_SAR_Seq.c **** 
 401:.\Generated_Source\PSoC4/ADC_SAR_Seq.c **** 
 402:.\Generated_Source\PSoC4/ADC_SAR_Seq.c **** /*******************************************************************************
 403:.\Generated_Source\PSoC4/ADC_SAR_Seq.c **** * Function Name: ADC_SAR_Seq_StopConvert
 404:.\Generated_Source\PSoC4/ADC_SAR_Seq.c **** ********************************************************************************
 405:.\Generated_Source\PSoC4/ADC_SAR_Seq.c **** *
 406:.\Generated_Source\PSoC4/ADC_SAR_Seq.c **** * Summary:
 407:.\Generated_Source\PSoC4/ADC_SAR_Seq.c **** *  Forces the ADC to stop all conversions.
 408:.\Generated_Source\PSoC4/ADC_SAR_Seq.c **** *
 409:.\Generated_Source\PSoC4/ADC_SAR_Seq.c **** * Parameters:
 410:.\Generated_Source\PSoC4/ADC_SAR_Seq.c **** *  None.
 411:.\Generated_Source\PSoC4/ADC_SAR_Seq.c **** *
 412:.\Generated_Source\PSoC4/ADC_SAR_Seq.c **** * Return:
 413:.\Generated_Source\PSoC4/ADC_SAR_Seq.c **** *  None.
 414:.\Generated_Source\PSoC4/ADC_SAR_Seq.c **** *
 415:.\Generated_Source\PSoC4/ADC_SAR_Seq.c **** *******************************************************************************/
 416:.\Generated_Source\PSoC4/ADC_SAR_Seq.c **** void ADC_SAR_Seq_StopConvert(void)
 417:.\Generated_Source\PSoC4/ADC_SAR_Seq.c **** {
 472              		.loc 1 417 0
 473              		.cfi_startproc
 474 0000 80B5     		push	{r7, lr}
 475              		.cfi_def_cfa_offset 8
 476              		.cfi_offset 7, -8
 477              		.cfi_offset 14, -4
 478 0002 00AF     		add	r7, sp, #0
 479              		.cfi_def_cfa_register 7
 418:.\Generated_Source\PSoC4/ADC_SAR_Seq.c ****     #if(ADC_SAR_Seq_DEFAULT_SAMPLE_MODE_SEL == ADC_SAR_Seq__FREERUNNING)
 419:.\Generated_Source\PSoC4/ADC_SAR_Seq.c ****         ADC_SAR_Seq_SAR_SAMPLE_CTRL_REG &= (uint32)(~ADC_SAR_Seq_CONTINUOUS_EN);
 420:.\Generated_Source\PSoC4/ADC_SAR_Seq.c ****     #endif /* ADC_SAR_Seq_DEFAULT_SAMPLE_MODE == ADC_SAR_Seq__FREERUNNING */
 421:.\Generated_Source\PSoC4/ADC_SAR_Seq.c **** }
 480              		.loc 1 421 0
 481 0004 BD46     		mov	sp, r7
 482              		@ sp needed
 483 0006 80BD     		pop	{r7, pc}
 484              		.cfi_endproc
ARM GAS  C:\Users\ADMINI~1\AppData\Local\Temp\ccSOxefd.s 			page 17


 485              	.LFE7:
 486              		.size	ADC_SAR_Seq_StopConvert, .-ADC_SAR_Seq_StopConvert
 487              		.section	.text.ADC_SAR_Seq_IsEndConversion,"ax",%progbits
 488              		.align	2
 489              		.global	ADC_SAR_Seq_IsEndConversion
 490              		.code	16
 491              		.thumb_func
 492              		.type	ADC_SAR_Seq_IsEndConversion, %function
 493              	ADC_SAR_Seq_IsEndConversion:
 494              	.LFB8:
 422:.\Generated_Source\PSoC4/ADC_SAR_Seq.c **** 
 423:.\Generated_Source\PSoC4/ADC_SAR_Seq.c **** 
 424:.\Generated_Source\PSoC4/ADC_SAR_Seq.c **** /*******************************************************************************
 425:.\Generated_Source\PSoC4/ADC_SAR_Seq.c **** * Function Name: ADC_SAR_Seq_IsEndConversion
 426:.\Generated_Source\PSoC4/ADC_SAR_Seq.c **** ********************************************************************************
 427:.\Generated_Source\PSoC4/ADC_SAR_Seq.c **** *
 428:.\Generated_Source\PSoC4/ADC_SAR_Seq.c **** * Summary:
 429:.\Generated_Source\PSoC4/ADC_SAR_Seq.c **** *  Description: Checks for ADC end of conversion for the case one
 430:.\Generated_Source\PSoC4/ADC_SAR_Seq.c **** *  channel and end of scan for the case of multiple channels. It acts
 431:.\Generated_Source\PSoC4/ADC_SAR_Seq.c **** *  as a software version of the EOC. This function provides the
 432:.\Generated_Source\PSoC4/ADC_SAR_Seq.c **** *  programmer with two options. In one mode this function
 433:.\Generated_Source\PSoC4/ADC_SAR_Seq.c **** *  immediately returns with the conversion status. In the other mode,
 434:.\Generated_Source\PSoC4/ADC_SAR_Seq.c **** *  the function does not return (blocking) until the conversion has
 435:.\Generated_Source\PSoC4/ADC_SAR_Seq.c **** *  completed.
 436:.\Generated_Source\PSoC4/ADC_SAR_Seq.c **** *
 437:.\Generated_Source\PSoC4/ADC_SAR_Seq.c **** * Parameters:
 438:.\Generated_Source\PSoC4/ADC_SAR_Seq.c **** *  ADC_RETURN_STATUS        -> Immediately returns conversion result status
 439:.\Generated_Source\PSoC4/ADC_SAR_Seq.c **** *  ADC_WAIT_FOR_RESULT      -> Does not return until ADC complete
 440:.\Generated_Source\PSoC4/ADC_SAR_Seq.c **** *  ADC_RETURN_STATUS_INJ    -> Immediately returns conversion result status
 441:.\Generated_Source\PSoC4/ADC_SAR_Seq.c **** *                              for injection channel
 442:.\Generated_Source\PSoC4/ADC_SAR_Seq.c **** *  ADC_WAIT_FOR_RESULT_INJ  -> Does not return until ADC completes injection
 443:.\Generated_Source\PSoC4/ADC_SAR_Seq.c **** *                              channel conversion
 444:.\Generated_Source\PSoC4/ADC_SAR_Seq.c **** *
 445:.\Generated_Source\PSoC4/ADC_SAR_Seq.c **** * Return:
 446:.\Generated_Source\PSoC4/ADC_SAR_Seq.c **** *  If a non-zero value is returned, the last conversion or scan has completed.
 447:.\Generated_Source\PSoC4/ADC_SAR_Seq.c **** *  If the returned value is zero, the ADC is still in the process of a scan.
 448:.\Generated_Source\PSoC4/ADC_SAR_Seq.c **** *
 449:.\Generated_Source\PSoC4/ADC_SAR_Seq.c **** *******************************************************************************/
 450:.\Generated_Source\PSoC4/ADC_SAR_Seq.c **** uint32 ADC_SAR_Seq_IsEndConversion(uint32 retMode)
 451:.\Generated_Source\PSoC4/ADC_SAR_Seq.c **** {
 495              		.loc 1 451 0
 496              		.cfi_startproc
 497 0000 80B5     		push	{r7, lr}
 498              		.cfi_def_cfa_offset 8
 499              		.cfi_offset 7, -8
 500              		.cfi_offset 14, -4
 501 0002 84B0     		sub	sp, sp, #16
 502              		.cfi_def_cfa_offset 24
 503 0004 00AF     		add	r7, sp, #0
 504              		.cfi_def_cfa_register 7
 505 0006 7860     		str	r0, [r7, #4]
 452:.\Generated_Source\PSoC4/ADC_SAR_Seq.c ****     uint32 status = 0u;
 506              		.loc 1 452 0
 507 0008 0023     		mov	r3, #0
 508 000a FB60     		str	r3, [r7, #12]
 453:.\Generated_Source\PSoC4/ADC_SAR_Seq.c **** 
 454:.\Generated_Source\PSoC4/ADC_SAR_Seq.c ****     if((retMode & (ADC_SAR_Seq_RETURN_STATUS | ADC_SAR_Seq_WAIT_FOR_RESULT)) != 0u)
ARM GAS  C:\Users\ADMINI~1\AppData\Local\Temp\ccSOxefd.s 			page 18


 509              		.loc 1 454 0
 510 000c 7B68     		ldr	r3, [r7, #4]
 511 000e 0322     		mov	r2, #3
 512 0010 1340     		and	r3, r2
 513 0012 11D0     		beq	.L32
 514              	.L34:
 455:.\Generated_Source\PSoC4/ADC_SAR_Seq.c ****     {
 456:.\Generated_Source\PSoC4/ADC_SAR_Seq.c ****         do
 457:.\Generated_Source\PSoC4/ADC_SAR_Seq.c ****         {
 458:.\Generated_Source\PSoC4/ADC_SAR_Seq.c ****             status = ADC_SAR_Seq_SAR_INTR_REG & ADC_SAR_Seq_EOS_MASK;
 515              		.loc 1 458 0 discriminator 2
 516 0014 0B4B     		ldr	r3, .L36
 517 0016 1B68     		ldr	r3, [r3]
 518 0018 0122     		mov	r2, #1
 519 001a 1340     		and	r3, r2
 520 001c FB60     		str	r3, [r7, #12]
 459:.\Generated_Source\PSoC4/ADC_SAR_Seq.c ****         }while((status == 0u) && ((retMode & ADC_SAR_Seq_WAIT_FOR_RESULT) != 0u));
 521              		.loc 1 459 0 discriminator 2
 522 001e FB68     		ldr	r3, [r7, #12]
 523 0020 002B     		cmp	r3, #0
 524 0022 03D1     		bne	.L33
 525              		.loc 1 459 0 is_stmt 0 discriminator 1
 526 0024 7B68     		ldr	r3, [r7, #4]
 527 0026 0222     		mov	r2, #2
 528 0028 1340     		and	r3, r2
 529 002a F3D1     		bne	.L34
 530              	.L33:
 460:.\Generated_Source\PSoC4/ADC_SAR_Seq.c **** 
 461:.\Generated_Source\PSoC4/ADC_SAR_Seq.c ****         if(status != 0u)
 531              		.loc 1 461 0 is_stmt 1
 532 002c FB68     		ldr	r3, [r7, #12]
 533 002e 002B     		cmp	r3, #0
 534 0030 02D0     		beq	.L32
 462:.\Generated_Source\PSoC4/ADC_SAR_Seq.c ****         {
 463:.\Generated_Source\PSoC4/ADC_SAR_Seq.c ****             /* Clear EOS bit */
 464:.\Generated_Source\PSoC4/ADC_SAR_Seq.c ****             ADC_SAR_Seq_SAR_INTR_REG = ADC_SAR_Seq_EOS_MASK;
 535              		.loc 1 464 0
 536 0032 044B     		ldr	r3, .L36
 537 0034 0122     		mov	r2, #1
 538 0036 1A60     		str	r2, [r3]
 539              	.L32:
 465:.\Generated_Source\PSoC4/ADC_SAR_Seq.c ****         }
 466:.\Generated_Source\PSoC4/ADC_SAR_Seq.c ****     }
 467:.\Generated_Source\PSoC4/ADC_SAR_Seq.c **** 
 468:.\Generated_Source\PSoC4/ADC_SAR_Seq.c ****     #if(ADC_SAR_Seq_INJ_CHANNEL_ENABLED)
 469:.\Generated_Source\PSoC4/ADC_SAR_Seq.c ****         if((retMode & (ADC_SAR_Seq_RETURN_STATUS_INJ | ADC_SAR_Seq_WAIT_FOR_RESULT_INJ)) != 0u)
 470:.\Generated_Source\PSoC4/ADC_SAR_Seq.c ****         {
 471:.\Generated_Source\PSoC4/ADC_SAR_Seq.c ****             do
 472:.\Generated_Source\PSoC4/ADC_SAR_Seq.c ****             {
 473:.\Generated_Source\PSoC4/ADC_SAR_Seq.c ****                 status |= ADC_SAR_Seq_SAR_INTR_REG & ADC_SAR_Seq_INJ_EOC_MASK;
 474:.\Generated_Source\PSoC4/ADC_SAR_Seq.c ****             }while(((status & ADC_SAR_Seq_INJ_EOC_MASK) == 0u) &&
 475:.\Generated_Source\PSoC4/ADC_SAR_Seq.c ****                    ((retMode & ADC_SAR_Seq_WAIT_FOR_RESULT_INJ) != 0u));
 476:.\Generated_Source\PSoC4/ADC_SAR_Seq.c **** 
 477:.\Generated_Source\PSoC4/ADC_SAR_Seq.c ****             if((status & ADC_SAR_Seq_INJ_EOC_MASK) != 0u)
 478:.\Generated_Source\PSoC4/ADC_SAR_Seq.c ****             {
 479:.\Generated_Source\PSoC4/ADC_SAR_Seq.c ****                 /* Clear Injection EOS bit */
 480:.\Generated_Source\PSoC4/ADC_SAR_Seq.c ****                 ADC_SAR_Seq_SAR_INTR_REG = ADC_SAR_Seq_INJ_EOC_MASK;
ARM GAS  C:\Users\ADMINI~1\AppData\Local\Temp\ccSOxefd.s 			page 19


 481:.\Generated_Source\PSoC4/ADC_SAR_Seq.c ****             }
 482:.\Generated_Source\PSoC4/ADC_SAR_Seq.c ****         }
 483:.\Generated_Source\PSoC4/ADC_SAR_Seq.c ****     #endif /* ADC_SAR_Seq_INJ_CHANNEL_ENABLED */
 484:.\Generated_Source\PSoC4/ADC_SAR_Seq.c **** 
 485:.\Generated_Source\PSoC4/ADC_SAR_Seq.c ****     return (status);
 540              		.loc 1 485 0
 541 0038 FB68     		ldr	r3, [r7, #12]
 486:.\Generated_Source\PSoC4/ADC_SAR_Seq.c **** }
 542              		.loc 1 486 0
 543 003a 181C     		mov	r0, r3
 544 003c BD46     		mov	sp, r7
 545 003e 04B0     		add	sp, sp, #16
 546              		@ sp needed
 547 0040 80BD     		pop	{r7, pc}
 548              	.L37:
 549 0042 C046     		.align	2
 550              	.L36:
 551 0044 10023A40 		.word	1077543440
 552              		.cfi_endproc
 553              	.LFE8:
 554              		.size	ADC_SAR_Seq_IsEndConversion, .-ADC_SAR_Seq_IsEndConversion
 555              		.section	.text.ADC_SAR_Seq_GetResult16,"ax",%progbits
 556              		.align	2
 557              		.global	ADC_SAR_Seq_GetResult16
 558              		.code	16
 559              		.thumb_func
 560              		.type	ADC_SAR_Seq_GetResult16, %function
 561              	ADC_SAR_Seq_GetResult16:
 562              	.LFB9:
 487:.\Generated_Source\PSoC4/ADC_SAR_Seq.c **** 
 488:.\Generated_Source\PSoC4/ADC_SAR_Seq.c **** 
 489:.\Generated_Source\PSoC4/ADC_SAR_Seq.c **** /*******************************************************************************
 490:.\Generated_Source\PSoC4/ADC_SAR_Seq.c **** * Function Name: ADC_SAR_Seq_GetResult16
 491:.\Generated_Source\PSoC4/ADC_SAR_Seq.c **** ********************************************************************************
 492:.\Generated_Source\PSoC4/ADC_SAR_Seq.c **** *
 493:.\Generated_Source\PSoC4/ADC_SAR_Seq.c **** * Summary:
 494:.\Generated_Source\PSoC4/ADC_SAR_Seq.c **** *  Gets the data available in the SAR DATA register.
 495:.\Generated_Source\PSoC4/ADC_SAR_Seq.c **** *
 496:.\Generated_Source\PSoC4/ADC_SAR_Seq.c **** * Parameters:
 497:.\Generated_Source\PSoC4/ADC_SAR_Seq.c **** *  chan: The ADC channel in which to return the result. The first channel
 498:.\Generated_Source\PSoC4/ADC_SAR_Seq.c **** *  is 0 and the injection channel if enabled is the number of valid channels.
 499:.\Generated_Source\PSoC4/ADC_SAR_Seq.c **** *
 500:.\Generated_Source\PSoC4/ADC_SAR_Seq.c **** * Return:
 501:.\Generated_Source\PSoC4/ADC_SAR_Seq.c **** *  Returns converted data as a signed 16-bit integer
 502:.\Generated_Source\PSoC4/ADC_SAR_Seq.c **** *
 503:.\Generated_Source\PSoC4/ADC_SAR_Seq.c **** *******************************************************************************/
 504:.\Generated_Source\PSoC4/ADC_SAR_Seq.c **** int16 ADC_SAR_Seq_GetResult16(uint32 chan)
 505:.\Generated_Source\PSoC4/ADC_SAR_Seq.c **** {
 563              		.loc 1 505 0
 564              		.cfi_startproc
 565 0000 80B5     		push	{r7, lr}
 566              		.cfi_def_cfa_offset 8
 567              		.cfi_offset 7, -8
 568              		.cfi_offset 14, -4
 569 0002 84B0     		sub	sp, sp, #16
 570              		.cfi_def_cfa_offset 24
 571 0004 00AF     		add	r7, sp, #0
ARM GAS  C:\Users\ADMINI~1\AppData\Local\Temp\ccSOxefd.s 			page 20


 572              		.cfi_def_cfa_register 7
 573 0006 7860     		str	r0, [r7, #4]
 506:.\Generated_Source\PSoC4/ADC_SAR_Seq.c ****     uint32 result;
 507:.\Generated_Source\PSoC4/ADC_SAR_Seq.c **** 
 508:.\Generated_Source\PSoC4/ADC_SAR_Seq.c ****     /* Halt CPU in debug mode if channel is out of valid range */
 509:.\Generated_Source\PSoC4/ADC_SAR_Seq.c ****     CYASSERT(chan < ADC_SAR_Seq_TOTAL_CHANNELS_NUM);
 574              		.loc 1 509 0
 575 0008 7B68     		ldr	r3, [r7, #4]
 576 000a 002B     		cmp	r3, #0
 577 000c 02D0     		beq	.L39
 578              		.loc 1 509 0 is_stmt 0 discriminator 1
 579 000e 0020     		mov	r0, #0
 580 0010 FFF7FEFF 		bl	CyHalt
 581              	.L39:
 510:.\Generated_Source\PSoC4/ADC_SAR_Seq.c **** 
 511:.\Generated_Source\PSoC4/ADC_SAR_Seq.c ****     if(chan < ADC_SAR_Seq_SEQUENCED_CHANNELS_NUM)
 582              		.loc 1 511 0 is_stmt 1
 583 0014 7B68     		ldr	r3, [r7, #4]
 584 0016 002B     		cmp	r3, #0
 585 0018 09D1     		bne	.L40
 512:.\Generated_Source\PSoC4/ADC_SAR_Seq.c ****     {
 513:.\Generated_Source\PSoC4/ADC_SAR_Seq.c ****         result = CY_GET_REG32((reg32 *)(ADC_SAR_Seq_SAR_CHAN_RESULT_IND + (uint32)(chan << 2u))) &
 586              		.loc 1 513 0
 587 001a 7B68     		ldr	r3, [r7, #4]
 588 001c 9B00     		lsl	r3, r3, #2
 589 001e 084A     		ldr	r2, .L43
 590 0020 9446     		mov	ip, r2
 591 0022 6344     		add	r3, r3, ip
 592 0024 1B68     		ldr	r3, [r3]
 593 0026 1B04     		lsl	r3, r3, #16
 594 0028 1B0C     		lsr	r3, r3, #16
 595 002a FB60     		str	r3, [r7, #12]
 596 002c 01E0     		b	.L41
 597              	.L40:
 514:.\Generated_Source\PSoC4/ADC_SAR_Seq.c ****                 ADC_SAR_Seq_RESULT_MASK;
 515:.\Generated_Source\PSoC4/ADC_SAR_Seq.c ****     }
 516:.\Generated_Source\PSoC4/ADC_SAR_Seq.c ****     else
 517:.\Generated_Source\PSoC4/ADC_SAR_Seq.c ****     {
 518:.\Generated_Source\PSoC4/ADC_SAR_Seq.c ****         #if(ADC_SAR_Seq_INJ_CHANNEL_ENABLED)
 519:.\Generated_Source\PSoC4/ADC_SAR_Seq.c ****             result = ADC_SAR_Seq_SAR_INJ_RESULT_REG & ADC_SAR_Seq_RESULT_MASK;
 520:.\Generated_Source\PSoC4/ADC_SAR_Seq.c ****         #else
 521:.\Generated_Source\PSoC4/ADC_SAR_Seq.c ****             result = 0u;
 598              		.loc 1 521 0
 599 002e 0023     		mov	r3, #0
 600 0030 FB60     		str	r3, [r7, #12]
 601              	.L41:
 522:.\Generated_Source\PSoC4/ADC_SAR_Seq.c ****         #endif /* ADC_SAR_Seq_INJ_CHANNEL_ENABLED */
 523:.\Generated_Source\PSoC4/ADC_SAR_Seq.c ****     }
 524:.\Generated_Source\PSoC4/ADC_SAR_Seq.c **** 
 525:.\Generated_Source\PSoC4/ADC_SAR_Seq.c ****     return ( (int16)result );
 602              		.loc 1 525 0
 603 0032 FB68     		ldr	r3, [r7, #12]
 604 0034 9BB2     		uxth	r3, r3
 605 0036 1BB2     		sxth	r3, r3
 526:.\Generated_Source\PSoC4/ADC_SAR_Seq.c **** }
 606              		.loc 1 526 0
 607 0038 181C     		mov	r0, r3
ARM GAS  C:\Users\ADMINI~1\AppData\Local\Temp\ccSOxefd.s 			page 21


 608 003a BD46     		mov	sp, r7
 609 003c 04B0     		add	sp, sp, #16
 610              		@ sp needed
 611 003e 80BD     		pop	{r7, pc}
 612              	.L44:
 613              		.align	2
 614              	.L43:
 615 0040 80013A40 		.word	1077543296
 616              		.cfi_endproc
 617              	.LFE9:
 618              		.size	ADC_SAR_Seq_GetResult16, .-ADC_SAR_Seq_GetResult16
 619              		.section	.text.ADC_SAR_Seq_SetChanMask,"ax",%progbits
 620              		.align	2
 621              		.global	ADC_SAR_Seq_SetChanMask
 622              		.code	16
 623              		.thumb_func
 624              		.type	ADC_SAR_Seq_SetChanMask, %function
 625              	ADC_SAR_Seq_SetChanMask:
 626              	.LFB10:
 527:.\Generated_Source\PSoC4/ADC_SAR_Seq.c **** 
 528:.\Generated_Source\PSoC4/ADC_SAR_Seq.c **** 
 529:.\Generated_Source\PSoC4/ADC_SAR_Seq.c **** /*******************************************************************************
 530:.\Generated_Source\PSoC4/ADC_SAR_Seq.c **** * Function Name: ADC_SAR_Seq_SetChanMask
 531:.\Generated_Source\PSoC4/ADC_SAR_Seq.c **** ********************************************************************************
 532:.\Generated_Source\PSoC4/ADC_SAR_Seq.c **** *
 533:.\Generated_Source\PSoC4/ADC_SAR_Seq.c **** * Summary:
 534:.\Generated_Source\PSoC4/ADC_SAR_Seq.c **** *  Sets the channel enable mask.
 535:.\Generated_Source\PSoC4/ADC_SAR_Seq.c **** *
 536:.\Generated_Source\PSoC4/ADC_SAR_Seq.c **** * Parameters:
 537:.\Generated_Source\PSoC4/ADC_SAR_Seq.c **** *  mask: Sets which channels that will be
 538:.\Generated_Source\PSoC4/ADC_SAR_Seq.c **** *  scanned. Setting bits for channels that do not exist will have no
 539:.\Generated_Source\PSoC4/ADC_SAR_Seq.c **** *  effect. For example, if only 6 channels were enabled, setting a
 540:.\Generated_Source\PSoC4/ADC_SAR_Seq.c **** *  mask of 0x0103 would only enable the last two channels (0 and 1).
 541:.\Generated_Source\PSoC4/ADC_SAR_Seq.c **** *  This API will not enable the injection channel.
 542:.\Generated_Source\PSoC4/ADC_SAR_Seq.c **** *  Examples: If the component is setup to sequence through 8
 543:.\Generated_Source\PSoC4/ADC_SAR_Seq.c **** *  channels, a mask of 0x000F would enable channels 0, 1, 2, and 3.
 544:.\Generated_Source\PSoC4/ADC_SAR_Seq.c **** *
 545:.\Generated_Source\PSoC4/ADC_SAR_Seq.c **** * Return:
 546:.\Generated_Source\PSoC4/ADC_SAR_Seq.c **** *  None.
 547:.\Generated_Source\PSoC4/ADC_SAR_Seq.c **** *
 548:.\Generated_Source\PSoC4/ADC_SAR_Seq.c **** *******************************************************************************/
 549:.\Generated_Source\PSoC4/ADC_SAR_Seq.c **** void ADC_SAR_Seq_SetChanMask(uint32 mask)
 550:.\Generated_Source\PSoC4/ADC_SAR_Seq.c **** {
 627              		.loc 1 550 0
 628              		.cfi_startproc
 629 0000 80B5     		push	{r7, lr}
 630              		.cfi_def_cfa_offset 8
 631              		.cfi_offset 7, -8
 632              		.cfi_offset 14, -4
 633 0002 82B0     		sub	sp, sp, #8
 634              		.cfi_def_cfa_offset 16
 635 0004 00AF     		add	r7, sp, #0
 636              		.cfi_def_cfa_register 7
 637 0006 7860     		str	r0, [r7, #4]
 551:.\Generated_Source\PSoC4/ADC_SAR_Seq.c ****     ADC_SAR_Seq_SAR_CHAN_EN_REG = mask & ADC_SAR_Seq_MAX_CHANNELS_EN_MASK;
 638              		.loc 1 551 0
 639 0008 034B     		ldr	r3, .L46
ARM GAS  C:\Users\ADMINI~1\AppData\Local\Temp\ccSOxefd.s 			page 22


 640 000a 7A68     		ldr	r2, [r7, #4]
 641 000c 0121     		mov	r1, #1
 642 000e 0A40     		and	r2, r1
 643 0010 1A60     		str	r2, [r3]
 552:.\Generated_Source\PSoC4/ADC_SAR_Seq.c **** }
 644              		.loc 1 552 0
 645 0012 BD46     		mov	sp, r7
 646 0014 02B0     		add	sp, sp, #8
 647              		@ sp needed
 648 0016 80BD     		pop	{r7, pc}
 649              	.L47:
 650              		.align	2
 651              	.L46:
 652 0018 20003A40 		.word	1077542944
 653              		.cfi_endproc
 654              	.LFE10:
 655              		.size	ADC_SAR_Seq_SetChanMask, .-ADC_SAR_Seq_SetChanMask
 656              		.section	.text.ADC_SAR_Seq_SetLowLimit,"ax",%progbits
 657              		.align	2
 658              		.global	ADC_SAR_Seq_SetLowLimit
 659              		.code	16
 660              		.thumb_func
 661              		.type	ADC_SAR_Seq_SetLowLimit, %function
 662              	ADC_SAR_Seq_SetLowLimit:
 663              	.LFB11:
 553:.\Generated_Source\PSoC4/ADC_SAR_Seq.c **** 
 554:.\Generated_Source\PSoC4/ADC_SAR_Seq.c **** #if(ADC_SAR_Seq_INJ_CHANNEL_ENABLED)
 555:.\Generated_Source\PSoC4/ADC_SAR_Seq.c **** 
 556:.\Generated_Source\PSoC4/ADC_SAR_Seq.c **** 
 557:.\Generated_Source\PSoC4/ADC_SAR_Seq.c ****     /*******************************************************************************
 558:.\Generated_Source\PSoC4/ADC_SAR_Seq.c ****     * Function Name: ADC_SAR_Seq_EnableInjection
 559:.\Generated_Source\PSoC4/ADC_SAR_Seq.c ****     ********************************************************************************
 560:.\Generated_Source\PSoC4/ADC_SAR_Seq.c ****     *
 561:.\Generated_Source\PSoC4/ADC_SAR_Seq.c ****     * Summary:
 562:.\Generated_Source\PSoC4/ADC_SAR_Seq.c ****     *  Enables the injection channel for the next scan only.
 563:.\Generated_Source\PSoC4/ADC_SAR_Seq.c ****     *
 564:.\Generated_Source\PSoC4/ADC_SAR_Seq.c ****     * Parameters:
 565:.\Generated_Source\PSoC4/ADC_SAR_Seq.c ****     *  None.
 566:.\Generated_Source\PSoC4/ADC_SAR_Seq.c ****     *
 567:.\Generated_Source\PSoC4/ADC_SAR_Seq.c ****     * Return:
 568:.\Generated_Source\PSoC4/ADC_SAR_Seq.c ****     *  None.
 569:.\Generated_Source\PSoC4/ADC_SAR_Seq.c ****     *
 570:.\Generated_Source\PSoC4/ADC_SAR_Seq.c ****     *******************************************************************************/
 571:.\Generated_Source\PSoC4/ADC_SAR_Seq.c ****     void ADC_SAR_Seq_EnableInjection(void)
 572:.\Generated_Source\PSoC4/ADC_SAR_Seq.c ****     {
 573:.\Generated_Source\PSoC4/ADC_SAR_Seq.c ****         ADC_SAR_Seq_SAR_INJ_CHAN_CONFIG_REG |= ADC_SAR_Seq_INJ_CHAN_EN;
 574:.\Generated_Source\PSoC4/ADC_SAR_Seq.c ****     }
 575:.\Generated_Source\PSoC4/ADC_SAR_Seq.c **** 
 576:.\Generated_Source\PSoC4/ADC_SAR_Seq.c **** #endif /* ADC_SAR_Seq_INJ_CHANNEL_ENABLED */
 577:.\Generated_Source\PSoC4/ADC_SAR_Seq.c **** 
 578:.\Generated_Source\PSoC4/ADC_SAR_Seq.c **** 
 579:.\Generated_Source\PSoC4/ADC_SAR_Seq.c **** /*******************************************************************************
 580:.\Generated_Source\PSoC4/ADC_SAR_Seq.c **** * Function Name: ADC_SAR_Seq_SetLowLimit
 581:.\Generated_Source\PSoC4/ADC_SAR_Seq.c **** ********************************************************************************
 582:.\Generated_Source\PSoC4/ADC_SAR_Seq.c **** *
 583:.\Generated_Source\PSoC4/ADC_SAR_Seq.c **** * Summary:
 584:.\Generated_Source\PSoC4/ADC_SAR_Seq.c **** *  Sets the low limit parameter for a limit condition.
ARM GAS  C:\Users\ADMINI~1\AppData\Local\Temp\ccSOxefd.s 			page 23


 585:.\Generated_Source\PSoC4/ADC_SAR_Seq.c **** *
 586:.\Generated_Source\PSoC4/ADC_SAR_Seq.c **** * Parameters:
 587:.\Generated_Source\PSoC4/ADC_SAR_Seq.c **** *  lowLimit: The low limit for a limit condition.
 588:.\Generated_Source\PSoC4/ADC_SAR_Seq.c **** *
 589:.\Generated_Source\PSoC4/ADC_SAR_Seq.c **** * Return:
 590:.\Generated_Source\PSoC4/ADC_SAR_Seq.c **** *  None.
 591:.\Generated_Source\PSoC4/ADC_SAR_Seq.c **** *
 592:.\Generated_Source\PSoC4/ADC_SAR_Seq.c **** *******************************************************************************/
 593:.\Generated_Source\PSoC4/ADC_SAR_Seq.c **** void ADC_SAR_Seq_SetLowLimit(uint32 lowLimit)
 594:.\Generated_Source\PSoC4/ADC_SAR_Seq.c **** {
 664              		.loc 1 594 0
 665              		.cfi_startproc
 666 0000 80B5     		push	{r7, lr}
 667              		.cfi_def_cfa_offset 8
 668              		.cfi_offset 7, -8
 669              		.cfi_offset 14, -4
 670 0002 82B0     		sub	sp, sp, #8
 671              		.cfi_def_cfa_offset 16
 672 0004 00AF     		add	r7, sp, #0
 673              		.cfi_def_cfa_register 7
 674 0006 7860     		str	r0, [r7, #4]
 595:.\Generated_Source\PSoC4/ADC_SAR_Seq.c ****     ADC_SAR_Seq_SAR_RANGE_THRES_REG &= (uint32)(~ADC_SAR_Seq_RANGE_LOW_MASK);
 675              		.loc 1 595 0
 676 0008 084B     		ldr	r3, .L49
 677 000a 084A     		ldr	r2, .L49
 678 000c 1268     		ldr	r2, [r2]
 679 000e 120C     		lsr	r2, r2, #16
 680 0010 1204     		lsl	r2, r2, #16
 681 0012 1A60     		str	r2, [r3]
 596:.\Generated_Source\PSoC4/ADC_SAR_Seq.c ****     ADC_SAR_Seq_SAR_RANGE_THRES_REG |= lowLimit & ADC_SAR_Seq_RANGE_LOW_MASK;
 682              		.loc 1 596 0
 683 0014 054B     		ldr	r3, .L49
 684 0016 054A     		ldr	r2, .L49
 685 0018 1168     		ldr	r1, [r2]
 686 001a 7A68     		ldr	r2, [r7, #4]
 687 001c 1204     		lsl	r2, r2, #16
 688 001e 120C     		lsr	r2, r2, #16
 689 0020 0A43     		orr	r2, r1
 690 0022 1A60     		str	r2, [r3]
 597:.\Generated_Source\PSoC4/ADC_SAR_Seq.c **** }
 691              		.loc 1 597 0
 692 0024 BD46     		mov	sp, r7
 693 0026 02B0     		add	sp, sp, #8
 694              		@ sp needed
 695 0028 80BD     		pop	{r7, pc}
 696              	.L50:
 697 002a C046     		.align	2
 698              	.L49:
 699 002c 18003A40 		.word	1077542936
 700              		.cfi_endproc
 701              	.LFE11:
 702              		.size	ADC_SAR_Seq_SetLowLimit, .-ADC_SAR_Seq_SetLowLimit
 703              		.section	.text.ADC_SAR_Seq_SetHighLimit,"ax",%progbits
 704              		.align	2
 705              		.global	ADC_SAR_Seq_SetHighLimit
 706              		.code	16
 707              		.thumb_func
ARM GAS  C:\Users\ADMINI~1\AppData\Local\Temp\ccSOxefd.s 			page 24


 708              		.type	ADC_SAR_Seq_SetHighLimit, %function
 709              	ADC_SAR_Seq_SetHighLimit:
 710              	.LFB12:
 598:.\Generated_Source\PSoC4/ADC_SAR_Seq.c **** 
 599:.\Generated_Source\PSoC4/ADC_SAR_Seq.c **** 
 600:.\Generated_Source\PSoC4/ADC_SAR_Seq.c **** /*******************************************************************************
 601:.\Generated_Source\PSoC4/ADC_SAR_Seq.c **** * Function Name: ADC_SAR_Seq_SetHighLimit
 602:.\Generated_Source\PSoC4/ADC_SAR_Seq.c **** ********************************************************************************
 603:.\Generated_Source\PSoC4/ADC_SAR_Seq.c **** *
 604:.\Generated_Source\PSoC4/ADC_SAR_Seq.c **** * Summary:
 605:.\Generated_Source\PSoC4/ADC_SAR_Seq.c **** *  Sets the low limit parameter for a limit condition.
 606:.\Generated_Source\PSoC4/ADC_SAR_Seq.c **** *
 607:.\Generated_Source\PSoC4/ADC_SAR_Seq.c **** * Parameters:
 608:.\Generated_Source\PSoC4/ADC_SAR_Seq.c **** *  highLimit: The high limit for a limit condition.
 609:.\Generated_Source\PSoC4/ADC_SAR_Seq.c **** *
 610:.\Generated_Source\PSoC4/ADC_SAR_Seq.c **** * Return:
 611:.\Generated_Source\PSoC4/ADC_SAR_Seq.c **** *  None.
 612:.\Generated_Source\PSoC4/ADC_SAR_Seq.c **** *
 613:.\Generated_Source\PSoC4/ADC_SAR_Seq.c **** *******************************************************************************/
 614:.\Generated_Source\PSoC4/ADC_SAR_Seq.c **** void ADC_SAR_Seq_SetHighLimit(uint32 highLimit)
 615:.\Generated_Source\PSoC4/ADC_SAR_Seq.c **** {
 711              		.loc 1 615 0
 712              		.cfi_startproc
 713 0000 80B5     		push	{r7, lr}
 714              		.cfi_def_cfa_offset 8
 715              		.cfi_offset 7, -8
 716              		.cfi_offset 14, -4
 717 0002 82B0     		sub	sp, sp, #8
 718              		.cfi_def_cfa_offset 16
 719 0004 00AF     		add	r7, sp, #0
 720              		.cfi_def_cfa_register 7
 721 0006 7860     		str	r0, [r7, #4]
 616:.\Generated_Source\PSoC4/ADC_SAR_Seq.c ****     ADC_SAR_Seq_SAR_RANGE_THRES_REG &= (uint32)(~ADC_SAR_Seq_RANGE_HIGH_MASK);
 722              		.loc 1 616 0
 723 0008 074B     		ldr	r3, .L52
 724 000a 074A     		ldr	r2, .L52
 725 000c 1268     		ldr	r2, [r2]
 726 000e 1204     		lsl	r2, r2, #16
 727 0010 120C     		lsr	r2, r2, #16
 728 0012 1A60     		str	r2, [r3]
 617:.\Generated_Source\PSoC4/ADC_SAR_Seq.c ****     ADC_SAR_Seq_SAR_RANGE_THRES_REG |= (uint32)(highLimit << ADC_SAR_Seq_RANGE_HIGH_OFFSET);
 729              		.loc 1 617 0
 730 0014 044B     		ldr	r3, .L52
 731 0016 044A     		ldr	r2, .L52
 732 0018 1168     		ldr	r1, [r2]
 733 001a 7A68     		ldr	r2, [r7, #4]
 734 001c 1204     		lsl	r2, r2, #16
 735 001e 0A43     		orr	r2, r1
 736 0020 1A60     		str	r2, [r3]
 618:.\Generated_Source\PSoC4/ADC_SAR_Seq.c **** }
 737              		.loc 1 618 0
 738 0022 BD46     		mov	sp, r7
 739 0024 02B0     		add	sp, sp, #8
 740              		@ sp needed
 741 0026 80BD     		pop	{r7, pc}
 742              	.L53:
 743              		.align	2
ARM GAS  C:\Users\ADMINI~1\AppData\Local\Temp\ccSOxefd.s 			page 25


 744              	.L52:
 745 0028 18003A40 		.word	1077542936
 746              		.cfi_endproc
 747              	.LFE12:
 748              		.size	ADC_SAR_Seq_SetHighLimit, .-ADC_SAR_Seq_SetHighLimit
 749              		.section	.text.ADC_SAR_Seq_SetLimitMask,"ax",%progbits
 750              		.align	2
 751              		.global	ADC_SAR_Seq_SetLimitMask
 752              		.code	16
 753              		.thumb_func
 754              		.type	ADC_SAR_Seq_SetLimitMask, %function
 755              	ADC_SAR_Seq_SetLimitMask:
 756              	.LFB13:
 619:.\Generated_Source\PSoC4/ADC_SAR_Seq.c **** 
 620:.\Generated_Source\PSoC4/ADC_SAR_Seq.c **** 
 621:.\Generated_Source\PSoC4/ADC_SAR_Seq.c **** /*******************************************************************************
 622:.\Generated_Source\PSoC4/ADC_SAR_Seq.c **** * Function Name: ADC_SAR_Seq_SetLimitMask
 623:.\Generated_Source\PSoC4/ADC_SAR_Seq.c **** ********************************************************************************
 624:.\Generated_Source\PSoC4/ADC_SAR_Seq.c **** *
 625:.\Generated_Source\PSoC4/ADC_SAR_Seq.c **** * Summary:
 626:.\Generated_Source\PSoC4/ADC_SAR_Seq.c **** *  Sets the channel limit condition mask.
 627:.\Generated_Source\PSoC4/ADC_SAR_Seq.c **** *
 628:.\Generated_Source\PSoC4/ADC_SAR_Seq.c **** * Parameters:
 629:.\Generated_Source\PSoC4/ADC_SAR_Seq.c **** *  mask: Sets which channels that may cause a
 630:.\Generated_Source\PSoC4/ADC_SAR_Seq.c **** *  limit condition interrupt. Setting bits for channels that do not exist
 631:.\Generated_Source\PSoC4/ADC_SAR_Seq.c **** *  will have no effect. For example, if only 6 channels were enabled,
 632:.\Generated_Source\PSoC4/ADC_SAR_Seq.c **** *  setting a mask of 0x0103 would only enable the last two channels (0 and 1).
 633:.\Generated_Source\PSoC4/ADC_SAR_Seq.c **** *
 634:.\Generated_Source\PSoC4/ADC_SAR_Seq.c **** * Return:
 635:.\Generated_Source\PSoC4/ADC_SAR_Seq.c **** *  None.
 636:.\Generated_Source\PSoC4/ADC_SAR_Seq.c **** *
 637:.\Generated_Source\PSoC4/ADC_SAR_Seq.c **** *******************************************************************************/
 638:.\Generated_Source\PSoC4/ADC_SAR_Seq.c **** void ADC_SAR_Seq_SetLimitMask(uint32 mask)
 639:.\Generated_Source\PSoC4/ADC_SAR_Seq.c **** {
 757              		.loc 1 639 0
 758              		.cfi_startproc
 759 0000 80B5     		push	{r7, lr}
 760              		.cfi_def_cfa_offset 8
 761              		.cfi_offset 7, -8
 762              		.cfi_offset 14, -4
 763 0002 82B0     		sub	sp, sp, #8
 764              		.cfi_def_cfa_offset 16
 765 0004 00AF     		add	r7, sp, #0
 766              		.cfi_def_cfa_register 7
 767 0006 7860     		str	r0, [r7, #4]
 640:.\Generated_Source\PSoC4/ADC_SAR_Seq.c ****     ADC_SAR_Seq_SAR_RANGE_INTR_MASK_REG = mask & ADC_SAR_Seq_MAX_CHANNELS_EN_MASK;
 768              		.loc 1 640 0
 769 0008 034B     		ldr	r3, .L55
 770 000a 7A68     		ldr	r2, [r7, #4]
 771 000c 0121     		mov	r1, #1
 772 000e 0A40     		and	r2, r1
 773 0010 1A60     		str	r2, [r3]
 641:.\Generated_Source\PSoC4/ADC_SAR_Seq.c **** }
 774              		.loc 1 641 0
 775 0012 BD46     		mov	sp, r7
 776 0014 02B0     		add	sp, sp, #8
 777              		@ sp needed
ARM GAS  C:\Users\ADMINI~1\AppData\Local\Temp\ccSOxefd.s 			page 26


 778 0016 80BD     		pop	{r7, pc}
 779              	.L56:
 780              		.align	2
 781              	.L55:
 782 0018 38023A40 		.word	1077543480
 783              		.cfi_endproc
 784              	.LFE13:
 785              		.size	ADC_SAR_Seq_SetLimitMask, .-ADC_SAR_Seq_SetLimitMask
 786              		.section	.text.ADC_SAR_Seq_SetSatMask,"ax",%progbits
 787              		.align	2
 788              		.global	ADC_SAR_Seq_SetSatMask
 789              		.code	16
 790              		.thumb_func
 791              		.type	ADC_SAR_Seq_SetSatMask, %function
 792              	ADC_SAR_Seq_SetSatMask:
 793              	.LFB14:
 642:.\Generated_Source\PSoC4/ADC_SAR_Seq.c **** 
 643:.\Generated_Source\PSoC4/ADC_SAR_Seq.c **** 
 644:.\Generated_Source\PSoC4/ADC_SAR_Seq.c **** /*******************************************************************************
 645:.\Generated_Source\PSoC4/ADC_SAR_Seq.c **** * Function Name: ADC_SAR_Seq_SetSatMask
 646:.\Generated_Source\PSoC4/ADC_SAR_Seq.c **** ********************************************************************************
 647:.\Generated_Source\PSoC4/ADC_SAR_Seq.c **** *
 648:.\Generated_Source\PSoC4/ADC_SAR_Seq.c **** * Summary:
 649:.\Generated_Source\PSoC4/ADC_SAR_Seq.c **** *  Sets the channel saturation event mask.
 650:.\Generated_Source\PSoC4/ADC_SAR_Seq.c **** *
 651:.\Generated_Source\PSoC4/ADC_SAR_Seq.c **** * Parameters:
 652:.\Generated_Source\PSoC4/ADC_SAR_Seq.c **** *  mask: Sets which channels that may cause a
 653:.\Generated_Source\PSoC4/ADC_SAR_Seq.c **** *  saturation event interrupt. Setting bits for channels that do not exist
 654:.\Generated_Source\PSoC4/ADC_SAR_Seq.c **** *  will have no effect. For example, if only 8 channels were enabled,
 655:.\Generated_Source\PSoC4/ADC_SAR_Seq.c **** *  setting a mask of 0x01C0 would only enable two channels (6 and 7).
 656:.\Generated_Source\PSoC4/ADC_SAR_Seq.c **** *
 657:.\Generated_Source\PSoC4/ADC_SAR_Seq.c **** * Return:
 658:.\Generated_Source\PSoC4/ADC_SAR_Seq.c **** *  None.
 659:.\Generated_Source\PSoC4/ADC_SAR_Seq.c **** *
 660:.\Generated_Source\PSoC4/ADC_SAR_Seq.c **** *******************************************************************************/
 661:.\Generated_Source\PSoC4/ADC_SAR_Seq.c **** void ADC_SAR_Seq_SetSatMask(uint32 mask)
 662:.\Generated_Source\PSoC4/ADC_SAR_Seq.c **** {
 794              		.loc 1 662 0
 795              		.cfi_startproc
 796 0000 80B5     		push	{r7, lr}
 797              		.cfi_def_cfa_offset 8
 798              		.cfi_offset 7, -8
 799              		.cfi_offset 14, -4
 800 0002 82B0     		sub	sp, sp, #8
 801              		.cfi_def_cfa_offset 16
 802 0004 00AF     		add	r7, sp, #0
 803              		.cfi_def_cfa_register 7
 804 0006 7860     		str	r0, [r7, #4]
 663:.\Generated_Source\PSoC4/ADC_SAR_Seq.c ****     ADC_SAR_Seq_SAR_SATURATE_INTR_MASK_REG = mask & ADC_SAR_Seq_MAX_CHANNELS_EN_MASK;
 805              		.loc 1 663 0
 806 0008 034B     		ldr	r3, .L58
 807 000a 7A68     		ldr	r2, [r7, #4]
 808 000c 0121     		mov	r1, #1
 809 000e 0A40     		and	r2, r1
 810 0010 1A60     		str	r2, [r3]
 664:.\Generated_Source\PSoC4/ADC_SAR_Seq.c **** }
 811              		.loc 1 664 0
ARM GAS  C:\Users\ADMINI~1\AppData\Local\Temp\ccSOxefd.s 			page 27


 812 0012 BD46     		mov	sp, r7
 813 0014 02B0     		add	sp, sp, #8
 814              		@ sp needed
 815 0016 80BD     		pop	{r7, pc}
 816              	.L59:
 817              		.align	2
 818              	.L58:
 819 0018 28023A40 		.word	1077543464
 820              		.cfi_endproc
 821              	.LFE14:
 822              		.size	ADC_SAR_Seq_SetSatMask, .-ADC_SAR_Seq_SetSatMask
 823              		.section	.text.ADC_SAR_Seq_SetOffset,"ax",%progbits
 824              		.align	2
 825              		.global	ADC_SAR_Seq_SetOffset
 826              		.code	16
 827              		.thumb_func
 828              		.type	ADC_SAR_Seq_SetOffset, %function
 829              	ADC_SAR_Seq_SetOffset:
 830              	.LFB15:
 665:.\Generated_Source\PSoC4/ADC_SAR_Seq.c **** 
 666:.\Generated_Source\PSoC4/ADC_SAR_Seq.c **** 
 667:.\Generated_Source\PSoC4/ADC_SAR_Seq.c **** /*******************************************************************************
 668:.\Generated_Source\PSoC4/ADC_SAR_Seq.c **** * Function Name: ADC_SAR_Seq_SetOffset
 669:.\Generated_Source\PSoC4/ADC_SAR_Seq.c **** ********************************************************************************
 670:.\Generated_Source\PSoC4/ADC_SAR_Seq.c **** *
 671:.\Generated_Source\PSoC4/ADC_SAR_Seq.c **** * Summary:
 672:.\Generated_Source\PSoC4/ADC_SAR_Seq.c **** *   Description: Sets the ADC offset which is used by the functions
 673:.\Generated_Source\PSoC4/ADC_SAR_Seq.c **** *   ADC_CountsTo_uVolts, ADC_CountsTo_mVolts and ADC_CountsTo_Volts
 674:.\Generated_Source\PSoC4/ADC_SAR_Seq.c **** *   to substract the offset from the given reading
 675:.\Generated_Source\PSoC4/ADC_SAR_Seq.c **** *   before calculating the voltage conversion.
 676:.\Generated_Source\PSoC4/ADC_SAR_Seq.c **** *
 677:.\Generated_Source\PSoC4/ADC_SAR_Seq.c **** * Parameters:
 678:.\Generated_Source\PSoC4/ADC_SAR_Seq.c **** *  chan: ADC channel number.
 679:.\Generated_Source\PSoC4/ADC_SAR_Seq.c **** *  offset: This value is a measured value when the
 680:.\Generated_Source\PSoC4/ADC_SAR_Seq.c **** *          inputs are shorted or connected to the same input voltage.
 681:.\Generated_Source\PSoC4/ADC_SAR_Seq.c **** *
 682:.\Generated_Source\PSoC4/ADC_SAR_Seq.c **** * Return:
 683:.\Generated_Source\PSoC4/ADC_SAR_Seq.c **** *  None.
 684:.\Generated_Source\PSoC4/ADC_SAR_Seq.c **** *
 685:.\Generated_Source\PSoC4/ADC_SAR_Seq.c **** * Global variables:
 686:.\Generated_Source\PSoC4/ADC_SAR_Seq.c **** *  ADC_SAR_Seq_Offset:  Modified to set the user provided offset.
 687:.\Generated_Source\PSoC4/ADC_SAR_Seq.c **** *
 688:.\Generated_Source\PSoC4/ADC_SAR_Seq.c **** *******************************************************************************/
 689:.\Generated_Source\PSoC4/ADC_SAR_Seq.c **** void ADC_SAR_Seq_SetOffset(uint32 chan, int16 offset)
 690:.\Generated_Source\PSoC4/ADC_SAR_Seq.c **** {
 831              		.loc 1 690 0
 832              		.cfi_startproc
 833 0000 80B5     		push	{r7, lr}
 834              		.cfi_def_cfa_offset 8
 835              		.cfi_offset 7, -8
 836              		.cfi_offset 14, -4
 837 0002 82B0     		sub	sp, sp, #8
 838              		.cfi_def_cfa_offset 16
 839 0004 00AF     		add	r7, sp, #0
 840              		.cfi_def_cfa_register 7
 841 0006 7860     		str	r0, [r7, #4]
 842 0008 0A1C     		mov	r2, r1
ARM GAS  C:\Users\ADMINI~1\AppData\Local\Temp\ccSOxefd.s 			page 28


 843 000a BB1C     		add	r3, r7, #2
 844 000c 1A80     		strh	r2, [r3]
 691:.\Generated_Source\PSoC4/ADC_SAR_Seq.c ****     /* Halt CPU in debug mode if channel is out of valid range */
 692:.\Generated_Source\PSoC4/ADC_SAR_Seq.c ****     CYASSERT(chan < ADC_SAR_Seq_TOTAL_CHANNELS_NUM);
 845              		.loc 1 692 0
 846 000e 7B68     		ldr	r3, [r7, #4]
 847 0010 002B     		cmp	r3, #0
 848 0012 02D0     		beq	.L61
 849              		.loc 1 692 0 is_stmt 0 discriminator 1
 850 0014 0020     		mov	r0, #0
 851 0016 FFF7FEFF 		bl	CyHalt
 852              	.L61:
 693:.\Generated_Source\PSoC4/ADC_SAR_Seq.c **** 
 694:.\Generated_Source\PSoC4/ADC_SAR_Seq.c ****     ADC_SAR_Seq_offset[chan] = offset;
 853              		.loc 1 694 0 is_stmt 1
 854 001a 044B     		ldr	r3, .L62
 855 001c 7A68     		ldr	r2, [r7, #4]
 856 001e 5200     		lsl	r2, r2, #1
 857 0020 B91C     		add	r1, r7, #2
 858 0022 0988     		ldrh	r1, [r1]
 859 0024 D152     		strh	r1, [r2, r3]
 695:.\Generated_Source\PSoC4/ADC_SAR_Seq.c **** }
 860              		.loc 1 695 0
 861 0026 BD46     		mov	sp, r7
 862 0028 02B0     		add	sp, sp, #8
 863              		@ sp needed
 864 002a 80BD     		pop	{r7, pc}
 865              	.L63:
 866              		.align	2
 867              	.L62:
 868 002c 00000000 		.word	ADC_SAR_Seq_offset
 869              		.cfi_endproc
 870              	.LFE15:
 871              		.size	ADC_SAR_Seq_SetOffset, .-ADC_SAR_Seq_SetOffset
 872              		.section	.text.ADC_SAR_Seq_SetGain,"ax",%progbits
 873              		.align	2
 874              		.global	ADC_SAR_Seq_SetGain
 875              		.code	16
 876              		.thumb_func
 877              		.type	ADC_SAR_Seq_SetGain, %function
 878              	ADC_SAR_Seq_SetGain:
 879              	.LFB16:
 696:.\Generated_Source\PSoC4/ADC_SAR_Seq.c **** 
 697:.\Generated_Source\PSoC4/ADC_SAR_Seq.c **** 
 698:.\Generated_Source\PSoC4/ADC_SAR_Seq.c **** /*******************************************************************************
 699:.\Generated_Source\PSoC4/ADC_SAR_Seq.c **** * Function Name: ADC_SAR_Seq_SetGain
 700:.\Generated_Source\PSoC4/ADC_SAR_Seq.c **** ********************************************************************************
 701:.\Generated_Source\PSoC4/ADC_SAR_Seq.c **** *
 702:.\Generated_Source\PSoC4/ADC_SAR_Seq.c **** * Summary:
 703:.\Generated_Source\PSoC4/ADC_SAR_Seq.c **** *  Description: Sets the ADC gain in counts per 10 volt for the voltage
 704:.\Generated_Source\PSoC4/ADC_SAR_Seq.c **** *  conversion functions below. This value is set by default by the
 705:.\Generated_Source\PSoC4/ADC_SAR_Seq.c **** *  reference and input range settings. It should only be used to further
 706:.\Generated_Source\PSoC4/ADC_SAR_Seq.c **** *  calibrate the ADC with a known input or if an external reference is
 707:.\Generated_Source\PSoC4/ADC_SAR_Seq.c **** *  used. Affects the ADC_CountsTo_uVolts, ADC_CountsTo_mVolts
 708:.\Generated_Source\PSoC4/ADC_SAR_Seq.c **** *  and ADC_CountsTo_Volts functions by supplying the correct
 709:.\Generated_Source\PSoC4/ADC_SAR_Seq.c **** *  conversion between ADC counts and voltage.
 710:.\Generated_Source\PSoC4/ADC_SAR_Seq.c **** *
ARM GAS  C:\Users\ADMINI~1\AppData\Local\Temp\ccSOxefd.s 			page 29


 711:.\Generated_Source\PSoC4/ADC_SAR_Seq.c **** * Parameters:
 712:.\Generated_Source\PSoC4/ADC_SAR_Seq.c **** *  chan: ADC channel number.
 713:.\Generated_Source\PSoC4/ADC_SAR_Seq.c **** *  adcGain: ADC gain in counts per 10 volts.
 714:.\Generated_Source\PSoC4/ADC_SAR_Seq.c **** *
 715:.\Generated_Source\PSoC4/ADC_SAR_Seq.c **** * Return:
 716:.\Generated_Source\PSoC4/ADC_SAR_Seq.c **** *  None.
 717:.\Generated_Source\PSoC4/ADC_SAR_Seq.c **** *
 718:.\Generated_Source\PSoC4/ADC_SAR_Seq.c **** * Global variables:
 719:.\Generated_Source\PSoC4/ADC_SAR_Seq.c **** *  ADC_SAR_Seq_CountsPer10Volt:  modified to set the ADC gain in counts
 720:.\Generated_Source\PSoC4/ADC_SAR_Seq.c **** *   per 10 volt.
 721:.\Generated_Source\PSoC4/ADC_SAR_Seq.c **** *
 722:.\Generated_Source\PSoC4/ADC_SAR_Seq.c **** *******************************************************************************/
 723:.\Generated_Source\PSoC4/ADC_SAR_Seq.c **** void ADC_SAR_Seq_SetGain(uint32 chan, int32 adcGain)
 724:.\Generated_Source\PSoC4/ADC_SAR_Seq.c **** {
 880              		.loc 1 724 0
 881              		.cfi_startproc
 882 0000 80B5     		push	{r7, lr}
 883              		.cfi_def_cfa_offset 8
 884              		.cfi_offset 7, -8
 885              		.cfi_offset 14, -4
 886 0002 82B0     		sub	sp, sp, #8
 887              		.cfi_def_cfa_offset 16
 888 0004 00AF     		add	r7, sp, #0
 889              		.cfi_def_cfa_register 7
 890 0006 7860     		str	r0, [r7, #4]
 891 0008 3960     		str	r1, [r7]
 725:.\Generated_Source\PSoC4/ADC_SAR_Seq.c ****     /* Halt CPU in debug mode if channel is out of valid range */
 726:.\Generated_Source\PSoC4/ADC_SAR_Seq.c ****     CYASSERT(chan < ADC_SAR_Seq_TOTAL_CHANNELS_NUM);
 892              		.loc 1 726 0
 893 000a 7B68     		ldr	r3, [r7, #4]
 894 000c 002B     		cmp	r3, #0
 895 000e 02D0     		beq	.L65
 896              		.loc 1 726 0 is_stmt 0 discriminator 1
 897 0010 0020     		mov	r0, #0
 898 0012 FFF7FEFF 		bl	CyHalt
 899              	.L65:
 727:.\Generated_Source\PSoC4/ADC_SAR_Seq.c **** 
 728:.\Generated_Source\PSoC4/ADC_SAR_Seq.c ****     ADC_SAR_Seq_countsPer10Volt[chan] = adcGain;
 900              		.loc 1 728 0 is_stmt 1
 901 0016 044B     		ldr	r3, .L66
 902 0018 7A68     		ldr	r2, [r7, #4]
 903 001a 9200     		lsl	r2, r2, #2
 904 001c 3968     		ldr	r1, [r7]
 905 001e D150     		str	r1, [r2, r3]
 729:.\Generated_Source\PSoC4/ADC_SAR_Seq.c **** }
 906              		.loc 1 729 0
 907 0020 BD46     		mov	sp, r7
 908 0022 02B0     		add	sp, sp, #8
 909              		@ sp needed
 910 0024 80BD     		pop	{r7, pc}
 911              	.L67:
 912 0026 C046     		.align	2
 913              	.L66:
 914 0028 00000000 		.word	ADC_SAR_Seq_countsPer10Volt
 915              		.cfi_endproc
 916              	.LFE16:
 917              		.size	ADC_SAR_Seq_SetGain, .-ADC_SAR_Seq_SetGain
ARM GAS  C:\Users\ADMINI~1\AppData\Local\Temp\ccSOxefd.s 			page 30


 918              		.section	.text.ADC_SAR_Seq_CountsTo_mVolts,"ax",%progbits
 919              		.align	2
 920              		.global	ADC_SAR_Seq_CountsTo_mVolts
 921              		.code	16
 922              		.thumb_func
 923              		.type	ADC_SAR_Seq_CountsTo_mVolts, %function
 924              	ADC_SAR_Seq_CountsTo_mVolts:
 925              	.LFB17:
 730:.\Generated_Source\PSoC4/ADC_SAR_Seq.c **** 
 731:.\Generated_Source\PSoC4/ADC_SAR_Seq.c **** 
 732:.\Generated_Source\PSoC4/ADC_SAR_Seq.c **** #if(ADC_SAR_Seq_DEFAULT_JUSTIFICATION_SEL == ADC_SAR_Seq__RIGHT)
 733:.\Generated_Source\PSoC4/ADC_SAR_Seq.c **** 
 734:.\Generated_Source\PSoC4/ADC_SAR_Seq.c **** 
 735:.\Generated_Source\PSoC4/ADC_SAR_Seq.c ****     /*******************************************************************************
 736:.\Generated_Source\PSoC4/ADC_SAR_Seq.c ****     * Function Name: ADC_SAR_Seq_CountsTo_mVolts
 737:.\Generated_Source\PSoC4/ADC_SAR_Seq.c ****     ********************************************************************************
 738:.\Generated_Source\PSoC4/ADC_SAR_Seq.c ****     *
 739:.\Generated_Source\PSoC4/ADC_SAR_Seq.c ****     * Summary:
 740:.\Generated_Source\PSoC4/ADC_SAR_Seq.c ****     *  This function converts ADC counts to mVolts
 741:.\Generated_Source\PSoC4/ADC_SAR_Seq.c ****     *  This function is not available when left data format justification selected.
 742:.\Generated_Source\PSoC4/ADC_SAR_Seq.c ****     *
 743:.\Generated_Source\PSoC4/ADC_SAR_Seq.c ****     * Parameters:
 744:.\Generated_Source\PSoC4/ADC_SAR_Seq.c ****     *  chan: The ADC channel number.
 745:.\Generated_Source\PSoC4/ADC_SAR_Seq.c ****     *  adcCounts: Result from the ADC conversion
 746:.\Generated_Source\PSoC4/ADC_SAR_Seq.c ****     *
 747:.\Generated_Source\PSoC4/ADC_SAR_Seq.c ****     * Return:
 748:.\Generated_Source\PSoC4/ADC_SAR_Seq.c ****     *  Results in mVolts
 749:.\Generated_Source\PSoC4/ADC_SAR_Seq.c ****     *
 750:.\Generated_Source\PSoC4/ADC_SAR_Seq.c ****     * Global variables:
 751:.\Generated_Source\PSoC4/ADC_SAR_Seq.c ****     *  ADC_SAR_Seq_countsPer10Volt:  used to convert ADC counts to mVolts.
 752:.\Generated_Source\PSoC4/ADC_SAR_Seq.c ****     *  ADC_SAR_Seq_Offset:  Used as the offset while converting ADC counts
 753:.\Generated_Source\PSoC4/ADC_SAR_Seq.c ****     *   to mVolts.
 754:.\Generated_Source\PSoC4/ADC_SAR_Seq.c ****     *
 755:.\Generated_Source\PSoC4/ADC_SAR_Seq.c ****     *******************************************************************************/
 756:.\Generated_Source\PSoC4/ADC_SAR_Seq.c ****     int16 ADC_SAR_Seq_CountsTo_mVolts(uint32 chan, int16 adcCounts)
 757:.\Generated_Source\PSoC4/ADC_SAR_Seq.c ****     {
 926              		.loc 1 757 0
 927              		.cfi_startproc
 928 0000 80B5     		push	{r7, lr}
 929              		.cfi_def_cfa_offset 8
 930              		.cfi_offset 7, -8
 931              		.cfi_offset 14, -4
 932 0002 84B0     		sub	sp, sp, #16
 933              		.cfi_def_cfa_offset 24
 934 0004 00AF     		add	r7, sp, #0
 935              		.cfi_def_cfa_register 7
 936 0006 7860     		str	r0, [r7, #4]
 937 0008 0A1C     		mov	r2, r1
 938 000a BB1C     		add	r3, r7, #2
 939 000c 1A80     		strh	r2, [r3]
 758:.\Generated_Source\PSoC4/ADC_SAR_Seq.c ****         int16 mVolts;
 759:.\Generated_Source\PSoC4/ADC_SAR_Seq.c **** 
 760:.\Generated_Source\PSoC4/ADC_SAR_Seq.c ****         /* Halt CPU in debug mode if channel is out of valid range */
 761:.\Generated_Source\PSoC4/ADC_SAR_Seq.c ****         CYASSERT(chan < ADC_SAR_Seq_TOTAL_CHANNELS_NUM);
 940              		.loc 1 761 0
 941 000e 7B68     		ldr	r3, [r7, #4]
 942 0010 002B     		cmp	r3, #0
ARM GAS  C:\Users\ADMINI~1\AppData\Local\Temp\ccSOxefd.s 			page 31


 943 0012 02D0     		beq	.L69
 944              		.loc 1 761 0 is_stmt 0 discriminator 1
 945 0014 0020     		mov	r0, #0
 946 0016 FFF7FEFF 		bl	CyHalt
 947              	.L69:
 762:.\Generated_Source\PSoC4/ADC_SAR_Seq.c **** 
 763:.\Generated_Source\PSoC4/ADC_SAR_Seq.c ****         /* Divide the adcCount when accumulate averaging mode selected */
 764:.\Generated_Source\PSoC4/ADC_SAR_Seq.c ****         #if(ADC_SAR_Seq_DEFAULT_AVG_MODE == ADC_SAR_Seq__ACCUMULATE)
 765:.\Generated_Source\PSoC4/ADC_SAR_Seq.c ****             if((ADC_SAR_Seq_channelsConfig[chan] & ADC_SAR_Seq_AVERAGING_EN) != 0u)
 766:.\Generated_Source\PSoC4/ADC_SAR_Seq.c ****             {
 767:.\Generated_Source\PSoC4/ADC_SAR_Seq.c ****                 adcCounts /= ADC_SAR_Seq_DEFAULT_AVG_SAMPLES_DIV;
 768:.\Generated_Source\PSoC4/ADC_SAR_Seq.c ****             }
 769:.\Generated_Source\PSoC4/ADC_SAR_Seq.c ****         #endif /* ADC_SAR_Seq_DEFAULT_AVG_MODE == ADC_SAR_Seq__ACCUMULATE */
 770:.\Generated_Source\PSoC4/ADC_SAR_Seq.c **** 
 771:.\Generated_Source\PSoC4/ADC_SAR_Seq.c ****         /* Subtract ADC offset */
 772:.\Generated_Source\PSoC4/ADC_SAR_Seq.c ****         adcCounts -= ADC_SAR_Seq_offset[chan];
 948              		.loc 1 772 0 is_stmt 1
 949 001a 1F4B     		ldr	r3, .L75
 950 001c 7A68     		ldr	r2, [r7, #4]
 951 001e 5200     		lsl	r2, r2, #1
 952 0020 D35A     		ldrh	r3, [r2, r3]
 953 0022 99B2     		uxth	r1, r3
 954 0024 BB1C     		add	r3, r7, #2
 955 0026 1A88     		ldrh	r2, [r3]
 956 0028 8BB2     		uxth	r3, r1
 957 002a D31A     		sub	r3, r2, r3
 958 002c 9AB2     		uxth	r2, r3
 959 002e BB1C     		add	r3, r7, #2
 960 0030 1A80     		strh	r2, [r3]
 773:.\Generated_Source\PSoC4/ADC_SAR_Seq.c **** 
 774:.\Generated_Source\PSoC4/ADC_SAR_Seq.c ****         mVolts = (int16)((((int32)adcCounts * ADC_SAR_Seq_10MV_COUNTS) + ( (adcCounts > 0) ?
 961              		.loc 1 774 0
 962 0032 BB1C     		add	r3, r7, #2
 963 0034 0022     		mov	r2, #0
 964 0036 9B5E     		ldrsh	r3, [r3, r2]
 965 0038 184A     		ldr	r2, .L75+4
 966 003a 5A43     		mul	r2, r3
 775:.\Generated_Source\PSoC4/ADC_SAR_Seq.c ****                  (ADC_SAR_Seq_countsPer10Volt[chan] / 2) : (-(ADC_SAR_Seq_countsPer10Volt[chan] / 2
 967              		.loc 1 775 0
 968 003c BB1C     		add	r3, r7, #2
 969 003e 0021     		mov	r1, #0
 970 0040 5B5E     		ldrsh	r3, [r3, r1]
 971 0042 002B     		cmp	r3, #0
 972 0044 08DD     		ble	.L70
 973              		.loc 1 775 0 is_stmt 0 discriminator 1
 974 0046 164B     		ldr	r3, .L75+8
 975 0048 7968     		ldr	r1, [r7, #4]
 976 004a 8900     		lsl	r1, r1, #2
 977 004c CB58     		ldr	r3, [r1, r3]
 978 004e 002B     		cmp	r3, #0
 979 0050 00DA     		bge	.L71
 980 0052 0133     		add	r3, r3, #1
 981              	.L71:
 982 0054 5B10     		asr	r3, r3, #1
 983 0056 08E0     		b	.L72
 984              	.L70:
 985              		.loc 1 775 0 discriminator 2
ARM GAS  C:\Users\ADMINI~1\AppData\Local\Temp\ccSOxefd.s 			page 32


 986 0058 114B     		ldr	r3, .L75+8
 987 005a 7968     		ldr	r1, [r7, #4]
 988 005c 8900     		lsl	r1, r1, #2
 989 005e CB58     		ldr	r3, [r1, r3]
 990 0060 002B     		cmp	r3, #0
 991 0062 00DA     		bge	.L73
 992 0064 0133     		add	r3, r3, #1
 993              	.L73:
 994 0066 5B10     		asr	r3, r3, #1
 995 0068 5B42     		neg	r3, r3
 996              	.L72:
 774:.\Generated_Source\PSoC4/ADC_SAR_Seq.c ****                  (ADC_SAR_Seq_countsPer10Volt[chan] / 2) : (-(ADC_SAR_Seq_countsPer10Volt[chan] / 2
 997              		.loc 1 774 0 is_stmt 1
 998 006a D118     		add	r1, r2, r3
 776:.\Generated_Source\PSoC4/ADC_SAR_Seq.c ****                  / ADC_SAR_Seq_countsPer10Volt[chan]);
 999              		.loc 1 776 0
 1000 006c 0C4B     		ldr	r3, .L75+8
 1001 006e 7A68     		ldr	r2, [r7, #4]
 1002 0070 9200     		lsl	r2, r2, #2
 1003 0072 D358     		ldr	r3, [r2, r3]
 1004 0074 081C     		mov	r0, r1
 1005 0076 191C     		mov	r1, r3
 1006 0078 FFF7FEFF 		bl	__aeabi_idiv
 1007 007c 031C     		mov	r3, r0
 1008 007e 1A1C     		mov	r2, r3
 774:.\Generated_Source\PSoC4/ADC_SAR_Seq.c ****                  (ADC_SAR_Seq_countsPer10Volt[chan] / 2) : (-(ADC_SAR_Seq_countsPer10Volt[chan] / 2
 1009              		.loc 1 774 0
 1010 0080 0E23     		mov	r3, #14
 1011 0082 FB18     		add	r3, r7, r3
 1012 0084 1A80     		strh	r2, [r3]
 777:.\Generated_Source\PSoC4/ADC_SAR_Seq.c **** 
 778:.\Generated_Source\PSoC4/ADC_SAR_Seq.c ****         return( mVolts );
 1013              		.loc 1 778 0
 1014 0086 0E23     		mov	r3, #14
 1015 0088 FB18     		add	r3, r7, r3
 1016 008a 1B88     		ldrh	r3, [r3]
 1017 008c 1BB2     		sxth	r3, r3
 779:.\Generated_Source\PSoC4/ADC_SAR_Seq.c ****     }
 1018              		.loc 1 779 0
 1019 008e 181C     		mov	r0, r3
 1020 0090 BD46     		mov	sp, r7
 1021 0092 04B0     		add	sp, sp, #16
 1022              		@ sp needed
 1023 0094 80BD     		pop	{r7, pc}
 1024              	.L76:
 1025 0096 C046     		.align	2
 1026              	.L75:
 1027 0098 00000000 		.word	ADC_SAR_Seq_offset
 1028 009c 10270000 		.word	10000
 1029 00a0 00000000 		.word	ADC_SAR_Seq_countsPer10Volt
 1030              		.cfi_endproc
 1031              	.LFE17:
 1032              		.size	ADC_SAR_Seq_CountsTo_mVolts, .-ADC_SAR_Seq_CountsTo_mVolts
 1033              		.global	__aeabi_lmul
 1034              		.global	__aeabi_ldivmod
 1035              		.section	.text.ADC_SAR_Seq_CountsTo_uVolts,"ax",%progbits
 1036              		.align	2
ARM GAS  C:\Users\ADMINI~1\AppData\Local\Temp\ccSOxefd.s 			page 33


 1037              		.global	ADC_SAR_Seq_CountsTo_uVolts
 1038              		.code	16
 1039              		.thumb_func
 1040              		.type	ADC_SAR_Seq_CountsTo_uVolts, %function
 1041              	ADC_SAR_Seq_CountsTo_uVolts:
 1042              	.LFB18:
 780:.\Generated_Source\PSoC4/ADC_SAR_Seq.c **** 
 781:.\Generated_Source\PSoC4/ADC_SAR_Seq.c **** 
 782:.\Generated_Source\PSoC4/ADC_SAR_Seq.c ****     /*******************************************************************************
 783:.\Generated_Source\PSoC4/ADC_SAR_Seq.c ****     * Function Name: ADC_SAR_Seq_CountsTo_uVolts
 784:.\Generated_Source\PSoC4/ADC_SAR_Seq.c ****     ********************************************************************************
 785:.\Generated_Source\PSoC4/ADC_SAR_Seq.c ****     *
 786:.\Generated_Source\PSoC4/ADC_SAR_Seq.c ****     * Summary:
 787:.\Generated_Source\PSoC4/ADC_SAR_Seq.c ****     *  This function converts ADC counts to micro Volts
 788:.\Generated_Source\PSoC4/ADC_SAR_Seq.c ****     *  This function is not available when left data format justification selected.
 789:.\Generated_Source\PSoC4/ADC_SAR_Seq.c ****     *
 790:.\Generated_Source\PSoC4/ADC_SAR_Seq.c ****     * Parameters:
 791:.\Generated_Source\PSoC4/ADC_SAR_Seq.c ****     *  chan: The ADC channel number.
 792:.\Generated_Source\PSoC4/ADC_SAR_Seq.c ****     *  adcCounts: Result from the ADC conversion
 793:.\Generated_Source\PSoC4/ADC_SAR_Seq.c ****     *
 794:.\Generated_Source\PSoC4/ADC_SAR_Seq.c ****     * Return:
 795:.\Generated_Source\PSoC4/ADC_SAR_Seq.c ****     *  Results in uVolts
 796:.\Generated_Source\PSoC4/ADC_SAR_Seq.c ****     *
 797:.\Generated_Source\PSoC4/ADC_SAR_Seq.c ****     * Global variables:
 798:.\Generated_Source\PSoC4/ADC_SAR_Seq.c ****     *  ADC_SAR_Seq_countsPer10Volt:  used to convert ADC counts to uVolts.
 799:.\Generated_Source\PSoC4/ADC_SAR_Seq.c ****     *  ADC_SAR_Seq_Offset:  Used as the offset while converting ADC counts
 800:.\Generated_Source\PSoC4/ADC_SAR_Seq.c ****     *   to mVolts.
 801:.\Generated_Source\PSoC4/ADC_SAR_Seq.c ****     *
 802:.\Generated_Source\PSoC4/ADC_SAR_Seq.c ****     * Theory:
 803:.\Generated_Source\PSoC4/ADC_SAR_Seq.c ****     *  Care must be taken to not exceed the maximum value for a 31 bit signed
 804:.\Generated_Source\PSoC4/ADC_SAR_Seq.c ****     *  number in the conversion to uVolts and at the same time not loose
 805:.\Generated_Source\PSoC4/ADC_SAR_Seq.c ****     *  resolution.
 806:.\Generated_Source\PSoC4/ADC_SAR_Seq.c ****     *  To convert adcCounts to microVolts it is required to be multiplied
 807:.\Generated_Source\PSoC4/ADC_SAR_Seq.c ****     *  on 10 million and later divide on gain in counts per 10V.
 808:.\Generated_Source\PSoC4/ADC_SAR_Seq.c ****     *
 809:.\Generated_Source\PSoC4/ADC_SAR_Seq.c ****     *******************************************************************************/
 810:.\Generated_Source\PSoC4/ADC_SAR_Seq.c ****     int32 ADC_SAR_Seq_CountsTo_uVolts(uint32 chan, int16 adcCounts)
 811:.\Generated_Source\PSoC4/ADC_SAR_Seq.c ****     {
 1043              		.loc 1 811 0
 1044              		.cfi_startproc
 1045 0000 B0B5     		push	{r4, r5, r7, lr}
 1046              		.cfi_def_cfa_offset 16
 1047              		.cfi_offset 4, -16
 1048              		.cfi_offset 5, -12
 1049              		.cfi_offset 7, -8
 1050              		.cfi_offset 14, -4
 1051 0002 86B0     		sub	sp, sp, #24
 1052              		.cfi_def_cfa_offset 40
 1053 0004 00AF     		add	r7, sp, #0
 1054              		.cfi_def_cfa_register 7
 1055 0006 F860     		str	r0, [r7, #12]
 1056 0008 0A1C     		mov	r2, r1
 1057 000a 0A23     		mov	r3, #10
 1058 000c FB18     		add	r3, r7, r3
 1059 000e 1A80     		strh	r2, [r3]
 812:.\Generated_Source\PSoC4/ADC_SAR_Seq.c ****         int64 uVolts;
 813:.\Generated_Source\PSoC4/ADC_SAR_Seq.c **** 
ARM GAS  C:\Users\ADMINI~1\AppData\Local\Temp\ccSOxefd.s 			page 34


 814:.\Generated_Source\PSoC4/ADC_SAR_Seq.c ****         /* Halt CPU in debug mode if channel is out of valid range */
 815:.\Generated_Source\PSoC4/ADC_SAR_Seq.c ****         CYASSERT(chan < ADC_SAR_Seq_TOTAL_CHANNELS_NUM);
 1060              		.loc 1 815 0
 1061 0010 FB68     		ldr	r3, [r7, #12]
 1062 0012 002B     		cmp	r3, #0
 1063 0014 02D0     		beq	.L78
 1064              		.loc 1 815 0 is_stmt 0 discriminator 1
 1065 0016 0020     		mov	r0, #0
 1066 0018 FFF7FEFF 		bl	CyHalt
 1067              	.L78:
 816:.\Generated_Source\PSoC4/ADC_SAR_Seq.c **** 
 817:.\Generated_Source\PSoC4/ADC_SAR_Seq.c ****         /* Divide the adcCount when accumulate averaging mode selected */
 818:.\Generated_Source\PSoC4/ADC_SAR_Seq.c ****         #if(ADC_SAR_Seq_DEFAULT_AVG_MODE == ADC_SAR_Seq__ACCUMULATE)
 819:.\Generated_Source\PSoC4/ADC_SAR_Seq.c ****             if((ADC_SAR_Seq_channelsConfig[chan] & ADC_SAR_Seq_AVERAGING_EN) != 0u)
 820:.\Generated_Source\PSoC4/ADC_SAR_Seq.c ****             {
 821:.\Generated_Source\PSoC4/ADC_SAR_Seq.c ****                 adcCounts /= ADC_SAR_Seq_DEFAULT_AVG_SAMPLES_DIV;
 822:.\Generated_Source\PSoC4/ADC_SAR_Seq.c ****             }
 823:.\Generated_Source\PSoC4/ADC_SAR_Seq.c ****         #endif /* ADC_SAR_Seq_DEFAULT_AVG_MODE == ADC_SAR_Seq__ACCUMULATE */
 824:.\Generated_Source\PSoC4/ADC_SAR_Seq.c **** 
 825:.\Generated_Source\PSoC4/ADC_SAR_Seq.c ****         /* Subtract ADC offset */
 826:.\Generated_Source\PSoC4/ADC_SAR_Seq.c ****         adcCounts -= ADC_SAR_Seq_offset[chan];
 1068              		.loc 1 826 0 is_stmt 1
 1069 001c 194B     		ldr	r3, .L80
 1070 001e FA68     		ldr	r2, [r7, #12]
 1071 0020 5200     		lsl	r2, r2, #1
 1072 0022 D35A     		ldrh	r3, [r2, r3]
 1073 0024 99B2     		uxth	r1, r3
 1074 0026 0A23     		mov	r3, #10
 1075 0028 FB18     		add	r3, r7, r3
 1076 002a 1A88     		ldrh	r2, [r3]
 1077 002c 8BB2     		uxth	r3, r1
 1078 002e D31A     		sub	r3, r2, r3
 1079 0030 9AB2     		uxth	r2, r3
 1080 0032 0A23     		mov	r3, #10
 1081 0034 FB18     		add	r3, r7, r3
 1082 0036 1A80     		strh	r2, [r3]
 827:.\Generated_Source\PSoC4/ADC_SAR_Seq.c **** 
 828:.\Generated_Source\PSoC4/ADC_SAR_Seq.c ****         uVolts = ((int64)adcCounts * ADC_SAR_Seq_10UV_COUNTS) / ADC_SAR_Seq_countsPer10Volt[chan];
 1083              		.loc 1 828 0
 1084 0038 0A23     		mov	r3, #10
 1085 003a FB18     		add	r3, r7, r3
 1086 003c 1B88     		ldrh	r3, [r3]
 1087 003e 1BB2     		sxth	r3, r3
 1088 0040 3B60     		str	r3, [r7]
 1089 0042 DB17     		asr	r3, r3, #31
 1090 0044 7B60     		str	r3, [r7, #4]
 1091 0046 3868     		ldr	r0, [r7]
 1092 0048 7968     		ldr	r1, [r7, #4]
 1093 004a 0F4A     		ldr	r2, .L80+4
 1094 004c 0023     		mov	r3, #0
 1095 004e FFF7FEFF 		bl	__aeabi_lmul
 1096 0052 021C     		mov	r2, r0
 1097 0054 0B1C     		mov	r3, r1
 1098 0056 101C     		mov	r0, r2
 1099 0058 191C     		mov	r1, r3
 1100 005a 0C4B     		ldr	r3, .L80+8
 1101 005c FA68     		ldr	r2, [r7, #12]
ARM GAS  C:\Users\ADMINI~1\AppData\Local\Temp\ccSOxefd.s 			page 35


 1102 005e 9200     		lsl	r2, r2, #2
 1103 0060 D358     		ldr	r3, [r2, r3]
 1104 0062 1C1C     		mov	r4, r3
 1105 0064 DB17     		asr	r3, r3, #31
 1106 0066 1D1C     		mov	r5, r3
 1107 0068 221C     		mov	r2, r4
 1108 006a 2B1C     		mov	r3, r5
 1109 006c FFF7FEFF 		bl	__aeabi_ldivmod
 1110 0070 031C     		mov	r3, r0
 1111 0072 0C1C     		mov	r4, r1
 1112 0074 3B61     		str	r3, [r7, #16]
 1113 0076 7C61     		str	r4, [r7, #20]
 829:.\Generated_Source\PSoC4/ADC_SAR_Seq.c **** 
 830:.\Generated_Source\PSoC4/ADC_SAR_Seq.c ****         return( (int32)uVolts );
 1114              		.loc 1 830 0
 1115 0078 3B69     		ldr	r3, [r7, #16]
 831:.\Generated_Source\PSoC4/ADC_SAR_Seq.c ****     }
 1116              		.loc 1 831 0
 1117 007a 181C     		mov	r0, r3
 1118 007c BD46     		mov	sp, r7
 1119 007e 06B0     		add	sp, sp, #24
 1120              		@ sp needed
 1121 0080 B0BD     		pop	{r4, r5, r7, pc}
 1122              	.L81:
 1123 0082 C046     		.align	2
 1124              	.L80:
 1125 0084 00000000 		.word	ADC_SAR_Seq_offset
 1126 0088 80969800 		.word	10000000
 1127 008c 00000000 		.word	ADC_SAR_Seq_countsPer10Volt
 1128              		.cfi_endproc
 1129              	.LFE18:
 1130              		.size	ADC_SAR_Seq_CountsTo_uVolts, .-ADC_SAR_Seq_CountsTo_uVolts
 1131              		.global	__aeabi_i2f
 1132              		.global	__aeabi_fmul
 1133              		.global	__aeabi_fdiv
 1134              		.section	.text.ADC_SAR_Seq_CountsTo_Volts,"ax",%progbits
 1135              		.align	2
 1136              		.global	ADC_SAR_Seq_CountsTo_Volts
 1137              		.code	16
 1138              		.thumb_func
 1139              		.type	ADC_SAR_Seq_CountsTo_Volts, %function
 1140              	ADC_SAR_Seq_CountsTo_Volts:
 1141              	.LFB19:
 832:.\Generated_Source\PSoC4/ADC_SAR_Seq.c **** 
 833:.\Generated_Source\PSoC4/ADC_SAR_Seq.c **** 
 834:.\Generated_Source\PSoC4/ADC_SAR_Seq.c ****     /*******************************************************************************
 835:.\Generated_Source\PSoC4/ADC_SAR_Seq.c ****     * Function Name: ADC_SAR_Seq_CountsTo_Volts
 836:.\Generated_Source\PSoC4/ADC_SAR_Seq.c ****     ********************************************************************************
 837:.\Generated_Source\PSoC4/ADC_SAR_Seq.c ****     *
 838:.\Generated_Source\PSoC4/ADC_SAR_Seq.c ****     * Summary:
 839:.\Generated_Source\PSoC4/ADC_SAR_Seq.c ****     *  Converts the ADC output to Volts as a floating point number.
 840:.\Generated_Source\PSoC4/ADC_SAR_Seq.c ****     *  This function is not available when left data format justification selected.
 841:.\Generated_Source\PSoC4/ADC_SAR_Seq.c ****     *
 842:.\Generated_Source\PSoC4/ADC_SAR_Seq.c ****     * Parameters:
 843:.\Generated_Source\PSoC4/ADC_SAR_Seq.c ****     *  chan: The ADC channel number.
 844:.\Generated_Source\PSoC4/ADC_SAR_Seq.c ****     *  Result from the ADC conversion
 845:.\Generated_Source\PSoC4/ADC_SAR_Seq.c ****     *
ARM GAS  C:\Users\ADMINI~1\AppData\Local\Temp\ccSOxefd.s 			page 36


 846:.\Generated_Source\PSoC4/ADC_SAR_Seq.c ****     * Return:
 847:.\Generated_Source\PSoC4/ADC_SAR_Seq.c ****     *  Results in Volts
 848:.\Generated_Source\PSoC4/ADC_SAR_Seq.c ****     *
 849:.\Generated_Source\PSoC4/ADC_SAR_Seq.c ****     * Global variables:
 850:.\Generated_Source\PSoC4/ADC_SAR_Seq.c ****     *  ADC_SAR_Seq_countsPer10Volt:  used to convert ADC counts to Volts.
 851:.\Generated_Source\PSoC4/ADC_SAR_Seq.c ****     *  ADC_SAR_Seq_Offset:  Used as the offset while converting ADC counts
 852:.\Generated_Source\PSoC4/ADC_SAR_Seq.c ****     *   to mVolts.
 853:.\Generated_Source\PSoC4/ADC_SAR_Seq.c ****     *
 854:.\Generated_Source\PSoC4/ADC_SAR_Seq.c ****     *******************************************************************************/
 855:.\Generated_Source\PSoC4/ADC_SAR_Seq.c ****     float32 ADC_SAR_Seq_CountsTo_Volts(uint32 chan, int16 adcCounts)
 856:.\Generated_Source\PSoC4/ADC_SAR_Seq.c ****     {
 1142              		.loc 1 856 0
 1143              		.cfi_startproc
 1144 0000 90B5     		push	{r4, r7, lr}
 1145              		.cfi_def_cfa_offset 12
 1146              		.cfi_offset 4, -12
 1147              		.cfi_offset 7, -8
 1148              		.cfi_offset 14, -4
 1149 0002 85B0     		sub	sp, sp, #20
 1150              		.cfi_def_cfa_offset 32
 1151 0004 00AF     		add	r7, sp, #0
 1152              		.cfi_def_cfa_register 7
 1153 0006 7860     		str	r0, [r7, #4]
 1154 0008 0A1C     		mov	r2, r1
 1155 000a BB1C     		add	r3, r7, #2
 1156 000c 1A80     		strh	r2, [r3]
 857:.\Generated_Source\PSoC4/ADC_SAR_Seq.c ****         float32 volts;
 858:.\Generated_Source\PSoC4/ADC_SAR_Seq.c **** 
 859:.\Generated_Source\PSoC4/ADC_SAR_Seq.c ****         /* Halt CPU in debug mode if channel is out of valid range */
 860:.\Generated_Source\PSoC4/ADC_SAR_Seq.c ****         CYASSERT(chan < ADC_SAR_Seq_TOTAL_CHANNELS_NUM);
 1157              		.loc 1 860 0
 1158 000e 7B68     		ldr	r3, [r7, #4]
 1159 0010 002B     		cmp	r3, #0
 1160 0012 02D0     		beq	.L83
 1161              		.loc 1 860 0 is_stmt 0 discriminator 1
 1162 0014 0020     		mov	r0, #0
 1163 0016 FFF7FEFF 		bl	CyHalt
 1164              	.L83:
 861:.\Generated_Source\PSoC4/ADC_SAR_Seq.c **** 
 862:.\Generated_Source\PSoC4/ADC_SAR_Seq.c ****         /* Divide the adcCount when accumulate averaging mode selected */
 863:.\Generated_Source\PSoC4/ADC_SAR_Seq.c ****         #if(ADC_SAR_Seq_DEFAULT_AVG_MODE == ADC_SAR_Seq__ACCUMULATE)
 864:.\Generated_Source\PSoC4/ADC_SAR_Seq.c ****             if((ADC_SAR_Seq_channelsConfig[chan] & ADC_SAR_Seq_AVERAGING_EN) != 0u)
 865:.\Generated_Source\PSoC4/ADC_SAR_Seq.c ****             {
 866:.\Generated_Source\PSoC4/ADC_SAR_Seq.c ****                 adcCounts /= ADC_SAR_Seq_DEFAULT_AVG_SAMPLES_DIV;
 867:.\Generated_Source\PSoC4/ADC_SAR_Seq.c ****             }
 868:.\Generated_Source\PSoC4/ADC_SAR_Seq.c ****         #endif /* ADC_SAR_Seq_DEFAULT_AVG_MODE == ADC_SAR_Seq__ACCUMULATE */
 869:.\Generated_Source\PSoC4/ADC_SAR_Seq.c **** 
 870:.\Generated_Source\PSoC4/ADC_SAR_Seq.c ****         /* Subtract ADC offset */
 871:.\Generated_Source\PSoC4/ADC_SAR_Seq.c ****         adcCounts -= ADC_SAR_Seq_offset[chan];
 1165              		.loc 1 871 0 is_stmt 1
 1166 001a 164B     		ldr	r3, .L85
 1167 001c 7A68     		ldr	r2, [r7, #4]
 1168 001e 5200     		lsl	r2, r2, #1
 1169 0020 D35A     		ldrh	r3, [r2, r3]
 1170 0022 99B2     		uxth	r1, r3
 1171 0024 BB1C     		add	r3, r7, #2
 1172 0026 1A88     		ldrh	r2, [r3]
ARM GAS  C:\Users\ADMINI~1\AppData\Local\Temp\ccSOxefd.s 			page 37


 1173 0028 8BB2     		uxth	r3, r1
 1174 002a D31A     		sub	r3, r2, r3
 1175 002c 9AB2     		uxth	r2, r3
 1176 002e BB1C     		add	r3, r7, #2
 1177 0030 1A80     		strh	r2, [r3]
 872:.\Generated_Source\PSoC4/ADC_SAR_Seq.c **** 
 873:.\Generated_Source\PSoC4/ADC_SAR_Seq.c ****         volts = ((float32)adcCounts * ADC_SAR_Seq_10V_COUNTS) / (float32)ADC_SAR_Seq_countsPer10Vol
 1178              		.loc 1 873 0
 1179 0032 BB1C     		add	r3, r7, #2
 1180 0034 0022     		mov	r2, #0
 1181 0036 9B5E     		ldrsh	r3, [r3, r2]
 1182 0038 181C     		mov	r0, r3
 1183 003a FFF7FEFF 		bl	__aeabi_i2f
 1184 003e 031C     		add	r3, r0, #0
 1185 0040 181C     		add	r0, r3, #0
 1186 0042 0D49     		ldr	r1, .L85+4
 1187 0044 FFF7FEFF 		bl	__aeabi_fmul
 1188 0048 031C     		add	r3, r0, #0
 1189 004a 1C1C     		add	r4, r3, #0
 1190 004c 0B4B     		ldr	r3, .L85+8
 1191 004e 7A68     		ldr	r2, [r7, #4]
 1192 0050 9200     		lsl	r2, r2, #2
 1193 0052 D358     		ldr	r3, [r2, r3]
 1194 0054 181C     		mov	r0, r3
 1195 0056 FFF7FEFF 		bl	__aeabi_i2f
 1196 005a 031C     		add	r3, r0, #0
 1197 005c 201C     		add	r0, r4, #0
 1198 005e 191C     		add	r1, r3, #0
 1199 0060 FFF7FEFF 		bl	__aeabi_fdiv
 1200 0064 031C     		add	r3, r0, #0
 1201 0066 FB60     		str	r3, [r7, #12]
 874:.\Generated_Source\PSoC4/ADC_SAR_Seq.c **** 
 875:.\Generated_Source\PSoC4/ADC_SAR_Seq.c ****         return( volts );
 1202              		.loc 1 875 0
 1203 0068 FB68     		ldr	r3, [r7, #12]
 876:.\Generated_Source\PSoC4/ADC_SAR_Seq.c ****     }
 1204              		.loc 1 876 0
 1205 006a 181C     		add	r0, r3, #0
 1206 006c BD46     		mov	sp, r7
 1207 006e 05B0     		add	sp, sp, #20
 1208              		@ sp needed
 1209 0070 90BD     		pop	{r4, r7, pc}
 1210              	.L86:
 1211 0072 C046     		.align	2
 1212              	.L85:
 1213 0074 00000000 		.word	ADC_SAR_Seq_offset
 1214 0078 00002041 		.word	1092616192
 1215 007c 00000000 		.word	ADC_SAR_Seq_countsPer10Volt
 1216              		.cfi_endproc
 1217              	.LFE19:
 1218              		.size	ADC_SAR_Seq_CountsTo_Volts, .-ADC_SAR_Seq_CountsTo_Volts
 1219              		.text
 1220              	.Letext0:
 1221              		.file 2 ".\\Generated_Source\\PSoC4\\cytypes.h"