ARM GAS  C:\Users\ADMINI~1\AppData\Local\Temp\ccvxLC1q.s 			page 1


   1              		.cpu cortex-m0
   2              		.fpu softvfp
   3              		.eabi_attribute 20, 1
   4              		.eabi_attribute 21, 1
   5              		.eabi_attribute 23, 3
   6              		.eabi_attribute 24, 1
   7              		.eabi_attribute 25, 1
   8              		.eabi_attribute 26, 1
   9              		.eabi_attribute 30, 6
  10              		.eabi_attribute 34, 0
  11              		.eabi_attribute 18, 4
  12              		.code	16
  13              		.file	"alarm.c"
  14              		.text
  15              	.Ltext0:
  16              		.cfi_sections	.debug_frame
  17              		.section	.text.Alarm_Event,"ax",%progbits
  18              		.align	2
  19              		.global	Alarm_Event
  20              		.code	16
  21              		.thumb_func
  22              		.type	Alarm_Event, %function
  23              	Alarm_Event:
  24              	.LFB37:
  25              		.file 1 ".\\alarm.c"
   1:.\alarm.c     **** /* ========================================
   2:.\alarm.c     ****  *
   3:.\alarm.c     ****  * Copyright YOUR COMPANY, THE YEAR
   4:.\alarm.c     ****  * All Rights Reserved
   5:.\alarm.c     ****  * UNPUBLISHED, LICENSED SOFTWARE.
   6:.\alarm.c     ****  *
   7:.\alarm.c     ****  * CONFIDENTIAL AND PROPRIETARY INFORMATION
   8:.\alarm.c     ****  * WHICH IS THE PROPERTY OF your company.
   9:.\alarm.c     ****  *
  10:.\alarm.c     ****  * ========================================
  11:.\alarm.c     **** */
  12:.\alarm.c     **** #include "alarm.h"
  13:.\alarm.c     **** 
  14:.\alarm.c     **** /***********************************************************
  15:.\alarm.c     ****  * @function_name: void Alarm_Event(u8* Data)
  16:.\alarm.c     ****  * @function_file: Dr_Alarm.c
  17:.\alarm.c     ****  * @描  述： 报警事件主程序
  18:.\alarm.c     ****  *
  19:.\alarm.c     ****  * @参  数： 报警事件
  20:.\alarm.c     ****  * @返  回： 无
  21:.\alarm.c     ****  * @作  者： ZhangQun (2014-9-2)
  22:.\alarm.c     ****  *---------------------------------------------------------
  23:.\alarm.c     ****  * @修改人： ZhangQun (2014-9-2)
  24:.\alarm.c     **** ***********************************************************/
  25:.\alarm.c     **** void Alarm_Event(uint8 Event)
  26:.\alarm.c     **** {
  26              		.loc 1 26 0
  27              		.cfi_startproc
  28 0000 80B5     		push	{r7, lr}
  29              		.cfi_def_cfa_offset 8
  30              		.cfi_offset 7, -8
  31              		.cfi_offset 14, -4
ARM GAS  C:\Users\ADMINI~1\AppData\Local\Temp\ccvxLC1q.s 			page 2


  32 0002 82B0     		sub	sp, sp, #8
  33              		.cfi_def_cfa_offset 16
  34 0004 00AF     		add	r7, sp, #0
  35              		.cfi_def_cfa_register 7
  36 0006 021C     		mov	r2, r0
  37 0008 FB1D     		add	r3, r7, #7
  38 000a 1A70     		strb	r2, [r3]
  27:.\alarm.c     ****    switch (Event)
  39              		.loc 1 27 0
  40 000c FB1D     		add	r3, r7, #7
  41 000e 1B78     		ldrb	r3, [r3]
  42 0010 022B     		cmp	r3, #2
  43 0012 27D0     		beq	.L3
  44 0014 02DC     		bgt	.L4
  45 0016 012B     		cmp	r3, #1
  46 0018 06D0     		beq	.L5
  47 001a B9E0     		b	.L2
  48              	.L4:
  49 001c 032B     		cmp	r3, #3
  50 001e 4CD0     		beq	.L6
  51 0020 042B     		cmp	r3, #4
  52 0022 00D1     		bne	.LCB30
  53 0024 80E0     		b	.L7	@long jump
  54              	.LCB30:
  55 0026 B3E0     		b	.L2
  56              	.L5:
  28:.\alarm.c     ****     {
  29:.\alarm.c     ****         case EVENT_1:	//蜂鸣器：嘀
  30:.\alarm.c     ****             if (Delay_Time.Alarm_Count == 0)
  57              		.loc 1 30 0
  58 0028 604B     		ldr	r3, .L24
  59 002a 9B88     		ldrh	r3, [r3, #4]
  60 002c 002B     		cmp	r3, #0
  61 002e 02D1     		bne	.L8
  31:.\alarm.c     ****             {
  32:.\alarm.c     ****                 BEEP_OPEN;
  62              		.loc 1 32 0
  63 0030 0120     		mov	r0, #1
  64 0032 FFF7FEFF 		bl	Beep_Ctrl_Write
  65              	.L8:
  33:.\alarm.c     ****             }
  34:.\alarm.c     ****             Delay_Time.Alarm_Count ++;
  66              		.loc 1 34 0
  67 0036 5D4B     		ldr	r3, .L24
  68 0038 9B88     		ldrh	r3, [r3, #4]
  69 003a 0133     		add	r3, r3, #1
  70 003c 9AB2     		uxth	r2, r3
  71 003e 5B4B     		ldr	r3, .L24
  72 0040 9A80     		strh	r2, [r3, #4]
  35:.\alarm.c     ****             if(Delay_Time.Alarm_Count > 100)
  73              		.loc 1 35 0
  74 0042 5A4B     		ldr	r3, .L24
  75 0044 9B88     		ldrh	r3, [r3, #4]
  76 0046 642B     		cmp	r3, #100
  77 0048 0BD9     		bls	.L9
  36:.\alarm.c     ****             {
  37:.\alarm.c     ****                 Delay_Time.Alarm_Count = 0;
ARM GAS  C:\Users\ADMINI~1\AppData\Local\Temp\ccvxLC1q.s 			page 3


  78              		.loc 1 37 0
  79 004a 584B     		ldr	r3, .L24
  80 004c 0022     		mov	r2, #0
  81 004e 9A80     		strh	r2, [r3, #4]
  38:.\alarm.c     ****                 BEEP_CLOSE;
  82              		.loc 1 38 0
  83 0050 0020     		mov	r0, #0
  84 0052 FFF7FEFF 		bl	Beep_Ctrl_Write
  39:.\alarm.c     ****                 Flag.Alarm_Work_Step = EVENT_0;
  85              		.loc 1 39 0
  86 0056 564B     		ldr	r3, .L24+4
  87 0058 5A78     		ldrb	r2, [r3, #1]
  88 005a 1C21     		mov	r1, #28
  89 005c 8A43     		bic	r2, r1
  90 005e 5A70     		strb	r2, [r3, #1]
  40:.\alarm.c     ****             }
  41:.\alarm.c     ****             break;
  91              		.loc 1 41 0
  92 0060 A0E0     		b	.L1
  93              	.L9:
  94 0062 9FE0     		b	.L1
  95              	.L3:
  42:.\alarm.c     **** 
  43:.\alarm.c     ****         case EVENT_2:   //蜂鸣器：嘀滴
  44:.\alarm.c     ****             if (  (Delay_Time.Alarm_Count == 0) 
  96              		.loc 1 44 0
  97 0064 514B     		ldr	r3, .L24
  98 0066 9B88     		ldrh	r3, [r3, #4]
  99 0068 002B     		cmp	r3, #0
 100 006a 03D0     		beq	.L11
  45:.\alarm.c     ****                || (Delay_Time.Alarm_Count == 200) )
 101              		.loc 1 45 0
 102 006c 4F4B     		ldr	r3, .L24
 103 006e 9B88     		ldrh	r3, [r3, #4]
 104 0070 C82B     		cmp	r3, #200
 105 0072 02D1     		bne	.L12
 106              	.L11:
  46:.\alarm.c     ****             {
  47:.\alarm.c     ****                 BEEP_OPEN;
 107              		.loc 1 47 0
 108 0074 0120     		mov	r0, #1
 109 0076 FFF7FEFF 		bl	Beep_Ctrl_Write
 110              	.L12:
  48:.\alarm.c     ****             }
  49:.\alarm.c     ****             if (Delay_Time.Alarm_Count == 100)
 111              		.loc 1 49 0
 112 007a 4C4B     		ldr	r3, .L24
 113 007c 9B88     		ldrh	r3, [r3, #4]
 114 007e 642B     		cmp	r3, #100
 115 0080 02D1     		bne	.L13
  50:.\alarm.c     ****             {
  51:.\alarm.c     ****                 BEEP_CLOSE;
 116              		.loc 1 51 0
 117 0082 0020     		mov	r0, #0
 118 0084 FFF7FEFF 		bl	Beep_Ctrl_Write
 119              	.L13:
  52:.\alarm.c     ****             }            
ARM GAS  C:\Users\ADMINI~1\AppData\Local\Temp\ccvxLC1q.s 			page 4


  53:.\alarm.c     ****             Delay_Time.Alarm_Count ++;
 120              		.loc 1 53 0
 121 0088 484B     		ldr	r3, .L24
 122 008a 9B88     		ldrh	r3, [r3, #4]
 123 008c 0133     		add	r3, r3, #1
 124 008e 9AB2     		uxth	r2, r3
 125 0090 464B     		ldr	r3, .L24
 126 0092 9A80     		strh	r2, [r3, #4]
  54:.\alarm.c     ****             if (Delay_Time.Alarm_Count >= 300)
 127              		.loc 1 54 0
 128 0094 454B     		ldr	r3, .L24
 129 0096 9A88     		ldrh	r2, [r3, #4]
 130 0098 2C23     		mov	r3, #44
 131 009a FF33     		add	r3, r3, #255
 132 009c 9A42     		cmp	r2, r3
 133 009e 0BD9     		bls	.L14
  55:.\alarm.c     ****             {
  56:.\alarm.c     ****                 Delay_Time.Alarm_Count = 0;
 134              		.loc 1 56 0
 135 00a0 424B     		ldr	r3, .L24
 136 00a2 0022     		mov	r2, #0
 137 00a4 9A80     		strh	r2, [r3, #4]
  57:.\alarm.c     ****                 BEEP_CLOSE;
 138              		.loc 1 57 0
 139 00a6 0020     		mov	r0, #0
 140 00a8 FFF7FEFF 		bl	Beep_Ctrl_Write
  58:.\alarm.c     ****                 Flag.Alarm_Work_Step = EVENT_0;            
 141              		.loc 1 58 0
 142 00ac 404B     		ldr	r3, .L24+4
 143 00ae 5A78     		ldrb	r2, [r3, #1]
 144 00b0 1C21     		mov	r1, #28
 145 00b2 8A43     		bic	r2, r1
 146 00b4 5A70     		strb	r2, [r3, #1]
  59:.\alarm.c     ****             }           
  60:.\alarm.c     ****             break;
 147              		.loc 1 60 0
 148 00b6 75E0     		b	.L1
 149              	.L14:
 150 00b8 74E0     		b	.L1
 151              	.L6:
  61:.\alarm.c     **** 
  62:.\alarm.c     ****         case EVENT_3:
  63:.\alarm.c     ****             if (  (Delay_Time.Alarm_Count == 0) 
 152              		.loc 1 63 0
 153 00ba 3C4B     		ldr	r3, .L24
 154 00bc 9B88     		ldrh	r3, [r3, #4]
 155 00be 002B     		cmp	r3, #0
 156 00c0 09D0     		beq	.L15
  64:.\alarm.c     ****                || (Delay_Time.Alarm_Count == 200)
 157              		.loc 1 64 0
 158 00c2 3A4B     		ldr	r3, .L24
 159 00c4 9B88     		ldrh	r3, [r3, #4]
 160 00c6 C82B     		cmp	r3, #200
 161 00c8 05D0     		beq	.L15
  65:.\alarm.c     ****                || (Delay_Time.Alarm_Count == 400))
 162              		.loc 1 65 0
 163 00ca 384B     		ldr	r3, .L24
ARM GAS  C:\Users\ADMINI~1\AppData\Local\Temp\ccvxLC1q.s 			page 5


 164 00cc 9A88     		ldrh	r2, [r3, #4]
 165 00ce C823     		mov	r3, #200
 166 00d0 5B00     		lsl	r3, r3, #1
 167 00d2 9A42     		cmp	r2, r3
 168 00d4 02D1     		bne	.L16
 169              	.L15:
  66:.\alarm.c     ****             {
  67:.\alarm.c     ****                 BEEP_OPEN;
 170              		.loc 1 67 0
 171 00d6 0120     		mov	r0, #1
 172 00d8 FFF7FEFF 		bl	Beep_Ctrl_Write
 173              	.L16:
  68:.\alarm.c     ****             }
  69:.\alarm.c     ****             if (  (Delay_Time.Alarm_Count == 100)
 174              		.loc 1 69 0
 175 00dc 334B     		ldr	r3, .L24
 176 00de 9B88     		ldrh	r3, [r3, #4]
 177 00e0 642B     		cmp	r3, #100
 178 00e2 05D0     		beq	.L17
  70:.\alarm.c     ****                || (Delay_Time.Alarm_Count == 300) ) 
 179              		.loc 1 70 0
 180 00e4 314B     		ldr	r3, .L24
 181 00e6 9A88     		ldrh	r2, [r3, #4]
 182 00e8 9623     		mov	r3, #150
 183 00ea 5B00     		lsl	r3, r3, #1
 184 00ec 9A42     		cmp	r2, r3
 185 00ee 02D1     		bne	.L18
 186              	.L17:
  71:.\alarm.c     ****             {
  72:.\alarm.c     ****                 BEEP_CLOSE;
 187              		.loc 1 72 0
 188 00f0 0020     		mov	r0, #0
 189 00f2 FFF7FEFF 		bl	Beep_Ctrl_Write
 190              	.L18:
  73:.\alarm.c     ****             }            
  74:.\alarm.c     ****             Delay_Time.Alarm_Count ++;
 191              		.loc 1 74 0
 192 00f6 2D4B     		ldr	r3, .L24
 193 00f8 9B88     		ldrh	r3, [r3, #4]
 194 00fa 0133     		add	r3, r3, #1
 195 00fc 9AB2     		uxth	r2, r3
 196 00fe 2B4B     		ldr	r3, .L24
 197 0100 9A80     		strh	r2, [r3, #4]
  75:.\alarm.c     ****             if (Delay_Time.Alarm_Count >= 500)
 198              		.loc 1 75 0
 199 0102 2A4B     		ldr	r3, .L24
 200 0104 9A88     		ldrh	r2, [r3, #4]
 201 0106 F423     		mov	r3, #244
 202 0108 FF33     		add	r3, r3, #255
 203 010a 9A42     		cmp	r2, r3
 204 010c 0BD9     		bls	.L19
  76:.\alarm.c     ****             {
  77:.\alarm.c     ****                 Delay_Time.Alarm_Count = 0;
 205              		.loc 1 77 0
 206 010e 274B     		ldr	r3, .L24
 207 0110 0022     		mov	r2, #0
 208 0112 9A80     		strh	r2, [r3, #4]
ARM GAS  C:\Users\ADMINI~1\AppData\Local\Temp\ccvxLC1q.s 			page 6


  78:.\alarm.c     ****                 BEEP_CLOSE;
 209              		.loc 1 78 0
 210 0114 0020     		mov	r0, #0
 211 0116 FFF7FEFF 		bl	Beep_Ctrl_Write
  79:.\alarm.c     ****                 Flag.Alarm_Work_Step = EVENT_0;            
 212              		.loc 1 79 0
 213 011a 254B     		ldr	r3, .L24+4
 214 011c 5A78     		ldrb	r2, [r3, #1]
 215 011e 1C21     		mov	r1, #28
 216 0120 8A43     		bic	r2, r1
 217 0122 5A70     		strb	r2, [r3, #1]
  80:.\alarm.c     ****             }              
  81:.\alarm.c     ****             break;
 218              		.loc 1 81 0
 219 0124 3EE0     		b	.L1
 220              	.L19:
 221 0126 3DE0     		b	.L1
 222              	.L7:
  82:.\alarm.c     **** 
  83:.\alarm.c     ****         case EVENT_4:
  84:.\alarm.c     ****             if (  (Delay_Time.Alarm_Count == 0) 
 223              		.loc 1 84 0
 224 0128 204B     		ldr	r3, .L24
 225 012a 9B88     		ldrh	r3, [r3, #4]
 226 012c 002B     		cmp	r3, #0
 227 012e 03D0     		beq	.L20
  85:.\alarm.c     ****                || (Delay_Time.Alarm_Count == 200) )
 228              		.loc 1 85 0
 229 0130 1E4B     		ldr	r3, .L24
 230 0132 9B88     		ldrh	r3, [r3, #4]
 231 0134 C82B     		cmp	r3, #200
 232 0136 05D1     		bne	.L21
 233              	.L20:
  86:.\alarm.c     ****             {
  87:.\alarm.c     ****                 BEEP_OPEN;
 234              		.loc 1 87 0
 235 0138 0120     		mov	r0, #1
 236 013a FFF7FEFF 		bl	Beep_Ctrl_Write
  88:.\alarm.c     ****                 LOCK_LED_OPEN;
 237              		.loc 1 88 0
 238 013e 0120     		mov	r0, #1
 239 0140 FFF7FEFF 		bl	LED_Ctrl_Write
 240              	.L21:
  89:.\alarm.c     ****             }
  90:.\alarm.c     ****             if (Delay_Time.Alarm_Count == 100)
 241              		.loc 1 90 0
 242 0144 194B     		ldr	r3, .L24
 243 0146 9B88     		ldrh	r3, [r3, #4]
 244 0148 642B     		cmp	r3, #100
 245 014a 05D1     		bne	.L22
  91:.\alarm.c     ****             {
  92:.\alarm.c     ****                 BEEP_CLOSE;
 246              		.loc 1 92 0
 247 014c 0020     		mov	r0, #0
 248 014e FFF7FEFF 		bl	Beep_Ctrl_Write
  93:.\alarm.c     ****                 LOCK_LED_CLOSE;
 249              		.loc 1 93 0
ARM GAS  C:\Users\ADMINI~1\AppData\Local\Temp\ccvxLC1q.s 			page 7


 250 0152 0020     		mov	r0, #0
 251 0154 FFF7FEFF 		bl	LED_Ctrl_Write
 252              	.L22:
  94:.\alarm.c     ****             }     
  95:.\alarm.c     ****             Delay_Time.Alarm_Count ++;
 253              		.loc 1 95 0
 254 0158 144B     		ldr	r3, .L24
 255 015a 9B88     		ldrh	r3, [r3, #4]
 256 015c 0133     		add	r3, r3, #1
 257 015e 9AB2     		uxth	r2, r3
 258 0160 124B     		ldr	r3, .L24
 259 0162 9A80     		strh	r2, [r3, #4]
  96:.\alarm.c     ****             if (Delay_Time.Alarm_Count >= 300)
 260              		.loc 1 96 0
 261 0164 114B     		ldr	r3, .L24
 262 0166 9A88     		ldrh	r2, [r3, #4]
 263 0168 2C23     		mov	r3, #44
 264 016a FF33     		add	r3, r3, #255
 265 016c 9A42     		cmp	r2, r3
 266 016e 0ED9     		bls	.L23
  97:.\alarm.c     ****             {
  98:.\alarm.c     ****                 Delay_Time.Alarm_Count = 0;
 267              		.loc 1 98 0
 268 0170 0E4B     		ldr	r3, .L24
 269 0172 0022     		mov	r2, #0
 270 0174 9A80     		strh	r2, [r3, #4]
  99:.\alarm.c     ****                 BEEP_CLOSE;
 271              		.loc 1 99 0
 272 0176 0020     		mov	r0, #0
 273 0178 FFF7FEFF 		bl	Beep_Ctrl_Write
 100:.\alarm.c     ****                 LOCK_LED_CLOSE;
 274              		.loc 1 100 0
 275 017c 0020     		mov	r0, #0
 276 017e FFF7FEFF 		bl	LED_Ctrl_Write
 101:.\alarm.c     ****                 Flag.Alarm_Work_Step = EVENT_0;            
 277              		.loc 1 101 0
 278 0182 0B4B     		ldr	r3, .L24+4
 279 0184 5A78     		ldrb	r2, [r3, #1]
 280 0186 1C21     		mov	r1, #28
 281 0188 8A43     		bic	r2, r1
 282 018a 5A70     		strb	r2, [r3, #1]
 102:.\alarm.c     ****             }    
 103:.\alarm.c     ****             break;      
 283              		.loc 1 103 0
 284 018c 0AE0     		b	.L1
 285              	.L23:
 286 018e 09E0     		b	.L1
 287              	.L2:
 104:.\alarm.c     **** 			
 105:.\alarm.c     ****         case EVENT_0:	//正常事件
 106:.\alarm.c     ****         default:
 107:.\alarm.c     ****             Delay_Time.Alarm_Count = 0;
 288              		.loc 1 107 0
 289 0190 064B     		ldr	r3, .L24
 290 0192 0022     		mov	r2, #0
 291 0194 9A80     		strh	r2, [r3, #4]
 108:.\alarm.c     ****             BEEP_CLOSE;
ARM GAS  C:\Users\ADMINI~1\AppData\Local\Temp\ccvxLC1q.s 			page 8


 292              		.loc 1 108 0
 293 0196 0020     		mov	r0, #0
 294 0198 FFF7FEFF 		bl	Beep_Ctrl_Write
 109:.\alarm.c     ****             LOCK_LED_CLOSE;
 295              		.loc 1 109 0
 296 019c 0020     		mov	r0, #0
 297 019e FFF7FEFF 		bl	LED_Ctrl_Write
 110:.\alarm.c     ****             break;
 298              		.loc 1 110 0
 299 01a2 C046     		mov	r8, r8
 300              	.L1:
 111:.\alarm.c     ****     }
 112:.\alarm.c     **** }
 301              		.loc 1 112 0
 302 01a4 BD46     		mov	sp, r7
 303 01a6 02B0     		add	sp, sp, #8
 304              		@ sp needed
 305 01a8 80BD     		pop	{r7, pc}
 306              	.L25:
 307 01aa C046     		.align	2
 308              	.L24:
 309 01ac 00000000 		.word	Delay_Time
 310 01b0 00000000 		.word	Flag
 311              		.cfi_endproc
 312              	.LFE37:
 313              		.size	Alarm_Event, .-Alarm_Event
 314              		.text
 315              	.Letext0:
 316              		.file 2 "Generated_Source\\PSoC4/cytypes.h"
 317              		.file 3 ".\\struct.h"