ARM GAS  C:\Users\ADMINI~1.SC-\AppData\Local\Temp\ccIaAudb.s 			page 1


   1              		.cpu cortex-m0
   2              		.fpu softvfp
   3              		.eabi_attribute 20, 1
   4              		.eabi_attribute 21, 1
   5              		.eabi_attribute 23, 3
   6              		.eabi_attribute 24, 1
   7              		.eabi_attribute 25, 1
   8              		.eabi_attribute 26, 1
   9              		.eabi_attribute 30, 6
  10              		.eabi_attribute 34, 0
  11              		.eabi_attribute 18, 4
  12              		.code	16
  13              		.file	"app_UART.c"
  14              		.text
  15              	.Ltext0:
  16              		.cfi_sections	.debug_frame
  17              		.comm	uartRxData,20,4
  18              		.comm	uartRxDataLength,2,2
  19              		.comm	uartRxflag,1,1
  20              		.section	.text.HandleUartTxTraffic,"ax",%progbits
  21              		.align	2
  22              		.global	HandleUartTxTraffic
  23              		.code	16
  24              		.thumb_func
  25              		.type	HandleUartTxTraffic, %function
  26              	HandleUartTxTraffic:
  27              	.LFB35:
  28              		.file 1 "app_UART.c"
   1:app_UART.c    **** /*****************************************************************************************
   2:app_UART.c    **** * File Name: app_UART.c
   3:app_UART.c    **** *
   4:app_UART.c    **** * Description:
   5:app_UART.c    **** *  Common BLE application code for client devices.
   6:app_UART.c    **** *
   7:app_UART.c    **** *****************************************************************************************
   8:app_UART.c    **** * Copyright 2015, Cypress Semiconductor Corporation.  All rights reserved.
   9:app_UART.c    **** * You may use this file only in accordance with the license, terms, conditions,
  10:app_UART.c    **** * disclaimers, and limitations in the end user license agreement accompanying
  11:app_UART.c    **** * the software package with which this file was provided.
  12:app_UART.c    **** *****************************************************************************************/
  13:app_UART.c    **** 
  14:app_UART.c    **** #include "app_UART.h"
  15:app_UART.c    **** #include "app_Ble.h"
  16:app_UART.c    **** extern char blename[11];
  17:app_UART.c    **** uint8   uartRxData[20];
  18:app_UART.c    **** uint16  uartRxDataLength;
  19:app_UART.c    **** uint8   uartRxflag;
  20:app_UART.c    **** /*****************************************************************************************
  21:app_UART.c    **** * Function Name: HandleUartTxTraffic
  22:app_UART.c    **** ******************************************************************************************
  23:app_UART.c    **** *
  24:app_UART.c    **** * Summary:
  25:app_UART.c    **** *  This function takes data from UART RX buffer and pushes it to the server 
  26:app_UART.c    **** *  as Notifications.
  27:app_UART.c    **** *
  28:app_UART.c    **** * Parameters:
  29:app_UART.c    **** *  uint16 - CCCD for checking if notifications are enabled  
ARM GAS  C:\Users\ADMINI~1.SC-\AppData\Local\Temp\ccIaAudb.s 			page 2


  30:app_UART.c    **** *
  31:app_UART.c    **** * Return:
  32:app_UART.c    **** *   None.
  33:app_UART.c    **** *
  34:app_UART.c    **** *****************************************************************************************/
  35:app_UART.c    **** void HandleUartTxTraffic(void)
  36:app_UART.c    **** {
  29              		.loc 1 36 0
  30              		.cfi_startproc
  31 0000 90B5     		push	{r4, r7, lr}
  32              		.cfi_def_cfa_offset 12
  33              		.cfi_offset 4, -12
  34              		.cfi_offset 7, -8
  35              		.cfi_offset 14, -4
  36 0002 83B0     		sub	sp, sp, #12
  37              		.cfi_def_cfa_offset 24
  38 0004 00AF     		add	r7, sp, #0
  39              		.cfi_def_cfa_register 7
  37:app_UART.c    ****     uint8   index;
  38:app_UART.c    ****     static uint16 uartIdleCount = UART_IDLE_TIMEOUT;
  39:app_UART.c    ****     uartRxDataLength = UART_SpiUartGetRxBufferSize();
  40              		.loc 1 39 0
  41 0006 FFF7FEFF 		bl	UART_SpiUartGetRxBufferSize
  42 000a 031C     		mov	r3, r0
  43 000c 9AB2     		uxth	r2, r3
  44 000e 1D4B     		ldr	r3, .L7
  45 0010 1A80     		strh	r2, [r3]
  40:app_UART.c    ****     if(0 != uartRxDataLength)
  46              		.loc 1 40 0
  47 0012 1C4B     		ldr	r3, .L7
  48 0014 1B88     		ldrh	r3, [r3]
  49 0016 002B     		cmp	r3, #0
  50 0018 30D0     		beq	.L1
  41:app_UART.c    ****     {
  42:app_UART.c    ****         if(--uartIdleCount == 0)
  51              		.loc 1 42 0
  52 001a 1B4B     		ldr	r3, .L7+4
  53 001c 1B88     		ldrh	r3, [r3]
  54 001e 013B     		sub	r3, r3, #1
  55 0020 9AB2     		uxth	r2, r3
  56 0022 194B     		ldr	r3, .L7+4
  57 0024 1A80     		strh	r2, [r3]
  58 0026 184B     		ldr	r3, .L7+4
  59 0028 1B88     		ldrh	r3, [r3]
  60 002a 002B     		cmp	r3, #0
  61 002c 03D1     		bne	.L3
  43:app_UART.c    ****         {
  44:app_UART.c    ****             /*uartTxDataLength remains unchanged */;
  45:app_UART.c    ****             uartRxflag=1;
  62              		.loc 1 45 0
  63 002e 174B     		ldr	r3, .L7+8
  64 0030 0122     		mov	r2, #1
  65 0032 1A70     		strb	r2, [r3]
  66 0034 02E0     		b	.L4
  67              	.L3:
  46:app_UART.c    ****         }
  47:app_UART.c    ****         else
ARM GAS  C:\Users\ADMINI~1.SC-\AppData\Local\Temp\ccIaAudb.s 			page 3


  48:app_UART.c    ****         {
  49:app_UART.c    ****             uartRxDataLength = 0;
  68              		.loc 1 49 0
  69 0036 134B     		ldr	r3, .L7
  70 0038 0022     		mov	r2, #0
  71 003a 1A80     		strh	r2, [r3]
  72              	.L4:
  50:app_UART.c    ****         }
  51:app_UART.c    ****         if(0 != uartRxDataLength)
  73              		.loc 1 51 0
  74 003c 114B     		ldr	r3, .L7
  75 003e 1B88     		ldrh	r3, [r3]
  76 0040 002B     		cmp	r3, #0
  77 0042 1BD0     		beq	.L1
  52:app_UART.c    ****         {
  53:app_UART.c    ****             uartIdleCount       = UART_IDLE_TIMEOUT;            
  78              		.loc 1 53 0
  79 0044 104B     		ldr	r3, .L7+4
  80 0046 FA22     		mov	r2, #250
  81 0048 9200     		lsl	r2, r2, #2
  82 004a 1A80     		strh	r2, [r3]
  54:app_UART.c    ****             for(index = 0; index < uartRxDataLength; index++)
  83              		.loc 1 54 0
  84 004c FB1D     		add	r3, r7, #7
  85 004e 0022     		mov	r2, #0
  86 0050 1A70     		strb	r2, [r3]
  87 0052 0CE0     		b	.L5
  88              	.L6:
  55:app_UART.c    ****             {
  56:app_UART.c    ****                 uartRxData[index] = (uint8) UART_UartGetByte();
  89              		.loc 1 56 0 discriminator 3
  90 0054 FB1D     		add	r3, r7, #7
  91 0056 1C78     		ldrb	r4, [r3]
  92 0058 FFF7FEFF 		bl	UART_UartGetByte
  93 005c 031C     		mov	r3, r0
  94 005e DAB2     		uxtb	r2, r3
  95 0060 0B4B     		ldr	r3, .L7+12
  96 0062 1A55     		strb	r2, [r3, r4]
  54:app_UART.c    ****             for(index = 0; index < uartRxDataLength; index++)
  97              		.loc 1 54 0 discriminator 3
  98 0064 FB1D     		add	r3, r7, #7
  99 0066 1A78     		ldrb	r2, [r3]
 100 0068 FB1D     		add	r3, r7, #7
 101 006a 0132     		add	r2, r2, #1
 102 006c 1A70     		strb	r2, [r3]
 103              	.L5:
  54:app_UART.c    ****             for(index = 0; index < uartRxDataLength; index++)
 104              		.loc 1 54 0 is_stmt 0 discriminator 1
 105 006e FB1D     		add	r3, r7, #7
 106 0070 1B78     		ldrb	r3, [r3]
 107 0072 9AB2     		uxth	r2, r3
 108 0074 034B     		ldr	r3, .L7
 109 0076 1B88     		ldrh	r3, [r3]
 110 0078 9A42     		cmp	r2, r3
 111 007a EBD3     		bcc	.L6
 112              	.L1:
  57:app_UART.c    ****             }
ARM GAS  C:\Users\ADMINI~1.SC-\AppData\Local\Temp\ccIaAudb.s 			page 4


  58:app_UART.c    ****         }
  59:app_UART.c    ****     }
  60:app_UART.c    **** 
  61:app_UART.c    **** }
 113              		.loc 1 61 0 is_stmt 1
 114 007c BD46     		mov	sp, r7
 115 007e 03B0     		add	sp, sp, #12
 116              		@ sp needed
 117 0080 90BD     		pop	{r4, r7, pc}
 118              	.L8:
 119 0082 C046     		.align	2
 120              	.L7:
 121 0084 00000000 		.word	uartRxDataLength
 122 0088 00000000 		.word	uartIdleCount.7082
 123 008c 00000000 		.word	uartRxflag
 124 0090 00000000 		.word	uartRxData
 125              		.cfi_endproc
 126              	.LFE35:
 127              		.size	HandleUartTxTraffic, .-HandleUartTxTraffic
 128              		.section	.text.HandleUartRxTraffic,"ax",%progbits
 129              		.align	2
 130              		.global	HandleUartRxTraffic
 131              		.code	16
 132              		.thumb_func
 133              		.type	HandleUartRxTraffic, %function
 134              	HandleUartRxTraffic:
 135              	.LFB36:
  62:app_UART.c    **** 
  63:app_UART.c    **** /*****************************************************************************************
  64:app_UART.c    **** * Function Name: HandleUartRxTraffic
  65:app_UART.c    **** ******************************************************************************************
  66:app_UART.c    **** *
  67:app_UART.c    **** * Summary:
  68:app_UART.c    **** *  This function takes data from received "write without response" command from
  69:app_UART.c    **** *  server and, pushes it to the UART TX buffer. 
  70:app_UART.c    **** *
  71:app_UART.c    **** * Parameters:
  72:app_UART.c    **** *  CYBLE_GATTS_WRITE_REQ_PARAM_T * - the "write without response" param as
  73:app_UART.c    **** *                                    recieved by the BLE stack
  74:app_UART.c    **** *
  75:app_UART.c    **** * Return:
  76:app_UART.c    **** *   None.
  77:app_UART.c    **** *通过串口发送到PC机
  78:app_UART.c    **** *****************************************************************************************/
  79:app_UART.c    **** void HandleUartRxTraffic(CYBLE_GATTS_WRITE_REQ_PARAM_T * uartRxDataWrReq)
  80:app_UART.c    **** {
 136              		.loc 1 80 0
 137              		.cfi_startproc
 138 0000 80B5     		push	{r7, lr}
 139              		.cfi_def_cfa_offset 8
 140              		.cfi_offset 7, -8
 141              		.cfi_offset 14, -4
 142 0002 82B0     		sub	sp, sp, #8
 143              		.cfi_def_cfa_offset 16
 144 0004 00AF     		add	r7, sp, #0
 145              		.cfi_def_cfa_register 7
 146 0006 7860     		str	r0, [r7, #4]
ARM GAS  C:\Users\ADMINI~1.SC-\AppData\Local\Temp\ccIaAudb.s 			page 5


  81:app_UART.c    ****     //if(uartRxDataWrReq->handleValPair.attrHandle == CYBLE_SERVER_UART_SERVER_UART_RX_DATA_CHAR_HA
  82:app_UART.c    ****     {
  83:app_UART.c    ****         UART_SpiUartPutArray(uartRxDataWrReq->handleValPair.value.val, \
 147              		.loc 1 83 0
 148 0008 7B68     		ldr	r3, [r7, #4]
 149 000a 5A68     		ldr	r2, [r3, #4]
  84:app_UART.c    ****                                     (uint32) uartRxDataWrReq->handleValPair.value.len);
 150              		.loc 1 84 0
 151 000c 7B68     		ldr	r3, [r7, #4]
 152 000e 1B89     		ldrh	r3, [r3, #8]
  83:app_UART.c    ****                                     (uint32) uartRxDataWrReq->handleValPair.value.len);
 153              		.loc 1 83 0
 154 0010 101C     		mov	r0, r2
 155 0012 191C     		mov	r1, r3
 156 0014 FFF7FEFF 		bl	UART_SpiUartPutArray
  85:app_UART.c    ****     }
  86:app_UART.c    **** }
 157              		.loc 1 86 0
 158 0018 BD46     		mov	sp, r7
 159 001a 02B0     		add	sp, sp, #8
 160              		@ sp needed
 161 001c 80BD     		pop	{r7, pc}
 162              		.cfi_endproc
 163              	.LFE36:
 164              		.size	HandleUartRxTraffic, .-HandleUartRxTraffic
 165 001e C046     		.section	.text.DisableUartRxInt,"ax",%progbits
 166              		.align	2
 167              		.global	DisableUartRxInt
 168              		.code	16
 169              		.thumb_func
 170              		.type	DisableUartRxInt, %function
 171              	DisableUartRxInt:
 172              	.LFB37:
  87:app_UART.c    **** 
  88:app_UART.c    **** 
  89:app_UART.c    **** 
  90:app_UART.c    **** 
  91:app_UART.c    **** /*****************************************************************************************
  92:app_UART.c    **** * Function Name: DisableUartRxInt
  93:app_UART.c    **** ******************************************************************************************
  94:app_UART.c    **** *
  95:app_UART.c    **** * Summary:
  96:app_UART.c    **** *  This function disables the UART RX interrupt.
  97:app_UART.c    **** *
  98:app_UART.c    **** * Parameters:
  99:app_UART.c    **** *   None.
 100:app_UART.c    **** *
 101:app_UART.c    **** * Return:
 102:app_UART.c    **** *   None.
 103:app_UART.c    **** *
 104:app_UART.c    **** *****************************************************************************************/
 105:app_UART.c    **** void DisableUartRxInt(void)
 106:app_UART.c    **** {
 173              		.loc 1 106 0
 174              		.cfi_startproc
 175 0000 80B5     		push	{r7, lr}
 176              		.cfi_def_cfa_offset 8
ARM GAS  C:\Users\ADMINI~1.SC-\AppData\Local\Temp\ccIaAudb.s 			page 6


 177              		.cfi_offset 7, -8
 178              		.cfi_offset 14, -4
 179 0002 00AF     		add	r7, sp, #0
 180              		.cfi_def_cfa_register 7
 107:app_UART.c    ****     UART_INTR_RX_MASK_REG &= ~UART_RX_INTR_MASK;  
 181              		.loc 1 107 0
 182 0004 034B     		ldr	r3, .L11
 183 0006 034A     		ldr	r2, .L11
 184 0008 1268     		ldr	r2, [r2]
 185 000a 0421     		mov	r1, #4
 186 000c 8A43     		bic	r2, r1
 187 000e 1A60     		str	r2, [r3]
 108:app_UART.c    **** }
 188              		.loc 1 108 0
 189 0010 BD46     		mov	sp, r7
 190              		@ sp needed
 191 0012 80BD     		pop	{r7, pc}
 192              	.L12:
 193              		.align	2
 194              	.L11:
 195 0014 C80F2540 		.word	1076170696
 196              		.cfi_endproc
 197              	.LFE37:
 198              		.size	DisableUartRxInt, .-DisableUartRxInt
 199              		.section	.text.EnableUartRxInt,"ax",%progbits
 200              		.align	2
 201              		.global	EnableUartRxInt
 202              		.code	16
 203              		.thumb_func
 204              		.type	EnableUartRxInt, %function
 205              	EnableUartRxInt:
 206              	.LFB38:
 109:app_UART.c    **** 
 110:app_UART.c    **** /*****************************************************************************************
 111:app_UART.c    **** * Function Name: EnableUartRxInt
 112:app_UART.c    **** ******************************************************************************************
 113:app_UART.c    **** *
 114:app_UART.c    **** * Summary:
 115:app_UART.c    **** *  This function enables the UART RX interrupt.
 116:app_UART.c    **** *
 117:app_UART.c    **** * Parameters:
 118:app_UART.c    **** *   None.
 119:app_UART.c    **** *
 120:app_UART.c    **** * Return:
 121:app_UART.c    **** *   None.
 122:app_UART.c    **** *
 123:app_UART.c    **** *****************************************************************************************/
 124:app_UART.c    **** void EnableUartRxInt(void)
 125:app_UART.c    **** {
 207              		.loc 1 125 0
 208              		.cfi_startproc
 209 0000 80B5     		push	{r7, lr}
 210              		.cfi_def_cfa_offset 8
 211              		.cfi_offset 7, -8
 212              		.cfi_offset 14, -4
 213 0002 00AF     		add	r7, sp, #0
 214              		.cfi_def_cfa_register 7
ARM GAS  C:\Users\ADMINI~1.SC-\AppData\Local\Temp\ccIaAudb.s 			page 7


 126:app_UART.c    ****     UART_INTR_RX_MASK_REG |= UART_RX_INTR_MASK;  
 215              		.loc 1 126 0
 216 0004 034B     		ldr	r3, .L14
 217 0006 034A     		ldr	r2, .L14
 218 0008 1268     		ldr	r2, [r2]
 219 000a 0421     		mov	r1, #4
 220 000c 0A43     		orr	r2, r1
 221 000e 1A60     		str	r2, [r3]
 127:app_UART.c    **** }
 222              		.loc 1 127 0
 223 0010 BD46     		mov	sp, r7
 224              		@ sp needed
 225 0012 80BD     		pop	{r7, pc}
 226              	.L15:
 227              		.align	2
 228              	.L14:
 229 0014 C80F2540 		.word	1076170696
 230              		.cfi_endproc
 231              	.LFE38:
 232              		.size	EnableUartRxInt, .-EnableUartRxInt
 233              		.data
 234              		.align	1
 235              		.type	uartIdleCount.7082, %object
 236              		.size	uartIdleCount.7082, 2
 237              	uartIdleCount.7082:
 238 0000 E803     		.short	1000
 239              		.text
 240              	.Letext0:
 241              		.file 2 "Generated_Source\\PSoC4/cytypes.h"
 242              		.file 3 "Generated_Source\\PSoC4/BLE_StackGatt.h"
 243              		.file 4 "Generated_Source\\PSoC4/BLE_StackGattServer.h"
 244              		.file 5 "Generated_Source\\PSoC4/BLE_Stack.h"