ARM GAS  C:\Users\ADMINI~1.SC-\AppData\Local\Temp\ccEjwghd.s 			page 1


   1              		.cpu cortex-m0
   2              		.fpu softvfp
   3              		.eabi_attribute 20, 1
   4              		.eabi_attribute 21, 1
   5              		.eabi_attribute 23, 3
   6              		.eabi_attribute 24, 1
   7              		.eabi_attribute 25, 1
   8              		.eabi_attribute 26, 1
   9              		.eabi_attribute 30, 6
  10              		.eabi_attribute 34, 0
  11              		.eabi_attribute 18, 4
  12              		.code	16
  13              		.file	"app_lock.c"
  14              		.text
  15              	.Ltext0:
  16              		.cfi_sections	.debug_frame
  17              		.global	LockIdentify
  18              		.section	.rodata
  19              		.align	2
  20              		.type	LockIdentify, %object
  21              		.size	LockIdentify, 16
  22              	LockIdentify:
  23 0000 00       		.byte	0
  24 0001 01       		.byte	1
  25 0002 02       		.byte	2
  26 0003 03       		.byte	3
  27 0004 04       		.byte	4
  28 0005 05       		.byte	5
  29 0006 06       		.byte	6
  30 0007 07       		.byte	7
  31 0008 08       		.byte	8
  32 0009 09       		.byte	9
  33 000a 0A       		.byte	10
  34 000b 0B       		.byte	11
  35 000c 0C       		.byte	12
  36 000d 0D       		.byte	13
  37 000e 0E       		.byte	14
  38 000f 0F       		.byte	15
  39              		.global	Manage_Key
  40              		.align	2
  41              		.type	Manage_Key, %object
  42              		.size	Manage_Key, 16
  43              	Manage_Key:
  44 0010 00       		.byte	0
  45 0011 01       		.byte	1
  46 0012 02       		.byte	2
  47 0013 03       		.byte	3
  48 0014 04       		.byte	4
  49 0015 05       		.byte	5
  50 0016 06       		.byte	6
  51 0017 07       		.byte	7
  52 0018 07       		.byte	7
  53 0019 06       		.byte	6
  54 001a 05       		.byte	5
  55 001b 04       		.byte	4
  56 001c 03       		.byte	3
  57 001d 02       		.byte	2
ARM GAS  C:\Users\ADMINI~1.SC-\AppData\Local\Temp\ccEjwghd.s 			page 2


  58 001e 01       		.byte	1
  59 001f 00       		.byte	0
  60              		.global	Delay_Time
  61              		.bss
  62              		.align	2
  63              		.type	Delay_Time, %object
  64              		.size	Delay_Time, 10
  65              	Delay_Time:
  66 0000 00000000 		.space	10
  66      00000000 
  66      0000
  67              		.global	Flag
  68 000a 0000     		.align	2
  69              		.type	Flag, %object
  70              		.size	Flag, 4
  71              	Flag:
  72 000c 00000000 		.space	4
  73              		.global	System_Config
  74              		.align	2
  75              		.type	System_Config, %object
  76              		.size	System_Config, 22
  77              	System_Config:
  78 0010 00000000 		.space	22
  78      00000000 
  78      00000000 
  78      00000000 
  78      00000000 
  79              		.global	Lock_Info
  80 0026 0000     		.align	2
  81              		.type	Lock_Info, %object
  82              		.size	Lock_Info, 15
  83              	Lock_Info:
  84 0028 00000000 		.space	15
  84      00000000 
  84      00000000 
  84      000000
  85              		.global	__aeabi_uidivmod
  86              		.global	__aeabi_uidiv
  87 0037 00       		.section	.text.Alarm_Event,"ax",%progbits
  88              		.align	2
  89              		.global	Alarm_Event
  90              		.code	16
  91              		.thumb_func
  92              		.type	Alarm_Event, %function
  93              	Alarm_Event:
  94              	.LFB35:
  95              		.file 1 "app_lock.c"
   1:app_lock.c    **** /* ========================================
   2:app_lock.c    ****  *
   3:app_lock.c    ****  * Copyright YOUR COMPANY, THE YEAR
   4:app_lock.c    ****  * All Rights Reserved
   5:app_lock.c    ****  * UNPUBLISHED, LICENSED SOFTWARE.
   6:app_lock.c    ****  *
   7:app_lock.c    ****  * CONFIDENTIAL AND PROPRIETARY INFORMATION
   8:app_lock.c    ****  * WHICH IS THE PROPERTY OF your company.
   9:app_lock.c    ****  *
  10:app_lock.c    ****  * ========================================
ARM GAS  C:\Users\ADMINI~1.SC-\AppData\Local\Temp\ccEjwghd.s 			page 3


  11:app_lock.c    **** */
  12:app_lock.c    **** #include "app_lock.h"
  13:app_lock.c    **** #include "RC4.h"
  14:app_lock.c    **** #include "app_protocol.h"
  15:app_lock.c    **** #include "app_Com.h"
  16:app_lock.c    **** #include <string.h>
  17:app_lock.c    **** #include <CyFlash.h>
  18:app_lock.c    **** 
  19:app_lock.c    **** const uint8 LockIdentify[16] = {0x00,0x01,0x02,0x03,0x04,0x05,0x06,0x07,0x08,0x09,0x0A,0x0B,0x0C,0x
  20:app_lock.c    **** const uint8 Manage_Key[16] = {0x00,0x01,0x02,0x03,0x04,0x05,0x06,0x07,0x07,0x06,0x05,0x04,0x03,0x02
  21:app_lock.c    **** 
  22:app_lock.c    **** 
  23:app_lock.c    **** 
  24:app_lock.c    **** DelayTime  Delay_Time = {};
  25:app_lock.c    **** FLAG  Flag = {};
  26:app_lock.c    **** SYSTEM_CFG System_Config = {};
  27:app_lock.c    **** LOCK_INFO Lock_Info = {};
  28:app_lock.c    **** 
  29:app_lock.c    **** 
  30:app_lock.c    **** /***********************************************************
  31:app_lock.c    ****  * @function_name: void Alarm_Event(u8* Data)
  32:app_lock.c    ****  * @function_file: Dr_Alarm.c
  33:app_lock.c    ****  * @描  述： 报警事件主程序
  34:app_lock.c    ****  *
  35:app_lock.c    ****  * @参  数： 报警事件
  36:app_lock.c    ****  * @返  回： 无
  37:app_lock.c    ****  * @作  者： ZhangQun (2014-9-2)
  38:app_lock.c    ****  *---------------------------------------------------------
  39:app_lock.c    ****  * @修改人： ZhangQun (2014-9-2)
  40:app_lock.c    **** ***********************************************************/
  41:app_lock.c    **** void Alarm_Event(uint8 Event)
  42:app_lock.c    **** {
  96              		.loc 1 42 0
  97              		.cfi_startproc
  98 0000 80B5     		push	{r7, lr}
  99              		.cfi_def_cfa_offset 8
 100              		.cfi_offset 7, -8
 101              		.cfi_offset 14, -4
 102 0002 82B0     		sub	sp, sp, #8
 103              		.cfi_def_cfa_offset 16
 104 0004 00AF     		add	r7, sp, #0
 105              		.cfi_def_cfa_register 7
 106 0006 021C     		mov	r2, r0
 107 0008 FB1D     		add	r3, r7, #7
 108 000a 1A70     		strb	r2, [r3]
  43:app_lock.c    ****    switch (Event)
 109              		.loc 1 43 0
 110 000c FB1D     		add	r3, r7, #7
 111 000e 1B78     		ldrb	r3, [r3]
 112 0010 052B     		cmp	r3, #5
 113 0012 00D9     		bls	.LCB18
 114 0014 E5E0     		b	.L2	@long jump
 115              	.LCB18:
 116 0016 9A00     		lsl	r2, r3, #2
 117 0018 774B     		ldr	r3, .L28
 118 001a D318     		add	r3, r2, r3
 119 001c 1B68     		ldr	r3, [r3]
ARM GAS  C:\Users\ADMINI~1.SC-\AppData\Local\Temp\ccEjwghd.s 			page 4


 120 001e 9F46     		mov	pc, r3
 121              		.section	.rodata
 122              		.align	2
 123              	.L4:
 124 0020 E2010000 		.word	.L2
 125 0024 20000000 		.word	.L3
 126 0028 60000000 		.word	.L5
 127 002c C2000000 		.word	.L6
 128 0030 30010000 		.word	.L7
 129 0034 86010000 		.word	.L8
 130              		.section	.text.Alarm_Event
 131              	.L3:
  44:app_lock.c    ****     {
  45:app_lock.c    ****         case EVENT_1:	//绿灯亮1S
  46:app_lock.c    ****             if (Delay_Time.Alarm_Count == 0)
 132              		.loc 1 46 0
 133 0020 764B     		ldr	r3, .L28+4
 134 0022 1B88     		ldrh	r3, [r3]
 135 0024 002B     		cmp	r3, #0
 136 0026 02D1     		bne	.L9
  47:app_lock.c    ****             {
  48:app_lock.c    ****                 GREEN_OFF;
 137              		.loc 1 48 0
 138 0028 0120     		mov	r0, #1
 139 002a FFF7FEFF 		bl	LED_GREEN_Write
 140              	.L9:
  49:app_lock.c    ****             }
  50:app_lock.c    ****             Delay_Time.Alarm_Count ++;
 141              		.loc 1 50 0
 142 002e 734B     		ldr	r3, .L28+4
 143 0030 1B88     		ldrh	r3, [r3]
 144 0032 0133     		add	r3, r3, #1
 145 0034 9AB2     		uxth	r2, r3
 146 0036 714B     		ldr	r3, .L28+4
 147 0038 1A80     		strh	r2, [r3]
  51:app_lock.c    ****             if(Delay_Time.Alarm_Count > 1000)
 148              		.loc 1 51 0
 149 003a 704B     		ldr	r3, .L28+4
 150 003c 1A88     		ldrh	r2, [r3]
 151 003e FA23     		mov	r3, #250
 152 0040 9B00     		lsl	r3, r3, #2
 153 0042 9A42     		cmp	r2, r3
 154 0044 0BD9     		bls	.L10
  52:app_lock.c    ****             {
  53:app_lock.c    ****                 Delay_Time.Alarm_Count = 0;
 155              		.loc 1 53 0
 156 0046 6D4B     		ldr	r3, .L28+4
 157 0048 0022     		mov	r2, #0
 158 004a 1A80     		strh	r2, [r3]
  54:app_lock.c    ****                 GREEN_ON;
 159              		.loc 1 54 0
 160 004c 0020     		mov	r0, #0
 161 004e FFF7FEFF 		bl	LED_GREEN_Write
  55:app_lock.c    ****                 Flag.Alarm_Work_Step = EVENT_0;
 162              		.loc 1 55 0
 163 0052 6B4B     		ldr	r3, .L28+8
 164 0054 1A78     		ldrb	r2, [r3]
ARM GAS  C:\Users\ADMINI~1.SC-\AppData\Local\Temp\ccEjwghd.s 			page 5


 165 0056 0721     		mov	r1, #7
 166 0058 8A43     		bic	r2, r1
 167 005a 1A70     		strb	r2, [r3]
  56:app_lock.c    ****             }
  57:app_lock.c    ****             break;
 168              		.loc 1 57 0
 169 005c C8E0     		b	.L1
 170              	.L10:
 171 005e C7E0     		b	.L1
 172              	.L5:
  58:app_lock.c    **** 
  59:app_lock.c    ****         case EVENT_2:   //蜂鸣器：嘀滴
  60:app_lock.c    ****             if (  (Delay_Time.Alarm_Count == 0) 
 173              		.loc 1 60 0
 174 0060 664B     		ldr	r3, .L28+4
 175 0062 1B88     		ldrh	r3, [r3]
 176 0064 002B     		cmp	r3, #0
 177 0066 03D0     		beq	.L12
  61:app_lock.c    ****                || (Delay_Time.Alarm_Count == 200) )
 178              		.loc 1 61 0
 179 0068 644B     		ldr	r3, .L28+4
 180 006a 1B88     		ldrh	r3, [r3]
 181 006c C82B     		cmp	r3, #200
 182 006e 04D1     		bne	.L13
 183              	.L12:
  62:app_lock.c    ****             {
  63:app_lock.c    ****                 GREEN_OFF;
 184              		.loc 1 63 0
 185 0070 0120     		mov	r0, #1
 186 0072 FFF7FEFF 		bl	LED_GREEN_Write
  64:app_lock.c    ****                 PWM_Start();
 187              		.loc 1 64 0
 188 0076 FFF7FEFF 		bl	PWM_Start
 189              	.L13:
  65:app_lock.c    ****             }
  66:app_lock.c    ****             if (Delay_Time.Alarm_Count == 100)
 190              		.loc 1 66 0
 191 007a 604B     		ldr	r3, .L28+4
 192 007c 1B88     		ldrh	r3, [r3]
 193 007e 642B     		cmp	r3, #100
 194 0080 04D1     		bne	.L14
  67:app_lock.c    ****             {
  68:app_lock.c    ****                 GREEN_ON;
 195              		.loc 1 68 0
 196 0082 0020     		mov	r0, #0
 197 0084 FFF7FEFF 		bl	LED_GREEN_Write
  69:app_lock.c    ****                 PWM_Stop();
 198              		.loc 1 69 0
 199 0088 FFF7FEFF 		bl	PWM_Stop
 200              	.L14:
  70:app_lock.c    ****             }            
  71:app_lock.c    ****             Delay_Time.Alarm_Count ++;
 201              		.loc 1 71 0
 202 008c 5B4B     		ldr	r3, .L28+4
 203 008e 1B88     		ldrh	r3, [r3]
 204 0090 0133     		add	r3, r3, #1
 205 0092 9AB2     		uxth	r2, r3
ARM GAS  C:\Users\ADMINI~1.SC-\AppData\Local\Temp\ccEjwghd.s 			page 6


 206 0094 594B     		ldr	r3, .L28+4
 207 0096 1A80     		strh	r2, [r3]
  72:app_lock.c    ****             if (Delay_Time.Alarm_Count >= 300)
 208              		.loc 1 72 0
 209 0098 584B     		ldr	r3, .L28+4
 210 009a 1A88     		ldrh	r2, [r3]
 211 009c 2C23     		mov	r3, #44
 212 009e FF33     		add	r3, r3, #255
 213 00a0 9A42     		cmp	r2, r3
 214 00a2 0DD9     		bls	.L15
  73:app_lock.c    ****             {
  74:app_lock.c    ****                 Delay_Time.Alarm_Count = 0;
 215              		.loc 1 74 0
 216 00a4 554B     		ldr	r3, .L28+4
 217 00a6 0022     		mov	r2, #0
 218 00a8 1A80     		strh	r2, [r3]
  75:app_lock.c    ****                 GREEN_ON;
 219              		.loc 1 75 0
 220 00aa 0020     		mov	r0, #0
 221 00ac FFF7FEFF 		bl	LED_GREEN_Write
  76:app_lock.c    ****                 PWM_Stop();
 222              		.loc 1 76 0
 223 00b0 FFF7FEFF 		bl	PWM_Stop
  77:app_lock.c    ****                 Flag.Alarm_Work_Step = EVENT_0;            
 224              		.loc 1 77 0
 225 00b4 524B     		ldr	r3, .L28+8
 226 00b6 1A78     		ldrb	r2, [r3]
 227 00b8 0721     		mov	r1, #7
 228 00ba 8A43     		bic	r2, r1
 229 00bc 1A70     		strb	r2, [r3]
  78:app_lock.c    ****             }           
  79:app_lock.c    ****             break;
 230              		.loc 1 79 0
 231 00be 97E0     		b	.L1
 232              	.L15:
 233 00c0 96E0     		b	.L1
 234              	.L6:
  80:app_lock.c    **** 
  81:app_lock.c    ****         case EVENT_3:       //蜂鸣器 滴滴滴
  82:app_lock.c    ****             if (  (Delay_Time.Alarm_Count == 0) 
 235              		.loc 1 82 0
 236 00c2 4E4B     		ldr	r3, .L28+4
 237 00c4 1B88     		ldrh	r3, [r3]
 238 00c6 002B     		cmp	r3, #0
 239 00c8 09D0     		beq	.L16
  83:app_lock.c    ****                || (Delay_Time.Alarm_Count == 200)
 240              		.loc 1 83 0
 241 00ca 4C4B     		ldr	r3, .L28+4
 242 00cc 1B88     		ldrh	r3, [r3]
 243 00ce C82B     		cmp	r3, #200
 244 00d0 05D0     		beq	.L16
  84:app_lock.c    ****                || (Delay_Time.Alarm_Count == 400))
 245              		.loc 1 84 0
 246 00d2 4A4B     		ldr	r3, .L28+4
 247 00d4 1A88     		ldrh	r2, [r3]
 248 00d6 C823     		mov	r3, #200
 249 00d8 5B00     		lsl	r3, r3, #1
ARM GAS  C:\Users\ADMINI~1.SC-\AppData\Local\Temp\ccEjwghd.s 			page 7


 250 00da 9A42     		cmp	r2, r3
 251 00dc 02D1     		bne	.L17
 252              	.L16:
  85:app_lock.c    ****             {
  86:app_lock.c    ****                 BEEP_OPEN;
 253              		.loc 1 86 0
 254 00de 0120     		mov	r0, #1
 255 00e0 FFF7FEFF 		bl	Beep_Ctrl_Write
 256              	.L17:
  87:app_lock.c    ****             }
  88:app_lock.c    ****             if (  (Delay_Time.Alarm_Count == 100)
 257              		.loc 1 88 0
 258 00e4 454B     		ldr	r3, .L28+4
 259 00e6 1B88     		ldrh	r3, [r3]
 260 00e8 642B     		cmp	r3, #100
 261 00ea 05D0     		beq	.L18
  89:app_lock.c    ****                || (Delay_Time.Alarm_Count == 300) ) 
 262              		.loc 1 89 0
 263 00ec 434B     		ldr	r3, .L28+4
 264 00ee 1A88     		ldrh	r2, [r3]
 265 00f0 9623     		mov	r3, #150
 266 00f2 5B00     		lsl	r3, r3, #1
 267 00f4 9A42     		cmp	r2, r3
 268 00f6 02D1     		bne	.L19
 269              	.L18:
  90:app_lock.c    ****             {
  91:app_lock.c    ****                 BEEP_CLOSE;
 270              		.loc 1 91 0
 271 00f8 0020     		mov	r0, #0
 272 00fa FFF7FEFF 		bl	Beep_Ctrl_Write
 273              	.L19:
  92:app_lock.c    ****             }            
  93:app_lock.c    ****             Delay_Time.Alarm_Count ++;
 274              		.loc 1 93 0
 275 00fe 3F4B     		ldr	r3, .L28+4
 276 0100 1B88     		ldrh	r3, [r3]
 277 0102 0133     		add	r3, r3, #1
 278 0104 9AB2     		uxth	r2, r3
 279 0106 3D4B     		ldr	r3, .L28+4
 280 0108 1A80     		strh	r2, [r3]
  94:app_lock.c    ****             if (Delay_Time.Alarm_Count >= 500)
 281              		.loc 1 94 0
 282 010a 3C4B     		ldr	r3, .L28+4
 283 010c 1A88     		ldrh	r2, [r3]
 284 010e F423     		mov	r3, #244
 285 0110 FF33     		add	r3, r3, #255
 286 0112 9A42     		cmp	r2, r3
 287 0114 0BD9     		bls	.L20
  95:app_lock.c    ****             {
  96:app_lock.c    ****                 Delay_Time.Alarm_Count = 0;
 288              		.loc 1 96 0
 289 0116 394B     		ldr	r3, .L28+4
 290 0118 0022     		mov	r2, #0
 291 011a 1A80     		strh	r2, [r3]
  97:app_lock.c    ****                 BEEP_CLOSE;
 292              		.loc 1 97 0
 293 011c 0020     		mov	r0, #0
ARM GAS  C:\Users\ADMINI~1.SC-\AppData\Local\Temp\ccEjwghd.s 			page 8


 294 011e FFF7FEFF 		bl	Beep_Ctrl_Write
  98:app_lock.c    ****                 Flag.Alarm_Work_Step = EVENT_0;            
 295              		.loc 1 98 0
 296 0122 374B     		ldr	r3, .L28+8
 297 0124 1A78     		ldrb	r2, [r3]
 298 0126 0721     		mov	r1, #7
 299 0128 8A43     		bic	r2, r1
 300 012a 1A70     		strb	r2, [r3]
  99:app_lock.c    ****             }              
 100:app_lock.c    ****             break;
 301              		.loc 1 100 0
 302 012c 60E0     		b	.L1
 303              	.L20:
 304 012e 5FE0     		b	.L1
 305              	.L7:
 101:app_lock.c    **** 
 102:app_lock.c    ****         case EVENT_4:
 103:app_lock.c    ****             if (  (Delay_Time.Alarm_Count == 0) 
 306              		.loc 1 103 0
 307 0130 324B     		ldr	r3, .L28+4
 308 0132 1B88     		ldrh	r3, [r3]
 309 0134 002B     		cmp	r3, #0
 310 0136 03D0     		beq	.L21
 104:app_lock.c    ****                || (Delay_Time.Alarm_Count == 200) )
 311              		.loc 1 104 0
 312 0138 304B     		ldr	r3, .L28+4
 313 013a 1B88     		ldrh	r3, [r3]
 314 013c C82B     		cmp	r3, #200
 315 013e 02D1     		bne	.L22
 316              	.L21:
 105:app_lock.c    ****             {
 106:app_lock.c    ****                 BEEP_OPEN;
 317              		.loc 1 106 0
 318 0140 0120     		mov	r0, #1
 319 0142 FFF7FEFF 		bl	Beep_Ctrl_Write
 320              	.L22:
 107:app_lock.c    ****             }
 108:app_lock.c    ****             if (Delay_Time.Alarm_Count == 100)
 321              		.loc 1 108 0
 322 0146 2D4B     		ldr	r3, .L28+4
 323 0148 1B88     		ldrh	r3, [r3]
 324 014a 642B     		cmp	r3, #100
 325 014c 02D1     		bne	.L23
 109:app_lock.c    ****             {
 110:app_lock.c    ****                 BEEP_CLOSE;
 326              		.loc 1 110 0
 327 014e 0020     		mov	r0, #0
 328 0150 FFF7FEFF 		bl	Beep_Ctrl_Write
 329              	.L23:
 111:app_lock.c    ****             }     
 112:app_lock.c    ****             Delay_Time.Alarm_Count ++;
 330              		.loc 1 112 0
 331 0154 294B     		ldr	r3, .L28+4
 332 0156 1B88     		ldrh	r3, [r3]
 333 0158 0133     		add	r3, r3, #1
 334 015a 9AB2     		uxth	r2, r3
 335 015c 274B     		ldr	r3, .L28+4
ARM GAS  C:\Users\ADMINI~1.SC-\AppData\Local\Temp\ccEjwghd.s 			page 9


 336 015e 1A80     		strh	r2, [r3]
 113:app_lock.c    ****             if (Delay_Time.Alarm_Count >= 300)
 337              		.loc 1 113 0
 338 0160 264B     		ldr	r3, .L28+4
 339 0162 1A88     		ldrh	r2, [r3]
 340 0164 2C23     		mov	r3, #44
 341 0166 FF33     		add	r3, r3, #255
 342 0168 9A42     		cmp	r2, r3
 343 016a 0BD9     		bls	.L24
 114:app_lock.c    ****             {
 115:app_lock.c    ****                 Delay_Time.Alarm_Count = 0;
 344              		.loc 1 115 0
 345 016c 234B     		ldr	r3, .L28+4
 346 016e 0022     		mov	r2, #0
 347 0170 1A80     		strh	r2, [r3]
 116:app_lock.c    ****                 BEEP_CLOSE;
 348              		.loc 1 116 0
 349 0172 0020     		mov	r0, #0
 350 0174 FFF7FEFF 		bl	Beep_Ctrl_Write
 117:app_lock.c    ****                 Flag.Alarm_Work_Step = EVENT_0;            
 351              		.loc 1 117 0
 352 0178 214B     		ldr	r3, .L28+8
 353 017a 1A78     		ldrb	r2, [r3]
 354 017c 0721     		mov	r1, #7
 355 017e 8A43     		bic	r2, r1
 356 0180 1A70     		strb	r2, [r3]
 118:app_lock.c    ****             }    
 119:app_lock.c    ****             break;      
 357              		.loc 1 119 0
 358 0182 35E0     		b	.L1
 359              	.L24:
 360 0184 34E0     		b	.L1
 361              	.L8:
 120:app_lock.c    ****             
 121:app_lock.c    ****         case EVENT_5:
 122:app_lock.c    ****             if((Delay_Time.Alarm_Count % 100) == 0)
 362              		.loc 1 122 0
 363 0186 1D4B     		ldr	r3, .L28+4
 364 0188 1B88     		ldrh	r3, [r3]
 365 018a 181C     		mov	r0, r3
 366 018c 6421     		mov	r1, #100
 367 018e FFF7FEFF 		bl	__aeabi_uidivmod
 368 0192 0B1C     		mov	r3, r1
 369 0194 9BB2     		uxth	r3, r3
 370 0196 002B     		cmp	r3, #0
 371 0198 13D1     		bne	.L25
 123:app_lock.c    ****             {
 124:app_lock.c    ****                 if(((Delay_Time.Alarm_Count / 100) % 2) == 0)
 372              		.loc 1 124 0
 373 019a 184B     		ldr	r3, .L28+4
 374 019c 1B88     		ldrh	r3, [r3]
 375 019e 181C     		mov	r0, r3
 376 01a0 6421     		mov	r1, #100
 377 01a2 FFF7FEFF 		bl	__aeabi_uidiv
 378 01a6 031C     		mov	r3, r0
 379 01a8 9BB2     		uxth	r3, r3
 380 01aa 0122     		mov	r2, #1
ARM GAS  C:\Users\ADMINI~1.SC-\AppData\Local\Temp\ccEjwghd.s 			page 10


 381 01ac 1340     		and	r3, r2
 382 01ae 9BB2     		uxth	r3, r3
 383 01b0 002B     		cmp	r3, #0
 384 01b2 03D1     		bne	.L26
 125:app_lock.c    ****                 {
 126:app_lock.c    ****                     BEEP_OPEN;
 385              		.loc 1 126 0
 386 01b4 0120     		mov	r0, #1
 387 01b6 FFF7FEFF 		bl	Beep_Ctrl_Write
 388 01ba 02E0     		b	.L25
 389              	.L26:
 127:app_lock.c    ****                 }
 128:app_lock.c    ****                 else
 129:app_lock.c    ****                 {
 130:app_lock.c    ****                     BEEP_CLOSE;
 390              		.loc 1 130 0
 391 01bc 0020     		mov	r0, #0
 392 01be FFF7FEFF 		bl	Beep_Ctrl_Write
 393              	.L25:
 131:app_lock.c    ****                 }
 132:app_lock.c    ****             }
 133:app_lock.c    ****             Delay_Time.Alarm_Count ++;
 394              		.loc 1 133 0
 395 01c2 0E4B     		ldr	r3, .L28+4
 396 01c4 1B88     		ldrh	r3, [r3]
 397 01c6 0133     		add	r3, r3, #1
 398 01c8 9AB2     		uxth	r2, r3
 399 01ca 0C4B     		ldr	r3, .L28+4
 400 01cc 1A80     		strh	r2, [r3]
 134:app_lock.c    ****             if(Delay_Time.Alarm_Count >=1000)
 401              		.loc 1 134 0
 402 01ce 0B4B     		ldr	r3, .L28+4
 403 01d0 1B88     		ldrh	r3, [r3]
 404 01d2 0C4A     		ldr	r2, .L28+12
 405 01d4 9342     		cmp	r3, r2
 406 01d6 03D9     		bls	.L27
 135:app_lock.c    ****             {
 136:app_lock.c    ****                 Delay_Time.Alarm_Count = 0;
 407              		.loc 1 136 0
 408 01d8 084B     		ldr	r3, .L28+4
 409 01da 0022     		mov	r2, #0
 410 01dc 1A80     		strh	r2, [r3]
 137:app_lock.c    ****             }
 138:app_lock.c    ****             break;
 411              		.loc 1 138 0
 412 01de 07E0     		b	.L1
 413              	.L27:
 414 01e0 06E0     		b	.L1
 415              	.L2:
 139:app_lock.c    **** 			
 140:app_lock.c    ****         case EVENT_0:	//正常事件
 141:app_lock.c    ****         default:
 142:app_lock.c    ****             Delay_Time.Alarm_Count = 0;
 416              		.loc 1 142 0
 417 01e2 064B     		ldr	r3, .L28+4
 418 01e4 0022     		mov	r2, #0
 419 01e6 1A80     		strh	r2, [r3]
ARM GAS  C:\Users\ADMINI~1.SC-\AppData\Local\Temp\ccEjwghd.s 			page 11


 143:app_lock.c    ****             BEEP_CLOSE;
 420              		.loc 1 143 0
 421 01e8 0020     		mov	r0, #0
 422 01ea FFF7FEFF 		bl	Beep_Ctrl_Write
 144:app_lock.c    ****             break;
 423              		.loc 1 144 0
 424 01ee C046     		mov	r8, r8
 425              	.L1:
 145:app_lock.c    ****     }
 146:app_lock.c    **** }
 426              		.loc 1 146 0
 427 01f0 BD46     		mov	sp, r7
 428 01f2 02B0     		add	sp, sp, #8
 429              		@ sp needed
 430 01f4 80BD     		pop	{r7, pc}
 431              	.L29:
 432 01f6 C046     		.align	2
 433              	.L28:
 434 01f8 20000000 		.word	.L4
 435 01fc 00000000 		.word	Delay_Time
 436 0200 00000000 		.word	Flag
 437 0204 E7030000 		.word	999
 438              		.cfi_endproc
 439              	.LFE35:
 440              		.size	Alarm_Event, .-Alarm_Event
 441              		.section	.text.Write_Flash,"ax",%progbits
 442              		.align	2
 443              		.global	Write_Flash
 444              		.code	16
 445              		.thumb_func
 446              		.type	Write_Flash, %function
 447              	Write_Flash:
 448              	.LFB36:
 147:app_lock.c    **** 
 148:app_lock.c    **** 
 149:app_lock.c    **** /***********************************************************
 150:app_lock.c    ****  * @function_name: void Write_Flash(uint32 Addr,uint8* Data,uint8 Length)
 151:app_lock.c    ****  * @描  述： 参数存储
 152:app_lock.c    **** ************************************************************/
 153:app_lock.c    **** void Write_Flash(uint8* Data,uint8 Length)
 154:app_lock.c    **** {
 449              		.loc 1 154 0
 450              		.cfi_startproc
 451 0000 80B5     		push	{r7, lr}
 452              		.cfi_def_cfa_offset 8
 453              		.cfi_offset 7, -8
 454              		.cfi_offset 14, -4
 455 0002 A2B0     		sub	sp, sp, #136
 456              		.cfi_def_cfa_offset 144
 457 0004 00AF     		add	r7, sp, #0
 458              		.cfi_def_cfa_register 7
 459 0006 7860     		str	r0, [r7, #4]
 460 0008 0A1C     		mov	r2, r1
 461 000a FB1C     		add	r3, r7, #3
 462 000c 1A70     		strb	r2, [r3]
 155:app_lock.c    ****     uint8 write_buff[0x80] = {0x00};
 463              		.loc 1 155 0
ARM GAS  C:\Users\ADMINI~1.SC-\AppData\Local\Temp\ccEjwghd.s 			page 12


 464 000e 0823     		mov	r3, #8
 465 0010 FB18     		add	r3, r7, r3
 466 0012 1A1C     		mov	r2, r3
 467 0014 8023     		mov	r3, #128
 468 0016 101C     		mov	r0, r2
 469 0018 0021     		mov	r1, #0
 470 001a 1A1C     		mov	r2, r3
 471 001c FFF7FEFF 		bl	memset
 156:app_lock.c    ****     memcpy(write_buff,Data,Length);
 472              		.loc 1 156 0
 473 0020 FB1C     		add	r3, r7, #3
 474 0022 1B78     		ldrb	r3, [r3]
 475 0024 0822     		mov	r2, #8
 476 0026 B918     		add	r1, r7, r2
 477 0028 7A68     		ldr	r2, [r7, #4]
 478 002a 081C     		mov	r0, r1
 479 002c 111C     		mov	r1, r2
 480 002e 1A1C     		mov	r2, r3
 481 0030 FFF7FEFF 		bl	memcpy
 157:app_lock.c    ****     CySysFlashWriteRow(SysCfg_FLASH_ROW, write_buff);
 482              		.loc 1 157 0
 483 0034 044A     		ldr	r2, .L31
 484 0036 0823     		mov	r3, #8
 485 0038 FB18     		add	r3, r7, r3
 486 003a 101C     		mov	r0, r2
 487 003c 191C     		mov	r1, r3
 488 003e FFF7FEFF 		bl	CySysFlashWriteRow
 158:app_lock.c    **** }
 489              		.loc 1 158 0
 490 0042 BD46     		mov	sp, r7
 491 0044 22B0     		add	sp, sp, #136
 492              		@ sp needed
 493 0046 80BD     		pop	{r7, pc}
 494              	.L32:
 495              		.align	2
 496              	.L31:
 497 0048 FE030000 		.word	1022
 498              		.cfi_endproc
 499              	.LFE36:
 500              		.size	Write_Flash, .-Write_Flash
 501              		.section	.text.Read_Flash,"ax",%progbits
 502              		.align	2
 503              		.global	Read_Flash
 504              		.code	16
 505              		.thumb_func
 506              		.type	Read_Flash, %function
 507              	Read_Flash:
 508              	.LFB37:
 159:app_lock.c    **** 
 160:app_lock.c    **** /***********************************************************
 161:app_lock.c    ****  * @function_name: void Read_Flash(uint32 Addr,uint8* Data,uint8 Length)
 162:app_lock.c    ****  * @描  述： 参数存储
 163:app_lock.c    **** ************************************************************/
 164:app_lock.c    **** void Read_Flash(uint32 Addr,uint8* Data,uint8 Length)
 165:app_lock.c    **** {
 509              		.loc 1 165 0
 510              		.cfi_startproc
ARM GAS  C:\Users\ADMINI~1.SC-\AppData\Local\Temp\ccEjwghd.s 			page 13


 511 0000 80B5     		push	{r7, lr}
 512              		.cfi_def_cfa_offset 8
 513              		.cfi_offset 7, -8
 514              		.cfi_offset 14, -4
 515 0002 86B0     		sub	sp, sp, #24
 516              		.cfi_def_cfa_offset 32
 517 0004 00AF     		add	r7, sp, #0
 518              		.cfi_def_cfa_register 7
 519 0006 F860     		str	r0, [r7, #12]
 520 0008 B960     		str	r1, [r7, #8]
 521 000a FB1D     		add	r3, r7, #7
 522 000c 1A70     		strb	r2, [r3]
 166:app_lock.c    ****     uint8 i=0;
 523              		.loc 1 166 0
 524 000e 1723     		mov	r3, #23
 525 0010 FB18     		add	r3, r7, r3
 526 0012 0022     		mov	r2, #0
 527 0014 1A70     		strb	r2, [r3]
 167:app_lock.c    ****     for (i = 0; i < Length; i++)
 528              		.loc 1 167 0
 529 0016 1723     		mov	r3, #23
 530 0018 FB18     		add	r3, r7, r3
 531 001a 0022     		mov	r2, #0
 532 001c 1A70     		strb	r2, [r3]
 533 001e 11E0     		b	.L34
 534              	.L35:
 168:app_lock.c    ****     {
 169:app_lock.c    ****         *Data = (*((uint8 *) (Addr + i)));
 535              		.loc 1 169 0 discriminator 3
 536 0020 1723     		mov	r3, #23
 537 0022 FB18     		add	r3, r7, r3
 538 0024 1A78     		ldrb	r2, [r3]
 539 0026 FB68     		ldr	r3, [r7, #12]
 540 0028 D318     		add	r3, r2, r3
 541 002a 1A78     		ldrb	r2, [r3]
 542 002c BB68     		ldr	r3, [r7, #8]
 543 002e 1A70     		strb	r2, [r3]
 170:app_lock.c    ****         Data ++;
 544              		.loc 1 170 0 discriminator 3
 545 0030 BB68     		ldr	r3, [r7, #8]
 546 0032 0133     		add	r3, r3, #1
 547 0034 BB60     		str	r3, [r7, #8]
 167:app_lock.c    ****     for (i = 0; i < Length; i++)
 548              		.loc 1 167 0 discriminator 3
 549 0036 1723     		mov	r3, #23
 550 0038 FB18     		add	r3, r7, r3
 551 003a 1A78     		ldrb	r2, [r3]
 552 003c 1723     		mov	r3, #23
 553 003e FB18     		add	r3, r7, r3
 554 0040 0132     		add	r2, r2, #1
 555 0042 1A70     		strb	r2, [r3]
 556              	.L34:
 167:app_lock.c    ****     for (i = 0; i < Length; i++)
 557              		.loc 1 167 0 is_stmt 0 discriminator 1
 558 0044 1723     		mov	r3, #23
 559 0046 FA18     		add	r2, r7, r3
 560 0048 FB1D     		add	r3, r7, #7
ARM GAS  C:\Users\ADMINI~1.SC-\AppData\Local\Temp\ccEjwghd.s 			page 14


 561 004a 1278     		ldrb	r2, [r2]
 562 004c 1B78     		ldrb	r3, [r3]
 563 004e 9A42     		cmp	r2, r3
 564 0050 E6D3     		bcc	.L35
 171:app_lock.c    ****     }
 172:app_lock.c    **** }
 565              		.loc 1 172 0 is_stmt 1
 566 0052 BD46     		mov	sp, r7
 567 0054 06B0     		add	sp, sp, #24
 568              		@ sp needed
 569 0056 80BD     		pop	{r7, pc}
 570              		.cfi_endproc
 571              	.LFE37:
 572              		.size	Read_Flash, .-Read_Flash
 573              		.section	.text.Power_Off,"ax",%progbits
 574              		.align	2
 575              		.global	Power_Off
 576              		.code	16
 577              		.thumb_func
 578              		.type	Power_Off, %function
 579              	Power_Off:
 580              	.LFB38:
 173:app_lock.c    **** 
 174:app_lock.c    **** /***********************************************************
 175:app_lock.c    ****  * @function_name: void Power_Off(void)
 176:app_lock.c    ****  * @描  述： 关机程序
 177:app_lock.c    **** ************************************************************/
 178:app_lock.c    **** void Power_Off(void)
 179:app_lock.c    **** {
 581              		.loc 1 179 0
 582              		.cfi_startproc
 583 0000 80B5     		push	{r7, lr}
 584              		.cfi_def_cfa_offset 8
 585              		.cfi_offset 7, -8
 586              		.cfi_offset 14, -4
 587 0002 00AF     		add	r7, sp, #0
 588              		.cfi_def_cfa_register 7
 180:app_lock.c    ****     Delay_Time.Delay_1s ++;
 589              		.loc 1 180 0
 590 0004 104B     		ldr	r3, .L38
 591 0006 DB88     		ldrh	r3, [r3, #6]
 592 0008 0133     		add	r3, r3, #1
 593 000a 9AB2     		uxth	r2, r3
 594 000c 0E4B     		ldr	r3, .L38
 595 000e DA80     		strh	r2, [r3, #6]
 181:app_lock.c    ****     if(Delay_Time.Delay_1s > 1000)       //1S
 596              		.loc 1 181 0
 597 0010 0D4B     		ldr	r3, .L38
 598 0012 DA88     		ldrh	r2, [r3, #6]
 599 0014 FA23     		mov	r3, #250
 600 0016 9B00     		lsl	r3, r3, #2
 601 0018 9A42     		cmp	r2, r3
 602 001a 12D9     		bls	.L36
 182:app_lock.c    ****     {
 183:app_lock.c    ****         Delay_Time.Delay_1s = 0;
 603              		.loc 1 183 0
 604 001c 0A4B     		ldr	r3, .L38
ARM GAS  C:\Users\ADMINI~1.SC-\AppData\Local\Temp\ccEjwghd.s 			page 15


 605 001e 0022     		mov	r2, #0
 606 0020 DA80     		strh	r2, [r3, #6]
 184:app_lock.c    ****         Delay_Time.Delay_1min ++;
 607              		.loc 1 184 0
 608 0022 094B     		ldr	r3, .L38
 609 0024 1B89     		ldrh	r3, [r3, #8]
 610 0026 0133     		add	r3, r3, #1
 611 0028 9AB2     		uxth	r2, r3
 612 002a 074B     		ldr	r3, .L38
 613 002c 1A81     		strh	r2, [r3, #8]
 185:app_lock.c    ****         if(Delay_Time.Delay_1min >= 120)
 614              		.loc 1 185 0
 615 002e 064B     		ldr	r3, .L38
 616 0030 1B89     		ldrh	r3, [r3, #8]
 617 0032 772B     		cmp	r3, #119
 618 0034 05D9     		bls	.L36
 186:app_lock.c    ****         {
 187:app_lock.c    ****             Delay_Time.Delay_1min = 0;
 619              		.loc 1 187 0
 620 0036 044B     		ldr	r3, .L38
 621 0038 0022     		mov	r2, #0
 622 003a 1A81     		strh	r2, [r3, #8]
 188:app_lock.c    ****             POWERON_OUT_Write(LOW);
 623              		.loc 1 188 0
 624 003c 0020     		mov	r0, #0
 625 003e FFF7FEFF 		bl	POWERON_OUT_Write
 626              	.L36:
 189:app_lock.c    ****         }
 190:app_lock.c    ****     }
 191:app_lock.c    **** }
 627              		.loc 1 191 0
 628 0042 BD46     		mov	sp, r7
 629              		@ sp needed
 630 0044 80BD     		pop	{r7, pc}
 631              	.L39:
 632 0046 C046     		.align	2
 633              	.L38:
 634 0048 00000000 		.word	Delay_Time
 635              		.cfi_endproc
 636              	.LFE38:
 637              		.size	Power_Off, .-Power_Off
 638              		.section	.text.Load_Config,"ax",%progbits
 639              		.align	2
 640              		.global	Load_Config
 641              		.code	16
 642              		.thumb_func
 643              		.type	Load_Config, %function
 644              	Load_Config:
 645              	.LFB39:
 192:app_lock.c    **** 
 193:app_lock.c    **** /***********************************************************
 194:app_lock.c    ****  * @function_name: void Load_Config(void)
 195:app_lock.c    ****  * @描  述： 参数存储
 196:app_lock.c    **** ************************************************************/
 197:app_lock.c    **** void Load_Config(void)
 198:app_lock.c    **** {
 646              		.loc 1 198 0
ARM GAS  C:\Users\ADMINI~1.SC-\AppData\Local\Temp\ccEjwghd.s 			page 16


 647              		.cfi_startproc
 648 0000 90B5     		push	{r4, r7, lr}
 649              		.cfi_def_cfa_offset 12
 650              		.cfi_offset 4, -12
 651              		.cfi_offset 7, -8
 652              		.cfi_offset 14, -4
 653 0002 83B0     		sub	sp, sp, #12
 654              		.cfi_def_cfa_offset 24
 655 0004 00AF     		add	r7, sp, #0
 656              		.cfi_def_cfa_register 7
 199:app_lock.c    ****     uint8 sum;
 200:app_lock.c    ****     Read_Flash(SysCfg_FLASH_ADDR,(uint8 *)&System_Config,sizeof(System_Config));
 657              		.loc 1 200 0
 658 0006 1C4A     		ldr	r2, .L42
 659 0008 1C4B     		ldr	r3, .L42+4
 660 000a 101C     		mov	r0, r2
 661 000c 191C     		mov	r1, r3
 662 000e 1622     		mov	r2, #22
 663 0010 FFF7FEFF 		bl	Read_Flash
 201:app_lock.c    ****     sum = CRC_Sum((uint8 *)&System_Config,sizeof(System_Config)-1);
 664              		.loc 1 201 0
 665 0014 FC1D     		add	r4, r7, #7
 666 0016 194B     		ldr	r3, .L42+4
 667 0018 181C     		mov	r0, r3
 668 001a 1521     		mov	r1, #21
 669 001c FFF7FEFF 		bl	CRC_Sum
 670 0020 031C     		mov	r3, r0
 671 0022 2370     		strb	r3, [r4]
 202:app_lock.c    ****     if(sum != System_Config.sum)
 672              		.loc 1 202 0
 673 0024 154B     		ldr	r3, .L42+4
 674 0026 5B7D     		ldrb	r3, [r3, #21]
 675 0028 FA1D     		add	r2, r7, #7
 676 002a 1278     		ldrb	r2, [r2]
 677 002c 9A42     		cmp	r2, r3
 678 002e 1FD0     		beq	.L40
 203:app_lock.c    ****     {
 204:app_lock.c    ****         memcpy(System_Config.ManageKey,Manage_Key,16);
 679              		.loc 1 204 0
 680 0030 124B     		ldr	r3, .L42+4
 681 0032 134A     		ldr	r2, .L42+8
 682 0034 13CA     		ldmia	r2!, {r0, r1, r4}
 683 0036 13C3     		stmia	r3!, {r0, r1, r4}
 684 0038 1268     		ldr	r2, [r2]
 685 003a 1A60     		str	r2, [r3]
 205:app_lock.c    ****         System_Config.DeviceID[0] = 0x01;
 686              		.loc 1 205 0
 687 003c 0F4B     		ldr	r3, .L42+4
 688 003e 0122     		mov	r2, #1
 689 0040 1A74     		strb	r2, [r3, #16]
 206:app_lock.c    ****         System_Config.DeviceID[1] = 0x02;
 690              		.loc 1 206 0
 691 0042 0E4B     		ldr	r3, .L42+4
 692 0044 0222     		mov	r2, #2
 693 0046 5A74     		strb	r2, [r3, #17]
 207:app_lock.c    ****         System_Config.DeviceID[2] = 0x03;
 694              		.loc 1 207 0
ARM GAS  C:\Users\ADMINI~1.SC-\AppData\Local\Temp\ccEjwghd.s 			page 17


 695 0048 0C4B     		ldr	r3, .L42+4
 696 004a 0322     		mov	r2, #3
 697 004c 9A74     		strb	r2, [r3, #18]
 208:app_lock.c    ****         System_Config.DeviceID[3] = 0x04;
 698              		.loc 1 208 0
 699 004e 0B4B     		ldr	r3, .L42+4
 700 0050 0422     		mov	r2, #4
 701 0052 DA74     		strb	r2, [r3, #19]
 209:app_lock.c    ****         System_Config.sum = CRC_Sum((uint8 *)&System_Config,sizeof(System_Config)-1);
 702              		.loc 1 209 0
 703 0054 094B     		ldr	r3, .L42+4
 704 0056 181C     		mov	r0, r3
 705 0058 1521     		mov	r1, #21
 706 005a FFF7FEFF 		bl	CRC_Sum
 707 005e 031C     		mov	r3, r0
 708 0060 1A1C     		mov	r2, r3
 709 0062 064B     		ldr	r3, .L42+4
 710 0064 5A75     		strb	r2, [r3, #21]
 210:app_lock.c    ****         Write_Flash((uint8 *)&System_Config,sizeof(System_Config));
 711              		.loc 1 210 0
 712 0066 054B     		ldr	r3, .L42+4
 713 0068 181C     		mov	r0, r3
 714 006a 1621     		mov	r1, #22
 715 006c FFF7FEFF 		bl	Write_Flash
 716              	.L40:
 211:app_lock.c    ****     }
 212:app_lock.c    **** }
 717              		.loc 1 212 0
 718 0070 BD46     		mov	sp, r7
 719 0072 03B0     		add	sp, sp, #12
 720              		@ sp needed
 721 0074 90BD     		pop	{r4, r7, pc}
 722              	.L43:
 723 0076 C046     		.align	2
 724              	.L42:
 725 0078 00FF0100 		.word	130816
 726 007c 00000000 		.word	System_Config
 727 0080 00000000 		.word	Manage_Key
 728              		.cfi_endproc
 729              	.LFE39:
 730              		.size	Load_Config, .-Load_Config
 731              		.text
 732              	.Letext0:
 733              		.file 2 "Generated_Source\\PSoC4/cytypes.h"
 734              		.file 3 "app_lock.h"
 735              		.file 4 "Generated_Source\\PSoC4/BLE_Stack.h"
 736              		.section	.debug_info,"",%progbits
 737              	.Ldebug_info0:
 738 0000 FD040000 		.4byte	0x4fd
 739 0004 0400     		.2byte	0x4
 740 0006 00000000 		.4byte	.Ldebug_abbrev0
 741 000a 04       		.byte	0x4
 742 000b 01       		.uleb128 0x1
 743 000c 0A060000 		.4byte	.LASF107
 744 0010 01       		.byte	0x1
 745 0011 87080000 		.4byte	.LASF108
 746 0015 DF020000 		.4byte	.LASF109
ARM GAS  C:\Users\ADMINI~1.SC-\AppData\Local\Temp\ccEjwghd.s 			page 18


 747 0019 00000000 		.4byte	.Ldebug_ranges0+0
 748 001d 00000000 		.4byte	0
 749 0021 00000000 		.4byte	.Ldebug_line0
 750 0025 02       		.uleb128 0x2
 751 0026 01       		.byte	0x1
 752 0027 06       		.byte	0x6
 753 0028 D6040000 		.4byte	.LASF0
 754 002c 02       		.uleb128 0x2
 755 002d 01       		.byte	0x1
 756 002e 08       		.byte	0x8
 757 002f 56040000 		.4byte	.LASF1
 758 0033 02       		.uleb128 0x2
 759 0034 02       		.byte	0x2
 760 0035 05       		.byte	0x5
 761 0036 6B020000 		.4byte	.LASF2
 762 003a 02       		.uleb128 0x2
 763 003b 02       		.byte	0x2
 764 003c 07       		.byte	0x7
 765 003d D5050000 		.4byte	.LASF3
 766 0041 02       		.uleb128 0x2
 767 0042 04       		.byte	0x4
 768 0043 05       		.byte	0x5
 769 0044 10030000 		.4byte	.LASF4
 770 0048 02       		.uleb128 0x2
 771 0049 04       		.byte	0x4
 772 004a 07       		.byte	0x7
 773 004b 6E050000 		.4byte	.LASF5
 774 004f 02       		.uleb128 0x2
 775 0050 08       		.byte	0x8
 776 0051 05       		.byte	0x5
 777 0052 BA020000 		.4byte	.LASF6
 778 0056 02       		.uleb128 0x2
 779 0057 08       		.byte	0x8
 780 0058 07       		.byte	0x7
 781 0059 C8020000 		.4byte	.LASF7
 782 005d 03       		.uleb128 0x3
 783 005e 04       		.byte	0x4
 784 005f 05       		.byte	0x5
 785 0060 696E7400 		.ascii	"int\000"
 786 0064 02       		.uleb128 0x2
 787 0065 04       		.byte	0x4
 788 0066 07       		.byte	0x7
 789 0067 41090000 		.4byte	.LASF8
 790 006b 04       		.uleb128 0x4
 791 006c 1F040000 		.4byte	.LASF9
 792 0070 02       		.byte	0x2
 793 0071 C2       		.byte	0xc2
 794 0072 2C000000 		.4byte	0x2c
 795 0076 04       		.uleb128 0x4
 796 0077 7B010000 		.4byte	.LASF10
 797 007b 02       		.byte	0x2
 798 007c C3       		.byte	0xc3
 799 007d 3A000000 		.4byte	0x3a
 800 0081 04       		.uleb128 0x4
 801 0082 07070000 		.4byte	.LASF11
 802 0086 02       		.byte	0x2
 803 0087 C4       		.byte	0xc4
ARM GAS  C:\Users\ADMINI~1.SC-\AppData\Local\Temp\ccEjwghd.s 			page 19


 804 0088 48000000 		.4byte	0x48
 805 008c 02       		.uleb128 0x2
 806 008d 04       		.byte	0x4
 807 008e 04       		.byte	0x4
 808 008f 81020000 		.4byte	.LASF12
 809 0093 02       		.uleb128 0x2
 810 0094 08       		.byte	0x8
 811 0095 04       		.byte	0x4
 812 0096 5A070000 		.4byte	.LASF13
 813 009a 02       		.uleb128 0x2
 814 009b 01       		.byte	0x1
 815 009c 08       		.byte	0x8
 816 009d F7050000 		.4byte	.LASF14
 817 00a1 02       		.uleb128 0x2
 818 00a2 04       		.byte	0x4
 819 00a3 07       		.byte	0x7
 820 00a4 D8000000 		.4byte	.LASF15
 821 00a8 05       		.uleb128 0x5
 822 00a9 04       		.byte	0x4
 823 00aa 6B000000 		.4byte	0x6b
 824 00ae 06       		.uleb128 0x6
 825 00af 01       		.byte	0x1
 826 00b0 04       		.byte	0x4
 827 00b1 A4       		.byte	0xa4
 828 00b2 33020000 		.4byte	0x233
 829 00b6 07       		.uleb128 0x7
 830 00b7 0B020000 		.4byte	.LASF16
 831 00bb 00       		.sleb128 0
 832 00bc 07       		.uleb128 0x7
 833 00bd 42010000 		.4byte	.LASF17
 834 00c1 01       		.sleb128 1
 835 00c2 07       		.uleb128 0x7
 836 00c3 92080000 		.4byte	.LASF18
 837 00c7 02       		.sleb128 2
 838 00c8 07       		.uleb128 0x7
 839 00c9 A2070000 		.4byte	.LASF19
 840 00cd 03       		.sleb128 3
 841 00ce 07       		.uleb128 0x7
 842 00cf 0C010000 		.4byte	.LASF20
 843 00d3 04       		.sleb128 4
 844 00d4 07       		.uleb128 0x7
 845 00d5 AE030000 		.4byte	.LASF21
 846 00d9 05       		.sleb128 5
 847 00da 07       		.uleb128 0x7
 848 00db 00080000 		.4byte	.LASF22
 849 00df 20       		.sleb128 32
 850 00e0 07       		.uleb128 0x7
 851 00e1 80050000 		.4byte	.LASF23
 852 00e5 21       		.sleb128 33
 853 00e6 07       		.uleb128 0x7
 854 00e7 12000000 		.4byte	.LASF24
 855 00eb 22       		.sleb128 34
 856 00ec 07       		.uleb128 0x7
 857 00ed CF030000 		.4byte	.LASF25
 858 00f1 23       		.sleb128 35
 859 00f2 07       		.uleb128 0x7
 860 00f3 2D050000 		.4byte	.LASF26
ARM GAS  C:\Users\ADMINI~1.SC-\AppData\Local\Temp\ccEjwghd.s 			page 20


 861 00f7 24       		.sleb128 36
 862 00f8 07       		.uleb128 0x7
 863 00f9 BE000000 		.4byte	.LASF27
 864 00fd 25       		.sleb128 37
 865 00fe 07       		.uleb128 0x7
 866 00ff 65030000 		.4byte	.LASF28
 867 0103 26       		.sleb128 38
 868 0104 07       		.uleb128 0x7
 869 0105 46030000 		.4byte	.LASF29
 870 0109 27       		.sleb128 39
 871 010a 07       		.uleb128 0x7
 872 010b 60090000 		.4byte	.LASF30
 873 010f 28       		.sleb128 40
 874 0110 07       		.uleb128 0x7
 875 0111 B8050000 		.4byte	.LASF31
 876 0115 29       		.sleb128 41
 877 0116 07       		.uleb128 0x7
 878 0117 41000000 		.4byte	.LASF32
 879 011b 2A       		.sleb128 42
 880 011c 07       		.uleb128 0x7
 881 011d C8080000 		.4byte	.LASF33
 882 0121 2B       		.sleb128 43
 883 0122 07       		.uleb128 0x7
 884 0123 9D010000 		.4byte	.LASF34
 885 0127 2C       		.sleb128 44
 886 0128 07       		.uleb128 0x7
 887 0129 77000000 		.4byte	.LASF35
 888 012d C000     		.sleb128 64
 889 012f 07       		.uleb128 0x7
 890 0130 53050000 		.4byte	.LASF36
 891 0134 C100     		.sleb128 65
 892 0136 07       		.uleb128 0x7
 893 0137 A6090000 		.4byte	.LASF37
 894 013b C200     		.sleb128 66
 895 013d 07       		.uleb128 0x7
 896 013e 5D010000 		.4byte	.LASF38
 897 0142 C300     		.sleb128 67
 898 0144 07       		.uleb128 0x7
 899 0145 69080000 		.4byte	.LASF39
 900 0149 C400     		.sleb128 68
 901 014b 07       		.uleb128 0x7
 902 014c 24080000 		.4byte	.LASF40
 903 0150 C500     		.sleb128 69
 904 0152 07       		.uleb128 0x7
 905 0153 21010000 		.4byte	.LASF41
 906 0157 C600     		.sleb128 70
 907 0159 07       		.uleb128 0x7
 908 015a B8040000 		.4byte	.LASF42
 909 015e C700     		.sleb128 71
 910 0160 07       		.uleb128 0x7
 911 0161 06050000 		.4byte	.LASF43
 912 0165 C800     		.sleb128 72
 913 0167 07       		.uleb128 0x7
 914 0168 87020000 		.4byte	.LASF44
 915 016c C900     		.sleb128 73
 916 016e 07       		.uleb128 0x7
 917 016f BD060000 		.4byte	.LASF45
ARM GAS  C:\Users\ADMINI~1.SC-\AppData\Local\Temp\ccEjwghd.s 			page 21


 918 0173 CA00     		.sleb128 74
 919 0175 07       		.uleb128 0x7
 920 0176 C1010000 		.4byte	.LASF46
 921 017a CB00     		.sleb128 75
 922 017c 07       		.uleb128 0x7
 923 017d E2040000 		.4byte	.LASF47
 924 0181 CC00     		.sleb128 76
 925 0183 07       		.uleb128 0x7
 926 0184 A0020000 		.4byte	.LASF48
 927 0188 CD00     		.sleb128 77
 928 018a 07       		.uleb128 0x7
 929 018b 4B080000 		.4byte	.LASF49
 930 018f CE00     		.sleb128 78
 931 0191 07       		.uleb128 0x7
 932 0192 6E040000 		.4byte	.LASF50
 933 0196 CF00     		.sleb128 79
 934 0198 07       		.uleb128 0x7
 935 0199 9A000000 		.4byte	.LASF51
 936 019d D000     		.sleb128 80
 937 019f 07       		.uleb128 0x7
 938 01a0 E8060000 		.4byte	.LASF52
 939 01a4 D100     		.sleb128 81
 940 01a6 07       		.uleb128 0x7
 941 01a7 8D030000 		.4byte	.LASF53
 942 01ab D200     		.sleb128 82
 943 01ad 07       		.uleb128 0x7
 944 01ae 19030000 		.4byte	.LASF54
 945 01b2 D300     		.sleb128 83
 946 01b4 07       		.uleb128 0x7
 947 01b5 EA010000 		.4byte	.LASF55
 948 01b9 D400     		.sleb128 84
 949 01bb 07       		.uleb128 0x7
 950 01bc 82090000 		.4byte	.LASF56
 951 01c0 D500     		.sleb128 85
 952 01c2 07       		.uleb128 0x7
 953 01c3 1F090000 		.4byte	.LASF57
 954 01c7 D600     		.sleb128 86
 955 01c9 07       		.uleb128 0x7
 956 01ca F6080000 		.4byte	.LASF58
 957 01ce D700     		.sleb128 87
 958 01d0 07       		.uleb128 0x7
 959 01d1 30040000 		.4byte	.LASF59
 960 01d5 F000     		.sleb128 112
 961 01d7 07       		.uleb128 0x7
 962 01d8 DA070000 		.4byte	.LASF60
 963 01dc F100     		.sleb128 113
 964 01de 07       		.uleb128 0x7
 965 01df F5030000 		.4byte	.LASF61
 966 01e3 F200     		.sleb128 114
 967 01e5 07       		.uleb128 0x7
 968 01e6 2C020000 		.4byte	.LASF62
 969 01ea F300     		.sleb128 115
 970 01ec 07       		.uleb128 0x7
 971 01ed 84070000 		.4byte	.LASF63
 972 01f1 F400     		.sleb128 116
 973 01f3 07       		.uleb128 0x7
 974 01f4 97050000 		.4byte	.LASF64
ARM GAS  C:\Users\ADMINI~1.SC-\AppData\Local\Temp\ccEjwghd.s 			page 22


 975 01f8 F500     		.sleb128 117
 976 01fa 07       		.uleb128 0x7
 977 01fb 4A020000 		.4byte	.LASF65
 978 01ff F600     		.sleb128 118
 979 0201 07       		.uleb128 0x7
 980 0202 BB070000 		.4byte	.LASF66
 981 0206 F700     		.sleb128 119
 982 0208 07       		.uleb128 0x7
 983 0209 2C070000 		.4byte	.LASF67
 984 020d F800     		.sleb128 120
 985 020f 07       		.uleb128 0x7
 986 0210 61070000 		.4byte	.LASF68
 987 0214 F900     		.sleb128 121
 988 0216 07       		.uleb128 0x7
 989 0217 A4080000 		.4byte	.LASF69
 990 021b FA00     		.sleb128 122
 991 021d 07       		.uleb128 0x7
 992 021e 0E070000 		.4byte	.LASF70
 993 0222 FA01     		.sleb128 250
 994 0224 07       		.uleb128 0x7
 995 0225 8D040000 		.4byte	.LASF71
 996 0229 FB01     		.sleb128 251
 997 022b 07       		.uleb128 0x7
 998 022c 11040000 		.4byte	.LASF72
 999 0230 FF01     		.sleb128 255
 1000 0232 00       		.byte	0
 1001 0233 08       		.uleb128 0x8
 1002 0234 6B000000 		.4byte	0x6b
 1003 0238 43020000 		.4byte	0x243
 1004 023c 09       		.uleb128 0x9
 1005 023d A1000000 		.4byte	0xa1
 1006 0241 0F       		.byte	0xf
 1007 0242 00       		.byte	0
 1008 0243 0A       		.uleb128 0xa
 1009 0244 16       		.byte	0x16
 1010 0245 03       		.byte	0x3
 1011 0246 34       		.byte	0x34
 1012 0247 7C020000 		.4byte	0x27c
 1013 024b 0B       		.uleb128 0xb
 1014 024c 64040000 		.4byte	.LASF73
 1015 0250 03       		.byte	0x3
 1016 0251 36       		.byte	0x36
 1017 0252 33020000 		.4byte	0x233
 1018 0256 00       		.byte	0
 1019 0257 0B       		.uleb128 0xb
 1020 0258 91000000 		.4byte	.LASF74
 1021 025c 03       		.byte	0x3
 1022 025d 37       		.byte	0x37
 1023 025e 7C020000 		.4byte	0x27c
 1024 0262 10       		.byte	0x10
 1025 0263 0B       		.uleb128 0xb
 1026 0264 6A000000 		.4byte	.LASF75
 1027 0268 03       		.byte	0x3
 1028 0269 38       		.byte	0x38
 1029 026a 6B000000 		.4byte	0x6b
 1030 026e 14       		.byte	0x14
 1031 026f 0C       		.uleb128 0xc
ARM GAS  C:\Users\ADMINI~1.SC-\AppData\Local\Temp\ccEjwghd.s 			page 23


 1032 0270 73756D00 		.ascii	"sum\000"
 1033 0274 03       		.byte	0x3
 1034 0275 39       		.byte	0x39
 1035 0276 6B000000 		.4byte	0x6b
 1036 027a 15       		.byte	0x15
 1037 027b 00       		.byte	0
 1038 027c 08       		.uleb128 0x8
 1039 027d 6B000000 		.4byte	0x6b
 1040 0281 8C020000 		.4byte	0x28c
 1041 0285 09       		.uleb128 0x9
 1042 0286 A1000000 		.4byte	0xa1
 1043 028a 03       		.byte	0x3
 1044 028b 00       		.byte	0
 1045 028c 04       		.uleb128 0x4
 1046 028d 82010000 		.4byte	.LASF76
 1047 0291 03       		.byte	0x3
 1048 0292 3A       		.byte	0x3a
 1049 0293 43020000 		.4byte	0x243
 1050 0297 0A       		.uleb128 0xa
 1051 0298 0F       		.byte	0xf
 1052 0299 03       		.byte	0x3
 1053 029a 40       		.byte	0x40
 1054 029b D0020000 		.4byte	0x2d0
 1055 029f 0B       		.uleb128 0xb
 1056 02a0 91000000 		.4byte	.LASF74
 1057 02a4 03       		.byte	0x3
 1058 02a5 42       		.byte	0x42
 1059 02a6 7C020000 		.4byte	0x27c
 1060 02aa 00       		.byte	0
 1061 02ab 0B       		.uleb128 0xb
 1062 02ac AE060000 		.4byte	.LASF77
 1063 02b0 03       		.byte	0x3
 1064 02b1 43       		.byte	0x43
 1065 02b2 D0020000 		.4byte	0x2d0
 1066 02b6 04       		.byte	0x4
 1067 02b7 0B       		.uleb128 0xb
 1068 02b8 FC040000 		.4byte	.LASF78
 1069 02bc 03       		.byte	0x3
 1070 02bd 44       		.byte	0x44
 1071 02be 6B000000 		.4byte	0x6b
 1072 02c2 06       		.byte	0x6
 1073 02c3 0B       		.uleb128 0xb
 1074 02c4 55010000 		.4byte	.LASF79
 1075 02c8 03       		.byte	0x3
 1076 02c9 45       		.byte	0x45
 1077 02ca E0020000 		.4byte	0x2e0
 1078 02ce 07       		.byte	0x7
 1079 02cf 00       		.byte	0
 1080 02d0 08       		.uleb128 0x8
 1081 02d1 6B000000 		.4byte	0x6b
 1082 02d5 E0020000 		.4byte	0x2e0
 1083 02d9 09       		.uleb128 0x9
 1084 02da A1000000 		.4byte	0xa1
 1085 02de 01       		.byte	0x1
 1086 02df 00       		.byte	0
 1087 02e0 08       		.uleb128 0x8
 1088 02e1 6B000000 		.4byte	0x6b
ARM GAS  C:\Users\ADMINI~1.SC-\AppData\Local\Temp\ccEjwghd.s 			page 24


 1089 02e5 F0020000 		.4byte	0x2f0
 1090 02e9 09       		.uleb128 0x9
 1091 02ea A1000000 		.4byte	0xa1
 1092 02ee 07       		.byte	0x7
 1093 02ef 00       		.byte	0
 1094 02f0 04       		.uleb128 0x4
 1095 02f1 49050000 		.4byte	.LASF80
 1096 02f5 03       		.byte	0x3
 1097 02f6 46       		.byte	0x46
 1098 02f7 97020000 		.4byte	0x297
 1099 02fb 0A       		.uleb128 0xa
 1100 02fc 0A       		.byte	0xa
 1101 02fd 03       		.byte	0x3
 1102 02fe 4E       		.byte	0x4e
 1103 02ff 4C030000 		.4byte	0x34c
 1104 0303 0B       		.uleb128 0xb
 1105 0304 4E090000 		.4byte	.LASF81
 1106 0308 03       		.byte	0x3
 1107 0309 50       		.byte	0x50
 1108 030a 76000000 		.4byte	0x76
 1109 030e 00       		.byte	0
 1110 030f 0B       		.uleb128 0xb
 1111 0310 EE000000 		.4byte	.LASF82
 1112 0314 03       		.byte	0x3
 1113 0315 52       		.byte	0x52
 1114 0316 76000000 		.4byte	0x76
 1115 031a 02       		.byte	0x2
 1116 031b 0B       		.uleb128 0xb
 1117 031c DB060000 		.4byte	.LASF83
 1118 0320 03       		.byte	0x3
 1119 0321 53       		.byte	0x53
 1120 0322 6B000000 		.4byte	0x6b
 1121 0326 04       		.byte	0x4
 1122 0327 0B       		.uleb128 0xb
 1123 0328 ED050000 		.4byte	.LASF84
 1124 032c 03       		.byte	0x3
 1125 032d 55       		.byte	0x55
 1126 032e 6B000000 		.4byte	0x6b
 1127 0332 05       		.byte	0x5
 1128 0333 0B       		.uleb128 0xb
 1129 0334 C4090000 		.4byte	.LASF85
 1130 0338 03       		.byte	0x3
 1131 0339 56       		.byte	0x56
 1132 033a 76000000 		.4byte	0x76
 1133 033e 06       		.byte	0x6
 1134 033f 0B       		.uleb128 0xb
 1135 0340 25040000 		.4byte	.LASF86
 1136 0344 03       		.byte	0x3
 1137 0345 57       		.byte	0x57
 1138 0346 76000000 		.4byte	0x76
 1139 034a 08       		.byte	0x8
 1140 034b 00       		.byte	0
 1141 034c 04       		.uleb128 0x4
 1142 034d E0010000 		.4byte	.LASF87
 1143 0351 03       		.byte	0x3
 1144 0352 58       		.byte	0x58
 1145 0353 FB020000 		.4byte	0x2fb
ARM GAS  C:\Users\ADMINI~1.SC-\AppData\Local\Temp\ccEjwghd.s 			page 25


 1146 0357 0A       		.uleb128 0xa
 1147 0358 04       		.byte	0x4
 1148 0359 03       		.byte	0x3
 1149 035a 5E       		.byte	0x5e
 1150 035b 8D030000 		.4byte	0x38d
 1151 035f 0D       		.uleb128 0xd
 1152 0360 8D010000 		.4byte	.LASF88
 1153 0364 03       		.byte	0x3
 1154 0365 60       		.byte	0x60
 1155 0366 64000000 		.4byte	0x64
 1156 036a 04       		.byte	0x4
 1157 036b 03       		.byte	0x3
 1158 036c 1D       		.byte	0x1d
 1159 036d 00       		.byte	0
 1160 036e 0D       		.uleb128 0xd
 1161 036f 00000000 		.4byte	.LASF89
 1162 0373 03       		.byte	0x3
 1163 0374 61       		.byte	0x61
 1164 0375 64000000 		.4byte	0x64
 1165 0379 04       		.byte	0x4
 1166 037a 01       		.byte	0x1
 1167 037b 1C       		.byte	0x1c
 1168 037c 00       		.byte	0
 1169 037d 0D       		.uleb128 0xd
 1170 037e E7080000 		.4byte	.LASF90
 1171 0382 03       		.byte	0x3
 1172 0383 63       		.byte	0x63
 1173 0384 64000000 		.4byte	0x64
 1174 0388 04       		.byte	0x4
 1175 0389 01       		.byte	0x1
 1176 038a 1B       		.byte	0x1b
 1177 038b 00       		.byte	0
 1178 038c 00       		.byte	0
 1179 038d 04       		.uleb128 0x4
 1180 038e 07010000 		.4byte	.LASF91
 1181 0392 03       		.byte	0x3
 1182 0393 65       		.byte	0x65
 1183 0394 57030000 		.4byte	0x357
 1184 0398 0E       		.uleb128 0xe
 1185 0399 75020000 		.4byte	.LASF92
 1186 039d 01       		.byte	0x1
 1187 039e 29       		.byte	0x29
 1188 039f 00000000 		.4byte	.LFB35
 1189 03a3 08020000 		.4byte	.LFE35-.LFB35
 1190 03a7 01       		.uleb128 0x1
 1191 03a8 9C       		.byte	0x9c
 1192 03a9 BC030000 		.4byte	0x3bc
 1193 03ad 0F       		.uleb128 0xf
 1194 03ae 5A090000 		.4byte	.LASF94
 1195 03b2 01       		.byte	0x1
 1196 03b3 29       		.byte	0x29
 1197 03b4 6B000000 		.4byte	0x6b
 1198 03b8 02       		.uleb128 0x2
 1199 03b9 91       		.byte	0x91
 1200 03ba 77       		.sleb128 -9
 1201 03bb 00       		.byte	0
 1202 03bc 0E       		.uleb128 0xe
ARM GAS  C:\Users\ADMINI~1.SC-\AppData\Local\Temp\ccEjwghd.s 			page 26


 1203 03bd AC040000 		.4byte	.LASF93
 1204 03c1 01       		.byte	0x1
 1205 03c2 99       		.byte	0x99
 1206 03c3 00000000 		.4byte	.LFB36
 1207 03c7 4C000000 		.4byte	.LFE36-.LFB36
 1208 03cb 01       		.uleb128 0x1
 1209 03cc 9C       		.byte	0x9c
 1210 03cd FF030000 		.4byte	0x3ff
 1211 03d1 0F       		.uleb128 0xf
 1212 03d2 CA030000 		.4byte	.LASF95
 1213 03d6 01       		.byte	0x1
 1214 03d7 99       		.byte	0x99
 1215 03d8 A8000000 		.4byte	0xa8
 1216 03dc 03       		.uleb128 0x3
 1217 03dd 91       		.byte	0x91
 1218 03de F47E     		.sleb128 -140
 1219 03e0 0F       		.uleb128 0xf
 1220 03e1 B6060000 		.4byte	.LASF96
 1221 03e5 01       		.byte	0x1
 1222 03e6 99       		.byte	0x99
 1223 03e7 6B000000 		.4byte	0x6b
 1224 03eb 03       		.uleb128 0x3
 1225 03ec 91       		.byte	0x91
 1226 03ed F37E     		.sleb128 -141
 1227 03ef 10       		.uleb128 0x10
 1228 03f0 4F070000 		.4byte	.LASF99
 1229 03f4 01       		.byte	0x1
 1230 03f5 9B       		.byte	0x9b
 1231 03f6 FF030000 		.4byte	0x3ff
 1232 03fa 03       		.uleb128 0x3
 1233 03fb 91       		.byte	0x91
 1234 03fc F87E     		.sleb128 -136
 1235 03fe 00       		.byte	0
 1236 03ff 08       		.uleb128 0x8
 1237 0400 6B000000 		.4byte	0x6b
 1238 0404 0F040000 		.4byte	0x40f
 1239 0408 09       		.uleb128 0x9
 1240 0409 A1000000 		.4byte	0xa1
 1241 040d 7F       		.byte	0x7f
 1242 040e 00       		.byte	0
 1243 040f 11       		.uleb128 0x11
 1244 0410 98060000 		.4byte	.LASF97
 1245 0414 01       		.byte	0x1
 1246 0415 A4       		.byte	0xa4
 1247 0416 00000000 		.4byte	.LFB37
 1248 041a 58000000 		.4byte	.LFE37-.LFB37
 1249 041e 01       		.uleb128 0x1
 1250 041f 9C       		.byte	0x9c
 1251 0420 5B040000 		.4byte	0x45b
 1252 0424 0F       		.uleb128 0xf
 1253 0425 B9000000 		.4byte	.LASF98
 1254 0429 01       		.byte	0x1
 1255 042a A4       		.byte	0xa4
 1256 042b 81000000 		.4byte	0x81
 1257 042f 02       		.uleb128 0x2
 1258 0430 91       		.byte	0x91
 1259 0431 6C       		.sleb128 -20
ARM GAS  C:\Users\ADMINI~1.SC-\AppData\Local\Temp\ccEjwghd.s 			page 27


 1260 0432 0F       		.uleb128 0xf
 1261 0433 CA030000 		.4byte	.LASF95
 1262 0437 01       		.byte	0x1
 1263 0438 A4       		.byte	0xa4
 1264 0439 A8000000 		.4byte	0xa8
 1265 043d 02       		.uleb128 0x2
 1266 043e 91       		.byte	0x91
 1267 043f 68       		.sleb128 -24
 1268 0440 0F       		.uleb128 0xf
 1269 0441 B6060000 		.4byte	.LASF96
 1270 0445 01       		.byte	0x1
 1271 0446 A4       		.byte	0xa4
 1272 0447 6B000000 		.4byte	0x6b
 1273 044b 02       		.uleb128 0x2
 1274 044c 91       		.byte	0x91
 1275 044d 67       		.sleb128 -25
 1276 044e 12       		.uleb128 0x12
 1277 044f 6900     		.ascii	"i\000"
 1278 0451 01       		.byte	0x1
 1279 0452 A6       		.byte	0xa6
 1280 0453 6B000000 		.4byte	0x6b
 1281 0457 02       		.uleb128 0x2
 1282 0458 91       		.byte	0x91
 1283 0459 77       		.sleb128 -9
 1284 045a 00       		.byte	0
 1285 045b 13       		.uleb128 0x13
 1286 045c 22020000 		.4byte	.LASF110
 1287 0460 01       		.byte	0x1
 1288 0461 B2       		.byte	0xb2
 1289 0462 00000000 		.4byte	.LFB38
 1290 0466 4C000000 		.4byte	.LFE38-.LFB38
 1291 046a 01       		.uleb128 0x1
 1292 046b 9C       		.byte	0x9c
 1293 046c 0E       		.uleb128 0xe
 1294 046d 3A030000 		.4byte	.LASF100
 1295 0471 01       		.byte	0x1
 1296 0472 C5       		.byte	0xc5
 1297 0473 00000000 		.4byte	.LFB39
 1298 0477 84000000 		.4byte	.LFE39-.LFB39
 1299 047b 01       		.uleb128 0x1
 1300 047c 9C       		.byte	0x9c
 1301 047d 90040000 		.4byte	0x490
 1302 0481 12       		.uleb128 0x12
 1303 0482 73756D00 		.ascii	"sum\000"
 1304 0486 01       		.byte	0x1
 1305 0487 C7       		.byte	0xc7
 1306 0488 6B000000 		.4byte	0x6b
 1307 048c 02       		.uleb128 0x2
 1308 048d 91       		.byte	0x91
 1309 048e 6F       		.sleb128 -17
 1310 048f 00       		.byte	0
 1311 0490 14       		.uleb128 0x14
 1312 0491 FC050000 		.4byte	.LASF101
 1313 0495 01       		.byte	0x1
 1314 0496 1A       		.byte	0x1a
 1315 0497 8C020000 		.4byte	0x28c
 1316 049b 05       		.uleb128 0x5
ARM GAS  C:\Users\ADMINI~1.SC-\AppData\Local\Temp\ccEjwghd.s 			page 28


 1317 049c 03       		.byte	0x3
 1318 049d 00000000 		.4byte	System_Config
 1319 04a1 14       		.uleb128 0x14
 1320 04a2 A3060000 		.4byte	.LASF102
 1321 04a6 01       		.byte	0x1
 1322 04a7 14       		.byte	0x14
 1323 04a8 B2040000 		.4byte	0x4b2
 1324 04ac 05       		.uleb128 0x5
 1325 04ad 03       		.byte	0x3
 1326 04ae 00000000 		.4byte	Manage_Key
 1327 04b2 15       		.uleb128 0x15
 1328 04b3 33020000 		.4byte	0x233
 1329 04b7 14       		.uleb128 0x14
 1330 04b8 E1000000 		.4byte	.LASF103
 1331 04bc 01       		.byte	0x1
 1332 04bd 13       		.byte	0x13
 1333 04be C8040000 		.4byte	0x4c8
 1334 04c2 05       		.uleb128 0x5
 1335 04c3 03       		.byte	0x3
 1336 04c4 00000000 		.4byte	LockIdentify
 1337 04c8 15       		.uleb128 0x15
 1338 04c9 33020000 		.4byte	0x233
 1339 04cd 14       		.uleb128 0x14
 1340 04ce FD000000 		.4byte	.LASF104
 1341 04d2 01       		.byte	0x1
 1342 04d3 1B       		.byte	0x1b
 1343 04d4 F0020000 		.4byte	0x2f0
 1344 04d8 05       		.uleb128 0x5
 1345 04d9 03       		.byte	0x3
 1346 04da 00000000 		.4byte	Lock_Info
 1347 04de 14       		.uleb128 0x14
 1348 04df 36000000 		.4byte	.LASF105
 1349 04e3 01       		.byte	0x1
 1350 04e4 18       		.byte	0x18
 1351 04e5 4C030000 		.4byte	0x34c
 1352 04e9 05       		.uleb128 0x5
 1353 04ea 03       		.byte	0x3
 1354 04eb 00000000 		.4byte	Delay_Time
 1355 04ef 14       		.uleb128 0x14
 1356 04f0 E8050000 		.4byte	.LASF106
 1357 04f4 01       		.byte	0x1
 1358 04f5 19       		.byte	0x19
 1359 04f6 8D030000 		.4byte	0x38d
 1360 04fa 05       		.uleb128 0x5
 1361 04fb 03       		.byte	0x3
 1362 04fc 00000000 		.4byte	Flag
 1363 0500 00       		.byte	0
 1364              		.section	.debug_abbrev,"",%progbits
 1365              	.Ldebug_abbrev0:
 1366 0000 01       		.uleb128 0x1
 1367 0001 11       		.uleb128 0x11
 1368 0002 01       		.byte	0x1
 1369 0003 25       		.uleb128 0x25
 1370 0004 0E       		.uleb128 0xe
 1371 0005 13       		.uleb128 0x13
 1372 0006 0B       		.uleb128 0xb
 1373 0007 03       		.uleb128 0x3
ARM GAS  C:\Users\ADMINI~1.SC-\AppData\Local\Temp\ccEjwghd.s 			page 29


 1374 0008 0E       		.uleb128 0xe
 1375 0009 1B       		.uleb128 0x1b
 1376 000a 0E       		.uleb128 0xe
 1377 000b 55       		.uleb128 0x55
 1378 000c 17       		.uleb128 0x17
 1379 000d 11       		.uleb128 0x11
 1380 000e 01       		.uleb128 0x1
 1381 000f 10       		.uleb128 0x10
 1382 0010 17       		.uleb128 0x17
 1383 0011 00       		.byte	0
 1384 0012 00       		.byte	0
 1385 0013 02       		.uleb128 0x2
 1386 0014 24       		.uleb128 0x24
 1387 0015 00       		.byte	0
 1388 0016 0B       		.uleb128 0xb
 1389 0017 0B       		.uleb128 0xb
 1390 0018 3E       		.uleb128 0x3e
 1391 0019 0B       		.uleb128 0xb
 1392 001a 03       		.uleb128 0x3
 1393 001b 0E       		.uleb128 0xe
 1394 001c 00       		.byte	0
 1395 001d 00       		.byte	0
 1396 001e 03       		.uleb128 0x3
 1397 001f 24       		.uleb128 0x24
 1398 0020 00       		.byte	0
 1399 0021 0B       		.uleb128 0xb
 1400 0022 0B       		.uleb128 0xb
 1401 0023 3E       		.uleb128 0x3e
 1402 0024 0B       		.uleb128 0xb
 1403 0025 03       		.uleb128 0x3
 1404 0026 08       		.uleb128 0x8
 1405 0027 00       		.byte	0
 1406 0028 00       		.byte	0
 1407 0029 04       		.uleb128 0x4
 1408 002a 16       		.uleb128 0x16
 1409 002b 00       		.byte	0
 1410 002c 03       		.uleb128 0x3
 1411 002d 0E       		.uleb128 0xe
 1412 002e 3A       		.uleb128 0x3a
 1413 002f 0B       		.uleb128 0xb
 1414 0030 3B       		.uleb128 0x3b
 1415 0031 0B       		.uleb128 0xb
 1416 0032 49       		.uleb128 0x49
 1417 0033 13       		.uleb128 0x13
 1418 0034 00       		.byte	0
 1419 0035 00       		.byte	0
 1420 0036 05       		.uleb128 0x5
 1421 0037 0F       		.uleb128 0xf
 1422 0038 00       		.byte	0
 1423 0039 0B       		.uleb128 0xb
 1424 003a 0B       		.uleb128 0xb
 1425 003b 49       		.uleb128 0x49
 1426 003c 13       		.uleb128 0x13
 1427 003d 00       		.byte	0
 1428 003e 00       		.byte	0
 1429 003f 06       		.uleb128 0x6
 1430 0040 04       		.uleb128 0x4
ARM GAS  C:\Users\ADMINI~1.SC-\AppData\Local\Temp\ccEjwghd.s 			page 30


 1431 0041 01       		.byte	0x1
 1432 0042 0B       		.uleb128 0xb
 1433 0043 0B       		.uleb128 0xb
 1434 0044 3A       		.uleb128 0x3a
 1435 0045 0B       		.uleb128 0xb
 1436 0046 3B       		.uleb128 0x3b
 1437 0047 0B       		.uleb128 0xb
 1438 0048 01       		.uleb128 0x1
 1439 0049 13       		.uleb128 0x13
 1440 004a 00       		.byte	0
 1441 004b 00       		.byte	0
 1442 004c 07       		.uleb128 0x7
 1443 004d 28       		.uleb128 0x28
 1444 004e 00       		.byte	0
 1445 004f 03       		.uleb128 0x3
 1446 0050 0E       		.uleb128 0xe
 1447 0051 1C       		.uleb128 0x1c
 1448 0052 0D       		.uleb128 0xd
 1449 0053 00       		.byte	0
 1450 0054 00       		.byte	0
 1451 0055 08       		.uleb128 0x8
 1452 0056 01       		.uleb128 0x1
 1453 0057 01       		.byte	0x1
 1454 0058 49       		.uleb128 0x49
 1455 0059 13       		.uleb128 0x13
 1456 005a 01       		.uleb128 0x1
 1457 005b 13       		.uleb128 0x13
 1458 005c 00       		.byte	0
 1459 005d 00       		.byte	0
 1460 005e 09       		.uleb128 0x9
 1461 005f 21       		.uleb128 0x21
 1462 0060 00       		.byte	0
 1463 0061 49       		.uleb128 0x49
 1464 0062 13       		.uleb128 0x13
 1465 0063 2F       		.uleb128 0x2f
 1466 0064 0B       		.uleb128 0xb
 1467 0065 00       		.byte	0
 1468 0066 00       		.byte	0
 1469 0067 0A       		.uleb128 0xa
 1470 0068 13       		.uleb128 0x13
 1471 0069 01       		.byte	0x1
 1472 006a 0B       		.uleb128 0xb
 1473 006b 0B       		.uleb128 0xb
 1474 006c 3A       		.uleb128 0x3a
 1475 006d 0B       		.uleb128 0xb
 1476 006e 3B       		.uleb128 0x3b
 1477 006f 0B       		.uleb128 0xb
 1478 0070 01       		.uleb128 0x1
 1479 0071 13       		.uleb128 0x13
 1480 0072 00       		.byte	0
 1481 0073 00       		.byte	0
 1482 0074 0B       		.uleb128 0xb
 1483 0075 0D       		.uleb128 0xd
 1484 0076 00       		.byte	0
 1485 0077 03       		.uleb128 0x3
 1486 0078 0E       		.uleb128 0xe
 1487 0079 3A       		.uleb128 0x3a
ARM GAS  C:\Users\ADMINI~1.SC-\AppData\Local\Temp\ccEjwghd.s 			page 31


 1488 007a 0B       		.uleb128 0xb
 1489 007b 3B       		.uleb128 0x3b
 1490 007c 0B       		.uleb128 0xb
 1491 007d 49       		.uleb128 0x49
 1492 007e 13       		.uleb128 0x13
 1493 007f 38       		.uleb128 0x38
 1494 0080 0B       		.uleb128 0xb
 1495 0081 00       		.byte	0
 1496 0082 00       		.byte	0
 1497 0083 0C       		.uleb128 0xc
 1498 0084 0D       		.uleb128 0xd
 1499 0085 00       		.byte	0
 1500 0086 03       		.uleb128 0x3
 1501 0087 08       		.uleb128 0x8
 1502 0088 3A       		.uleb128 0x3a
 1503 0089 0B       		.uleb128 0xb
 1504 008a 3B       		.uleb128 0x3b
 1505 008b 0B       		.uleb128 0xb
 1506 008c 49       		.uleb128 0x49
 1507 008d 13       		.uleb128 0x13
 1508 008e 38       		.uleb128 0x38
 1509 008f 0B       		.uleb128 0xb
 1510 0090 00       		.byte	0
 1511 0091 00       		.byte	0
 1512 0092 0D       		.uleb128 0xd
 1513 0093 0D       		.uleb128 0xd
 1514 0094 00       		.byte	0
 1515 0095 03       		.uleb128 0x3
 1516 0096 0E       		.uleb128 0xe
 1517 0097 3A       		.uleb128 0x3a
 1518 0098 0B       		.uleb128 0xb
 1519 0099 3B       		.uleb128 0x3b
 1520 009a 0B       		.uleb128 0xb
 1521 009b 49       		.uleb128 0x49
 1522 009c 13       		.uleb128 0x13
 1523 009d 0B       		.uleb128 0xb
 1524 009e 0B       		.uleb128 0xb
 1525 009f 0D       		.uleb128 0xd
 1526 00a0 0B       		.uleb128 0xb
 1527 00a1 0C       		.uleb128 0xc
 1528 00a2 0B       		.uleb128 0xb
 1529 00a3 38       		.uleb128 0x38
 1530 00a4 0B       		.uleb128 0xb
 1531 00a5 00       		.byte	0
 1532 00a6 00       		.byte	0
 1533 00a7 0E       		.uleb128 0xe
 1534 00a8 2E       		.uleb128 0x2e
 1535 00a9 01       		.byte	0x1
 1536 00aa 3F       		.uleb128 0x3f
 1537 00ab 19       		.uleb128 0x19
 1538 00ac 03       		.uleb128 0x3
 1539 00ad 0E       		.uleb128 0xe
 1540 00ae 3A       		.uleb128 0x3a
 1541 00af 0B       		.uleb128 0xb
 1542 00b0 3B       		.uleb128 0x3b
 1543 00b1 0B       		.uleb128 0xb
 1544 00b2 27       		.uleb128 0x27
ARM GAS  C:\Users\ADMINI~1.SC-\AppData\Local\Temp\ccEjwghd.s 			page 32


 1545 00b3 19       		.uleb128 0x19
 1546 00b4 11       		.uleb128 0x11
 1547 00b5 01       		.uleb128 0x1
 1548 00b6 12       		.uleb128 0x12
 1549 00b7 06       		.uleb128 0x6
 1550 00b8 40       		.uleb128 0x40
 1551 00b9 18       		.uleb128 0x18
 1552 00ba 9642     		.uleb128 0x2116
 1553 00bc 19       		.uleb128 0x19
 1554 00bd 01       		.uleb128 0x1
 1555 00be 13       		.uleb128 0x13
 1556 00bf 00       		.byte	0
 1557 00c0 00       		.byte	0
 1558 00c1 0F       		.uleb128 0xf
 1559 00c2 05       		.uleb128 0x5
 1560 00c3 00       		.byte	0
 1561 00c4 03       		.uleb128 0x3
 1562 00c5 0E       		.uleb128 0xe
 1563 00c6 3A       		.uleb128 0x3a
 1564 00c7 0B       		.uleb128 0xb
 1565 00c8 3B       		.uleb128 0x3b
 1566 00c9 0B       		.uleb128 0xb
 1567 00ca 49       		.uleb128 0x49
 1568 00cb 13       		.uleb128 0x13
 1569 00cc 02       		.uleb128 0x2
 1570 00cd 18       		.uleb128 0x18
 1571 00ce 00       		.byte	0
 1572 00cf 00       		.byte	0
 1573 00d0 10       		.uleb128 0x10
 1574 00d1 34       		.uleb128 0x34
 1575 00d2 00       		.byte	0
 1576 00d3 03       		.uleb128 0x3
 1577 00d4 0E       		.uleb128 0xe
 1578 00d5 3A       		.uleb128 0x3a
 1579 00d6 0B       		.uleb128 0xb
 1580 00d7 3B       		.uleb128 0x3b
 1581 00d8 0B       		.uleb128 0xb
 1582 00d9 49       		.uleb128 0x49
 1583 00da 13       		.uleb128 0x13
 1584 00db 02       		.uleb128 0x2
 1585 00dc 18       		.uleb128 0x18
 1586 00dd 00       		.byte	0
 1587 00de 00       		.byte	0
 1588 00df 11       		.uleb128 0x11
 1589 00e0 2E       		.uleb128 0x2e
 1590 00e1 01       		.byte	0x1
 1591 00e2 3F       		.uleb128 0x3f
 1592 00e3 19       		.uleb128 0x19
 1593 00e4 03       		.uleb128 0x3
 1594 00e5 0E       		.uleb128 0xe
 1595 00e6 3A       		.uleb128 0x3a
 1596 00e7 0B       		.uleb128 0xb
 1597 00e8 3B       		.uleb128 0x3b
 1598 00e9 0B       		.uleb128 0xb
 1599 00ea 27       		.uleb128 0x27
 1600 00eb 19       		.uleb128 0x19
 1601 00ec 11       		.uleb128 0x11
ARM GAS  C:\Users\ADMINI~1.SC-\AppData\Local\Temp\ccEjwghd.s 			page 33


 1602 00ed 01       		.uleb128 0x1
 1603 00ee 12       		.uleb128 0x12
 1604 00ef 06       		.uleb128 0x6
 1605 00f0 40       		.uleb128 0x40
 1606 00f1 18       		.uleb128 0x18
 1607 00f2 9742     		.uleb128 0x2117
 1608 00f4 19       		.uleb128 0x19
 1609 00f5 01       		.uleb128 0x1
 1610 00f6 13       		.uleb128 0x13
 1611 00f7 00       		.byte	0
 1612 00f8 00       		.byte	0
 1613 00f9 12       		.uleb128 0x12
 1614 00fa 34       		.uleb128 0x34
 1615 00fb 00       		.byte	0
 1616 00fc 03       		.uleb128 0x3
 1617 00fd 08       		.uleb128 0x8
 1618 00fe 3A       		.uleb128 0x3a
 1619 00ff 0B       		.uleb128 0xb
 1620 0100 3B       		.uleb128 0x3b
 1621 0101 0B       		.uleb128 0xb
 1622 0102 49       		.uleb128 0x49
 1623 0103 13       		.uleb128 0x13
 1624 0104 02       		.uleb128 0x2
 1625 0105 18       		.uleb128 0x18
 1626 0106 00       		.byte	0
 1627 0107 00       		.byte	0
 1628 0108 13       		.uleb128 0x13
 1629 0109 2E       		.uleb128 0x2e
 1630 010a 00       		.byte	0
 1631 010b 3F       		.uleb128 0x3f
 1632 010c 19       		.uleb128 0x19
 1633 010d 03       		.uleb128 0x3
 1634 010e 0E       		.uleb128 0xe
 1635 010f 3A       		.uleb128 0x3a
 1636 0110 0B       		.uleb128 0xb
 1637 0111 3B       		.uleb128 0x3b
 1638 0112 0B       		.uleb128 0xb
 1639 0113 27       		.uleb128 0x27
 1640 0114 19       		.uleb128 0x19
 1641 0115 11       		.uleb128 0x11
 1642 0116 01       		.uleb128 0x1
 1643 0117 12       		.uleb128 0x12
 1644 0118 06       		.uleb128 0x6
 1645 0119 40       		.uleb128 0x40
 1646 011a 18       		.uleb128 0x18
 1647 011b 9642     		.uleb128 0x2116
 1648 011d 19       		.uleb128 0x19
 1649 011e 00       		.byte	0
 1650 011f 00       		.byte	0
 1651 0120 14       		.uleb128 0x14
 1652 0121 34       		.uleb128 0x34
 1653 0122 00       		.byte	0
 1654 0123 03       		.uleb128 0x3
 1655 0124 0E       		.uleb128 0xe
 1656 0125 3A       		.uleb128 0x3a
 1657 0126 0B       		.uleb128 0xb
 1658 0127 3B       		.uleb128 0x3b
ARM GAS  C:\Users\ADMINI~1.SC-\AppData\Local\Temp\ccEjwghd.s 			page 34


 1659 0128 0B       		.uleb128 0xb
 1660 0129 49       		.uleb128 0x49
 1661 012a 13       		.uleb128 0x13
 1662 012b 3F       		.uleb128 0x3f
 1663 012c 19       		.uleb128 0x19
 1664 012d 02       		.uleb128 0x2
 1665 012e 18       		.uleb128 0x18
 1666 012f 00       		.byte	0
 1667 0130 00       		.byte	0
 1668 0131 15       		.uleb128 0x15
 1669 0132 26       		.uleb128 0x26
 1670 0133 00       		.byte	0
 1671 0134 49       		.uleb128 0x49
 1672 0135 13       		.uleb128 0x13
 1673 0136 00       		.byte	0
 1674 0137 00       		.byte	0
 1675 0138 00       		.byte	0
 1676              		.section	.debug_aranges,"",%progbits
 1677 0000 3C000000 		.4byte	0x3c
 1678 0004 0200     		.2byte	0x2
 1679 0006 00000000 		.4byte	.Ldebug_info0
 1680 000a 04       		.byte	0x4
 1681 000b 00       		.byte	0
 1682 000c 0000     		.2byte	0
 1683 000e 0000     		.2byte	0
 1684 0010 00000000 		.4byte	.LFB35
 1685 0014 08020000 		.4byte	.LFE35-.LFB35
 1686 0018 00000000 		.4byte	.LFB36
 1687 001c 4C000000 		.4byte	.LFE36-.LFB36
 1688 0020 00000000 		.4byte	.LFB37
 1689 0024 58000000 		.4byte	.LFE37-.LFB37
 1690 0028 00000000 		.4byte	.LFB38
 1691 002c 4C000000 		.4byte	.LFE38-.LFB38
 1692 0030 00000000 		.4byte	.LFB39
 1693 0034 84000000 		.4byte	.LFE39-.LFB39
 1694 0038 00000000 		.4byte	0
 1695 003c 00000000 		.4byte	0
 1696              		.section	.debug_ranges,"",%progbits
 1697              	.Ldebug_ranges0:
 1698 0000 00000000 		.4byte	.LFB35
 1699 0004 08020000 		.4byte	.LFE35
 1700 0008 00000000 		.4byte	.LFB36
 1701 000c 4C000000 		.4byte	.LFE36
 1702 0010 00000000 		.4byte	.LFB37
 1703 0014 58000000 		.4byte	.LFE37
 1704 0018 00000000 		.4byte	.LFB38
 1705 001c 4C000000 		.4byte	.LFE38
 1706 0020 00000000 		.4byte	.LFB39
 1707 0024 84000000 		.4byte	.LFE39
 1708 0028 00000000 		.4byte	0
 1709 002c 00000000 		.4byte	0
 1710              		.section	.debug_line,"",%progbits
 1711              	.Ldebug_line0:
 1712 0000 22010000 		.section	.debug_str,"MS",%progbits,1
 1712      02006200 
 1712      00000201 
 1712      FB0E0D00 
ARM GAS  C:\Users\ADMINI~1.SC-\AppData\Local\Temp\ccEjwghd.s 			page 35


 1712      01010101 
 1713              	.LASF89:
 1714 0000 4F70656E 		.ascii	"Open_Lock_Success\000"
 1714      5F4C6F63 
 1714      6B5F5375 
 1714      63636573 
 1714      7300
 1715              	.LASF24:
 1716 0012 4359424C 		.ascii	"CYBLE_EVT_GAP_PASSKEY_ENTRY_REQUEST\000"
 1716      455F4556 
 1716      545F4741 
 1716      505F5041 
 1716      53534B45 
 1717              	.LASF105:
 1718 0036 44656C61 		.ascii	"Delay_Time\000"
 1718      795F5469 
 1718      6D6500
 1719              	.LASF32:
 1720 0041 4359424C 		.ascii	"CYBLE_EVT_GAP_CONNECTION_UPDATE_COMPLETE\000"
 1720      455F4556 
 1720      545F4741 
 1720      505F434F 
 1720      4E4E4543 
 1721              	.LASF75:
 1722 006a 49444368 		.ascii	"IDChangeFlag\000"
 1722      616E6765 
 1722      466C6167 
 1722      00
 1723              	.LASF35:
 1724 0077 4359424C 		.ascii	"CYBLE_EVT_GATTC_ERROR_RSP\000"
 1724      455F4556 
 1724      545F4741 
 1724      5454435F 
 1724      4552524F 
 1725              	.LASF74:
 1726 0091 44657669 		.ascii	"DeviceID\000"
 1726      63654944 
 1726      00
 1727              	.LASF51:
 1728 009a 4359424C 		.ascii	"CYBLE_EVT_GATTS_EXEC_WRITE_REQ\000"
 1728      455F4556 
 1728      545F4741 
 1728      5454535F 
 1728      45584543 
 1729              	.LASF98:
 1730 00b9 41646472 		.ascii	"Addr\000"
 1730      00
 1731              	.LASF27:
 1732 00be 4359424C 		.ascii	"CYBLE_EVT_GAP_AUTH_FAILED\000"
 1732      455F4556 
 1732      545F4741 
 1732      505F4155 
 1732      54485F46 
 1733              	.LASF15:
 1734 00d8 73697A65 		.ascii	"sizetype\000"
 1734      74797065 
 1734      00
ARM GAS  C:\Users\ADMINI~1.SC-\AppData\Local\Temp\ccEjwghd.s 			page 36


 1735              	.LASF103:
 1736 00e1 4C6F636B 		.ascii	"LockIdentify\000"
 1736      4964656E 
 1736      74696679 
 1736      00
 1737              	.LASF82:
 1738 00ee 41736B5F 		.ascii	"Ask_Lock_Delay\000"
 1738      4C6F636B 
 1738      5F44656C 
 1738      617900
 1739              	.LASF104:
 1740 00fd 4C6F636B 		.ascii	"Lock_Info\000"
 1740      5F496E66 
 1740      6F00
 1741              	.LASF91:
 1742 0107 464C4147 		.ascii	"FLAG\000"
 1742      00
 1743              	.LASF20:
 1744 010c 4359424C 		.ascii	"CYBLE_EVT_HCI_STATUS\000"
 1744      455F4556 
 1744      545F4843 
 1744      495F5354 
 1744      41545553 
 1745              	.LASF41:
 1746 0121 4359424C 		.ascii	"CYBLE_EVT_GATTC_READ_BY_TYPE_RSP\000"
 1746      455F4556 
 1746      545F4741 
 1746      5454435F 
 1746      52454144 
 1747              	.LASF17:
 1748 0142 4359424C 		.ascii	"CYBLE_EVT_STACK_ON\000"
 1748      455F4556 
 1748      545F5354 
 1748      41434B5F 
 1748      4F4E00
 1749              	.LASF79:
 1750 0155 4C6F636B 		.ascii	"LockKey\000"
 1750      4B657900 
 1751              	.LASF38:
 1752 015d 4359424C 		.ascii	"CYBLE_EVT_GATTS_XCNHG_MTU_REQ\000"
 1752      455F4556 
 1752      545F4741 
 1752      5454535F 
 1752      58434E48 
 1753              	.LASF10:
 1754 017b 75696E74 		.ascii	"uint16\000"
 1754      313600
 1755              	.LASF76:
 1756 0182 53595354 		.ascii	"SYSTEM_CFG\000"
 1756      454D5F43 
 1756      464700
 1757              	.LASF88:
 1758 018d 416C6172 		.ascii	"Alarm_Work_Step\000"
 1758      6D5F576F 
 1758      726B5F53 
 1758      74657000 
 1759              	.LASF34:
ARM GAS  C:\Users\ADMINI~1.SC-\AppData\Local\Temp\ccEjwghd.s 			page 37


 1760 019d 4359424C 		.ascii	"CYBLE_EVT_GAP_KEYINFO_EXCHNGE_CMPLT\000"
 1760      455F4556 
 1760      545F4741 
 1760      505F4B45 
 1760      59494E46 
 1761              	.LASF46:
 1762 01c1 4359424C 		.ascii	"CYBLE_EVT_GATTC_READ_MULTI_RSP\000"
 1762      455F4556 
 1762      545F4741 
 1762      5454435F 
 1762      52454144 
 1763              	.LASF87:
 1764 01e0 44656C61 		.ascii	"DelayTime\000"
 1764      7954696D 
 1764      6500
 1765              	.LASF55:
 1766 01ea 4359424C 		.ascii	"CYBLE_EVT_GATTS_HANDLE_VALUE_CNF\000"
 1766      455F4556 
 1766      545F4741 
 1766      5454535F 
 1766      48414E44 
 1767              	.LASF16:
 1768 020b 4359424C 		.ascii	"CYBLE_EVT_HOST_INVALID\000"
 1768      455F4556 
 1768      545F484F 
 1768      53545F49 
 1768      4E56414C 
 1769              	.LASF110:
 1770 0222 506F7765 		.ascii	"Power_Off\000"
 1770      725F4F66 
 1770      6600
 1771              	.LASF62:
 1772 022c 4359424C 		.ascii	"CYBLE_EVT_L2CAP_CBFC_CONN_IND\000"
 1772      455F4556 
 1772      545F4C32 
 1772      4341505F 
 1772      43424643 
 1773              	.LASF65:
 1774 024a 4359424C 		.ascii	"CYBLE_EVT_L2CAP_CBFC_DISCONN_CNF\000"
 1774      455F4556 
 1774      545F4C32 
 1774      4341505F 
 1774      43424643 
 1775              	.LASF2:
 1776 026b 73686F72 		.ascii	"short int\000"
 1776      7420696E 
 1776      7400
 1777              	.LASF92:
 1778 0275 416C6172 		.ascii	"Alarm_Event\000"
 1778      6D5F4576 
 1778      656E7400 
 1779              	.LASF12:
 1780 0281 666C6F61 		.ascii	"float\000"
 1780      7400
 1781              	.LASF44:
 1782 0287 4359424C 		.ascii	"CYBLE_EVT_GATTC_READ_RSP\000"
 1782      455F4556 
ARM GAS  C:\Users\ADMINI~1.SC-\AppData\Local\Temp\ccEjwghd.s 			page 38


 1782      545F4741 
 1782      5454435F 
 1782      52454144 
 1783              	.LASF48:
 1784 02a0 4359424C 		.ascii	"CYBLE_EVT_GATTC_WRITE_RSP\000"
 1784      455F4556 
 1784      545F4741 
 1784      5454435F 
 1784      57524954 
 1785              	.LASF6:
 1786 02ba 6C6F6E67 		.ascii	"long long int\000"
 1786      206C6F6E 
 1786      6720696E 
 1786      7400
 1787              	.LASF7:
 1788 02c8 6C6F6E67 		.ascii	"long long unsigned int\000"
 1788      206C6F6E 
 1788      6720756E 
 1788      7369676E 
 1788      65642069 
 1789              	.LASF109:
 1790 02df 453A5C6D 		.ascii	"E:\\my_project\\shhl\\BLE_KEY_wuyuan\\Design02.cyds"
 1790      795F7072 
 1790      6F6A6563 
 1790      745C7368 
 1790      686C5C42 
 1791 030e 6E00     		.ascii	"n\000"
 1792              	.LASF4:
 1793 0310 6C6F6E67 		.ascii	"long int\000"
 1793      20696E74 
 1793      00
 1794              	.LASF54:
 1795 0319 4359424C 		.ascii	"CYBLE_EVT_GATTC_HANDLE_VALUE_IND\000"
 1795      455F4556 
 1795      545F4741 
 1795      5454435F 
 1795      48414E44 
 1796              	.LASF100:
 1797 033a 4C6F6164 		.ascii	"Load_Config\000"
 1797      5F436F6E 
 1797      66696700 
 1798              	.LASF29:
 1799 0346 4359424C 		.ascii	"CYBLE_EVT_GAP_DEVICE_CONNECTED\000"
 1799      455F4556 
 1799      545F4741 
 1799      505F4445 
 1799      56494345 
 1800              	.LASF28:
 1801 0365 4359424C 		.ascii	"CYBLE_EVT_GAPP_ADVERTISEMENT_START_STOP\000"
 1801      455F4556 
 1801      545F4741 
 1801      50505F41 
 1801      44564552 
 1802              	.LASF53:
 1803 038d 4359424C 		.ascii	"CYBLE_EVT_GATTC_HANDLE_VALUE_NTF\000"
 1803      455F4556 
 1803      545F4741 
ARM GAS  C:\Users\ADMINI~1.SC-\AppData\Local\Temp\ccEjwghd.s 			page 39


 1803      5454435F 
 1803      48414E44 
 1804              	.LASF21:
 1805 03ae 4359424C 		.ascii	"CYBLE_EVT_STACK_BUSY_STATUS\000"
 1805      455F4556 
 1805      545F5354 
 1805      41434B5F 
 1805      42555359 
 1806              	.LASF95:
 1807 03ca 44617461 		.ascii	"Data\000"
 1807      00
 1808              	.LASF25:
 1809 03cf 4359424C 		.ascii	"CYBLE_EVT_GAP_PASSKEY_DISPLAY_REQUEST\000"
 1809      455F4556 
 1809      545F4741 
 1809      505F5041 
 1809      53534B45 
 1810              	.LASF61:
 1811 03f5 4359424C 		.ascii	"CYBLE_EVT_L2CAP_COMMAND_REJ\000"
 1811      455F4556 
 1811      545F4C32 
 1811      4341505F 
 1811      434F4D4D 
 1812              	.LASF72:
 1813 0411 4359424C 		.ascii	"CYBLE_EVT_MAX\000"
 1813      455F4556 
 1813      545F4D41 
 1813      5800
 1814              	.LASF9:
 1815 041f 75696E74 		.ascii	"uint8\000"
 1815      3800
 1816              	.LASF86:
 1817 0425 44656C61 		.ascii	"Delay_1min\000"
 1817      795F316D 
 1817      696E00
 1818              	.LASF59:
 1819 0430 4359424C 		.ascii	"CYBLE_EVT_L2CAP_CONN_PARAM_UPDATE_REQ\000"
 1819      455F4556 
 1819      545F4C32 
 1819      4341505F 
 1819      434F4E4E 
 1820              	.LASF1:
 1821 0456 756E7369 		.ascii	"unsigned char\000"
 1821      676E6564 
 1821      20636861 
 1821      7200
 1822              	.LASF73:
 1823 0464 4D616E61 		.ascii	"ManageKey\000"
 1823      67654B65 
 1823      7900
 1824              	.LASF50:
 1825 046e 4359424C 		.ascii	"CYBLE_EVT_GATTS_PREP_WRITE_REQ\000"
 1825      455F4556 
 1825      545F4741 
 1825      5454535F 
 1825      50524550 
 1826              	.LASF71:
ARM GAS  C:\Users\ADMINI~1.SC-\AppData\Local\Temp\ccEjwghd.s 			page 40


 1827 048d 4359424C 		.ascii	"CYBLE_EVT_LE_PING_AUTH_TIMEOUT\000"
 1827      455F4556 
 1827      545F4C45 
 1827      5F50494E 
 1827      475F4155 
 1828              	.LASF93:
 1829 04ac 57726974 		.ascii	"Write_Flash\000"
 1829      655F466C 
 1829      61736800 
 1830              	.LASF42:
 1831 04b8 4359424C 		.ascii	"CYBLE_EVT_GATTC_FIND_INFO_RSP\000"
 1831      455F4556 
 1831      545F4741 
 1831      5454435F 
 1831      46494E44 
 1832              	.LASF0:
 1833 04d6 7369676E 		.ascii	"signed char\000"
 1833      65642063 
 1833      68617200 
 1834              	.LASF47:
 1835 04e2 4359424C 		.ascii	"CYBLE_EVT_GATTS_WRITE_REQ\000"
 1835      455F4556 
 1835      545F4741 
 1835      5454535F 
 1835      57524954 
 1836              	.LASF78:
 1837 04fc 496E6974 		.ascii	"InitState\000"
 1837      53746174 
 1837      6500
 1838              	.LASF43:
 1839 0506 4359424C 		.ascii	"CYBLE_EVT_GATTC_FIND_BY_TYPE_VALUE_RSP\000"
 1839      455F4556 
 1839      545F4741 
 1839      5454435F 
 1839      46494E44 
 1840              	.LASF26:
 1841 052d 4359424C 		.ascii	"CYBLE_EVT_GAP_AUTH_COMPLETE\000"
 1841      455F4556 
 1841      545F4741 
 1841      505F4155 
 1841      54485F43 
 1842              	.LASF80:
 1843 0549 4C4F434B 		.ascii	"LOCK_INFO\000"
 1843      5F494E46 
 1843      4F00
 1844              	.LASF36:
 1845 0553 4359424C 		.ascii	"CYBLE_EVT_GATT_CONNECT_IND\000"
 1845      455F4556 
 1845      545F4741 
 1845      54545F43 
 1845      4F4E4E45 
 1846              	.LASF5:
 1847 056e 6C6F6E67 		.ascii	"long unsigned int\000"
 1847      20756E73 
 1847      69676E65 
 1847      6420696E 
 1847      7400
ARM GAS  C:\Users\ADMINI~1.SC-\AppData\Local\Temp\ccEjwghd.s 			page 41


 1848              	.LASF23:
 1849 0580 4359424C 		.ascii	"CYBLE_EVT_GAP_AUTH_REQ\000"
 1849      455F4556 
 1849      545F4741 
 1849      505F4155 
 1849      54485F52 
 1850              	.LASF64:
 1851 0597 4359424C 		.ascii	"CYBLE_EVT_L2CAP_CBFC_DISCONN_IND\000"
 1851      455F4556 
 1851      545F4C32 
 1851      4341505F 
 1851      43424643 
 1852              	.LASF31:
 1853 05b8 4359424C 		.ascii	"CYBLE_EVT_GAP_ENCRYPT_CHANGE\000"
 1853      455F4556 
 1853      545F4741 
 1853      505F454E 
 1853      43525950 
 1854              	.LASF3:
 1855 05d5 73686F72 		.ascii	"short unsigned int\000"
 1855      7420756E 
 1855      7369676E 
 1855      65642069 
 1855      6E7400
 1856              	.LASF106:
 1857 05e8 466C6167 		.ascii	"Flag\000"
 1857      00
 1858              	.LASF84:
 1859 05ed 44656C61 		.ascii	"Delay_1ms\000"
 1859      795F316D 
 1859      7300
 1860              	.LASF14:
 1861 05f7 63686172 		.ascii	"char\000"
 1861      00
 1862              	.LASF101:
 1863 05fc 53797374 		.ascii	"System_Config\000"
 1863      656D5F43 
 1863      6F6E6669 
 1863      6700
 1864              	.LASF107:
 1865 060a 474E5520 		.ascii	"GNU C 4.9.3 20150303 (release) [ARM/embedded-4_9-br"
 1865      4320342E 
 1865      392E3320 
 1865      32303135 
 1865      30333033 
 1866 063d 616E6368 		.ascii	"anch revision 221220] -mcpu=cortex-m0 -mthumb -g -O"
 1866      20726576 
 1866      6973696F 
 1866      6E203232 
 1866      31323230 
 1867 0670 30202D66 		.ascii	"0 -ffunction-sections -ffat-lto-objects\000"
 1867      66756E63 
 1867      74696F6E 
 1867      2D736563 
 1867      74696F6E 
 1868              	.LASF97:
 1869 0698 52656164 		.ascii	"Read_Flash\000"
ARM GAS  C:\Users\ADMINI~1.SC-\AppData\Local\Temp\ccEjwghd.s 			page 42


 1869      5F466C61 
 1869      736800
 1870              	.LASF102:
 1871 06a3 4D616E61 		.ascii	"Manage_Key\000"
 1871      67655F4B 
 1871      657900
 1872              	.LASF77:
 1873 06ae 56657273 		.ascii	"Version\000"
 1873      696F6E00 
 1874              	.LASF96:
 1875 06b6 4C656E67 		.ascii	"Length\000"
 1875      746800
 1876              	.LASF45:
 1877 06bd 4359424C 		.ascii	"CYBLE_EVT_GATTC_READ_BLOB_RSP\000"
 1877      455F4556 
 1877      545F4741 
 1877      5454435F 
 1877      52454144 
 1878              	.LASF83:
 1879 06db 4E6F4C6F 		.ascii	"NoLock_Count\000"
 1879      636B5F43 
 1879      6F756E74 
 1879      00
 1880              	.LASF52:
 1881 06e8 4359424C 		.ascii	"CYBLE_EVT_GATTC_EXEC_WRITE_RSP\000"
 1881      455F4556 
 1881      545F4741 
 1881      5454435F 
 1881      45584543 
 1882              	.LASF11:
 1883 0707 75696E74 		.ascii	"uint32\000"
 1883      333200
 1884              	.LASF70:
 1885 070e 4359424C 		.ascii	"CYBLE_EVT_PENDING_FLASH_WRITE\000"
 1885      455F4556 
 1885      545F5045 
 1885      4E44494E 
 1885      475F464C 
 1886              	.LASF67:
 1887 072c 4359424C 		.ascii	"CYBLE_EVT_L2CAP_CBFC_RX_CREDIT_IND\000"
 1887      455F4556 
 1887      545F4C32 
 1887      4341505F 
 1887      43424643 
 1888              	.LASF99:
 1889 074f 77726974 		.ascii	"write_buff\000"
 1889      655F6275 
 1889      666600
 1890              	.LASF13:
 1891 075a 646F7562 		.ascii	"double\000"
 1891      6C6500
 1892              	.LASF68:
 1893 0761 4359424C 		.ascii	"CYBLE_EVT_L2CAP_CBFC_TX_CREDIT_IND\000"
 1893      455F4556 
 1893      545F4C32 
 1893      4341505F 
 1893      43424643 
ARM GAS  C:\Users\ADMINI~1.SC-\AppData\Local\Temp\ccEjwghd.s 			page 43


 1894              	.LASF63:
 1895 0784 4359424C 		.ascii	"CYBLE_EVT_L2CAP_CBFC_CONN_CNF\000"
 1895      455F4556 
 1895      545F4C32 
 1895      4341505F 
 1895      43424643 
 1896              	.LASF19:
 1897 07a2 4359424C 		.ascii	"CYBLE_EVT_HARDWARE_ERROR\000"
 1897      455F4556 
 1897      545F4841 
 1897      52445741 
 1897      52455F45 
 1898              	.LASF66:
 1899 07bb 4359424C 		.ascii	"CYBLE_EVT_L2CAP_CBFC_DATA_READ\000"
 1899      455F4556 
 1899      545F4C32 
 1899      4341505F 
 1899      43424643 
 1900              	.LASF60:
 1901 07da 4359424C 		.ascii	"CYBLE_EVT_L2CAP_CONN_PARAM_UPDATE_RSP\000"
 1901      455F4556 
 1901      545F4C32 
 1901      4341505F 
 1901      434F4E4E 
 1902              	.LASF22:
 1903 0800 4359424C 		.ascii	"CYBLE_EVT_GAPC_SCAN_PROGRESS_RESULT\000"
 1903      455F4556 
 1903      545F4741 
 1903      50435F53 
 1903      43414E5F 
 1904              	.LASF40:
 1905 0824 4359424C 		.ascii	"CYBLE_EVT_GATTC_READ_BY_GROUP_TYPE_RSP\000"
 1905      455F4556 
 1905      545F4741 
 1905      5454435F 
 1905      52454144 
 1906              	.LASF49:
 1907 084b 4359424C 		.ascii	"CYBLE_EVT_GATTS_WRITE_CMD_REQ\000"
 1907      455F4556 
 1907      545F4741 
 1907      5454535F 
 1907      57524954 
 1908              	.LASF39:
 1909 0869 4359424C 		.ascii	"CYBLE_EVT_GATTC_XCHNG_MTU_RSP\000"
 1909      455F4556 
 1909      545F4741 
 1909      5454435F 
 1909      5843484E 
 1910              	.LASF108:
 1911 0887 6170705F 		.ascii	"app_lock.c\000"
 1911      6C6F636B 
 1911      2E6300
 1912              	.LASF18:
 1913 0892 4359424C 		.ascii	"CYBLE_EVT_TIMEOUT\000"
 1913      455F4556 
 1913      545F5449 
 1913      4D454F55 
ARM GAS  C:\Users\ADMINI~1.SC-\AppData\Local\Temp\ccEjwghd.s 			page 44


 1913      5400
 1914              	.LASF69:
 1915 08a4 4359424C 		.ascii	"CYBLE_EVT_L2CAP_CBFC_DATA_WRITE_IND\000"
 1915      455F4556 
 1915      545F4C32 
 1915      4341505F 
 1915      43424643 
 1916              	.LASF33:
 1917 08c8 4359424C 		.ascii	"CYBLE_EVT_GAPC_SCAN_START_STOP\000"
 1917      455F4556 
 1917      545F4741 
 1917      50435F53 
 1917      43414E5F 
 1918              	.LASF90:
 1919 08e7 42656769 		.ascii	"Begin_Ask_Lock\000"
 1919      6E5F4173 
 1919      6B5F4C6F 
 1919      636B00
 1920              	.LASF58:
 1921 08f6 4359424C 		.ascii	"CYBLE_EVT_GATTS_READ_CHAR_VAL_ACCESS_REQ\000"
 1921      455F4556 
 1921      545F4741 
 1921      5454535F 
 1921      52454144 
 1922              	.LASF57:
 1923 091f 4359424C 		.ascii	"CYBLE_EVT_GATTC_STOP_CMD_COMPLETE\000"
 1923      455F4556 
 1923      545F4741 
 1923      5454435F 
 1923      53544F50 
 1924              	.LASF8:
 1925 0941 756E7369 		.ascii	"unsigned int\000"
 1925      676E6564 
 1925      20696E74 
 1925      00
 1926              	.LASF81:
 1927 094e 416C6172 		.ascii	"Alarm_Count\000"
 1927      6D5F436F 
 1927      756E7400 
 1928              	.LASF94:
 1929 095a 4576656E 		.ascii	"Event\000"
 1929      7400
 1930              	.LASF30:
 1931 0960 4359424C 		.ascii	"CYBLE_EVT_GAP_DEVICE_DISCONNECTED\000"
 1931      455F4556 
 1931      545F4741 
 1931      505F4445 
 1931      56494345 
 1932              	.LASF56:
 1933 0982 4359424C 		.ascii	"CYBLE_EVT_GATTS_DATA_SIGNED_CMD_REQ\000"
 1933      455F4556 
 1933      545F4741 
 1933      5454535F 
 1933      44415441 
 1934              	.LASF37:
 1935 09a6 4359424C 		.ascii	"CYBLE_EVT_GATT_DISCONNECT_IND\000"
 1935      455F4556 
ARM GAS  C:\Users\ADMINI~1.SC-\AppData\Local\Temp\ccEjwghd.s 			page 45


 1935      545F4741 
 1935      54545F44 
 1935      4953434F 
 1936              	.LASF85:
 1937 09c4 44656C61 		.ascii	"Delay_1s\000"
 1937      795F3173 
 1937      00
 1938              		.ident	"GCC: (GNU Tools for ARM Embedded Processors) 4.9.3 20150303 (release) [ARM/embedded-4_9-br
