ARM GAS  C:\Users\ADMINI~1.SC-\AppData\Local\Temp\ccVsST00.s 			page 1


   1              		.cpu cortex-m0
   2              		.fpu softvfp
   3              		.eabi_attribute 20, 1
   4              		.eabi_attribute 21, 1
   5              		.eabi_attribute 23, 3
   6              		.eabi_attribute 24, 1
   7              		.eabi_attribute 25, 1
   8              		.eabi_attribute 26, 1
   9              		.eabi_attribute 30, 6
  10              		.eabi_attribute 34, 0
  11              		.eabi_attribute 18, 4
  12              		.code	16
  13              		.file	"app_protocol.c"
  14              		.text
  15              	.Ltext0:
  16              		.cfi_sections	.debug_frame
  17              		.comm	packetTX,20,4
  18              		.global	packetTXStep
  19              		.bss
  20              		.type	packetTXStep, %object
  21              		.size	packetTXStep, 1
  22              	packetTXStep:
  23 0000 00       		.space	1
  24              		.comm	recv_buff,40,4
  25              		.comm	AppKey,8,4
  26              	lock_open_flag:
  27 0001 00       		.space	1
  28              		.align	1
  29              	lock_timeflow:
  30 0002 0000     		.space	2
  31              		.global	key_str
  32              		.data
  33              		.align	2
  34              		.type	key_str, %object
  35              		.size	key_str, 24
  36              	key_str:
  37 0000 A0       		.byte	-96
  38 0001 A1       		.byte	-95
  39 0002 A2       		.byte	-94
  40 0003 A3       		.byte	-93
  41 0004 A4       		.byte	-92
  42 0005 A5       		.byte	-91
  43 0006 A6       		.byte	-90
  44 0007 A7       		.byte	-89
  45 0008 B0       		.byte	-80
  46 0009 B1       		.byte	-79
  47 000a B2       		.byte	-78
  48 000b B3       		.byte	-77
  49 000c B4       		.byte	-76
  50 000d B5       		.byte	-75
  51 000e B6       		.byte	-74
  52 000f B7       		.byte	-73
  53 0010 00       		.byte	0
  54 0011 00000000 		.space	7
  54      000000
  55              		.section	.text.SendNotification_zx,"ax",%progbits
  56              		.align	2
ARM GAS  C:\Users\ADMINI~1.SC-\AppData\Local\Temp\ccVsST00.s 			page 2


  57              		.global	SendNotification_zx
  58              		.code	16
  59              		.thumb_func
  60              		.type	SendNotification_zx, %function
  61              	SendNotification_zx:
  62              	.LFB35:
  63              		.file 1 "app_protocol.c"
   1:app_protocol.c **** /* ========================================
   2:app_protocol.c ****  *
   3:app_protocol.c ****  * Copyright YOUR COMPANY, THE YEAR
   4:app_protocol.c ****  * All Rights Reserved
   5:app_protocol.c ****  * UNPUBLISHED, LICENSED SOFTWARE.
   6:app_protocol.c ****  *
   7:app_protocol.c ****  * CONFIDENTIAL AND PROPRIETARY INFORMATION
   8:app_protocol.c ****  * WHICH IS THE PROPERTY OF your company.
   9:app_protocol.c ****  *
  10:app_protocol.c ****  * ========================================
  11:app_protocol.c **** */
  12:app_protocol.c **** #include "app_protocol.h"
  13:app_protocol.c **** #include "app_ble.h"
  14:app_protocol.c **** #include "app_uart.h"
  15:app_protocol.c **** #include "app_Com.h"
  16:app_protocol.c **** #include <string.h>
  17:app_protocol.c **** #include <stdlib.h>
  18:app_protocol.c **** #include "Rc4.h"
  19:app_protocol.c **** #include "md5.h"
  20:app_protocol.c **** 
  21:app_protocol.c **** uint8 packetTX[20];
  22:app_protocol.c **** uint8 packetTXStep = 0;
  23:app_protocol.c **** uint8 recv_buff[40];
  24:app_protocol.c **** uint8 AppKey[8];
  25:app_protocol.c **** 
  26:app_protocol.c **** static  uint8  lock_open_flag = 0; //key_touch_lock
  27:app_protocol.c **** static  uint16 lock_timeflow = 0;  //key_touch_lock
  28:app_protocol.c **** 
  29:app_protocol.c **** typedef struct _KEY_STR
  30:app_protocol.c **** {
  31:app_protocol.c ****     uint8 root_key[8]; //根密钥       a0a1a2a3a4a5a6a7
  32:app_protocol.c ****     uint8 ctrl_key[8]; //控制密钥     b0b1b2b3b4b5b6b7
  33:app_protocol.c ****     uint8 dynamic_key[8]; //动态密钥  
  34:app_protocol.c **** }KEY_STR; //
  35:app_protocol.c **** 
  36:app_protocol.c **** struct _KEY_STR key_str = {{0xa0,0xa1,0xa2,0xa3,0xa4,0xa5,0xa6,0xa7},\
  37:app_protocol.c ****                            {0xb0,0xb1,0xb2,0xb3,0xb4,0xb5,0xb6,0xb7,},\
  38:app_protocol.c ****                            {0}};
  39:app_protocol.c **** 
  40:app_protocol.c **** /***********************************************
  41:app_protocol.c **** * 函数名：void SendNotification(void)
  42:app_protocol.c **** * 描述  ：蓝牙发送函数
  43:app_protocol.c **** ***********************************************/
  44:app_protocol.c **** void SendNotification_zx(uint8 Lenth)
  45:app_protocol.c **** {
  64              		.loc 1 45 0
  65              		.cfi_startproc
  66 0000 80B5     		push	{r7, lr}
  67              		.cfi_def_cfa_offset 8
  68              		.cfi_offset 7, -8
ARM GAS  C:\Users\ADMINI~1.SC-\AppData\Local\Temp\ccVsST00.s 			page 3


  69              		.cfi_offset 14, -4
  70 0002 86B0     		sub	sp, sp, #24
  71              		.cfi_def_cfa_offset 32
  72 0004 00AF     		add	r7, sp, #0
  73              		.cfi_def_cfa_register 7
  74 0006 021C     		mov	r2, r0
  75 0008 FB1D     		add	r3, r7, #7
  76 000a 1A70     		strb	r2, [r3]
  46:app_protocol.c ****     /* Create a new notification packet */
  47:app_protocol.c ****     CYBLE_GATTS_HANDLE_VALUE_NTF_T notificationPacket;
  48:app_protocol.c ****     notificationPacket.attrHandle = CYBLE_CUSTOM_SERVICE_RX_FROM_APP_CHAR_HANDLE;
  77              		.loc 1 48 0
  78 000c 0C23     		mov	r3, #12
  79 000e FB18     		add	r3, r7, r3
  80 0010 1322     		mov	r2, #19
  81 0012 1A81     		strh	r2, [r3, #8]
  49:app_protocol.c ****     notificationPacket.value.val = packetTX;   
  82              		.loc 1 49 0
  83 0014 0C23     		mov	r3, #12
  84 0016 FB18     		add	r3, r7, r3
  85 0018 0D4A     		ldr	r2, .L2
  86 001a 1A60     		str	r2, [r3]
  50:app_protocol.c ****     notificationPacket.value.len = Lenth;
  87              		.loc 1 50 0
  88 001c FB1D     		add	r3, r7, #7
  89 001e 1B78     		ldrb	r3, [r3]
  90 0020 9AB2     		uxth	r2, r3
  91 0022 0C23     		mov	r3, #12
  92 0024 FB18     		add	r3, r7, r3
  93 0026 9A80     		strh	r2, [r3, #4]
  51:app_protocol.c ****     /* Report data to BLE component */
  52:app_protocol.c ****     CyBle_GattsNotification(cyBle_connHandle, &notificationPacket);
  94              		.loc 1 52 0
  95 0028 0A4B     		ldr	r3, .L2+4
  96 002a 0C22     		mov	r2, #12
  97 002c B918     		add	r1, r7, r2
  98 002e 1A78     		ldrb	r2, [r3]
  99 0030 5B78     		ldrb	r3, [r3, #1]
 100 0032 1B02     		lsl	r3, r3, #8
 101 0034 1A43     		orr	r2, r3
 102 0036 0023     		mov	r3, #0
 103 0038 1204     		lsl	r2, r2, #16
 104 003a 120C     		lsr	r2, r2, #16
 105 003c 1B0C     		lsr	r3, r3, #16
 106 003e 1B04     		lsl	r3, r3, #16
 107 0040 1343     		orr	r3, r2
 108 0042 181C     		mov	r0, r3
 109 0044 FFF7FEFF 		bl	CyBle_GattsNotification
  53:app_protocol.c **** }
 110              		.loc 1 53 0
 111 0048 BD46     		mov	sp, r7
 112 004a 06B0     		add	sp, sp, #24
 113              		@ sp needed
 114 004c 80BD     		pop	{r7, pc}
 115              	.L3:
 116 004e C046     		.align	2
 117              	.L2:
ARM GAS  C:\Users\ADMINI~1.SC-\AppData\Local\Temp\ccVsST00.s 			page 4


 118 0050 00000000 		.word	packetTX
 119 0054 00000000 		.word	cyBle_connHandle
 120              		.cfi_endproc
 121              	.LFE35:
 122              		.size	SendNotification_zx, .-SendNotification_zx
 123              		.section	.text.SendNotification,"ax",%progbits
 124              		.align	2
 125              		.global	SendNotification
 126              		.code	16
 127              		.thumb_func
 128              		.type	SendNotification, %function
 129              	SendNotification:
 130              	.LFB36:
  54:app_protocol.c **** 
  55:app_protocol.c **** /***********************************************
  56:app_protocol.c **** * 函数名：void SendNotification(void)
  57:app_protocol.c **** * 描述  ：蓝牙发送函数
  58:app_protocol.c **** ***********************************************/
  59:app_protocol.c **** void SendNotification(void)
  60:app_protocol.c **** {
 131              		.loc 1 60 0
 132              		.cfi_startproc
 133 0000 80B5     		push	{r7, lr}
 134              		.cfi_def_cfa_offset 8
 135              		.cfi_offset 7, -8
 136              		.cfi_offset 14, -4
 137 0002 84B0     		sub	sp, sp, #16
 138              		.cfi_def_cfa_offset 24
 139 0004 00AF     		add	r7, sp, #0
 140              		.cfi_def_cfa_register 7
  61:app_protocol.c ****     /* Create a new notification packet */
  62:app_protocol.c ****     CYBLE_GATTS_HANDLE_VALUE_NTF_T notificationPacket;
  63:app_protocol.c ****     notificationPacket.attrHandle = CYBLE_CUSTOM_SERVICE_RX_FROM_APP_CHAR_HANDLE;
 141              		.loc 1 63 0
 142 0006 3B1D     		add	r3, r7, #4
 143 0008 1322     		mov	r2, #19
 144 000a 1A81     		strh	r2, [r3, #8]
  64:app_protocol.c ****     notificationPacket.value.val = packetTX;   
 145              		.loc 1 64 0
 146 000c 3B1D     		add	r3, r7, #4
 147 000e 0B4A     		ldr	r2, .L5
 148 0010 1A60     		str	r2, [r3]
  65:app_protocol.c ****     notificationPacket.value.len = 20;
 149              		.loc 1 65 0
 150 0012 3B1D     		add	r3, r7, #4
 151 0014 1422     		mov	r2, #20
 152 0016 9A80     		strh	r2, [r3, #4]
  66:app_protocol.c ****     /* Report data to BLE component */
  67:app_protocol.c ****     CyBle_GattsNotification(cyBle_connHandle, &notificationPacket);
 153              		.loc 1 67 0
 154 0018 094B     		ldr	r3, .L5+4
 155 001a 391D     		add	r1, r7, #4
 156 001c 1A78     		ldrb	r2, [r3]
 157 001e 5B78     		ldrb	r3, [r3, #1]
 158 0020 1B02     		lsl	r3, r3, #8
 159 0022 1A43     		orr	r2, r3
 160 0024 0023     		mov	r3, #0
ARM GAS  C:\Users\ADMINI~1.SC-\AppData\Local\Temp\ccVsST00.s 			page 5


 161 0026 1204     		lsl	r2, r2, #16
 162 0028 120C     		lsr	r2, r2, #16
 163 002a 1B0C     		lsr	r3, r3, #16
 164 002c 1B04     		lsl	r3, r3, #16
 165 002e 1343     		orr	r3, r2
 166 0030 181C     		mov	r0, r3
 167 0032 FFF7FEFF 		bl	CyBle_GattsNotification
  68:app_protocol.c ****  
  69:app_protocol.c **** }
 168              		.loc 1 69 0
 169 0036 BD46     		mov	sp, r7
 170 0038 04B0     		add	sp, sp, #16
 171              		@ sp needed
 172 003a 80BD     		pop	{r7, pc}
 173              	.L6:
 174              		.align	2
 175              	.L5:
 176 003c 00000000 		.word	packetTX
 177 0040 00000000 		.word	cyBle_connHandle
 178              		.cfi_endproc
 179              	.LFE36:
 180              		.size	SendNotification, .-SendNotification
 181              		.section	.text.Send_LockInfo,"ax",%progbits
 182              		.align	2
 183              		.global	Send_LockInfo
 184              		.code	16
 185              		.thumb_func
 186              		.type	Send_LockInfo, %function
 187              	Send_LockInfo:
 188              	.LFB37:
  70:app_protocol.c **** 
  71:app_protocol.c **** /***********************************************
  72:app_protocol.c **** * 函数名：void Send_LockInfo(void)
  73:app_protocol.c **** * 描述  ：发送锁设备信息
  74:app_protocol.c **** ***********************************************/
  75:app_protocol.c **** void Send_LockInfo(void)
  76:app_protocol.c **** {
 189              		.loc 1 76 0
 190              		.cfi_startproc
 191 0000 90B5     		push	{r4, r7, lr}
 192              		.cfi_def_cfa_offset 12
 193              		.cfi_offset 4, -12
 194              		.cfi_offset 7, -8
 195              		.cfi_offset 14, -4
 196 0002 83B0     		sub	sp, sp, #12
 197              		.cfi_def_cfa_offset 24
 198 0004 00AF     		add	r7, sp, #0
 199              		.cfi_def_cfa_register 7
  77:app_protocol.c ****     uint8 i;
  78:app_protocol.c ****     uint16 crc;
  79:app_protocol.c ****     uint16 data_rand;
  80:app_protocol.c ****     memset(packetTX,0x00,sizeof(packetTX));
 200              		.loc 1 80 0
 201 0006 2F4B     		ldr	r3, .L10
 202 0008 181C     		mov	r0, r3
 203 000a 0021     		mov	r1, #0
 204 000c 1422     		mov	r2, #20
ARM GAS  C:\Users\ADMINI~1.SC-\AppData\Local\Temp\ccVsST00.s 			page 6


 205 000e FFF7FEFF 		bl	memset
  81:app_protocol.c ****     packetTX[0] = 0x23;         //命令字
 206              		.loc 1 81 0
 207 0012 2C4B     		ldr	r3, .L10
 208 0014 2322     		mov	r2, #35
 209 0016 1A70     		strb	r2, [r3]
  82:app_protocol.c ****     packetTX[1] = 0;            //包号
 210              		.loc 1 82 0
 211 0018 2A4B     		ldr	r3, .L10
 212 001a 0022     		mov	r2, #0
 213 001c 5A70     		strb	r2, [r3, #1]
  83:app_protocol.c ****     packetTX[2] = 15;           //长度
 214              		.loc 1 83 0
 215 001e 294B     		ldr	r3, .L10
 216 0020 0F22     		mov	r2, #15
 217 0022 9A70     		strb	r2, [r3, #2]
  84:app_protocol.c ****     
  85:app_protocol.c ****     for(i=0; i<4; i++)      //生成LOCKKEY
 218              		.loc 1 85 0
 219 0024 FB1D     		add	r3, r7, #7
 220 0026 0022     		mov	r2, #0
 221 0028 1A70     		strb	r2, [r3]
 222 002a 20E0     		b	.L8
 223              	.L9:
  86:app_protocol.c ****     {
  87:app_protocol.c ****         data_rand = rand(); 
 224              		.loc 1 87 0 discriminator 3
 225 002c FFF7FEFF 		bl	rand
 226 0030 021C     		mov	r2, r0
 227 0032 3B1D     		add	r3, r7, #4
 228 0034 1A80     		strh	r2, [r3]
  88:app_protocol.c ****         Lock_Info.LockKey[i*2 + 0] = data_rand / 256;
 229              		.loc 1 88 0 discriminator 3
 230 0036 FB1D     		add	r3, r7, #7
 231 0038 1B78     		ldrb	r3, [r3]
 232 003a 5B00     		lsl	r3, r3, #1
 233 003c 3A1D     		add	r2, r7, #4
 234 003e 1288     		ldrh	r2, [r2]
 235 0040 120A     		lsr	r2, r2, #8
 236 0042 92B2     		uxth	r2, r2
 237 0044 D1B2     		uxtb	r1, r2
 238 0046 204A     		ldr	r2, .L10+4
 239 0048 D318     		add	r3, r2, r3
 240 004a 0A1C     		add	r2, r1, #0
 241 004c DA71     		strb	r2, [r3, #7]
  89:app_protocol.c ****         Lock_Info.LockKey[i*2 + 1] = data_rand % 256; 
 242              		.loc 1 89 0 discriminator 3
 243 004e FB1D     		add	r3, r7, #7
 244 0050 1B78     		ldrb	r3, [r3]
 245 0052 5B00     		lsl	r3, r3, #1
 246 0054 0133     		add	r3, r3, #1
 247 0056 3A1D     		add	r2, r7, #4
 248 0058 1288     		ldrh	r2, [r2]
 249 005a D1B2     		uxtb	r1, r2
 250 005c 1A4A     		ldr	r2, .L10+4
 251 005e D318     		add	r3, r2, r3
 252 0060 0A1C     		add	r2, r1, #0
ARM GAS  C:\Users\ADMINI~1.SC-\AppData\Local\Temp\ccVsST00.s 			page 7


 253 0062 DA71     		strb	r2, [r3, #7]
  85:app_protocol.c ****     {
 254              		.loc 1 85 0 discriminator 3
 255 0064 FB1D     		add	r3, r7, #7
 256 0066 1A78     		ldrb	r2, [r3]
 257 0068 FB1D     		add	r3, r7, #7
 258 006a 0132     		add	r2, r2, #1
 259 006c 1A70     		strb	r2, [r3]
 260              	.L8:
  85:app_protocol.c ****     {
 261              		.loc 1 85 0 is_stmt 0 discriminator 1
 262 006e FB1D     		add	r3, r7, #7
 263 0070 1B78     		ldrb	r3, [r3]
 264 0072 032B     		cmp	r3, #3
 265 0074 DAD9     		bls	.L9
  90:app_protocol.c ****     }    
  91:app_protocol.c ****     memcpy(packetTX + 3, Lock_Info.DeviceID,15);
 266              		.loc 1 91 0 is_stmt 1
 267 0076 154A     		ldr	r2, .L10+8
 268 0078 134B     		ldr	r3, .L10+4
 269 007a 101C     		mov	r0, r2
 270 007c 191C     		mov	r1, r3
 271 007e 0F22     		mov	r2, #15
 272 0080 FFF7FEFF 		bl	memcpy
  92:app_protocol.c ****     rc4_encrypt(System_Config.ManageKey,MKEY_LEN,packetTX + 10,8);  //对随机密钥加密
 273              		.loc 1 92 0
 274 0084 124A     		ldr	r2, .L10+12
 275 0086 134B     		ldr	r3, .L10+16
 276 0088 101C     		mov	r0, r2
 277 008a 1021     		mov	r1, #16
 278 008c 1A1C     		mov	r2, r3
 279 008e 0823     		mov	r3, #8
 280 0090 FFF7FEFF 		bl	rc4_encrypt
  93:app_protocol.c ****     crc = comCalCRC16(packetTX,18);
 281              		.loc 1 93 0
 282 0094 BC1C     		add	r4, r7, #2
 283 0096 0B4B     		ldr	r3, .L10
 284 0098 181C     		mov	r0, r3
 285 009a 1221     		mov	r1, #18
 286 009c FFF7FEFF 		bl	comCalCRC16
 287 00a0 031C     		mov	r3, r0
 288 00a2 2380     		strh	r3, [r4]
  94:app_protocol.c ****     packetTX[18] = crc / 256;
 289              		.loc 1 94 0
 290 00a4 BB1C     		add	r3, r7, #2
 291 00a6 1B88     		ldrh	r3, [r3]
 292 00a8 1B0A     		lsr	r3, r3, #8
 293 00aa 9BB2     		uxth	r3, r3
 294 00ac DAB2     		uxtb	r2, r3
 295 00ae 054B     		ldr	r3, .L10
 296 00b0 9A74     		strb	r2, [r3, #18]
  95:app_protocol.c ****     packetTX[19] = crc % 256; 
 297              		.loc 1 95 0
 298 00b2 BB1C     		add	r3, r7, #2
 299 00b4 1B88     		ldrh	r3, [r3]
 300 00b6 DAB2     		uxtb	r2, r3
 301 00b8 024B     		ldr	r3, .L10
ARM GAS  C:\Users\ADMINI~1.SC-\AppData\Local\Temp\ccVsST00.s 			page 8


 302 00ba DA74     		strb	r2, [r3, #19]
  96:app_protocol.c ****     
  97:app_protocol.c ****     //SendNotification();
  98:app_protocol.c **** }
 303              		.loc 1 98 0
 304 00bc BD46     		mov	sp, r7
 305 00be 03B0     		add	sp, sp, #12
 306              		@ sp needed
 307 00c0 90BD     		pop	{r4, r7, pc}
 308              	.L11:
 309 00c2 C046     		.align	2
 310              	.L10:
 311 00c4 00000000 		.word	packetTX
 312 00c8 00000000 		.word	Lock_Info
 313 00cc 03000000 		.word	packetTX+3
 314 00d0 00000000 		.word	System_Config
 315 00d4 0A000000 		.word	packetTX+10
 316              		.cfi_endproc
 317              	.LFE37:
 318              		.size	Send_LockInfo, .-Send_LockInfo
 319              		.section	.text.Back_Massage_Minwen,"ax",%progbits
 320              		.align	2
 321              		.global	Back_Massage_Minwen
 322              		.code	16
 323              		.thumb_func
 324              		.type	Back_Massage_Minwen, %function
 325              	Back_Massage_Minwen:
 326              	.LFB38:
  99:app_protocol.c **** 
 100:app_protocol.c **** /***********************************************
 101:app_protocol.c **** * 函数名：void Back_Massage_Minwen(uint8 cmd,uint8 data)
 102:app_protocol.c **** * 描述  ：返回信息-明文
 103:app_protocol.c **** ***********************************************/
 104:app_protocol.c **** void Back_Massage_Minwen(uint8 cmd,uint8 data)
 105:app_protocol.c **** {
 327              		.loc 1 105 0
 328              		.cfi_startproc
 329 0000 90B5     		push	{r4, r7, lr}
 330              		.cfi_def_cfa_offset 12
 331              		.cfi_offset 4, -12
 332              		.cfi_offset 7, -8
 333              		.cfi_offset 14, -4
 334 0002 85B0     		sub	sp, sp, #20
 335              		.cfi_def_cfa_offset 32
 336 0004 00AF     		add	r7, sp, #0
 337              		.cfi_def_cfa_register 7
 338 0006 021C     		mov	r2, r0
 339 0008 FB1D     		add	r3, r7, #7
 340 000a 1A70     		strb	r2, [r3]
 341 000c BB1D     		add	r3, r7, #6
 342 000e 0A1C     		add	r2, r1, #0
 343 0010 1A70     		strb	r2, [r3]
 106:app_protocol.c ****     uint16 crc;
 107:app_protocol.c ****     memset(packetTX,0x00,sizeof(packetTX));
 344              		.loc 1 107 0
 345 0012 174B     		ldr	r3, .L13
 346 0014 181C     		mov	r0, r3
ARM GAS  C:\Users\ADMINI~1.SC-\AppData\Local\Temp\ccVsST00.s 			page 9


 347 0016 0021     		mov	r1, #0
 348 0018 1422     		mov	r2, #20
 349 001a FFF7FEFF 		bl	memset
 108:app_protocol.c ****     packetTX[0] = cmd;          //命令字
 350              		.loc 1 108 0
 351 001e 144B     		ldr	r3, .L13
 352 0020 FA1D     		add	r2, r7, #7
 353 0022 1278     		ldrb	r2, [r2]
 354 0024 1A70     		strb	r2, [r3]
 109:app_protocol.c ****     packetTX[1] = 0;            //包号
 355              		.loc 1 109 0
 356 0026 124B     		ldr	r3, .L13
 357 0028 0022     		mov	r2, #0
 358 002a 5A70     		strb	r2, [r3, #1]
 110:app_protocol.c ****     packetTX[2] = 1;            //长度
 359              		.loc 1 110 0
 360 002c 104B     		ldr	r3, .L13
 361 002e 0122     		mov	r2, #1
 362 0030 9A70     		strb	r2, [r3, #2]
 111:app_protocol.c ****     packetTX[3] = data;         //结果
 363              		.loc 1 111 0
 364 0032 0F4B     		ldr	r3, .L13
 365 0034 BA1D     		add	r2, r7, #6
 366 0036 1278     		ldrb	r2, [r2]
 367 0038 DA70     		strb	r2, [r3, #3]
 112:app_protocol.c ****     
 113:app_protocol.c ****     crc = comCalCRC16(packetTX,4);
 368              		.loc 1 113 0
 369 003a 0E23     		mov	r3, #14
 370 003c FC18     		add	r4, r7, r3
 371 003e 0C4B     		ldr	r3, .L13
 372 0040 181C     		mov	r0, r3
 373 0042 0421     		mov	r1, #4
 374 0044 FFF7FEFF 		bl	comCalCRC16
 375 0048 031C     		mov	r3, r0
 376 004a 2380     		strh	r3, [r4]
 114:app_protocol.c ****     packetTX[4] = crc / 256;
 377              		.loc 1 114 0
 378 004c 0E23     		mov	r3, #14
 379 004e FB18     		add	r3, r7, r3
 380 0050 1B88     		ldrh	r3, [r3]
 381 0052 1B0A     		lsr	r3, r3, #8
 382 0054 9BB2     		uxth	r3, r3
 383 0056 DAB2     		uxtb	r2, r3
 384 0058 054B     		ldr	r3, .L13
 385 005a 1A71     		strb	r2, [r3, #4]
 115:app_protocol.c ****     packetTX[5] = crc % 256;   
 386              		.loc 1 115 0
 387 005c 0E23     		mov	r3, #14
 388 005e FB18     		add	r3, r7, r3
 389 0060 1B88     		ldrh	r3, [r3]
 390 0062 DAB2     		uxtb	r2, r3
 391 0064 024B     		ldr	r3, .L13
 392 0066 5A71     		strb	r2, [r3, #5]
 116:app_protocol.c ****     //SendNotification();
 117:app_protocol.c **** }
 393              		.loc 1 117 0
ARM GAS  C:\Users\ADMINI~1.SC-\AppData\Local\Temp\ccVsST00.s 			page 10


 394 0068 BD46     		mov	sp, r7
 395 006a 05B0     		add	sp, sp, #20
 396              		@ sp needed
 397 006c 90BD     		pop	{r4, r7, pc}
 398              	.L14:
 399 006e C046     		.align	2
 400              	.L13:
 401 0070 00000000 		.word	packetTX
 402              		.cfi_endproc
 403              	.LFE38:
 404              		.size	Back_Massage_Minwen, .-Back_Massage_Minwen
 405              		.section	.text.Send_Battery_Voltage,"ax",%progbits
 406              		.align	2
 407              		.global	Send_Battery_Voltage
 408              		.code	16
 409              		.thumb_func
 410              		.type	Send_Battery_Voltage, %function
 411              	Send_Battery_Voltage:
 412              	.LFB39:
 118:app_protocol.c **** 
 119:app_protocol.c **** 
 120:app_protocol.c **** /***********************************************
 121:app_protocol.c **** * 函数名：void Send_Battery_Voltage(void)
 122:app_protocol.c **** * 描述  ：发送钥匙电压
 123:app_protocol.c **** ***********************************************/
 124:app_protocol.c **** void Send_Battery_Voltage(void)
 125:app_protocol.c **** {
 413              		.loc 1 125 0
 414              		.cfi_startproc
 415 0000 90B5     		push	{r4, r7, lr}
 416              		.cfi_def_cfa_offset 12
 417              		.cfi_offset 4, -12
 418              		.cfi_offset 7, -8
 419              		.cfi_offset 14, -4
 420 0002 83B0     		sub	sp, sp, #12
 421              		.cfi_def_cfa_offset 24
 422 0004 00AF     		add	r7, sp, #0
 423              		.cfi_def_cfa_register 7
 126:app_protocol.c ****     uint16 vol = 3900;      //电池电压需采样计算
 424              		.loc 1 126 0
 425 0006 BB1D     		add	r3, r7, #6
 426 0008 1C4A     		ldr	r2, .L16
 427 000a 1A80     		strh	r2, [r3]
 127:app_protocol.c ****     uint16 crc;
 128:app_protocol.c ****     vol = Get_Adc();
 428              		.loc 1 128 0
 429 000c BC1D     		add	r4, r7, #6
 430 000e FFF7FEFF 		bl	Get_Adc
 431 0012 031C     		mov	r3, r0
 432 0014 2380     		strh	r3, [r4]
 129:app_protocol.c ****     memset(packetTX,0x00,20);
 433              		.loc 1 129 0
 434 0016 1A4B     		ldr	r3, .L16+4
 435 0018 181C     		mov	r0, r3
 436 001a 0021     		mov	r1, #0
 437 001c 1422     		mov	r2, #20
 438 001e FFF7FEFF 		bl	memset
ARM GAS  C:\Users\ADMINI~1.SC-\AppData\Local\Temp\ccVsST00.s 			page 11


 130:app_protocol.c ****     packetTX[0] = GET_BATTERY_VOLTAGE;
 439              		.loc 1 130 0
 440 0022 174B     		ldr	r3, .L16+4
 441 0024 1D22     		mov	r2, #29
 442 0026 1A70     		strb	r2, [r3]
 131:app_protocol.c ****     packetTX[1] = 0;
 443              		.loc 1 131 0
 444 0028 154B     		ldr	r3, .L16+4
 445 002a 0022     		mov	r2, #0
 446 002c 5A70     		strb	r2, [r3, #1]
 132:app_protocol.c ****     packetTX[2] = 2;
 447              		.loc 1 132 0
 448 002e 144B     		ldr	r3, .L16+4
 449 0030 0222     		mov	r2, #2
 450 0032 9A70     		strb	r2, [r3, #2]
 133:app_protocol.c ****     packetTX[3] = vol/256;
 451              		.loc 1 133 0
 452 0034 BB1D     		add	r3, r7, #6
 453 0036 1B88     		ldrh	r3, [r3]
 454 0038 1B0A     		lsr	r3, r3, #8
 455 003a 9BB2     		uxth	r3, r3
 456 003c DAB2     		uxtb	r2, r3
 457 003e 104B     		ldr	r3, .L16+4
 458 0040 DA70     		strb	r2, [r3, #3]
 134:app_protocol.c ****     packetTX[4] = vol%256;
 459              		.loc 1 134 0
 460 0042 BB1D     		add	r3, r7, #6
 461 0044 1B88     		ldrh	r3, [r3]
 462 0046 DAB2     		uxtb	r2, r3
 463 0048 0D4B     		ldr	r3, .L16+4
 464 004a 1A71     		strb	r2, [r3, #4]
 135:app_protocol.c ****     crc = comCalCRC16(packetTX,5);
 465              		.loc 1 135 0
 466 004c 3C1D     		add	r4, r7, #4
 467 004e 0C4B     		ldr	r3, .L16+4
 468 0050 181C     		mov	r0, r3
 469 0052 0521     		mov	r1, #5
 470 0054 FFF7FEFF 		bl	comCalCRC16
 471 0058 031C     		mov	r3, r0
 472 005a 2380     		strh	r3, [r4]
 136:app_protocol.c ****     packetTX[5] = crc / 256;
 473              		.loc 1 136 0
 474 005c 3B1D     		add	r3, r7, #4
 475 005e 1B88     		ldrh	r3, [r3]
 476 0060 1B0A     		lsr	r3, r3, #8
 477 0062 9BB2     		uxth	r3, r3
 478 0064 DAB2     		uxtb	r2, r3
 479 0066 064B     		ldr	r3, .L16+4
 480 0068 5A71     		strb	r2, [r3, #5]
 137:app_protocol.c ****     packetTX[6] = crc % 256;  
 481              		.loc 1 137 0
 482 006a 3B1D     		add	r3, r7, #4
 483 006c 1B88     		ldrh	r3, [r3]
 484 006e DAB2     		uxtb	r2, r3
 485 0070 034B     		ldr	r3, .L16+4
 486 0072 9A71     		strb	r2, [r3, #6]
 138:app_protocol.c ****     //SendNotification();
ARM GAS  C:\Users\ADMINI~1.SC-\AppData\Local\Temp\ccVsST00.s 			page 12


 139:app_protocol.c **** }
 487              		.loc 1 139 0
 488 0074 BD46     		mov	sp, r7
 489 0076 03B0     		add	sp, sp, #12
 490              		@ sp needed
 491 0078 90BD     		pop	{r4, r7, pc}
 492              	.L17:
 493 007a C046     		.align	2
 494              	.L16:
 495 007c 3C0F0000 		.word	3900
 496 0080 00000000 		.word	packetTX
 497              		.cfi_endproc
 498              	.LFE39:
 499              		.size	Send_Battery_Voltage, .-Send_Battery_Voltage
 500              		.section	.text.Send_Factory_Info,"ax",%progbits
 501              		.align	2
 502              		.global	Send_Factory_Info
 503              		.code	16
 504              		.thumb_func
 505              		.type	Send_Factory_Info, %function
 506              	Send_Factory_Info:
 507              	.LFB40:
 140:app_protocol.c **** 
 141:app_protocol.c **** 
 142:app_protocol.c **** 
 143:app_protocol.c **** 
 144:app_protocol.c **** /***********************************************
 145:app_protocol.c **** * 函数名：void Send_Factory_Info(void)
 146:app_protocol.c **** * 描述  ：发送钥匙出厂信息
 147:app_protocol.c **** ***********************************************/
 148:app_protocol.c **** void Send_Factory_Info(void)
 149:app_protocol.c **** {
 508              		.loc 1 149 0
 509              		.cfi_startproc
 510 0000 90B5     		push	{r4, r7, lr}
 511              		.cfi_def_cfa_offset 12
 512              		.cfi_offset 4, -12
 513              		.cfi_offset 7, -8
 514              		.cfi_offset 14, -4
 515 0002 83B0     		sub	sp, sp, #12
 516              		.cfi_def_cfa_offset 24
 517 0004 00AF     		add	r7, sp, #0
 518              		.cfi_def_cfa_register 7
 150:app_protocol.c ****     uint16 crc;
 151:app_protocol.c ****     memset(packetTX,0x00,20);
 519              		.loc 1 151 0
 520 0006 254B     		ldr	r3, .L19
 521 0008 181C     		mov	r0, r3
 522 000a 0021     		mov	r1, #0
 523 000c 1422     		mov	r2, #20
 524 000e FFF7FEFF 		bl	memset
 152:app_protocol.c ****     
 153:app_protocol.c ****     packetTX[0] = REQUEST_FACTORY_INFO;
 525              		.loc 1 153 0
 526 0012 224B     		ldr	r3, .L19
 527 0014 0B22     		mov	r2, #11
 528 0016 1A70     		strb	r2, [r3]
ARM GAS  C:\Users\ADMINI~1.SC-\AppData\Local\Temp\ccVsST00.s 			page 13


 154:app_protocol.c ****     packetTX[1] = 0;
 529              		.loc 1 154 0
 530 0018 204B     		ldr	r3, .L19
 531 001a 0022     		mov	r2, #0
 532 001c 5A70     		strb	r2, [r3, #1]
 155:app_protocol.c ****     packetTX[2] = 13;
 533              		.loc 1 155 0
 534 001e 1F4B     		ldr	r3, .L19
 535 0020 0D22     		mov	r2, #13
 536 0022 9A70     		strb	r2, [r3, #2]
 156:app_protocol.c ****     packetTX[3] = BLE_NORMAL_KEY;
 537              		.loc 1 156 0
 538 0024 1D4B     		ldr	r3, .L19
 539 0026 1322     		mov	r2, #19
 540 0028 DA70     		strb	r2, [r3, #3]
 157:app_protocol.c ****     memcpy(packetTX + 4, System_Config.DeviceID,4);
 541              		.loc 1 157 0
 542 002a 1D4A     		ldr	r2, .L19+4
 543 002c 1D4B     		ldr	r3, .L19+8
 544 002e 111C     		mov	r1, r2
 545 0030 1033     		add	r3, r3, #16
 546 0032 0422     		mov	r2, #4
 547 0034 081C     		mov	r0, r1
 548 0036 191C     		mov	r1, r3
 549 0038 FFF7FEFF 		bl	memcpy
 158:app_protocol.c **** 
 159:app_protocol.c ****     packetTX[8] = Ver_H;
 550              		.loc 1 159 0
 551 003c 174B     		ldr	r3, .L19
 552 003e 0122     		mov	r2, #1
 553 0040 1A72     		strb	r2, [r3, #8]
 160:app_protocol.c ****     packetTX[9] = Ver_L;
 554              		.loc 1 160 0
 555 0042 164B     		ldr	r3, .L19
 556 0044 0022     		mov	r2, #0
 557 0046 5A72     		strb	r2, [r3, #9]
 161:app_protocol.c ****     packetTX[10] = Hw_Ver_H;
 558              		.loc 1 161 0
 559 0048 144B     		ldr	r3, .L19
 560 004a 0122     		mov	r2, #1
 561 004c 9A72     		strb	r2, [r3, #10]
 162:app_protocol.c ****     packetTX[11] = Hw_Ver_L;   
 562              		.loc 1 162 0
 563 004e 134B     		ldr	r3, .L19
 564 0050 0022     		mov	r2, #0
 565 0052 DA72     		strb	r2, [r3, #11]
 163:app_protocol.c ****     
 164:app_protocol.c ****     packetTX[12] = 1;
 566              		.loc 1 164 0
 567 0054 114B     		ldr	r3, .L19
 568 0056 0122     		mov	r2, #1
 569 0058 1A73     		strb	r2, [r3, #12]
 165:app_protocol.c ****     
 166:app_protocol.c ****     packetTX[13] = FACTORY_YEAR;
 570              		.loc 1 166 0
 571 005a 104B     		ldr	r3, .L19
 572 005c 1022     		mov	r2, #16
ARM GAS  C:\Users\ADMINI~1.SC-\AppData\Local\Temp\ccVsST00.s 			page 14


 573 005e 5A73     		strb	r2, [r3, #13]
 167:app_protocol.c ****     packetTX[14] = FACTORY_MONTH;
 574              		.loc 1 167 0
 575 0060 0E4B     		ldr	r3, .L19
 576 0062 0B22     		mov	r2, #11
 577 0064 9A73     		strb	r2, [r3, #14]
 168:app_protocol.c ****     packetTX[15] = FACTORY_DAY;
 578              		.loc 1 168 0
 579 0066 0D4B     		ldr	r3, .L19
 580 0068 0F22     		mov	r2, #15
 581 006a DA73     		strb	r2, [r3, #15]
 169:app_protocol.c ****     
 170:app_protocol.c ****     crc = comCalCRC16(packetTX,16);
 582              		.loc 1 170 0
 583 006c BC1D     		add	r4, r7, #6
 584 006e 0B4B     		ldr	r3, .L19
 585 0070 181C     		mov	r0, r3
 586 0072 1021     		mov	r1, #16
 587 0074 FFF7FEFF 		bl	comCalCRC16
 588 0078 031C     		mov	r3, r0
 589 007a 2380     		strh	r3, [r4]
 171:app_protocol.c ****     packetTX[16] = crc / 256;
 590              		.loc 1 171 0
 591 007c BB1D     		add	r3, r7, #6
 592 007e 1B88     		ldrh	r3, [r3]
 593 0080 1B0A     		lsr	r3, r3, #8
 594 0082 9BB2     		uxth	r3, r3
 595 0084 DAB2     		uxtb	r2, r3
 596 0086 054B     		ldr	r3, .L19
 597 0088 1A74     		strb	r2, [r3, #16]
 172:app_protocol.c ****     packetTX[17] = crc % 256;  
 598              		.loc 1 172 0
 599 008a BB1D     		add	r3, r7, #6
 600 008c 1B88     		ldrh	r3, [r3]
 601 008e DAB2     		uxtb	r2, r3
 602 0090 024B     		ldr	r3, .L19
 603 0092 5A74     		strb	r2, [r3, #17]
 173:app_protocol.c ****     //SendNotification();
 174:app_protocol.c **** }
 604              		.loc 1 174 0
 605 0094 BD46     		mov	sp, r7
 606 0096 03B0     		add	sp, sp, #12
 607              		@ sp needed
 608 0098 90BD     		pop	{r4, r7, pc}
 609              	.L20:
 610 009a C046     		.align	2
 611              	.L19:
 612 009c 00000000 		.word	packetTX
 613 00a0 04000000 		.word	packetTX+4
 614 00a4 00000000 		.word	System_Config
 615              		.cfi_endproc
 616              	.LFE40:
 617              		.size	Send_Factory_Info, .-Send_Factory_Info
 618              		.section	.text.Back_subpackage,"ax",%progbits
 619              		.align	2
 620              		.global	Back_subpackage
 621              		.code	16
ARM GAS  C:\Users\ADMINI~1.SC-\AppData\Local\Temp\ccVsST00.s 			page 15


 622              		.thumb_func
 623              		.type	Back_subpackage, %function
 624              	Back_subpackage:
 625              	.LFB41:
 175:app_protocol.c **** 
 176:app_protocol.c **** 
 177:app_protocol.c **** /***********************************************
 178:app_protocol.c **** * 函数名：void Back_Massage_Minwen(uint8 cmd,uint8 data)
 179:app_protocol.c **** * 描述  ：分包应答
 180:app_protocol.c **** ***********************************************/
 181:app_protocol.c **** void Back_subpackage(uint8 cmd,uint8 pk_num)
 182:app_protocol.c **** {
 626              		.loc 1 182 0
 627              		.cfi_startproc
 628 0000 90B5     		push	{r4, r7, lr}
 629              		.cfi_def_cfa_offset 12
 630              		.cfi_offset 4, -12
 631              		.cfi_offset 7, -8
 632              		.cfi_offset 14, -4
 633 0002 85B0     		sub	sp, sp, #20
 634              		.cfi_def_cfa_offset 32
 635 0004 00AF     		add	r7, sp, #0
 636              		.cfi_def_cfa_register 7
 637 0006 021C     		mov	r2, r0
 638 0008 FB1D     		add	r3, r7, #7
 639 000a 1A70     		strb	r2, [r3]
 640 000c BB1D     		add	r3, r7, #6
 641 000e 0A1C     		add	r2, r1, #0
 642 0010 1A70     		strb	r2, [r3]
 183:app_protocol.c ****     uint16 crc;
 184:app_protocol.c ****     memset(packetTX,0x00,sizeof(packetTX));
 643              		.loc 1 184 0
 644 0012 154B     		ldr	r3, .L22
 645 0014 181C     		mov	r0, r3
 646 0016 0021     		mov	r1, #0
 647 0018 1422     		mov	r2, #20
 648 001a FFF7FEFF 		bl	memset
 185:app_protocol.c ****     packetTX[0] = cmd;
 649              		.loc 1 185 0
 650 001e 124B     		ldr	r3, .L22
 651 0020 FA1D     		add	r2, r7, #7
 652 0022 1278     		ldrb	r2, [r2]
 653 0024 1A70     		strb	r2, [r3]
 186:app_protocol.c ****     packetTX[1] = pk_num;           //包号
 654              		.loc 1 186 0
 655 0026 104B     		ldr	r3, .L22
 656 0028 BA1D     		add	r2, r7, #6
 657 002a 1278     		ldrb	r2, [r2]
 658 002c 5A70     		strb	r2, [r3, #1]
 187:app_protocol.c ****     packetTX[2] = 0;                //命令字    
 659              		.loc 1 187 0
 660 002e 0E4B     		ldr	r3, .L22
 661 0030 0022     		mov	r2, #0
 662 0032 9A70     		strb	r2, [r3, #2]
 188:app_protocol.c **** 
 189:app_protocol.c ****     crc = comCalCRC16(packetTX,3);
 663              		.loc 1 189 0
ARM GAS  C:\Users\ADMINI~1.SC-\AppData\Local\Temp\ccVsST00.s 			page 16


 664 0034 0E23     		mov	r3, #14
 665 0036 FC18     		add	r4, r7, r3
 666 0038 0B4B     		ldr	r3, .L22
 667 003a 181C     		mov	r0, r3
 668 003c 0321     		mov	r1, #3
 669 003e FFF7FEFF 		bl	comCalCRC16
 670 0042 031C     		mov	r3, r0
 671 0044 2380     		strh	r3, [r4]
 190:app_protocol.c ****     packetTX[3] = crc / 256;
 672              		.loc 1 190 0
 673 0046 0E23     		mov	r3, #14
 674 0048 FB18     		add	r3, r7, r3
 675 004a 1B88     		ldrh	r3, [r3]
 676 004c 1B0A     		lsr	r3, r3, #8
 677 004e 9BB2     		uxth	r3, r3
 678 0050 DAB2     		uxtb	r2, r3
 679 0052 054B     		ldr	r3, .L22
 680 0054 DA70     		strb	r2, [r3, #3]
 191:app_protocol.c ****     packetTX[4] = crc % 256;   
 681              		.loc 1 191 0
 682 0056 0E23     		mov	r3, #14
 683 0058 FB18     		add	r3, r7, r3
 684 005a 1B88     		ldrh	r3, [r3]
 685 005c DAB2     		uxtb	r2, r3
 686 005e 024B     		ldr	r3, .L22
 687 0060 1A71     		strb	r2, [r3, #4]
 192:app_protocol.c ****     //SendNotification();
 193:app_protocol.c **** }
 688              		.loc 1 193 0
 689 0062 BD46     		mov	sp, r7
 690 0064 05B0     		add	sp, sp, #20
 691              		@ sp needed
 692 0066 90BD     		pop	{r4, r7, pc}
 693              	.L23:
 694              		.align	2
 695              	.L22:
 696 0068 00000000 		.word	packetTX
 697              		.cfi_endproc
 698              	.LFE41:
 699              		.size	Back_subpackage, .-Back_subpackage
 700              		.section	.text.Hl_Back_KeyInfo,"ax",%progbits
 701              		.align	2
 702              		.global	Hl_Back_KeyInfo
 703              		.code	16
 704              		.thumb_func
 705              		.type	Hl_Back_KeyInfo, %function
 706              	Hl_Back_KeyInfo:
 707              	.LFB42:
 194:app_protocol.c **** 
 195:app_protocol.c **** 
 196:app_protocol.c **** /***********************************************
 197:app_protocol.c **** * 函数名：void Hl_Back_KeyInfo()
 198:app_protocol.c **** * 描述  ：返回钥匙信息
 199:app_protocol.c **** ***********************************************/
 200:app_protocol.c **** void Hl_Back_KeyInfo(void)
 201:app_protocol.c **** {
 708              		.loc 1 201 0
ARM GAS  C:\Users\ADMINI~1.SC-\AppData\Local\Temp\ccVsST00.s 			page 17


 709              		.cfi_startproc
 710 0000 90B5     		push	{r4, r7, lr}
 711              		.cfi_def_cfa_offset 12
 712              		.cfi_offset 4, -12
 713              		.cfi_offset 7, -8
 714              		.cfi_offset 14, -4
 715 0002 83B0     		sub	sp, sp, #12
 716              		.cfi_def_cfa_offset 24
 717 0004 00AF     		add	r7, sp, #0
 718              		.cfi_def_cfa_register 7
 202:app_protocol.c ****     uint8 sendlen;
 203:app_protocol.c ****     uint16 batt_val = 0;
 719              		.loc 1 203 0
 720 0006 BB1D     		add	r3, r7, #6
 721 0008 0022     		mov	r2, #0
 722 000a 1A80     		strh	r2, [r3]
 204:app_protocol.c ****     packetTX[0] = CMD_GET_KEYINFO;
 723              		.loc 1 204 0
 724 000c 1B4B     		ldr	r3, .L25
 725 000e 0122     		mov	r2, #1
 726 0010 1A70     		strb	r2, [r3]
 205:app_protocol.c ****     packetTX[1] = 8;
 727              		.loc 1 205 0
 728 0012 1A4B     		ldr	r3, .L25
 729 0014 0822     		mov	r2, #8
 730 0016 5A70     		strb	r2, [r3, #1]
 206:app_protocol.c ****     
 207:app_protocol.c ****     memcpy(&packetTX[2], &System_Config.DeviceID, 4); //钥匙ID
 731              		.loc 1 207 0
 732 0018 184A     		ldr	r2, .L25
 733 001a 0221     		mov	r1, #2
 734 001c 184B     		ldr	r3, .L25+4
 735 001e 5218     		add	r2, r2, r1
 736 0020 1033     		add	r3, r3, #16
 737 0022 0424     		mov	r4, #4
 738 0024 101C     		mov	r0, r2
 739 0026 191C     		mov	r1, r3
 740 0028 221C     		mov	r2, r4
 741 002a FFF7FEFF 		bl	memcpy
 208:app_protocol.c ****     
 209:app_protocol.c ****     packetTX[6] = Ver_H;
 742              		.loc 1 209 0
 743 002e 134B     		ldr	r3, .L25
 744 0030 0122     		mov	r2, #1
 745 0032 9A71     		strb	r2, [r3, #6]
 210:app_protocol.c ****     packetTX[7] = Ver_L;
 746              		.loc 1 210 0
 747 0034 114B     		ldr	r3, .L25
 748 0036 0022     		mov	r2, #0
 749 0038 DA71     		strb	r2, [r3, #7]
 211:app_protocol.c ****     
 212:app_protocol.c ****     batt_val = Get_Adc();
 750              		.loc 1 212 0
 751 003a BC1D     		add	r4, r7, #6
 752 003c FFF7FEFF 		bl	Get_Adc
 753 0040 031C     		mov	r3, r0
 754 0042 2380     		strh	r3, [r4]
ARM GAS  C:\Users\ADMINI~1.SC-\AppData\Local\Temp\ccVsST00.s 			page 18


 213:app_protocol.c ****     //packetTX[8] = (uint8)(batt_val >> 8);
 214:app_protocol.c ****     //packetTX[9] = (uint8)(batt_val);
 215:app_protocol.c ****     packetTX[8] = 0xe;
 755              		.loc 1 215 0
 756 0044 0D4B     		ldr	r3, .L25
 757 0046 0E22     		mov	r2, #14
 758 0048 1A72     		strb	r2, [r3, #8]
 216:app_protocol.c ****     packetTX[9] = 0x00;
 759              		.loc 1 216 0
 760 004a 0C4B     		ldr	r3, .L25
 761 004c 0022     		mov	r2, #0
 762 004e 5A72     		strb	r2, [r3, #9]
 217:app_protocol.c ****     
 218:app_protocol.c ****     packetTX[10] = Xor_Check(&packetTX[2], 8);
 763              		.loc 1 218 0
 764 0050 0C4B     		ldr	r3, .L25+8
 765 0052 181C     		mov	r0, r3
 766 0054 0821     		mov	r1, #8
 767 0056 FFF7FEFF 		bl	Xor_Check
 768 005a 031C     		mov	r3, r0
 769 005c 1A1C     		mov	r2, r3
 770 005e 074B     		ldr	r3, .L25
 771 0060 9A72     		strb	r2, [r3, #10]
 219:app_protocol.c ****   
 220:app_protocol.c ****     
 221:app_protocol.c ****     sendlen = packetTX[1] + 3;
 772              		.loc 1 221 0
 773 0062 064B     		ldr	r3, .L25
 774 0064 5A78     		ldrb	r2, [r3, #1]
 775 0066 7B1D     		add	r3, r7, #5
 776 0068 0332     		add	r2, r2, #3
 777 006a 1A70     		strb	r2, [r3]
 222:app_protocol.c ****     
 223:app_protocol.c ****     SendNotification_zx(sendlen);
 778              		.loc 1 223 0
 779 006c 7B1D     		add	r3, r7, #5
 780 006e 1B78     		ldrb	r3, [r3]
 781 0070 181C     		mov	r0, r3
 782 0072 FFF7FEFF 		bl	SendNotification_zx
 224:app_protocol.c **** }
 783              		.loc 1 224 0
 784 0076 BD46     		mov	sp, r7
 785 0078 03B0     		add	sp, sp, #12
 786              		@ sp needed
 787 007a 90BD     		pop	{r4, r7, pc}
 788              	.L26:
 789              		.align	2
 790              	.L25:
 791 007c 00000000 		.word	packetTX
 792 0080 00000000 		.word	System_Config
 793 0084 02000000 		.word	packetTX+2
 794              		.cfi_endproc
 795              	.LFE42:
 796              		.size	Hl_Back_KeyInfo, .-Hl_Back_KeyInfo
 797              		.section	.text.Hl_Back_Msg,"ax",%progbits
 798              		.align	2
 799              		.global	Hl_Back_Msg
ARM GAS  C:\Users\ADMINI~1.SC-\AppData\Local\Temp\ccVsST00.s 			page 19


 800              		.code	16
 801              		.thumb_func
 802              		.type	Hl_Back_Msg, %function
 803              	Hl_Back_Msg:
 804              	.LFB43:
 225:app_protocol.c **** 
 226:app_protocol.c **** /***********************************************
 227:app_protocol.c **** * 函数名：void  Hl_Back_Msg(uint8 cmd, uint8 result)
 228:app_protocol.c **** * 描述  ：返回应答结果
 229:app_protocol.c **** ***********************************************/
 230:app_protocol.c **** void  Hl_Back_Msg(uint8 cmd, uint8 result)
 231:app_protocol.c **** {
 805              		.loc 1 231 0
 806              		.cfi_startproc
 807 0000 80B5     		push	{r7, lr}
 808              		.cfi_def_cfa_offset 8
 809              		.cfi_offset 7, -8
 810              		.cfi_offset 14, -4
 811 0002 84B0     		sub	sp, sp, #16
 812              		.cfi_def_cfa_offset 24
 813 0004 00AF     		add	r7, sp, #0
 814              		.cfi_def_cfa_register 7
 815 0006 021C     		mov	r2, r0
 816 0008 FB1D     		add	r3, r7, #7
 817 000a 1A70     		strb	r2, [r3]
 818 000c BB1D     		add	r3, r7, #6
 819 000e 0A1C     		add	r2, r1, #0
 820 0010 1A70     		strb	r2, [r3]
 232:app_protocol.c ****     uint8 sendlen;
 233:app_protocol.c **** 
 234:app_protocol.c ****     packetTX[0] = cmd;
 821              		.loc 1 234 0
 822 0012 124B     		ldr	r3, .L28
 823 0014 FA1D     		add	r2, r7, #7
 824 0016 1278     		ldrb	r2, [r2]
 825 0018 1A70     		strb	r2, [r3]
 235:app_protocol.c ****     packetTX[1] = 1;
 826              		.loc 1 235 0
 827 001a 104B     		ldr	r3, .L28
 828 001c 0122     		mov	r2, #1
 829 001e 5A70     		strb	r2, [r3, #1]
 236:app_protocol.c ****     packetTX[2] = result;
 830              		.loc 1 236 0
 831 0020 0E4B     		ldr	r3, .L28
 832 0022 BA1D     		add	r2, r7, #6
 833 0024 1278     		ldrb	r2, [r2]
 834 0026 9A70     		strb	r2, [r3, #2]
 237:app_protocol.c ****     
 238:app_protocol.c ****     packetTX[3] = Xor_Check(&packetTX[2], packetTX[1]);
 835              		.loc 1 238 0
 836 0028 0C4B     		ldr	r3, .L28
 837 002a 5B78     		ldrb	r3, [r3, #1]
 838 002c 0C4A     		ldr	r2, .L28+4
 839 002e 101C     		mov	r0, r2
 840 0030 191C     		mov	r1, r3
 841 0032 FFF7FEFF 		bl	Xor_Check
 842 0036 031C     		mov	r3, r0
ARM GAS  C:\Users\ADMINI~1.SC-\AppData\Local\Temp\ccVsST00.s 			page 20


 843 0038 1A1C     		mov	r2, r3
 844 003a 084B     		ldr	r3, .L28
 845 003c DA70     		strb	r2, [r3, #3]
 239:app_protocol.c ****     
 240:app_protocol.c ****     sendlen = packetTX[1] + 3;
 846              		.loc 1 240 0
 847 003e 074B     		ldr	r3, .L28
 848 0040 5A78     		ldrb	r2, [r3, #1]
 849 0042 0F23     		mov	r3, #15
 850 0044 FB18     		add	r3, r7, r3
 851 0046 0332     		add	r2, r2, #3
 852 0048 1A70     		strb	r2, [r3]
 241:app_protocol.c ****     
 242:app_protocol.c ****     SendNotification_zx(sendlen);
 853              		.loc 1 242 0
 854 004a 0F23     		mov	r3, #15
 855 004c FB18     		add	r3, r7, r3
 856 004e 1B78     		ldrb	r3, [r3]
 857 0050 181C     		mov	r0, r3
 858 0052 FFF7FEFF 		bl	SendNotification_zx
 243:app_protocol.c **** }
 859              		.loc 1 243 0
 860 0056 BD46     		mov	sp, r7
 861 0058 04B0     		add	sp, sp, #16
 862              		@ sp needed
 863 005a 80BD     		pop	{r7, pc}
 864              	.L29:
 865              		.align	2
 866              	.L28:
 867 005c 00000000 		.word	packetTX
 868 0060 02000000 		.word	packetTX+2
 869              		.cfi_endproc
 870              	.LFE43:
 871              		.size	Hl_Back_Msg, .-Hl_Back_Msg
 872              		.section	.text.Hl_Back_Lock_Open,"ax",%progbits
 873              		.align	2
 874              		.global	Hl_Back_Lock_Open
 875              		.code	16
 876              		.thumb_func
 877              		.type	Hl_Back_Lock_Open, %function
 878              	Hl_Back_Lock_Open:
 879              	.LFB44:
 244:app_protocol.c **** 
 245:app_protocol.c **** /***********************************************
 246:app_protocol.c **** * 函数名：void Hl_Back_Lock_Open(void)
 247:app_protocol.c **** * 描述  ：返回开锁应答结果
 248:app_protocol.c **** ***********************************************/
 249:app_protocol.c **** void Hl_Back_Lock_Open(void)
 250:app_protocol.c **** {
 880              		.loc 1 250 0
 881              		.cfi_startproc
 882 0000 80B5     		push	{r7, lr}
 883              		.cfi_def_cfa_offset 8
 884              		.cfi_offset 7, -8
 885              		.cfi_offset 14, -4
 886 0002 82B0     		sub	sp, sp, #8
 887              		.cfi_def_cfa_offset 16
ARM GAS  C:\Users\ADMINI~1.SC-\AppData\Local\Temp\ccVsST00.s 			page 21


 888 0004 00AF     		add	r7, sp, #0
 889              		.cfi_def_cfa_register 7
 251:app_protocol.c ****     uint8 sendlen;
 252:app_protocol.c **** 
 253:app_protocol.c ****     packetTX[0] = CMD_LOCK_OPEN;
 890              		.loc 1 253 0
 891 0006 124B     		ldr	r3, .L31
 892 0008 0422     		mov	r2, #4
 893 000a 1A70     		strb	r2, [r3]
 254:app_protocol.c ****     packetTX[1] = 2;
 894              		.loc 1 254 0
 895 000c 104B     		ldr	r3, .L31
 896 000e 0222     		mov	r2, #2
 897 0010 5A70     		strb	r2, [r3, #1]
 255:app_protocol.c ****     packetTX[2] = 1; //结果
 898              		.loc 1 255 0
 899 0012 0F4B     		ldr	r3, .L31
 900 0014 0122     		mov	r2, #1
 901 0016 9A70     		strb	r2, [r3, #2]
 256:app_protocol.c ****     packetTX[3] = 1; //锁状态
 902              		.loc 1 256 0
 903 0018 0D4B     		ldr	r3, .L31
 904 001a 0122     		mov	r2, #1
 905 001c DA70     		strb	r2, [r3, #3]
 257:app_protocol.c ****     
 258:app_protocol.c ****     packetTX[4] = Xor_Check(&packetTX[2], packetTX[1]);
 906              		.loc 1 258 0
 907 001e 0C4B     		ldr	r3, .L31
 908 0020 5B78     		ldrb	r3, [r3, #1]
 909 0022 0C4A     		ldr	r2, .L31+4
 910 0024 101C     		mov	r0, r2
 911 0026 191C     		mov	r1, r3
 912 0028 FFF7FEFF 		bl	Xor_Check
 913 002c 031C     		mov	r3, r0
 914 002e 1A1C     		mov	r2, r3
 915 0030 074B     		ldr	r3, .L31
 916 0032 1A71     		strb	r2, [r3, #4]
 259:app_protocol.c ****     //packetTX[4] = 0;
 260:app_protocol.c ****     sendlen = packetTX[1] + 3;
 917              		.loc 1 260 0
 918 0034 064B     		ldr	r3, .L31
 919 0036 5A78     		ldrb	r2, [r3, #1]
 920 0038 FB1D     		add	r3, r7, #7
 921 003a 0332     		add	r2, r2, #3
 922 003c 1A70     		strb	r2, [r3]
 261:app_protocol.c ****     
 262:app_protocol.c ****     SendNotification_zx(sendlen);
 923              		.loc 1 262 0
 924 003e FB1D     		add	r3, r7, #7
 925 0040 1B78     		ldrb	r3, [r3]
 926 0042 181C     		mov	r0, r3
 927 0044 FFF7FEFF 		bl	SendNotification_zx
 263:app_protocol.c **** }
 928              		.loc 1 263 0
 929 0048 BD46     		mov	sp, r7
 930 004a 02B0     		add	sp, sp, #8
 931              		@ sp needed
ARM GAS  C:\Users\ADMINI~1.SC-\AppData\Local\Temp\ccVsST00.s 			page 22


 932 004c 80BD     		pop	{r7, pc}
 933              	.L32:
 934 004e C046     		.align	2
 935              	.L31:
 936 0050 00000000 		.word	packetTX
 937 0054 02000000 		.word	packetTX+2
 938              		.cfi_endproc
 939              	.LFE44:
 940              		.size	Hl_Back_Lock_Open, .-Hl_Back_Lock_Open
 941              		.section	.text.Hl_Back_Lock_Info,"ax",%progbits
 942              		.align	2
 943              		.global	Hl_Back_Lock_Info
 944              		.code	16
 945              		.thumb_func
 946              		.type	Hl_Back_Lock_Info, %function
 947              	Hl_Back_Lock_Info:
 948              	.LFB45:
 264:app_protocol.c **** 
 265:app_protocol.c **** /***********************************************
 266:app_protocol.c **** * 函数名：void Hl_Back_Lock_Info(void)
 267:app_protocol.c **** * 描述  ：返回锁设备信息 预备开锁
 268:app_protocol.c **** ***********************************************/
 269:app_protocol.c **** void Hl_Back_Lock_Info(void)
 270:app_protocol.c **** {
 949              		.loc 1 270 0
 950              		.cfi_startproc
 951 0000 80B5     		push	{r7, lr}
 952              		.cfi_def_cfa_offset 8
 953              		.cfi_offset 7, -8
 954              		.cfi_offset 14, -4
 955 0002 86B0     		sub	sp, sp, #24
 956              		.cfi_def_cfa_offset 32
 957 0004 00AF     		add	r7, sp, #0
 958              		.cfi_def_cfa_register 7
 271:app_protocol.c ****     uint8 sendlen;
 272:app_protocol.c ****     uint8 rc4_key[16];
 273:app_protocol.c ****     
 274:app_protocol.c ****     packetTX[0] = CMD_UP_LOCKINFO;
 959              		.loc 1 274 0
 960 0006 1D4B     		ldr	r3, .L34
 961 0008 0322     		mov	r2, #3
 962 000a 1A70     		strb	r2, [r3]
 275:app_protocol.c ****     
 276:app_protocol.c ****     packetTX[1] = 7;
 963              		.loc 1 276 0
 964 000c 1B4B     		ldr	r3, .L34
 965 000e 0722     		mov	r2, #7
 966 0010 5A70     		strb	r2, [r3, #1]
 277:app_protocol.c ****     
 278:app_protocol.c ****     memcmp(&packetTX[2], Lock_Info.DeviceID, 4);
 279:app_protocol.c ****     
 280:app_protocol.c ****     packetTX[6] = Ver_H;
 967              		.loc 1 280 0
 968 0012 1A4B     		ldr	r3, .L34
 969 0014 0122     		mov	r2, #1
 970 0016 9A71     		strb	r2, [r3, #6]
 281:app_protocol.c ****     packetTX[7] = Ver_L; 
ARM GAS  C:\Users\ADMINI~1.SC-\AppData\Local\Temp\ccVsST00.s 			page 23


 971              		.loc 1 281 0
 972 0018 184B     		ldr	r3, .L34
 973 001a 0022     		mov	r2, #0
 974 001c DA71     		strb	r2, [r3, #7]
 282:app_protocol.c ****     
 283:app_protocol.c ****     packetTX[8] = 0; //锁状态
 975              		.loc 1 283 0
 976 001e 174B     		ldr	r3, .L34
 977 0020 0022     		mov	r2, #0
 978 0022 1A72     		strb	r2, [r3, #8]
 284:app_protocol.c **** 
 285:app_protocol.c ****     memcpy(rc4_key, key_str.dynamic_key, 8);       //动态密钥做高8字节
 979              		.loc 1 285 0
 980 0024 3A1D     		add	r2, r7, #4
 981 0026 164B     		ldr	r3, .L34+4
 982 0028 1033     		add	r3, r3, #16
 983 002a 03CB     		ldmia	r3!, {r0, r1}
 984 002c 03C2     		stmia	r2!, {r0, r1}
 286:app_protocol.c ****     memcpy(&rc4_key[8], key_str.root_key, 8);      //根密钥做低8字节
 985              		.loc 1 286 0
 986 002e 3B1D     		add	r3, r7, #4
 987 0030 134A     		ldr	r2, .L34+4
 988 0032 0833     		add	r3, r3, #8
 989 0034 03CA     		ldmia	r2!, {r0, r1}
 990 0036 03C3     		stmia	r3!, {r0, r1}
 287:app_protocol.c ****     
 288:app_protocol.c ****     App_RC4(rc4_key, 16, &packetTX[2], 7); //加密
 991              		.loc 1 288 0
 992 0038 3A1D     		add	r2, r7, #4
 993 003a 124B     		ldr	r3, .L34+8
 994 003c 101C     		mov	r0, r2
 995 003e 1021     		mov	r1, #16
 996 0040 1A1C     		mov	r2, r3
 997 0042 0723     		mov	r3, #7
 998 0044 FFF7FEFF 		bl	App_RC4
 289:app_protocol.c ****    
 290:app_protocol.c ****     packetTX[9] = Xor_Check(&packetTX[2], packetTX[1]);  //异或校验
 999              		.loc 1 290 0
 1000 0048 0C4B     		ldr	r3, .L34
 1001 004a 5B78     		ldrb	r3, [r3, #1]
 1002 004c 0D4A     		ldr	r2, .L34+8
 1003 004e 101C     		mov	r0, r2
 1004 0050 191C     		mov	r1, r3
 1005 0052 FFF7FEFF 		bl	Xor_Check
 1006 0056 031C     		mov	r3, r0
 1007 0058 1A1C     		mov	r2, r3
 1008 005a 084B     		ldr	r3, .L34
 1009 005c 5A72     		strb	r2, [r3, #9]
 291:app_protocol.c ****     
 292:app_protocol.c ****     sendlen = packetTX[1] + 3;
 1010              		.loc 1 292 0
 1011 005e 074B     		ldr	r3, .L34
 1012 0060 5A78     		ldrb	r2, [r3, #1]
 1013 0062 1723     		mov	r3, #23
 1014 0064 FB18     		add	r3, r7, r3
 1015 0066 0332     		add	r2, r2, #3
 1016 0068 1A70     		strb	r2, [r3]
ARM GAS  C:\Users\ADMINI~1.SC-\AppData\Local\Temp\ccVsST00.s 			page 24


 293:app_protocol.c ****     
 294:app_protocol.c ****     SendNotification_zx(sendlen);
 1017              		.loc 1 294 0
 1018 006a 1723     		mov	r3, #23
 1019 006c FB18     		add	r3, r7, r3
 1020 006e 1B78     		ldrb	r3, [r3]
 1021 0070 181C     		mov	r0, r3
 1022 0072 FFF7FEFF 		bl	SendNotification_zx
 295:app_protocol.c **** }
 1023              		.loc 1 295 0
 1024 0076 BD46     		mov	sp, r7
 1025 0078 06B0     		add	sp, sp, #24
 1026              		@ sp needed
 1027 007a 80BD     		pop	{r7, pc}
 1028              	.L35:
 1029              		.align	2
 1030              	.L34:
 1031 007c 00000000 		.word	packetTX
 1032 0080 00000000 		.word	key_str
 1033 0084 02000000 		.word	packetTX+2
 1034              		.cfi_endproc
 1035              	.LFE45:
 1036              		.size	Hl_Back_Lock_Info, .-Hl_Back_Lock_Info
 1037              		.section	.text.HexToStr,"ax",%progbits
 1038              		.align	2
 1039              		.global	HexToStr
 1040              		.code	16
 1041              		.thumb_func
 1042              		.type	HexToStr, %function
 1043              	HexToStr:
 1044              	.LFB46:
 296:app_protocol.c **** 
 297:app_protocol.c **** /**************************************************************
 298:app_protocol.c **** // C prototype : void HexToStr(BYTE *pbDest, BYTE *pbSrc, int nLen)
 299:app_protocol.c **** // parameter(s): [OUT] pbDest - 存放目标字符串
 300:app_protocol.c **** // [IN] pbSrc - 输入16进制数的起始地址
 301:app_protocol.c **** // [IN] nLen - 16进制数的字节数
 302:app_protocol.c **** // return value:
 303:app_protocol.c **** // remarks : 将16进制数转化为字符串
 304:app_protocol.c **** *****************************************************************/
 305:app_protocol.c **** void HexToStr(char *pbDest, uint8 *pbSrc, uint16 nLen)
 306:app_protocol.c **** {
 1045              		.loc 1 306 0
 1046              		.cfi_startproc
 1047 0000 80B5     		push	{r7, lr}
 1048              		.cfi_def_cfa_offset 8
 1049              		.cfi_offset 7, -8
 1050              		.cfi_offset 14, -4
 1051 0002 86B0     		sub	sp, sp, #24
 1052              		.cfi_def_cfa_offset 32
 1053 0004 00AF     		add	r7, sp, #0
 1054              		.cfi_def_cfa_register 7
 1055 0006 F860     		str	r0, [r7, #12]
 1056 0008 B960     		str	r1, [r7, #8]
 1057 000a BB1D     		add	r3, r7, #6
 1058 000c 1A80     		strh	r2, [r3]
 307:app_protocol.c ****     char ddl,ddh;
ARM GAS  C:\Users\ADMINI~1.SC-\AppData\Local\Temp\ccVsST00.s 			page 25


 308:app_protocol.c ****     int i;
 309:app_protocol.c **** 
 310:app_protocol.c ****     for (i=0; i<nLen; i++)
 1059              		.loc 1 310 0
 1060 000e 0023     		mov	r3, #0
 1061 0010 3B61     		str	r3, [r7, #16]
 1062 0012 41E0     		b	.L37
 1063              	.L40:
 311:app_protocol.c ****     {
 312:app_protocol.c ****         ddh = 48 + pbSrc[i] / 16;
 1064              		.loc 1 312 0
 1065 0014 3B69     		ldr	r3, [r7, #16]
 1066 0016 BA68     		ldr	r2, [r7, #8]
 1067 0018 D318     		add	r3, r2, r3
 1068 001a 1B78     		ldrb	r3, [r3]
 1069 001c 1B09     		lsr	r3, r3, #4
 1070 001e DAB2     		uxtb	r2, r3
 1071 0020 1623     		mov	r3, #22
 1072 0022 FB18     		add	r3, r7, r3
 1073 0024 3032     		add	r2, r2, #48
 1074 0026 1A70     		strb	r2, [r3]
 313:app_protocol.c ****         ddl = 48 + pbSrc[i] % 16;
 1075              		.loc 1 313 0
 1076 0028 3B69     		ldr	r3, [r7, #16]
 1077 002a BA68     		ldr	r2, [r7, #8]
 1078 002c D318     		add	r3, r2, r3
 1079 002e 1B78     		ldrb	r3, [r3]
 1080 0030 0F22     		mov	r2, #15
 1081 0032 1340     		and	r3, r2
 1082 0034 DAB2     		uxtb	r2, r3
 1083 0036 1723     		mov	r3, #23
 1084 0038 FB18     		add	r3, r7, r3
 1085 003a 3032     		add	r2, r2, #48
 1086 003c 1A70     		strb	r2, [r3]
 314:app_protocol.c ****         if (ddh > 57) ddh = ddh + ('a' - '9' - 1);
 1087              		.loc 1 314 0
 1088 003e 1623     		mov	r3, #22
 1089 0040 FB18     		add	r3, r7, r3
 1090 0042 1B78     		ldrb	r3, [r3]
 1091 0044 392B     		cmp	r3, #57
 1092 0046 06D9     		bls	.L38
 1093              		.loc 1 314 0 is_stmt 0 discriminator 1
 1094 0048 1623     		mov	r3, #22
 1095 004a FB18     		add	r3, r7, r3
 1096 004c 1622     		mov	r2, #22
 1097 004e BA18     		add	r2, r7, r2
 1098 0050 1278     		ldrb	r2, [r2]
 1099 0052 2732     		add	r2, r2, #39
 1100 0054 1A70     		strb	r2, [r3]
 1101              	.L38:
 315:app_protocol.c ****         if (ddl > 57) ddl = ddl + ('a' - '9' - 1);
 1102              		.loc 1 315 0 is_stmt 1
 1103 0056 1723     		mov	r3, #23
 1104 0058 FB18     		add	r3, r7, r3
 1105 005a 1B78     		ldrb	r3, [r3]
 1106 005c 392B     		cmp	r3, #57
 1107 005e 06D9     		bls	.L39
ARM GAS  C:\Users\ADMINI~1.SC-\AppData\Local\Temp\ccVsST00.s 			page 26


 1108              		.loc 1 315 0 is_stmt 0 discriminator 1
 1109 0060 1723     		mov	r3, #23
 1110 0062 FB18     		add	r3, r7, r3
 1111 0064 1722     		mov	r2, #23
 1112 0066 BA18     		add	r2, r7, r2
 1113 0068 1278     		ldrb	r2, [r2]
 1114 006a 2732     		add	r2, r2, #39
 1115 006c 1A70     		strb	r2, [r3]
 1116              	.L39:
 316:app_protocol.c ****         pbDest[i*2] = ddh;
 1117              		.loc 1 316 0 is_stmt 1 discriminator 2
 1118 006e 3B69     		ldr	r3, [r7, #16]
 1119 0070 5B00     		lsl	r3, r3, #1
 1120 0072 1A1C     		mov	r2, r3
 1121 0074 FB68     		ldr	r3, [r7, #12]
 1122 0076 9B18     		add	r3, r3, r2
 1123 0078 1622     		mov	r2, #22
 1124 007a BA18     		add	r2, r7, r2
 1125 007c 1278     		ldrb	r2, [r2]
 1126 007e 1A70     		strb	r2, [r3]
 317:app_protocol.c ****         pbDest[i*2+1] = ddl;
 1127              		.loc 1 317 0 discriminator 2
 1128 0080 3B69     		ldr	r3, [r7, #16]
 1129 0082 5B00     		lsl	r3, r3, #1
 1130 0084 0133     		add	r3, r3, #1
 1131 0086 FA68     		ldr	r2, [r7, #12]
 1132 0088 D318     		add	r3, r2, r3
 1133 008a 1722     		mov	r2, #23
 1134 008c BA18     		add	r2, r7, r2
 1135 008e 1278     		ldrb	r2, [r2]
 1136 0090 1A70     		strb	r2, [r3]
 310:app_protocol.c ****     {
 1137              		.loc 1 310 0 discriminator 2
 1138 0092 3B69     		ldr	r3, [r7, #16]
 1139 0094 0133     		add	r3, r3, #1
 1140 0096 3B61     		str	r3, [r7, #16]
 1141              	.L37:
 310:app_protocol.c ****     {
 1142              		.loc 1 310 0 is_stmt 0 discriminator 1
 1143 0098 BB1D     		add	r3, r7, #6
 1144 009a 1A88     		ldrh	r2, [r3]
 1145 009c 3B69     		ldr	r3, [r7, #16]
 1146 009e 9A42     		cmp	r2, r3
 1147 00a0 B8DC     		bgt	.L40
 318:app_protocol.c ****     }
 319:app_protocol.c **** 
 320:app_protocol.c ****     pbDest[nLen*2] = '\0';
 1148              		.loc 1 320 0 is_stmt 1
 1149 00a2 BB1D     		add	r3, r7, #6
 1150 00a4 1B88     		ldrh	r3, [r3]
 1151 00a6 5B00     		lsl	r3, r3, #1
 1152 00a8 1A1C     		mov	r2, r3
 1153 00aa FB68     		ldr	r3, [r7, #12]
 1154 00ac 9B18     		add	r3, r3, r2
 1155 00ae 0022     		mov	r2, #0
 1156 00b0 1A70     		strb	r2, [r3]
 321:app_protocol.c **** }
ARM GAS  C:\Users\ADMINI~1.SC-\AppData\Local\Temp\ccVsST00.s 			page 27


 1157              		.loc 1 321 0
 1158 00b2 BD46     		mov	sp, r7
 1159 00b4 06B0     		add	sp, sp, #24
 1160              		@ sp needed
 1161 00b6 80BD     		pop	{r7, pc}
 1162              		.cfi_endproc
 1163              	.LFE46:
 1164              		.size	HexToStr, .-HexToStr
 1165              		.section	.text.test_md5,"ax",%progbits
 1166              		.align	2
 1167              		.global	test_md5
 1168              		.code	16
 1169              		.thumb_func
 1170              		.type	test_md5, %function
 1171              	test_md5:
 1172              	.LFB47:
 322:app_protocol.c **** 
 323:app_protocol.c **** /***********************************************
 324:app_protocol.c **** * 函数名：void test_md5(void)
 325:app_protocol.c **** * 描述  ：md5测试
 326:app_protocol.c **** ***********************************************/
 327:app_protocol.c **** void test_md5(void)
 328:app_protocol.c **** {
 1173              		.loc 1 328 0
 1174              		.cfi_startproc
 1175 0000 90B5     		push	{r4, r7, lr}
 1176              		.cfi_def_cfa_offset 12
 1177              		.cfi_offset 4, -12
 1178              		.cfi_offset 7, -8
 1179              		.cfi_offset 14, -4
 1180 0002 A9B0     		sub	sp, sp, #164
 1181              		.cfi_def_cfa_offset 176
 1182 0004 00AF     		add	r7, sp, #0
 1183              		.cfi_def_cfa_register 7
 329:app_protocol.c ****     uint8 key[16];  //hex
 330:app_protocol.c ****     char  dest_key[36];  //字符串
 331:app_protocol.c ****     
 332:app_protocol.c ****     unsigned char decrypt[16]; //生成的MD5标签
 333:app_protocol.c ****     MD5_CTX md5; 
 334:app_protocol.c ****     
 335:app_protocol.c ****     memcpy(key, key_str.dynamic_key, 8);  //high 8
 1184              		.loc 1 335 0
 1185 0006 9023     		mov	r3, #144
 1186 0008 FA18     		add	r2, r7, r3
 1187 000a 184B     		ldr	r3, .L42
 1188 000c 1033     		add	r3, r3, #16
 1189 000e 03CB     		ldmia	r3!, {r0, r1}
 1190 0010 03C2     		stmia	r2!, {r0, r1}
 336:app_protocol.c ****     memcpy(&key[8], key_str.ctrl_key, 8); //low 8
 1191              		.loc 1 336 0
 1192 0012 9023     		mov	r3, #144
 1193 0014 FB18     		add	r3, r7, r3
 1194 0016 154A     		ldr	r2, .L42
 1195 0018 0833     		add	r3, r3, #8
 1196 001a 0832     		add	r2, r2, #8
 1197 001c 03CA     		ldmia	r2!, {r0, r1}
 1198 001e 03C3     		stmia	r3!, {r0, r1}
ARM GAS  C:\Users\ADMINI~1.SC-\AppData\Local\Temp\ccVsST00.s 			page 28


 337:app_protocol.c ****     
 338:app_protocol.c ****     HexToStr(dest_key, key, 16);
 1199              		.loc 1 338 0
 1200 0020 6C23     		mov	r3, #108
 1201 0022 FA18     		add	r2, r7, r3
 1202 0024 9023     		mov	r3, #144
 1203 0026 FB18     		add	r3, r7, r3
 1204 0028 101C     		mov	r0, r2
 1205 002a 191C     		mov	r1, r3
 1206 002c 1022     		mov	r2, #16
 1207 002e FFF7FEFF 		bl	HexToStr
 339:app_protocol.c ****     
 340:app_protocol.c ****     MD5Init(&md5);                
 1208              		.loc 1 340 0
 1209 0032 3B1D     		add	r3, r7, #4
 1210 0034 181C     		mov	r0, r3
 1211 0036 FFF7FEFF 		bl	MD5Init
 341:app_protocol.c ****     MD5Update(&md5, (unsigned char *)dest_key, strlen((char *)dest_key));  
 1212              		.loc 1 341 0
 1213 003a 6C23     		mov	r3, #108
 1214 003c FB18     		add	r3, r7, r3
 1215 003e 181C     		mov	r0, r3
 1216 0040 FFF7FEFF 		bl	strlen
 1217 0044 041C     		mov	r4, r0
 1218 0046 3A1D     		add	r2, r7, #4
 1219 0048 6C23     		mov	r3, #108
 1220 004a FB18     		add	r3, r7, r3
 1221 004c 101C     		mov	r0, r2
 1222 004e 191C     		mov	r1, r3
 1223 0050 221C     		mov	r2, r4
 1224 0052 FFF7FEFF 		bl	MD5Update
 342:app_protocol.c ****     MD5Final(&md5, decrypt); //生成MD5标签
 1225              		.loc 1 342 0
 1226 0056 3A1D     		add	r2, r7, #4
 1227 0058 5C23     		mov	r3, #92
 1228 005a FB18     		add	r3, r7, r3
 1229 005c 101C     		mov	r0, r2
 1230 005e 191C     		mov	r1, r3
 1231 0060 FFF7FEFF 		bl	MD5Final
 343:app_protocol.c **** }
 1232              		.loc 1 343 0
 1233 0064 BD46     		mov	sp, r7
 1234 0066 29B0     		add	sp, sp, #164
 1235              		@ sp needed
 1236 0068 90BD     		pop	{r4, r7, pc}
 1237              	.L43:
 1238 006a C046     		.align	2
 1239              	.L42:
 1240 006c 00000000 		.word	key_str
 1241              		.cfi_endproc
 1242              	.LFE47:
 1243              		.size	test_md5, .-test_md5
 1244              		.section	.text.key_touch_lock_process,"ax",%progbits
 1245              		.align	2
 1246              		.global	key_touch_lock_process
 1247              		.code	16
 1248              		.thumb_func
ARM GAS  C:\Users\ADMINI~1.SC-\AppData\Local\Temp\ccVsST00.s 			page 29


 1249              		.type	key_touch_lock_process, %function
 1250              	key_touch_lock_process:
 1251              	.LFB48:
 344:app_protocol.c **** 
 345:app_protocol.c **** /***********************************************
 346:app_protocol.c **** * 函数名：void key_touch_lock_process(void)
 347:app_protocol.c **** * 描述  ：当钥匙接入锁孔时 发送03包给APP
 348:app_protocol.c **** ***********************************************/
 349:app_protocol.c **** void key_touch_lock_process(void)
 350:app_protocol.c **** {
 1252              		.loc 1 350 0
 1253              		.cfi_startproc
 1254 0000 80B5     		push	{r7, lr}
 1255              		.cfi_def_cfa_offset 8
 1256              		.cfi_offset 7, -8
 1257              		.cfi_offset 14, -4
 1258 0002 00AF     		add	r7, sp, #0
 1259              		.cfi_def_cfa_register 7
 351:app_protocol.c ****     if(lock_open_flag)
 1260              		.loc 1 351 0
 1261 0004 134B     		ldr	r3, .L47
 1262 0006 1B78     		ldrb	r3, [r3]
 1263 0008 002B     		cmp	r3, #0
 1264 000a 0BD0     		beq	.L45
 352:app_protocol.c ****     {
 353:app_protocol.c ****         if(lock_timeflow == 0) //允许开锁
 1265              		.loc 1 353 0
 1266 000c 124B     		ldr	r3, .L47+4
 1267 000e 1B88     		ldrh	r3, [r3]
 1268 0010 002B     		cmp	r3, #0
 1269 0012 07D1     		bne	.L45
 354:app_protocol.c ****         { 
 355:app_protocol.c ****            lock_timeflow  = 1; //
 1270              		.loc 1 355 0
 1271 0014 104B     		ldr	r3, .L47+4
 1272 0016 0122     		mov	r2, #1
 1273 0018 1A80     		strh	r2, [r3]
 356:app_protocol.c ****            lock_open_flag = 0;
 1274              		.loc 1 356 0
 1275 001a 0E4B     		ldr	r3, .L47
 1276 001c 0022     		mov	r2, #0
 1277 001e 1A70     		strb	r2, [r3]
 357:app_protocol.c ****            Hl_Back_Lock_Info(); //发送03包  当钥匙接入锁孔时发送  
 1278              		.loc 1 357 0
 1279 0020 FFF7FEFF 		bl	Hl_Back_Lock_Info
 1280              	.L45:
 358:app_protocol.c ****         }
 359:app_protocol.c ****     }
 360:app_protocol.c ****     
 361:app_protocol.c ****     if(lock_timeflow) //开启超时计数
 1281              		.loc 1 361 0
 1282 0024 0C4B     		ldr	r3, .L47+4
 1283 0026 1B88     		ldrh	r3, [r3]
 1284 0028 002B     		cmp	r3, #0
 1285 002a 11D0     		beq	.L44
 362:app_protocol.c ****     {
 363:app_protocol.c ****         if(++lock_timeflow > 2000)
ARM GAS  C:\Users\ADMINI~1.SC-\AppData\Local\Temp\ccVsST00.s 			page 30


 1286              		.loc 1 363 0
 1287 002c 0A4B     		ldr	r3, .L47+4
 1288 002e 1B88     		ldrh	r3, [r3]
 1289 0030 0133     		add	r3, r3, #1
 1290 0032 9AB2     		uxth	r2, r3
 1291 0034 084B     		ldr	r3, .L47+4
 1292 0036 1A80     		strh	r2, [r3]
 1293 0038 074B     		ldr	r3, .L47+4
 1294 003a 1A88     		ldrh	r2, [r3]
 1295 003c FA23     		mov	r3, #250
 1296 003e DB00     		lsl	r3, r3, #3
 1297 0040 9A42     		cmp	r2, r3
 1298 0042 05D9     		bls	.L44
 364:app_protocol.c ****         {
 365:app_protocol.c ****             lock_open_flag = 0; //允许再次开锁请求
 1299              		.loc 1 365 0
 1300 0044 034B     		ldr	r3, .L47
 1301 0046 0022     		mov	r2, #0
 1302 0048 1A70     		strb	r2, [r3]
 366:app_protocol.c ****             lock_timeflow = 0;  //
 1303              		.loc 1 366 0
 1304 004a 034B     		ldr	r3, .L47+4
 1305 004c 0022     		mov	r2, #0
 1306 004e 1A80     		strh	r2, [r3]
 1307              	.L44:
 367:app_protocol.c ****         }
 368:app_protocol.c ****     }
 369:app_protocol.c **** }
 1308              		.loc 1 369 0
 1309 0050 BD46     		mov	sp, r7
 1310              		@ sp needed
 1311 0052 80BD     		pop	{r7, pc}
 1312              	.L48:
 1313              		.align	2
 1314              	.L47:
 1315 0054 01000000 		.word	lock_open_flag
 1316 0058 02000000 		.word	lock_timeflow
 1317              		.cfi_endproc
 1318              	.LFE48:
 1319              		.size	key_touch_lock_process, .-key_touch_lock_process
 1320              		.section	.text.key_touch_lock_flag_set,"ax",%progbits
 1321              		.align	2
 1322              		.global	key_touch_lock_flag_set
 1323              		.code	16
 1324              		.thumb_func
 1325              		.type	key_touch_lock_flag_set, %function
 1326              	key_touch_lock_flag_set:
 1327              	.LFB49:
 370:app_protocol.c **** 
 371:app_protocol.c **** void key_touch_lock_flag_set(void)
 372:app_protocol.c **** {
 1328              		.loc 1 372 0
 1329              		.cfi_startproc
 1330 0000 80B5     		push	{r7, lr}
 1331              		.cfi_def_cfa_offset 8
 1332              		.cfi_offset 7, -8
 1333              		.cfi_offset 14, -4
ARM GAS  C:\Users\ADMINI~1.SC-\AppData\Local\Temp\ccVsST00.s 			page 31


 1334 0002 00AF     		add	r7, sp, #0
 1335              		.cfi_def_cfa_register 7
 373:app_protocol.c ****     lock_open_flag = 1;
 1336              		.loc 1 373 0
 1337 0004 024B     		ldr	r3, .L50
 1338 0006 0122     		mov	r2, #1
 1339 0008 1A70     		strb	r2, [r3]
 374:app_protocol.c **** }
 1340              		.loc 1 374 0
 1341 000a BD46     		mov	sp, r7
 1342              		@ sp needed
 1343 000c 80BD     		pop	{r7, pc}
 1344              	.L51:
 1345 000e C046     		.align	2
 1346              	.L50:
 1347 0010 01000000 		.word	lock_open_flag
 1348              		.cfi_endproc
 1349              	.LFE49:
 1350              		.size	key_touch_lock_flag_set, .-key_touch_lock_flag_set
 1351              		.section	.text.ReceiveBleCmd,"ax",%progbits
 1352              		.align	2
 1353              		.global	ReceiveBleCmd
 1354              		.code	16
 1355              		.thumb_func
 1356              		.type	ReceiveBleCmd, %function
 1357              	ReceiveBleCmd:
 1358              	.LFB50:
 375:app_protocol.c **** 
 376:app_protocol.c **** 
 377:app_protocol.c **** /***********************************************
 378:app_protocol.c **** * 函数名：void ReceiveBleCmd(void)
 379:app_protocol.c **** * 描述  ：处理蓝牙接收指令
 380:app_protocol.c **** ***********************************************/
 381:app_protocol.c **** void ReceiveBleCmd(void)
 382:app_protocol.c **** {
 1359              		.loc 1 382 0
 1360              		.cfi_startproc
 1361 0000 90B5     		push	{r4, r7, lr}
 1362              		.cfi_def_cfa_offset 12
 1363              		.cfi_offset 4, -12
 1364              		.cfi_offset 7, -8
 1365              		.cfi_offset 14, -4
 1366 0002 87B0     		sub	sp, sp, #28
 1367              		.cfi_def_cfa_offset 40
 1368 0004 00AF     		add	r7, sp, #0
 1369              		.cfi_def_cfa_register 7
 383:app_protocol.c ****     uint8 cmd, datalen;
 384:app_protocol.c ****     uint8 data_crc,check_crc;
 385:app_protocol.c ****     
 386:app_protocol.c ****     uint8 packet_rx[20];
 387:app_protocol.c ****     
 388:app_protocol.c ****     if(packetRXFlag)
 1370              		.loc 1 388 0
 1371 0006 3A4B     		ldr	r3, .L63
 1372 0008 1B68     		ldr	r3, [r3]
 1373 000a 002B     		cmp	r3, #0
 1374 000c 6DD0     		beq	.L52
ARM GAS  C:\Users\ADMINI~1.SC-\AppData\Local\Temp\ccVsST00.s 			page 32


 389:app_protocol.c ****     {
 390:app_protocol.c ****         packetRXFlag=0;         
 1375              		.loc 1 390 0
 1376 000e 384B     		ldr	r3, .L63
 1377 0010 0022     		mov	r2, #0
 1378 0012 1A60     		str	r2, [r3]
 391:app_protocol.c ****         memcpy(packet_rx, packetRX, packetRXSize);
 1379              		.loc 1 391 0
 1380 0014 374B     		ldr	r3, .L63+4
 1381 0016 1B68     		ldr	r3, [r3]
 1382 0018 391C     		mov	r1, r7
 1383 001a 374A     		ldr	r2, .L63+8
 1384 001c 081C     		mov	r0, r1
 1385 001e 111C     		mov	r1, r2
 1386 0020 1A1C     		mov	r2, r3
 1387 0022 FFF7FEFF 		bl	memcpy
 392:app_protocol.c ****         memset(packetTX, 0, sizeof(packetTX));
 1388              		.loc 1 392 0
 1389 0026 354B     		ldr	r3, .L63+12
 1390 0028 181C     		mov	r0, r3
 1391 002a 0021     		mov	r1, #0
 1392 002c 1422     		mov	r2, #20
 1393 002e FFF7FEFF 		bl	memset
 393:app_protocol.c ****         cmd = packet_rx[0];
 1394              		.loc 1 393 0
 1395 0032 1723     		mov	r3, #23
 1396 0034 FB18     		add	r3, r7, r3
 1397 0036 3A1C     		mov	r2, r7
 1398 0038 1278     		ldrb	r2, [r2]
 1399 003a 1A70     		strb	r2, [r3]
 394:app_protocol.c ****         datalen = packet_rx[1];
 1400              		.loc 1 394 0
 1401 003c 1623     		mov	r3, #22
 1402 003e FB18     		add	r3, r7, r3
 1403 0040 3A1C     		mov	r2, r7
 1404 0042 5278     		ldrb	r2, [r2, #1]
 1405 0044 1A70     		strb	r2, [r3]
 395:app_protocol.c ****         
 396:app_protocol.c ****         check_crc = Xor_Check(&packet_rx[2], datalen);     //检查校验
 1406              		.loc 1 396 0
 1407 0046 1523     		mov	r3, #21
 1408 0048 FC18     		add	r4, r7, r3
 1409 004a 3B1C     		mov	r3, r7
 1410 004c 9A1C     		add	r2, r3, #2
 1411 004e 1623     		mov	r3, #22
 1412 0050 FB18     		add	r3, r7, r3
 1413 0052 1B78     		ldrb	r3, [r3]
 1414 0054 101C     		mov	r0, r2
 1415 0056 191C     		mov	r1, r3
 1416 0058 FFF7FEFF 		bl	Xor_Check
 1417 005c 031C     		mov	r3, r0
 1418 005e 2370     		strb	r3, [r4]
 397:app_protocol.c ****         data_crc = packet_rx[2 + datalen];
 1419              		.loc 1 397 0
 1420 0060 1623     		mov	r3, #22
 1421 0062 FB18     		add	r3, r7, r3
 1422 0064 1B78     		ldrb	r3, [r3]
ARM GAS  C:\Users\ADMINI~1.SC-\AppData\Local\Temp\ccVsST00.s 			page 33


 1423 0066 9A1C     		add	r2, r3, #2
 1424 0068 1423     		mov	r3, #20
 1425 006a FB18     		add	r3, r7, r3
 1426 006c 391C     		mov	r1, r7
 1427 006e 8A5C     		ldrb	r2, [r1, r2]
 1428 0070 1A70     		strb	r2, [r3]
 398:app_protocol.c ****         
 399:app_protocol.c ****  //       if(check_crc == data_crc)
 400:app_protocol.c ****         {
 401:app_protocol.c ****             switch(cmd)
 1429              		.loc 1 401 0
 1430 0072 1723     		mov	r3, #23
 1431 0074 FB18     		add	r3, r7, r3
 1432 0076 1B78     		ldrb	r3, [r3]
 1433 0078 072B     		cmp	r3, #7
 1434 007a 35D8     		bhi	.L62
 1435 007c 9A00     		lsl	r2, r3, #2
 1436 007e 204B     		ldr	r3, .L63+16
 1437 0080 D318     		add	r3, r2, r3
 1438 0082 1B68     		ldr	r3, [r3]
 1439 0084 9F46     		mov	pc, r3
 1440              		.section	.rodata
 1441              		.align	2
 1442              	.L56:
 1443 0000 E8000000 		.word	.L62
 1444 0004 86000000 		.word	.L55
 1445 0008 8C000000 		.word	.L57
 1446 000c E8000000 		.word	.L62
 1447 0010 B2000000 		.word	.L58
 1448 0014 B8000000 		.word	.L59
 1449 0018 C8000000 		.word	.L60
 1450 001c D8000000 		.word	.L61
 1451              		.section	.text.ReceiveBleCmd
 1452              	.L55:
 402:app_protocol.c ****             {
 403:app_protocol.c ****                 case CMD_GET_KEYINFO:
 404:app_protocol.c ****                 Hl_Back_KeyInfo();
 1453              		.loc 1 404 0
 1454 0086 FFF7FEFF 		bl	Hl_Back_KeyInfo
 405:app_protocol.c ****                 break;
 1455              		.loc 1 405 0
 1456 008a 2EE0     		b	.L52
 1457              	.L57:
 406:app_protocol.c ****                 
 407:app_protocol.c ****                 case CMD_DYNAMIC_KEY: 
 408:app_protocol.c ****                 memcpy(key_str.dynamic_key, &packet_rx[2], 8); //获得动态密钥
 1458              		.loc 1 408 0
 1459 008c 1D4A     		ldr	r2, .L63+20
 1460 008e 3B1C     		mov	r3, r7
 1461 0090 0221     		mov	r1, #2
 1462 0092 1032     		add	r2, r2, #16
 1463 0094 5B18     		add	r3, r3, r1
 1464 0096 0824     		mov	r4, #8
 1465 0098 101C     		mov	r0, r2
 1466 009a 191C     		mov	r1, r3
 1467 009c 221C     		mov	r2, r4
 1468 009e FFF7FEFF 		bl	memcpy
ARM GAS  C:\Users\ADMINI~1.SC-\AppData\Local\Temp\ccVsST00.s 			page 34


 409:app_protocol.c ****                 
 410:app_protocol.c ****                 Hl_Back_Msg(cmd, 1); //响应02包
 1469              		.loc 1 410 0
 1470 00a2 1723     		mov	r3, #23
 1471 00a4 FB18     		add	r3, r7, r3
 1472 00a6 1B78     		ldrb	r3, [r3]
 1473 00a8 181C     		mov	r0, r3
 1474 00aa 0121     		mov	r1, #1
 1475 00ac FFF7FEFF 		bl	Hl_Back_Msg
 411:app_protocol.c ****                 break;
 1476              		.loc 1 411 0
 1477 00b0 1BE0     		b	.L52
 1478              	.L58:
 412:app_protocol.c ****                 
 413:app_protocol.c ****                 case CMD_LOCK_OPEN:
 414:app_protocol.c ****                 Hl_Back_Lock_Open();
 1479              		.loc 1 414 0
 1480 00b2 FFF7FEFF 		bl	Hl_Back_Lock_Open
 415:app_protocol.c ****                 break;
 1481              		.loc 1 415 0
 1482 00b6 18E0     		b	.L52
 1483              	.L59:
 416:app_protocol.c ****                 
 417:app_protocol.c ****                 case CMD_RESET_KEY:
 418:app_protocol.c ****                  Hl_Back_Msg(cmd, 1);
 1484              		.loc 1 418 0
 1485 00b8 1723     		mov	r3, #23
 1486 00ba FB18     		add	r3, r7, r3
 1487 00bc 1B78     		ldrb	r3, [r3]
 1488 00be 181C     		mov	r0, r3
 1489 00c0 0121     		mov	r1, #1
 1490 00c2 FFF7FEFF 		bl	Hl_Back_Msg
 419:app_protocol.c ****                 break;
 1491              		.loc 1 419 0
 1492 00c6 10E0     		b	.L52
 1493              	.L60:
 420:app_protocol.c ****                 
 421:app_protocol.c ****                 case CMD_RESET_LOCKID:
 422:app_protocol.c ****                  Hl_Back_Msg(cmd, 1);
 1494              		.loc 1 422 0
 1495 00c8 1723     		mov	r3, #23
 1496 00ca FB18     		add	r3, r7, r3
 1497 00cc 1B78     		ldrb	r3, [r3]
 1498 00ce 181C     		mov	r0, r3
 1499 00d0 0121     		mov	r1, #1
 1500 00d2 FFF7FEFF 		bl	Hl_Back_Msg
 423:app_protocol.c ****                 break;
 1501              		.loc 1 423 0
 1502 00d6 08E0     		b	.L52
 1503              	.L61:
 424:app_protocol.c ****                 
 425:app_protocol.c ****                 case CMD_RESET_KEYID:
 426:app_protocol.c ****                  Hl_Back_Msg(cmd, 1);
 1504              		.loc 1 426 0
 1505 00d8 1723     		mov	r3, #23
 1506 00da FB18     		add	r3, r7, r3
 1507 00dc 1B78     		ldrb	r3, [r3]
ARM GAS  C:\Users\ADMINI~1.SC-\AppData\Local\Temp\ccVsST00.s 			page 35


 1508 00de 181C     		mov	r0, r3
 1509 00e0 0121     		mov	r1, #1
 1510 00e2 FFF7FEFF 		bl	Hl_Back_Msg
 427:app_protocol.c ****                 break;
 1511              		.loc 1 427 0
 1512 00e6 00E0     		b	.L52
 1513              	.L62:
 428:app_protocol.c ****                 
 429:app_protocol.c ****                 default:
 430:app_protocol.c ****                 break;
 1514              		.loc 1 430 0
 1515 00e8 C046     		mov	r8, r8
 1516              	.L52:
 431:app_protocol.c ****             }
 432:app_protocol.c ****         }
 433:app_protocol.c **** 
 434:app_protocol.c ****     }
 435:app_protocol.c ****     
 436:app_protocol.c ****     //test_03packet();
 437:app_protocol.c **** }
 1517              		.loc 1 437 0
 1518 00ea BD46     		mov	sp, r7
 1519 00ec 07B0     		add	sp, sp, #28
 1520              		@ sp needed
 1521 00ee 90BD     		pop	{r4, r7, pc}
 1522              	.L64:
 1523              		.align	2
 1524              	.L63:
 1525 00f0 00000000 		.word	packetRXFlag
 1526 00f4 00000000 		.word	packetRXSize
 1527 00f8 00000000 		.word	packetRX
 1528 00fc 00000000 		.word	packetTX
 1529 0100 00000000 		.word	.L56
 1530 0104 00000000 		.word	key_str
 1531              		.cfi_endproc
 1532              	.LFE50:
 1533              		.size	ReceiveBleCmd, .-ReceiveBleCmd
 1534              		.section	.text.SendBleCmd,"ax",%progbits
 1535              		.align	2
 1536              		.global	SendBleCmd
 1537              		.code	16
 1538              		.thumb_func
 1539              		.type	SendBleCmd, %function
 1540              	SendBleCmd:
 1541              	.LFB51:
 438:app_protocol.c **** 
 439:app_protocol.c **** 
 440:app_protocol.c **** /***********************************************
 441:app_protocol.c **** * 函数名：void SendBleCmd(void)
 442:app_protocol.c **** * 描述  ：处理蓝牙发送指令
 443:app_protocol.c **** ***********************************************/
 444:app_protocol.c **** void SendBleCmd(void)
 445:app_protocol.c **** {
 1542              		.loc 1 445 0
 1543              		.cfi_startproc
 1544 0000 80B5     		push	{r7, lr}
 1545              		.cfi_def_cfa_offset 8
ARM GAS  C:\Users\ADMINI~1.SC-\AppData\Local\Temp\ccVsST00.s 			page 36


 1546              		.cfi_offset 7, -8
 1547              		.cfi_offset 14, -4
 1548 0002 00AF     		add	r7, sp, #0
 1549              		.cfi_def_cfa_register 7
 446:app_protocol.c ****     switch(packetTXStep)
 1550              		.loc 1 446 0
 1551 0004 0E4B     		ldr	r3, .L72
 1552 0006 1B78     		ldrb	r3, [r3]
 1553 0008 012B     		cmp	r3, #1
 1554 000a 04D0     		beq	.L67
 1555 000c 022B     		cmp	r3, #2
 1556 000e 08D0     		beq	.L68
 1557 0010 002B     		cmp	r3, #0
 1558 0012 12D0     		beq	.L71
 447:app_protocol.c ****     {
 448:app_protocol.c ****         case BLE_IDLE:
 449:app_protocol.c ****             break;
 450:app_protocol.c ****         
 451:app_protocol.c ****         case Send_Lock_Info:
 452:app_protocol.c ****             Send_LockInfo();
 453:app_protocol.c ****             packetTXStep = BLE_IDLE;
 454:app_protocol.c ****             break;
 455:app_protocol.c ****         
 456:app_protocol.c ****         case Reply_OpenLock:
 457:app_protocol.c ****             packetTXStep = BLE_IDLE;
 458:app_protocol.c ****             Com_Array.Tx_State = RE_REQUEST;
 459:app_protocol.c ****             Back_Massage_Minwen(OPEN_LOCK_CMD,PRO_SUCCESS);
 460:app_protocol.c ****             break;
 461:app_protocol.c ****         
 462:app_protocol.c ****         default:
 463:app_protocol.c ****             break;     
 1559              		.loc 1 463 0
 1560 0014 12E0     		b	.L65
 1561              	.L67:
 452:app_protocol.c ****             packetTXStep = BLE_IDLE;
 1562              		.loc 1 452 0
 1563 0016 FFF7FEFF 		bl	Send_LockInfo
 453:app_protocol.c ****             break;
 1564              		.loc 1 453 0
 1565 001a 094B     		ldr	r3, .L72
 1566 001c 0022     		mov	r2, #0
 1567 001e 1A70     		strb	r2, [r3]
 454:app_protocol.c ****         
 1568              		.loc 1 454 0
 1569 0020 0CE0     		b	.L65
 1570              	.L68:
 457:app_protocol.c ****             Com_Array.Tx_State = RE_REQUEST;
 1571              		.loc 1 457 0
 1572 0022 074B     		ldr	r3, .L72
 1573 0024 0022     		mov	r2, #0
 1574 0026 1A70     		strb	r2, [r3]
 458:app_protocol.c ****             Back_Massage_Minwen(OPEN_LOCK_CMD,PRO_SUCCESS);
 1575              		.loc 1 458 0
 1576 0028 064B     		ldr	r3, .L72+4
 1577 002a 6C22     		mov	r2, #108
 1578 002c 1021     		mov	r1, #16
 1579 002e 9954     		strb	r1, [r3, r2]
ARM GAS  C:\Users\ADMINI~1.SC-\AppData\Local\Temp\ccVsST00.s 			page 37


 459:app_protocol.c ****             break;
 1580              		.loc 1 459 0
 1581 0030 0720     		mov	r0, #7
 1582 0032 0021     		mov	r1, #0
 1583 0034 FFF7FEFF 		bl	Back_Massage_Minwen
 460:app_protocol.c ****         
 1584              		.loc 1 460 0
 1585 0038 00E0     		b	.L65
 1586              	.L71:
 449:app_protocol.c ****         
 1587              		.loc 1 449 0
 1588 003a C046     		mov	r8, r8
 1589              	.L65:
 464:app_protocol.c ****     }
 465:app_protocol.c **** }
 1590              		.loc 1 465 0
 1591 003c BD46     		mov	sp, r7
 1592              		@ sp needed
 1593 003e 80BD     		pop	{r7, pc}
 1594              	.L73:
 1595              		.align	2
 1596              	.L72:
 1597 0040 00000000 		.word	packetTXStep
 1598 0044 00000000 		.word	Com_Array
 1599              		.cfi_endproc
 1600              	.LFE51:
 1601              		.size	SendBleCmd, .-SendBleCmd
 1602              		.section	.text.comCalCRC16,"ax",%progbits
 1603              		.align	2
 1604              		.global	comCalCRC16
 1605              		.code	16
 1606              		.thumb_func
 1607              		.type	comCalCRC16, %function
 1608              	comCalCRC16:
 1609              	.LFB52:
 466:app_protocol.c **** 
 467:app_protocol.c **** /***********************************************
 468:app_protocol.c **** * 函数名：uint16 comCalCRC16(uint8 *pucBuf, uint8 uwLength)
 469:app_protocol.c **** * 描述  ：CRC16校验
 470:app_protocol.c **** ***********************************************/
 471:app_protocol.c **** uint16 comCalCRC16(uint8 *pucBuf, uint8 uwLength)
 472:app_protocol.c **** {
 1610              		.loc 1 472 0
 1611              		.cfi_startproc
 1612 0000 80B5     		push	{r7, lr}
 1613              		.cfi_def_cfa_offset 8
 1614              		.cfi_offset 7, -8
 1615              		.cfi_offset 14, -4
 1616 0002 84B0     		sub	sp, sp, #16
 1617              		.cfi_def_cfa_offset 24
 1618 0004 00AF     		add	r7, sp, #0
 1619              		.cfi_def_cfa_register 7
 1620 0006 7860     		str	r0, [r7, #4]
 1621 0008 0A1C     		mov	r2, r1
 1622 000a FB1C     		add	r3, r7, #3
 1623 000c 1A70     		strb	r2, [r3]
 473:app_protocol.c ****     uint16 uiCRCValue=0xffff;
ARM GAS  C:\Users\ADMINI~1.SC-\AppData\Local\Temp\ccVsST00.s 			page 38


 1624              		.loc 1 473 0
 1625 000e 0E23     		mov	r3, #14
 1626 0010 FB18     		add	r3, r7, r3
 1627 0012 0122     		mov	r2, #1
 1628 0014 5242     		neg	r2, r2
 1629 0016 1A80     		strh	r2, [r3]
 474:app_protocol.c ****     uint8 ucLoop;
 475:app_protocol.c ****     uint8 * pu8Buf = (uint8 *)pucBuf;
 1630              		.loc 1 475 0
 1631 0018 7B68     		ldr	r3, [r7, #4]
 1632 001a BB60     		str	r3, [r7, #8]
 476:app_protocol.c ****     while (uwLength--)
 1633              		.loc 1 476 0
 1634 001c 39E0     		b	.L75
 1635              	.L80:
 477:app_protocol.c ****     {
 478:app_protocol.c ****         uiCRCValue ^= *pu8Buf++;
 1636              		.loc 1 478 0
 1637 001e BB68     		ldr	r3, [r7, #8]
 1638 0020 5A1C     		add	r2, r3, #1
 1639 0022 BA60     		str	r2, [r7, #8]
 1640 0024 1B78     		ldrb	r3, [r3]
 1641 0026 99B2     		uxth	r1, r3
 1642 0028 0E23     		mov	r3, #14
 1643 002a FB18     		add	r3, r7, r3
 1644 002c 0E22     		mov	r2, #14
 1645 002e BA18     		add	r2, r7, r2
 1646 0030 1288     		ldrh	r2, [r2]
 1647 0032 4A40     		eor	r2, r1
 1648 0034 1A80     		strh	r2, [r3]
 479:app_protocol.c ****         for (ucLoop=0; ucLoop<8; ucLoop++)
 1649              		.loc 1 479 0
 1650 0036 0D23     		mov	r3, #13
 1651 0038 FB18     		add	r3, r7, r3
 1652 003a 0022     		mov	r2, #0
 1653 003c 1A70     		strb	r2, [r3]
 1654 003e 23E0     		b	.L76
 1655              	.L79:
 480:app_protocol.c ****         {
 481:app_protocol.c ****             if (uiCRCValue & 0x0001)
 1656              		.loc 1 481 0
 1657 0040 0E23     		mov	r3, #14
 1658 0042 FB18     		add	r3, r7, r3
 1659 0044 1B88     		ldrh	r3, [r3]
 1660 0046 0122     		mov	r2, #1
 1661 0048 1340     		and	r3, r2
 1662 004a 0FD0     		beq	.L77
 482:app_protocol.c ****             {
 483:app_protocol.c ****                 uiCRCValue >>= 1;
 1663              		.loc 1 483 0
 1664 004c 0E23     		mov	r3, #14
 1665 004e FB18     		add	r3, r7, r3
 1666 0050 0E22     		mov	r2, #14
 1667 0052 BA18     		add	r2, r7, r2
 1668 0054 1288     		ldrh	r2, [r2]
 1669 0056 5208     		lsr	r2, r2, #1
 1670 0058 1A80     		strh	r2, [r3]
ARM GAS  C:\Users\ADMINI~1.SC-\AppData\Local\Temp\ccVsST00.s 			page 39


 484:app_protocol.c ****                 uiCRCValue ^= CRC_POLY;
 1671              		.loc 1 484 0
 1672 005a 0E23     		mov	r3, #14
 1673 005c FB18     		add	r3, r7, r3
 1674 005e 0E22     		mov	r2, #14
 1675 0060 BA18     		add	r2, r7, r2
 1676 0062 1288     		ldrh	r2, [r2]
 1677 0064 1549     		ldr	r1, .L82
 1678 0066 4A40     		eor	r2, r1
 1679 0068 1A80     		strh	r2, [r3]
 1680 006a 06E0     		b	.L78
 1681              	.L77:
 485:app_protocol.c ****             }
 486:app_protocol.c ****             else
 487:app_protocol.c ****             {
 488:app_protocol.c ****                 uiCRCValue >>= 1;
 1682              		.loc 1 488 0
 1683 006c 0E23     		mov	r3, #14
 1684 006e FB18     		add	r3, r7, r3
 1685 0070 0E22     		mov	r2, #14
 1686 0072 BA18     		add	r2, r7, r2
 1687 0074 1288     		ldrh	r2, [r2]
 1688 0076 5208     		lsr	r2, r2, #1
 1689 0078 1A80     		strh	r2, [r3]
 1690              	.L78:
 479:app_protocol.c ****         {
 1691              		.loc 1 479 0 discriminator 2
 1692 007a 0D23     		mov	r3, #13
 1693 007c FB18     		add	r3, r7, r3
 1694 007e 1A78     		ldrb	r2, [r3]
 1695 0080 0D23     		mov	r3, #13
 1696 0082 FB18     		add	r3, r7, r3
 1697 0084 0132     		add	r2, r2, #1
 1698 0086 1A70     		strb	r2, [r3]
 1699              	.L76:
 479:app_protocol.c ****         {
 1700              		.loc 1 479 0 is_stmt 0 discriminator 1
 1701 0088 0D23     		mov	r3, #13
 1702 008a FB18     		add	r3, r7, r3
 1703 008c 1B78     		ldrb	r3, [r3]
 1704 008e 072B     		cmp	r3, #7
 1705 0090 D6D9     		bls	.L79
 1706              	.L75:
 476:app_protocol.c ****     {
 1707              		.loc 1 476 0 is_stmt 1
 1708 0092 FB1C     		add	r3, r7, #3
 1709 0094 1B78     		ldrb	r3, [r3]
 1710 0096 FA1C     		add	r2, r7, #3
 1711 0098 591E     		sub	r1, r3, #1
 1712 009a 1170     		strb	r1, [r2]
 1713 009c 002B     		cmp	r3, #0
 1714 009e BED1     		bne	.L80
 489:app_protocol.c ****             }
 490:app_protocol.c ****         }
 491:app_protocol.c ****     }
 492:app_protocol.c ****     uiCRCValue ^= 0x0000;
 1715              		.loc 1 492 0
ARM GAS  C:\Users\ADMINI~1.SC-\AppData\Local\Temp\ccVsST00.s 			page 40


 1716 00a0 0E23     		mov	r3, #14
 1717 00a2 FB18     		add	r3, r7, r3
 1718 00a4 0E22     		mov	r2, #14
 1719 00a6 BA18     		add	r2, r7, r2
 1720 00a8 1288     		ldrh	r2, [r2]
 1721 00aa 1A80     		strh	r2, [r3]
 493:app_protocol.c ****     return uiCRCValue;
 1722              		.loc 1 493 0
 1723 00ac 0E23     		mov	r3, #14
 1724 00ae FB18     		add	r3, r7, r3
 1725 00b0 1B88     		ldrh	r3, [r3]
 494:app_protocol.c **** }
 1726              		.loc 1 494 0
 1727 00b2 181C     		mov	r0, r3
 1728 00b4 BD46     		mov	sp, r7
 1729 00b6 04B0     		add	sp, sp, #16
 1730              		@ sp needed
 1731 00b8 80BD     		pop	{r7, pc}
 1732              	.L83:
 1733 00ba C046     		.align	2
 1734              	.L82:
 1735 00bc 01A0FFFF 		.word	-24575
 1736              		.cfi_endproc
 1737              	.LFE52:
 1738              		.size	comCalCRC16, .-comCalCRC16
 1739              		.section	.text.Xor_Check,"ax",%progbits
 1740              		.align	2
 1741              		.global	Xor_Check
 1742              		.code	16
 1743              		.thumb_func
 1744              		.type	Xor_Check, %function
 1745              	Xor_Check:
 1746              	.LFB53:
 495:app_protocol.c **** 
 496:app_protocol.c **** /*****************************
 497:app_protocol.c ****  * @function_name: uint8 Xor_Check(uint8 *Data, uint8 Length)
 498:app_protocol.c ****  * @function_file: xxxx.c
 499:app_protocol.c ****  * @描  述：       指定长度数组异或校验计算，XOR 
 500:app_protocol.c ****  *
 501:app_protocol.c ****  * @参  数：       *Data：输入待校验的数据流， Length：数据长度 
 502:app_protocol.c ****  * @返  回：       异或校验和
 503:app_protocol.c ****  * @备  注：	   校验计算长度为1字节，值位数据内容区的所有数据异或值，
 504:app_protocol.c ****                括包号，指令编号和数据内容长度 
 505:app_protocol.c ****  * @举  例 
 506:app_protocol.c ****  T    L        V         C
 507:app_protocol.c **** 02  0003      010200    03
 508:app_protocol.c **** *data = 0x01 0x02 0x00
 509:app_protocol.c **** length= 0x03
 510:app_protocol.c **** sum  = 0x03
 511:app_protocol.c **** *********************************/
 512:app_protocol.c **** uint8 Xor_Check(uint8 *Data, uint8 Length)
 513:app_protocol.c **** {
 1747              		.loc 1 513 0
 1748              		.cfi_startproc
 1749 0000 80B5     		push	{r7, lr}
 1750              		.cfi_def_cfa_offset 8
 1751              		.cfi_offset 7, -8
ARM GAS  C:\Users\ADMINI~1.SC-\AppData\Local\Temp\ccVsST00.s 			page 41


 1752              		.cfi_offset 14, -4
 1753 0002 84B0     		sub	sp, sp, #16
 1754              		.cfi_def_cfa_offset 24
 1755 0004 00AF     		add	r7, sp, #0
 1756              		.cfi_def_cfa_register 7
 1757 0006 7860     		str	r0, [r7, #4]
 1758 0008 0A1C     		mov	r2, r1
 1759 000a FB1C     		add	r3, r7, #3
 1760 000c 1A70     		strb	r2, [r3]
 514:app_protocol.c ****     uint8 sum=0,i;
 1761              		.loc 1 514 0
 1762 000e 0F23     		mov	r3, #15
 1763 0010 FB18     		add	r3, r7, r3
 1764 0012 0022     		mov	r2, #0
 1765 0014 1A70     		strb	r2, [r3]
 515:app_protocol.c ****     for(i=0; i<Length; i++)
 1766              		.loc 1 515 0
 1767 0016 0E23     		mov	r3, #14
 1768 0018 FB18     		add	r3, r7, r3
 1769 001a 0022     		mov	r2, #0
 1770 001c 1A70     		strb	r2, [r3]
 1771 001e 13E0     		b	.L85
 1772              	.L86:
 516:app_protocol.c ****     {
 517:app_protocol.c ****     sum ^= *(Data + i);	
 1773              		.loc 1 517 0 discriminator 3
 1774 0020 0E23     		mov	r3, #14
 1775 0022 FB18     		add	r3, r7, r3
 1776 0024 1B78     		ldrb	r3, [r3]
 1777 0026 7A68     		ldr	r2, [r7, #4]
 1778 0028 D318     		add	r3, r2, r3
 1779 002a 1978     		ldrb	r1, [r3]
 1780 002c 0F23     		mov	r3, #15
 1781 002e FB18     		add	r3, r7, r3
 1782 0030 0F22     		mov	r2, #15
 1783 0032 BA18     		add	r2, r7, r2
 1784 0034 1278     		ldrb	r2, [r2]
 1785 0036 4A40     		eor	r2, r1
 1786 0038 1A70     		strb	r2, [r3]
 515:app_protocol.c ****     for(i=0; i<Length; i++)
 1787              		.loc 1 515 0 discriminator 3
 1788 003a 0E23     		mov	r3, #14
 1789 003c FB18     		add	r3, r7, r3
 1790 003e 1A78     		ldrb	r2, [r3]
 1791 0040 0E23     		mov	r3, #14
 1792 0042 FB18     		add	r3, r7, r3
 1793 0044 0132     		add	r2, r2, #1
 1794 0046 1A70     		strb	r2, [r3]
 1795              	.L85:
 515:app_protocol.c ****     for(i=0; i<Length; i++)
 1796              		.loc 1 515 0 is_stmt 0 discriminator 1
 1797 0048 0E23     		mov	r3, #14
 1798 004a FA18     		add	r2, r7, r3
 1799 004c FB1C     		add	r3, r7, #3
 1800 004e 1278     		ldrb	r2, [r2]
 1801 0050 1B78     		ldrb	r3, [r3]
 1802 0052 9A42     		cmp	r2, r3
ARM GAS  C:\Users\ADMINI~1.SC-\AppData\Local\Temp\ccVsST00.s 			page 42


 1803 0054 E4D3     		bcc	.L86
 518:app_protocol.c ****     }
 519:app_protocol.c ****     return sum;
 1804              		.loc 1 519 0 is_stmt 1
 1805 0056 0F23     		mov	r3, #15
 1806 0058 FB18     		add	r3, r7, r3
 1807 005a 1B78     		ldrb	r3, [r3]
 520:app_protocol.c **** }
 1808              		.loc 1 520 0
 1809 005c 181C     		mov	r0, r3
 1810 005e BD46     		mov	sp, r7
 1811 0060 04B0     		add	sp, sp, #16
 1812              		@ sp needed
 1813 0062 80BD     		pop	{r7, pc}
 1814              		.cfi_endproc
 1815              	.LFE53:
 1816              		.size	Xor_Check, .-Xor_Check
 1817              		.global	__aeabi_idivmod
 1818              		.section	.text.App_RC4,"ax",%progbits
 1819              		.align	2
 1820              		.global	App_RC4
 1821              		.code	16
 1822              		.thumb_func
 1823              		.type	App_RC4, %function
 1824              	App_RC4:
 1825              	.LFB54:
 521:app_protocol.c **** 
 522:app_protocol.c **** /***********************************************************
 523:app_protocol.c **** * @function_name: void Load_System_Config(void)
 524:app_protocol.c **** * @function_file: AppProtocol.c
 525:app_protocol.c **** * @描  述：北京APP rc4加密算法
 526:app_protocol.c **** * @参  数：
 527:app_protocol.c **** * @返  回： void
 528:app_protocol.c **** **********************************************************/
 529:app_protocol.c **** void App_RC4(uint8 *key,uint8 key_leng, uint8 *buf, uint8 len)
 530:app_protocol.c **** {
 1826              		.loc 1 530 0
 1827              		.cfi_startproc
 1828 0000 90B5     		push	{r4, r7, lr}
 1829              		.cfi_def_cfa_offset 12
 1830              		.cfi_offset 4, -12
 1831              		.cfi_offset 7, -8
 1832              		.cfi_offset 14, -4
 1833 0002 C14C     		ldr	r4, .L100
 1834 0004 A544     		add	sp, sp, r4
 1835              		.cfi_def_cfa_offset 560
 1836 0006 00AF     		add	r7, sp, #0
 1837              		.cfi_def_cfa_register 7
 1838 0008 F860     		str	r0, [r7, #12]
 1839 000a 081C     		mov	r0, r1
 1840 000c 7A60     		str	r2, [r7, #4]
 1841 000e 191C     		mov	r1, r3
 1842 0010 BE4B     		ldr	r3, .L100+4
 1843 0012 8822     		mov	r2, #136
 1844 0014 9200     		lsl	r2, r2, #2
 1845 0016 9446     		mov	ip, r2
 1846 0018 BC44     		add	ip, ip, r7
ARM GAS  C:\Users\ADMINI~1.SC-\AppData\Local\Temp\ccVsST00.s 			page 43


 1847 001a 6344     		add	r3, r3, ip
 1848 001c 021C     		add	r2, r0, #0
 1849 001e 1A70     		strb	r2, [r3]
 1850 0020 BB4B     		ldr	r3, .L100+8
 1851 0022 8822     		mov	r2, #136
 1852 0024 9200     		lsl	r2, r2, #2
 1853 0026 9446     		mov	ip, r2
 1854 0028 BC44     		add	ip, ip, r7
 1855 002a 6344     		add	r3, r3, ip
 1856 002c 0A1C     		add	r2, r1, #0
 1857 002e 1A70     		strb	r2, [r3]
 531:app_protocol.c **** 	uint8 Sbox[256];
 532:app_protocol.c **** 	uint8 Kbox[256];
 533:app_protocol.c **** 	uint16 i;
 534:app_protocol.c **** 	uint16 j=0;
 1858              		.loc 1 534 0
 1859 0030 8723     		mov	r3, #135
 1860 0032 9B00     		lsl	r3, r3, #2
 1861 0034 FB18     		add	r3, r7, r3
 1862 0036 0022     		mov	r2, #0
 1863 0038 1A80     		strh	r2, [r3]
 535:app_protocol.c **** 	uint16 k;
 536:app_protocol.c **** 	uint16 index = 0;
 1864              		.loc 1 536 0
 1865 003a B64B     		ldr	r3, .L100+12
 1866 003c FB18     		add	r3, r7, r3
 1867 003e 0022     		mov	r2, #0
 1868 0040 1A80     		strh	r2, [r3]
 537:app_protocol.c **** 	uint8 temp;
 538:app_protocol.c **** 	uint8 *data;
 539:app_protocol.c **** 	data = buf;
 1869              		.loc 1 539 0
 1870 0042 7B68     		ldr	r3, [r7, #4]
 1871 0044 8522     		mov	r2, #133
 1872 0046 9200     		lsl	r2, r2, #2
 1873 0048 BA18     		add	r2, r7, r2
 1874 004a 1360     		str	r3, [r2]
 540:app_protocol.c **** 	
 541:app_protocol.c **** 	if ((buf == NULL) || (len <= 0))		//数据不存在
 1875              		.loc 1 541 0
 1876 004c 7B68     		ldr	r3, [r7, #4]
 1877 004e 002B     		cmp	r3, #0
 1878 0050 00D1     		bne	.LCB1609
 1879 0052 53E1     		b	.L88	@long jump
 1880              	.LCB1609:
 1881              		.loc 1 541 0 is_stmt 0 discriminator 1
 1882 0054 AE4B     		ldr	r3, .L100+8
 1883 0056 8822     		mov	r2, #136
 1884 0058 9200     		lsl	r2, r2, #2
 1885 005a 9446     		mov	ip, r2
 1886 005c BC44     		add	ip, ip, r7
 1887 005e 6344     		add	r3, r3, ip
 1888 0060 1B78     		ldrb	r3, [r3]
 1889 0062 002B     		cmp	r3, #0
 1890 0064 00D1     		bne	.LCB1618
 1891 0066 49E1     		b	.L88	@long jump
 1892              	.LCB1618:
ARM GAS  C:\Users\ADMINI~1.SC-\AppData\Local\Temp\ccVsST00.s 			page 44


 542:app_protocol.c **** 	{	
 543:app_protocol.c **** 		return;
 544:app_protocol.c **** 	}
 545:app_protocol.c **** 	for(i=0; i<256; i++)
 1893              		.loc 1 545 0 is_stmt 1
 1894 0068 AB4B     		ldr	r3, .L100+16
 1895 006a FB18     		add	r3, r7, r3
 1896 006c 0022     		mov	r2, #0
 1897 006e 1A80     		strh	r2, [r3]
 1898 0070 31E0     		b	.L92
 1899              	.L93:
 546:app_protocol.c **** 	{
 547:app_protocol.c **** 		Sbox[i] = i;
 1900              		.loc 1 547 0 discriminator 3
 1901 0072 A94B     		ldr	r3, .L100+16
 1902 0074 FB18     		add	r3, r7, r3
 1903 0076 1B88     		ldrh	r3, [r3]
 1904 0078 A74A     		ldr	r2, .L100+16
 1905 007a BA18     		add	r2, r7, r2
 1906 007c 1288     		ldrh	r2, [r2]
 1907 007e D1B2     		uxtb	r1, r2
 1908 0080 A64A     		ldr	r2, .L100+20
 1909 0082 8820     		mov	r0, #136
 1910 0084 8000     		lsl	r0, r0, #2
 1911 0086 8446     		mov	ip, r0
 1912 0088 BC44     		add	ip, ip, r7
 1913 008a 6244     		add	r2, r2, ip
 1914 008c D154     		strb	r1, [r2, r3]
 548:app_protocol.c **** 		Kbox[i] = key[i % key_leng];
 1915              		.loc 1 548 0 discriminator 3
 1916 008e A24B     		ldr	r3, .L100+16
 1917 0090 FB18     		add	r3, r7, r3
 1918 0092 1C88     		ldrh	r4, [r3]
 1919 0094 A04B     		ldr	r3, .L100+16
 1920 0096 FB18     		add	r3, r7, r3
 1921 0098 1A88     		ldrh	r2, [r3]
 1922 009a 9C4B     		ldr	r3, .L100+4
 1923 009c 8821     		mov	r1, #136
 1924 009e 8900     		lsl	r1, r1, #2
 1925 00a0 8C46     		mov	ip, r1
 1926 00a2 BC44     		add	ip, ip, r7
 1927 00a4 6344     		add	r3, r3, ip
 1928 00a6 1B78     		ldrb	r3, [r3]
 1929 00a8 101C     		mov	r0, r2
 1930 00aa 191C     		mov	r1, r3
 1931 00ac FFF7FEFF 		bl	__aeabi_idivmod
 1932 00b0 0B1C     		mov	r3, r1
 1933 00b2 1A1C     		mov	r2, r3
 1934 00b4 FB68     		ldr	r3, [r7, #12]
 1935 00b6 9B18     		add	r3, r3, r2
 1936 00b8 1A78     		ldrb	r2, [r3]
 1937 00ba 994B     		ldr	r3, .L100+24
 1938 00bc 8821     		mov	r1, #136
 1939 00be 8900     		lsl	r1, r1, #2
 1940 00c0 8C46     		mov	ip, r1
 1941 00c2 BC44     		add	ip, ip, r7
 1942 00c4 6344     		add	r3, r3, ip
ARM GAS  C:\Users\ADMINI~1.SC-\AppData\Local\Temp\ccVsST00.s 			page 45


 1943 00c6 1A55     		strb	r2, [r3, r4]
 545:app_protocol.c **** 	{
 1944              		.loc 1 545 0 discriminator 3
 1945 00c8 934B     		ldr	r3, .L100+16
 1946 00ca FB18     		add	r3, r7, r3
 1947 00cc 1A88     		ldrh	r2, [r3]
 1948 00ce 924B     		ldr	r3, .L100+16
 1949 00d0 FB18     		add	r3, r7, r3
 1950 00d2 0132     		add	r2, r2, #1
 1951 00d4 1A80     		strh	r2, [r3]
 1952              	.L92:
 545:app_protocol.c **** 	{
 1953              		.loc 1 545 0 is_stmt 0 discriminator 1
 1954 00d6 904B     		ldr	r3, .L100+16
 1955 00d8 FB18     		add	r3, r7, r3
 1956 00da 1B88     		ldrh	r3, [r3]
 1957 00dc FF2B     		cmp	r3, #255
 1958 00de C8D9     		bls	.L93
 549:app_protocol.c **** 	}
 550:app_protocol.c **** 	
 551:app_protocol.c **** 	for(i=0; i<256; i++)
 1959              		.loc 1 551 0 is_stmt 1
 1960 00e0 8D4B     		ldr	r3, .L100+16
 1961 00e2 FB18     		add	r3, r7, r3
 1962 00e4 0022     		mov	r2, #0
 1963 00e6 1A80     		strh	r2, [r3]
 1964 00e8 5CE0     		b	.L94
 1965              	.L96:
 552:app_protocol.c **** 	{
 553:app_protocol.c **** 		j = (j + Sbox[i] + Kbox[i]) % 256;
 1966              		.loc 1 553 0 discriminator 3
 1967 00ea 8723     		mov	r3, #135
 1968 00ec 9B00     		lsl	r3, r3, #2
 1969 00ee FB18     		add	r3, r7, r3
 1970 00f0 1B88     		ldrh	r3, [r3]
 1971 00f2 894A     		ldr	r2, .L100+16
 1972 00f4 BA18     		add	r2, r7, r2
 1973 00f6 1288     		ldrh	r2, [r2]
 1974 00f8 8849     		ldr	r1, .L100+20
 1975 00fa 8820     		mov	r0, #136
 1976 00fc 8000     		lsl	r0, r0, #2
 1977 00fe 8446     		mov	ip, r0
 1978 0100 BC44     		add	ip, ip, r7
 1979 0102 6144     		add	r1, r1, ip
 1980 0104 8A5C     		ldrb	r2, [r1, r2]
 1981 0106 9B18     		add	r3, r3, r2
 1982 0108 834A     		ldr	r2, .L100+16
 1983 010a BA18     		add	r2, r7, r2
 1984 010c 1288     		ldrh	r2, [r2]
 1985 010e 8449     		ldr	r1, .L100+24
 1986 0110 8820     		mov	r0, #136
 1987 0112 8000     		lsl	r0, r0, #2
 1988 0114 8446     		mov	ip, r0
 1989 0116 BC44     		add	ip, ip, r7
 1990 0118 6144     		add	r1, r1, ip
 1991 011a 8A5C     		ldrb	r2, [r1, r2]
 1992 011c 9B18     		add	r3, r3, r2
ARM GAS  C:\Users\ADMINI~1.SC-\AppData\Local\Temp\ccVsST00.s 			page 46


 1993 011e 814A     		ldr	r2, .L100+28
 1994 0120 1340     		and	r3, r2
 1995 0122 03D5     		bpl	.L95
 1996 0124 013B     		sub	r3, r3, #1
 1997 0126 804A     		ldr	r2, .L100+32
 1998 0128 1343     		orr	r3, r2
 1999 012a 0133     		add	r3, r3, #1
 2000              	.L95:
 2001 012c 1A1C     		mov	r2, r3
 2002 012e 8723     		mov	r3, #135
 2003 0130 9B00     		lsl	r3, r3, #2
 2004 0132 FB18     		add	r3, r7, r3
 2005 0134 1A80     		strh	r2, [r3]
 554:app_protocol.c **** 		temp = Sbox[i];
 2006              		.loc 1 554 0 discriminator 3
 2007 0136 784B     		ldr	r3, .L100+16
 2008 0138 FB18     		add	r3, r7, r3
 2009 013a 1A88     		ldrh	r2, [r3]
 2010 013c 7B4B     		ldr	r3, .L100+36
 2011 013e FB18     		add	r3, r7, r3
 2012 0140 7649     		ldr	r1, .L100+20
 2013 0142 8820     		mov	r0, #136
 2014 0144 8000     		lsl	r0, r0, #2
 2015 0146 8446     		mov	ip, r0
 2016 0148 BC44     		add	ip, ip, r7
 2017 014a 6144     		add	r1, r1, ip
 2018 014c 8A5C     		ldrb	r2, [r1, r2]
 2019 014e 1A70     		strb	r2, [r3]
 555:app_protocol.c **** 		Sbox[i] = Sbox[j];
 2020              		.loc 1 555 0 discriminator 3
 2021 0150 714B     		ldr	r3, .L100+16
 2022 0152 FB18     		add	r3, r7, r3
 2023 0154 1B88     		ldrh	r3, [r3]
 2024 0156 8722     		mov	r2, #135
 2025 0158 9200     		lsl	r2, r2, #2
 2026 015a BA18     		add	r2, r7, r2
 2027 015c 1288     		ldrh	r2, [r2]
 2028 015e 6F49     		ldr	r1, .L100+20
 2029 0160 8820     		mov	r0, #136
 2030 0162 8000     		lsl	r0, r0, #2
 2031 0164 8446     		mov	ip, r0
 2032 0166 BC44     		add	ip, ip, r7
 2033 0168 6144     		add	r1, r1, ip
 2034 016a 895C     		ldrb	r1, [r1, r2]
 2035 016c 6B4A     		ldr	r2, .L100+20
 2036 016e 8820     		mov	r0, #136
 2037 0170 8000     		lsl	r0, r0, #2
 2038 0172 8446     		mov	ip, r0
 2039 0174 BC44     		add	ip, ip, r7
 2040 0176 6244     		add	r2, r2, ip
 2041 0178 D154     		strb	r1, [r2, r3]
 556:app_protocol.c **** 		Sbox[j] = temp;
 2042              		.loc 1 556 0 discriminator 3
 2043 017a 8723     		mov	r3, #135
 2044 017c 9B00     		lsl	r3, r3, #2
 2045 017e FB18     		add	r3, r7, r3
 2046 0180 1B88     		ldrh	r3, [r3]
ARM GAS  C:\Users\ADMINI~1.SC-\AppData\Local\Temp\ccVsST00.s 			page 47


 2047 0182 664A     		ldr	r2, .L100+20
 2048 0184 8821     		mov	r1, #136
 2049 0186 8900     		lsl	r1, r1, #2
 2050 0188 8C46     		mov	ip, r1
 2051 018a BC44     		add	ip, ip, r7
 2052 018c 6244     		add	r2, r2, ip
 2053 018e 6749     		ldr	r1, .L100+36
 2054 0190 7918     		add	r1, r7, r1
 2055 0192 0978     		ldrb	r1, [r1]
 2056 0194 D154     		strb	r1, [r2, r3]
 551:app_protocol.c **** 	{
 2057              		.loc 1 551 0 discriminator 3
 2058 0196 604B     		ldr	r3, .L100+16
 2059 0198 FB18     		add	r3, r7, r3
 2060 019a 1A88     		ldrh	r2, [r3]
 2061 019c 5E4B     		ldr	r3, .L100+16
 2062 019e FB18     		add	r3, r7, r3
 2063 01a0 0132     		add	r2, r2, #1
 2064 01a2 1A80     		strh	r2, [r3]
 2065              	.L94:
 551:app_protocol.c **** 	{
 2066              		.loc 1 551 0 is_stmt 0 discriminator 1
 2067 01a4 5C4B     		ldr	r3, .L100+16
 2068 01a6 FB18     		add	r3, r7, r3
 2069 01a8 1B88     		ldrh	r3, [r3]
 2070 01aa FF2B     		cmp	r3, #255
 2071 01ac 9DD9     		bls	.L96
 557:app_protocol.c **** 	}
 558:app_protocol.c **** 	
 559:app_protocol.c **** 	while(index < len)
 2072              		.loc 1 559 0 is_stmt 1
 2073 01ae 97E0     		b	.L97
 2074              	.L99:
 560:app_protocol.c **** 	{
 561:app_protocol.c **** 		i = (i + 1) % 256;
 2075              		.loc 1 561 0
 2076 01b0 594B     		ldr	r3, .L100+16
 2077 01b2 FB18     		add	r3, r7, r3
 2078 01b4 1B88     		ldrh	r3, [r3]
 2079 01b6 0133     		add	r3, r3, #1
 2080 01b8 5A4A     		ldr	r2, .L100+28
 2081 01ba 1340     		and	r3, r2
 2082 01bc 03D5     		bpl	.L98
 2083 01be 013B     		sub	r3, r3, #1
 2084 01c0 594A     		ldr	r2, .L100+32
 2085 01c2 1343     		orr	r3, r2
 2086 01c4 0133     		add	r3, r3, #1
 2087              	.L98:
 2088 01c6 1A1C     		mov	r2, r3
 2089 01c8 534B     		ldr	r3, .L100+16
 2090 01ca FB18     		add	r3, r7, r3
 2091 01cc 1A80     		strh	r2, [r3]
 562:app_protocol.c **** 		j = (j + Sbox[i]) % 256;
 2092              		.loc 1 562 0
 2093 01ce 524B     		ldr	r3, .L100+16
 2094 01d0 FB18     		add	r3, r7, r3
 2095 01d2 1B88     		ldrh	r3, [r3]
ARM GAS  C:\Users\ADMINI~1.SC-\AppData\Local\Temp\ccVsST00.s 			page 48


 2096 01d4 514A     		ldr	r2, .L100+20
 2097 01d6 8821     		mov	r1, #136
 2098 01d8 8900     		lsl	r1, r1, #2
 2099 01da 8C46     		mov	ip, r1
 2100 01dc BC44     		add	ip, ip, r7
 2101 01de 6244     		add	r2, r2, ip
 2102 01e0 D35C     		ldrb	r3, [r2, r3]
 2103 01e2 9AB2     		uxth	r2, r3
 2104 01e4 8723     		mov	r3, #135
 2105 01e6 9B00     		lsl	r3, r3, #2
 2106 01e8 FB18     		add	r3, r7, r3
 2107 01ea 1B88     		ldrh	r3, [r3]
 2108 01ec D318     		add	r3, r2, r3
 2109 01ee 9AB2     		uxth	r2, r3
 2110 01f0 8723     		mov	r3, #135
 2111 01f2 9B00     		lsl	r3, r3, #2
 2112 01f4 FB18     		add	r3, r7, r3
 2113 01f6 FF21     		mov	r1, #255
 2114 01f8 0A40     		and	r2, r1
 2115 01fa 1A80     		strh	r2, [r3]
 563:app_protocol.c **** 		temp = Sbox[i];
 2116              		.loc 1 563 0
 2117 01fc 464B     		ldr	r3, .L100+16
 2118 01fe FB18     		add	r3, r7, r3
 2119 0200 1A88     		ldrh	r2, [r3]
 2120 0202 4A4B     		ldr	r3, .L100+36
 2121 0204 FB18     		add	r3, r7, r3
 2122 0206 4549     		ldr	r1, .L100+20
 2123 0208 8820     		mov	r0, #136
 2124 020a 8000     		lsl	r0, r0, #2
 2125 020c 8446     		mov	ip, r0
 2126 020e BC44     		add	ip, ip, r7
 2127 0210 6144     		add	r1, r1, ip
 2128 0212 8A5C     		ldrb	r2, [r1, r2]
 2129 0214 1A70     		strb	r2, [r3]
 564:app_protocol.c **** 		Sbox[i] = Sbox[j];
 2130              		.loc 1 564 0
 2131 0216 404B     		ldr	r3, .L100+16
 2132 0218 FB18     		add	r3, r7, r3
 2133 021a 1B88     		ldrh	r3, [r3]
 2134 021c 8722     		mov	r2, #135
 2135 021e 9200     		lsl	r2, r2, #2
 2136 0220 BA18     		add	r2, r7, r2
 2137 0222 1288     		ldrh	r2, [r2]
 2138 0224 3D49     		ldr	r1, .L100+20
 2139 0226 8820     		mov	r0, #136
 2140 0228 8000     		lsl	r0, r0, #2
 2141 022a 8446     		mov	ip, r0
 2142 022c BC44     		add	ip, ip, r7
 2143 022e 6144     		add	r1, r1, ip
 2144 0230 895C     		ldrb	r1, [r1, r2]
 2145 0232 3A4A     		ldr	r2, .L100+20
 2146 0234 8820     		mov	r0, #136
 2147 0236 8000     		lsl	r0, r0, #2
 2148 0238 8446     		mov	ip, r0
 2149 023a BC44     		add	ip, ip, r7
 2150 023c 6244     		add	r2, r2, ip
ARM GAS  C:\Users\ADMINI~1.SC-\AppData\Local\Temp\ccVsST00.s 			page 49


 2151 023e D154     		strb	r1, [r2, r3]
 565:app_protocol.c **** 		Sbox[j] = temp;
 2152              		.loc 1 565 0
 2153 0240 8723     		mov	r3, #135
 2154 0242 9B00     		lsl	r3, r3, #2
 2155 0244 FB18     		add	r3, r7, r3
 2156 0246 1B88     		ldrh	r3, [r3]
 2157 0248 344A     		ldr	r2, .L100+20
 2158 024a 8821     		mov	r1, #136
 2159 024c 8900     		lsl	r1, r1, #2
 2160 024e 8C46     		mov	ip, r1
 2161 0250 BC44     		add	ip, ip, r7
 2162 0252 6244     		add	r2, r2, ip
 2163 0254 3549     		ldr	r1, .L100+36
 2164 0256 7918     		add	r1, r7, r1
 2165 0258 0978     		ldrb	r1, [r1]
 2166 025a D154     		strb	r1, [r2, r3]
 566:app_protocol.c **** 		k = (Sbox[i] + Sbox[j]) % 256;
 2167              		.loc 1 566 0
 2168 025c 2E4B     		ldr	r3, .L100+16
 2169 025e FB18     		add	r3, r7, r3
 2170 0260 1B88     		ldrh	r3, [r3]
 2171 0262 2E4A     		ldr	r2, .L100+20
 2172 0264 8821     		mov	r1, #136
 2173 0266 8900     		lsl	r1, r1, #2
 2174 0268 8C46     		mov	ip, r1
 2175 026a BC44     		add	ip, ip, r7
 2176 026c 6244     		add	r2, r2, ip
 2177 026e D35C     		ldrb	r3, [r2, r3]
 2178 0270 9AB2     		uxth	r2, r3
 2179 0272 8723     		mov	r3, #135
 2180 0274 9B00     		lsl	r3, r3, #2
 2181 0276 FB18     		add	r3, r7, r3
 2182 0278 1B88     		ldrh	r3, [r3]
 2183 027a 2849     		ldr	r1, .L100+20
 2184 027c 8820     		mov	r0, #136
 2185 027e 8000     		lsl	r0, r0, #2
 2186 0280 8446     		mov	ip, r0
 2187 0282 BC44     		add	ip, ip, r7
 2188 0284 6144     		add	r1, r1, ip
 2189 0286 CB5C     		ldrb	r3, [r1, r3]
 2190 0288 9BB2     		uxth	r3, r3
 2191 028a D318     		add	r3, r2, r3
 2192 028c 9AB2     		uxth	r2, r3
 2193 028e 8423     		mov	r3, #132
 2194 0290 9B00     		lsl	r3, r3, #2
 2195 0292 FB18     		add	r3, r7, r3
 2196 0294 FF21     		mov	r1, #255
 2197 0296 0A40     		and	r2, r1
 2198 0298 1A80     		strh	r2, [r3]
 567:app_protocol.c **** 		buf[index] = data[index] ^ Sbox[k]; 
 2199              		.loc 1 567 0
 2200 029a 1E4B     		ldr	r3, .L100+12
 2201 029c FB18     		add	r3, r7, r3
 2202 029e 1B88     		ldrh	r3, [r3]
 2203 02a0 7A68     		ldr	r2, [r7, #4]
 2204 02a2 D318     		add	r3, r2, r3
ARM GAS  C:\Users\ADMINI~1.SC-\AppData\Local\Temp\ccVsST00.s 			page 50


 2205 02a4 1B4A     		ldr	r2, .L100+12
 2206 02a6 BA18     		add	r2, r7, r2
 2207 02a8 1288     		ldrh	r2, [r2]
 2208 02aa 8521     		mov	r1, #133
 2209 02ac 8900     		lsl	r1, r1, #2
 2210 02ae 7918     		add	r1, r7, r1
 2211 02b0 0968     		ldr	r1, [r1]
 2212 02b2 8A18     		add	r2, r1, r2
 2213 02b4 1178     		ldrb	r1, [r2]
 2214 02b6 8422     		mov	r2, #132
 2215 02b8 9200     		lsl	r2, r2, #2
 2216 02ba BA18     		add	r2, r7, r2
 2217 02bc 1288     		ldrh	r2, [r2]
 2218 02be 1748     		ldr	r0, .L100+20
 2219 02c0 8824     		mov	r4, #136
 2220 02c2 A400     		lsl	r4, r4, #2
 2221 02c4 A446     		mov	ip, r4
 2222 02c6 BC44     		add	ip, ip, r7
 2223 02c8 6044     		add	r0, r0, ip
 2224 02ca 825C     		ldrb	r2, [r0, r2]
 2225 02cc 4A40     		eor	r2, r1
 2226 02ce D2B2     		uxtb	r2, r2
 2227 02d0 1A70     		strb	r2, [r3]
 568:app_protocol.c **** 		index++;
 2228              		.loc 1 568 0
 2229 02d2 104B     		ldr	r3, .L100+12
 2230 02d4 FB18     		add	r3, r7, r3
 2231 02d6 1A88     		ldrh	r2, [r3]
 2232 02d8 0E4B     		ldr	r3, .L100+12
 2233 02da FB18     		add	r3, r7, r3
 2234 02dc 0132     		add	r2, r2, #1
 2235 02de 1A80     		strh	r2, [r3]
 2236              	.L97:
 559:app_protocol.c **** 	{
 2237              		.loc 1 559 0
 2238 02e0 0B4B     		ldr	r3, .L100+8
 2239 02e2 8822     		mov	r2, #136
 2240 02e4 9200     		lsl	r2, r2, #2
 2241 02e6 9446     		mov	ip, r2
 2242 02e8 BC44     		add	ip, ip, r7
 2243 02ea 6344     		add	r3, r3, ip
 2244 02ec 1B78     		ldrb	r3, [r3]
 2245 02ee 9BB2     		uxth	r3, r3
 2246 02f0 084A     		ldr	r2, .L100+12
 2247 02f2 BA18     		add	r2, r7, r2
 2248 02f4 1288     		ldrh	r2, [r2]
 2249 02f6 9A42     		cmp	r2, r3
 2250 02f8 00D2     		bcs	.LCB1967
 2251 02fa 59E7     		b	.L99	@long jump
 2252              	.LCB1967:
 2253              	.L88:
 569:app_protocol.c **** 	}
 570:app_protocol.c **** }
 2254              		.loc 1 570 0
 2255 02fc BD46     		mov	sp, r7
 2256 02fe 8923     		mov	r3, #137
 2257 0300 9B00     		lsl	r3, r3, #2
ARM GAS  C:\Users\ADMINI~1.SC-\AppData\Local\Temp\ccVsST00.s 			page 51


 2258 0302 9D44     		add	sp, sp, r3
 2259              		@ sp needed
 2260 0304 90BD     		pop	{r4, r7, pc}
 2261              	.L101:
 2262 0306 C046     		.align	2
 2263              	.L100:
 2264 0308 DCFDFFFF 		.word	-548
 2265 030c EBFDFFFF 		.word	-533
 2266 0310 EAFDFFFF 		.word	-534
 2267 0314 1A020000 		.word	538
 2268 0318 1E020000 		.word	542
 2269 031c F0FEFFFF 		.word	-272
 2270 0320 F0FDFFFF 		.word	-528
 2271 0324 FF000080 		.word	-2147483393
 2272 0328 00FFFFFF 		.word	-256
 2273 032c 13020000 		.word	531
 2274              		.cfi_endproc
 2275              	.LFE54:
 2276              		.size	App_RC4, .-App_RC4
 2277              		.text
 2278              	.Letext0:
 2279              		.file 2 "Generated_Source\\PSoC4/cytypes.h"
 2280              		.file 3 "Generated_Source\\PSoC4/BLE_StackGatt.h"
 2281              		.file 4 "Generated_Source\\PSoC4/BLE_StackGattServer.h"
 2282              		.file 5 "app_lock.h"
 2283              		.file 6 "app_Com.h"
 2284              		.file 7 "md5.h"
 2285              		.file 8 "Generated_Source\\PSoC4/BLE_eventHandler.h"
 2286              		.file 9 "app_ble.h"
 2287              		.file 10 "Generated_Source\\PSoC4/BLE_Stack.h"
 2288              		.section	.debug_info,"",%progbits
 2289              	.Ldebug_info0:
 2290 0000 780B0000 		.4byte	0xb78
 2291 0004 0400     		.2byte	0x4
 2292 0006 00000000 		.4byte	.Ldebug_abbrev0
 2293 000a 04       		.byte	0x4
 2294 000b 01       		.uleb128 0x1
 2295 000c 770B0000 		.4byte	.LASF179
 2296 0010 01       		.byte	0x1
 2297 0011 35050000 		.4byte	.LASF180
 2298 0015 A3040000 		.4byte	.LASF181
 2299 0019 00000000 		.4byte	.Ldebug_ranges0+0
 2300 001d 00000000 		.4byte	0
 2301 0021 00000000 		.4byte	.Ldebug_line0
 2302 0025 02       		.uleb128 0x2
 2303 0026 01       		.byte	0x1
 2304 0027 06       		.byte	0x6
 2305 0028 3A020000 		.4byte	.LASF0
 2306 002c 02       		.uleb128 0x2
 2307 002d 01       		.byte	0x1
 2308 002e 08       		.byte	0x8
 2309 002f C0080000 		.4byte	.LASF1
 2310 0033 02       		.uleb128 0x2
 2311 0034 02       		.byte	0x2
 2312 0035 05       		.byte	0x5
 2313 0036 FC080000 		.4byte	.LASF2
 2314 003a 02       		.uleb128 0x2
ARM GAS  C:\Users\ADMINI~1.SC-\AppData\Local\Temp\ccVsST00.s 			page 52


 2315 003b 02       		.byte	0x2
 2316 003c 07       		.byte	0x7
 2317 003d AD050000 		.4byte	.LASF3
 2318 0041 02       		.uleb128 0x2
 2319 0042 04       		.byte	0x4
 2320 0043 05       		.byte	0x5
 2321 0044 36010000 		.4byte	.LASF4
 2322 0048 02       		.uleb128 0x2
 2323 0049 04       		.byte	0x4
 2324 004a 07       		.byte	0x7
 2325 004b 23050000 		.4byte	.LASF5
 2326 004f 02       		.uleb128 0x2
 2327 0050 08       		.byte	0x8
 2328 0051 05       		.byte	0x5
 2329 0052 2C020000 		.4byte	.LASF6
 2330 0056 02       		.uleb128 0x2
 2331 0057 08       		.byte	0x8
 2332 0058 07       		.byte	0x7
 2333 0059 54010000 		.4byte	.LASF7
 2334 005d 03       		.uleb128 0x3
 2335 005e 04       		.byte	0x4
 2336 005f 05       		.byte	0x5
 2337 0060 696E7400 		.ascii	"int\000"
 2338 0064 02       		.uleb128 0x2
 2339 0065 04       		.byte	0x4
 2340 0066 07       		.byte	0x7
 2341 0067 E1040000 		.4byte	.LASF8
 2342 006b 04       		.uleb128 0x4
 2343 006c 8D050000 		.4byte	.LASF9
 2344 0070 02       		.byte	0x2
 2345 0071 C2       		.byte	0xc2
 2346 0072 2C000000 		.4byte	0x2c
 2347 0076 04       		.uleb128 0x4
 2348 0077 29000000 		.4byte	.LASF10
 2349 007b 02       		.byte	0x2
 2350 007c C3       		.byte	0xc3
 2351 007d 3A000000 		.4byte	0x3a
 2352 0081 04       		.uleb128 0x4
 2353 0082 CC030000 		.4byte	.LASF11
 2354 0086 02       		.byte	0x2
 2355 0087 C4       		.byte	0xc4
 2356 0088 48000000 		.4byte	0x48
 2357 008c 02       		.uleb128 0x2
 2358 008d 04       		.byte	0x4
 2359 008e 04       		.byte	0x4
 2360 008f 7D080000 		.4byte	.LASF12
 2361 0093 02       		.uleb128 0x2
 2362 0094 08       		.byte	0x8
 2363 0095 04       		.byte	0x4
 2364 0096 7F030000 		.4byte	.LASF13
 2365 009a 02       		.uleb128 0x2
 2366 009b 01       		.byte	0x1
 2367 009c 08       		.byte	0x8
 2368 009d DC090000 		.4byte	.LASF14
 2369 00a1 02       		.uleb128 0x2
 2370 00a2 04       		.byte	0x4
 2371 00a3 07       		.byte	0x7
ARM GAS  C:\Users\ADMINI~1.SC-\AppData\Local\Temp\ccVsST00.s 			page 53


 2372 00a4 52070000 		.4byte	.LASF15
 2373 00a8 05       		.uleb128 0x5
 2374 00a9 04       		.byte	0x4
 2375 00aa 9A000000 		.4byte	0x9a
 2376 00ae 05       		.uleb128 0x5
 2377 00af 04       		.byte	0x4
 2378 00b0 6B000000 		.4byte	0x6b
 2379 00b4 06       		.uleb128 0x6
 2380 00b5 01       		.byte	0x1
 2381 00b6 0A       		.byte	0xa
 2382 00b7 A4       		.byte	0xa4
 2383 00b8 39020000 		.4byte	0x239
 2384 00bc 07       		.uleb128 0x7
 2385 00bd CA050000 		.4byte	.LASF16
 2386 00c1 00       		.sleb128 0
 2387 00c2 07       		.uleb128 0x7
 2388 00c3 A6080000 		.4byte	.LASF17
 2389 00c7 01       		.sleb128 1
 2390 00c8 07       		.uleb128 0x7
 2391 00c9 24010000 		.4byte	.LASF18
 2392 00cd 02       		.sleb128 2
 2393 00ce 07       		.uleb128 0x7
 2394 00cf B30A0000 		.4byte	.LASF19
 2395 00d3 03       		.sleb128 3
 2396 00d4 07       		.uleb128 0x7
 2397 00d5 7E010000 		.4byte	.LASF20
 2398 00d9 04       		.sleb128 4
 2399 00da 07       		.uleb128 0x7
 2400 00db B9000000 		.4byte	.LASF21
 2401 00df 05       		.sleb128 5
 2402 00e0 07       		.uleb128 0x7
 2403 00e1 3E040000 		.4byte	.LASF22
 2404 00e5 20       		.sleb128 32
 2405 00e6 07       		.uleb128 0x7
 2406 00e7 CB020000 		.4byte	.LASF23
 2407 00eb 21       		.sleb128 33
 2408 00ec 07       		.uleb128 0x7
 2409 00ed 12060000 		.4byte	.LASF24
 2410 00f1 22       		.sleb128 34
 2411 00f2 07       		.uleb128 0x7
 2412 00f3 830A0000 		.4byte	.LASF25
 2413 00f7 23       		.sleb128 35
 2414 00f8 07       		.uleb128 0x7
 2415 00f9 DF070000 		.4byte	.LASF26
 2416 00fd 24       		.sleb128 36
 2417 00fe 07       		.uleb128 0x7
 2418 00ff 82070000 		.4byte	.LASF27
 2419 0103 25       		.sleb128 37
 2420 0104 07       		.uleb128 0x7
 2421 0105 27030000 		.4byte	.LASF28
 2422 0109 26       		.sleb128 38
 2423 010a 07       		.uleb128 0x7
 2424 010b 36060000 		.4byte	.LASF29
 2425 010f 27       		.sleb128 39
 2426 0110 07       		.uleb128 0x7
 2427 0111 DA010000 		.4byte	.LASF30
 2428 0115 28       		.sleb128 40
ARM GAS  C:\Users\ADMINI~1.SC-\AppData\Local\Temp\ccVsST00.s 			page 54


 2429 0116 07       		.uleb128 0x7
 2430 0117 FC010000 		.4byte	.LASF31
 2431 011b 29       		.sleb128 41
 2432 011c 07       		.uleb128 0x7
 2433 011d 67000000 		.4byte	.LASF32
 2434 0121 2A       		.sleb128 42
 2435 0122 07       		.uleb128 0x7
 2436 0123 9F020000 		.4byte	.LASF33
 2437 0127 2B       		.sleb128 43
 2438 0128 07       		.uleb128 0x7
 2439 0129 2C0C0000 		.4byte	.LASF34
 2440 012d 2C       		.sleb128 44
 2441 012e 07       		.uleb128 0x7
 2442 012f E1030000 		.4byte	.LASF35
 2443 0133 C000     		.sleb128 64
 2444 0135 07       		.uleb128 0x7
 2445 0136 97060000 		.4byte	.LASF36
 2446 013a C100     		.sleb128 65
 2447 013c 07       		.uleb128 0x7
 2448 013d DA0C0000 		.4byte	.LASF37
 2449 0141 C200     		.sleb128 66
 2450 0143 07       		.uleb128 0x7
 2451 0144 F50A0000 		.4byte	.LASF38
 2452 0148 C300     		.sleb128 67
 2453 014a 07       		.uleb128 0x7
 2454 014b 4B050000 		.4byte	.LASF39
 2455 014f C400     		.sleb128 68
 2456 0151 07       		.uleb128 0x7
 2457 0152 56080000 		.4byte	.LASF40
 2458 0156 C500     		.sleb128 69
 2459 0158 07       		.uleb128 0x7
 2460 0159 31070000 		.4byte	.LASF41
 2461 015d C600     		.sleb128 70
 2462 015f 07       		.uleb128 0x7
 2463 0160 E1050000 		.4byte	.LASF42
 2464 0164 C700     		.sleb128 71
 2465 0166 07       		.uleb128 0x7
 2466 0167 050C0000 		.4byte	.LASF43
 2467 016b C800     		.sleb128 72
 2468 016d 07       		.uleb128 0x7
 2469 016e E2020000 		.4byte	.LASF44
 2470 0172 C900     		.sleb128 73
 2471 0174 07       		.uleb128 0x7
 2472 0175 310B0000 		.4byte	.LASF45
 2473 0179 CA00     		.sleb128 74
 2474 017b 07       		.uleb128 0x7
 2475 017c D5000000 		.4byte	.LASF46
 2476 0180 CB00     		.sleb128 75
 2477 0182 07       		.uleb128 0x7
 2478 0183 5E060000 		.4byte	.LASF47
 2479 0187 CC00     		.sleb128 76
 2480 0189 07       		.uleb128 0x7
 2481 018a A3070000 		.4byte	.LASF48
 2482 018e CD00     		.sleb128 77
 2483 0190 07       		.uleb128 0x7
 2484 0191 01030000 		.4byte	.LASF49
 2485 0195 CE00     		.sleb128 78
ARM GAS  C:\Users\ADMINI~1.SC-\AppData\Local\Temp\ccVsST00.s 			page 55


 2486 0197 07       		.uleb128 0x7
 2487 0198 40090000 		.4byte	.LASF50
 2488 019c CF00     		.sleb128 79
 2489 019e 07       		.uleb128 0x7
 2490 019f F4000000 		.4byte	.LASF51
 2491 01a3 D000     		.sleb128 80
 2492 01a5 07       		.uleb128 0x7
 2493 01a6 60030000 		.4byte	.LASF52
 2494 01aa D100     		.sleb128 81
 2495 01ac 07       		.uleb128 0x7
 2496 01ad 00080000 		.4byte	.LASF53
 2497 01b1 D200     		.sleb128 82
 2498 01b3 07       		.uleb128 0x7
 2499 01b4 06090000 		.4byte	.LASF54
 2500 01b8 D300     		.sleb128 83
 2501 01ba 07       		.uleb128 0x7
 2502 01bb 65090000 		.4byte	.LASF55
 2503 01bf D400     		.sleb128 84
 2504 01c1 07       		.uleb128 0x7
 2505 01c2 69050000 		.4byte	.LASF56
 2506 01c6 D500     		.sleb128 85
 2507 01c8 07       		.uleb128 0x7
 2508 01c9 81040000 		.4byte	.LASF57
 2509 01cd D600     		.sleb128 86
 2510 01cf 07       		.uleb128 0x7
 2511 01d0 F3090000 		.4byte	.LASF58
 2512 01d4 D700     		.sleb128 87
 2513 01d6 07       		.uleb128 0x7
 2514 01d7 B4010000 		.4byte	.LASF59
 2515 01db F000     		.sleb128 112
 2516 01dd 07       		.uleb128 0x7
 2517 01de 890C0000 		.4byte	.LASF60
 2518 01e2 F100     		.sleb128 113
 2519 01e4 07       		.uleb128 0x7
 2520 01e5 C7060000 		.4byte	.LASF61
 2521 01e9 F200     		.sleb128 114
 2522 01eb 07       		.uleb128 0x7
 2523 01ec 13070000 		.4byte	.LASF62
 2524 01f0 F300     		.sleb128 115
 2525 01f2 07       		.uleb128 0x7
 2526 01f3 2E080000 		.4byte	.LASF63
 2527 01f7 F400     		.sleb128 116
 2528 01f9 07       		.uleb128 0x7
 2529 01fa 86030000 		.4byte	.LASF64
 2530 01fe F500     		.sleb128 117
 2531 0200 07       		.uleb128 0x7
 2532 0201 98000000 		.4byte	.LASF65
 2533 0205 F600     		.sleb128 118
 2534 0207 07       		.uleb128 0x7
 2535 0208 5A0A0000 		.4byte	.LASF66
 2536 020c F700     		.sleb128 119
 2537 020e 07       		.uleb128 0x7
 2538 020f 00000000 		.4byte	.LASF67
 2539 0213 F800     		.sleb128 120
 2540 0215 07       		.uleb128 0x7
 2541 0216 370A0000 		.4byte	.LASF68
 2542 021a F900     		.sleb128 121
ARM GAS  C:\Users\ADMINI~1.SC-\AppData\Local\Temp\ccVsST00.s 			page 56


 2543 021c 07       		.uleb128 0x7
 2544 021d 06040000 		.4byte	.LASF69
 2545 0221 FA00     		.sleb128 122
 2546 0223 07       		.uleb128 0x7
 2547 0224 6B0C0000 		.4byte	.LASF70
 2548 0228 FA01     		.sleb128 250
 2549 022a 07       		.uleb128 0x7
 2550 022b EE040000 		.4byte	.LASF71
 2551 022f FB01     		.sleb128 251
 2552 0231 07       		.uleb128 0x7
 2553 0232 D3030000 		.4byte	.LASF72
 2554 0236 FF01     		.sleb128 255
 2555 0238 00       		.byte	0
 2556 0239 08       		.uleb128 0x8
 2557 023a 6B000000 		.4byte	0x6b
 2558 023e 49020000 		.4byte	0x249
 2559 0242 09       		.uleb128 0x9
 2560 0243 A1000000 		.4byte	0xa1
 2561 0247 0F       		.byte	0xf
 2562 0248 00       		.byte	0
 2563 0249 0A       		.uleb128 0xa
 2564 024a B70C0000 		.4byte	.LASF73
 2565 024e 03       		.byte	0x3
 2566 024f 8801     		.2byte	0x188
 2567 0251 76000000 		.4byte	0x76
 2568 0255 0B       		.uleb128 0xb
 2569 0256 02       		.byte	0x2
 2570 0257 03       		.byte	0x3
 2571 0258 9201     		.2byte	0x192
 2572 025a 79020000 		.4byte	0x279
 2573 025e 0C       		.uleb128 0xc
 2574 025f 590C0000 		.4byte	.LASF74
 2575 0263 03       		.byte	0x3
 2576 0264 9901     		.2byte	0x199
 2577 0266 6B000000 		.4byte	0x6b
 2578 026a 00       		.byte	0
 2579 026b 0C       		.uleb128 0xc
 2580 026c C1060000 		.4byte	.LASF75
 2581 0270 03       		.byte	0x3
 2582 0271 9F01     		.2byte	0x19f
 2583 0273 6B000000 		.4byte	0x6b
 2584 0277 01       		.byte	0x1
 2585 0278 00       		.byte	0
 2586 0279 0A       		.uleb128 0xa
 2587 027a 39000000 		.4byte	.LASF76
 2588 027e 03       		.byte	0x3
 2589 027f A101     		.2byte	0x1a1
 2590 0281 55020000 		.4byte	0x255
 2591 0285 0B       		.uleb128 0xb
 2592 0286 08       		.byte	0x8
 2593 0287 03       		.byte	0x3
 2594 0288 BD01     		.2byte	0x1bd
 2595 028a B6020000 		.4byte	0x2b6
 2596 028e 0D       		.uleb128 0xd
 2597 028f 76616C00 		.ascii	"val\000"
 2598 0293 03       		.byte	0x3
 2599 0294 C001     		.2byte	0x1c0
ARM GAS  C:\Users\ADMINI~1.SC-\AppData\Local\Temp\ccVsST00.s 			page 57


 2600 0296 AE000000 		.4byte	0xae
 2601 029a 00       		.byte	0
 2602 029b 0D       		.uleb128 0xd
 2603 029c 6C656E00 		.ascii	"len\000"
 2604 02a0 03       		.byte	0x3
 2605 02a1 C301     		.2byte	0x1c3
 2606 02a3 76000000 		.4byte	0x76
 2607 02a7 04       		.byte	0x4
 2608 02a8 0C       		.uleb128 0xc
 2609 02a9 D30A0000 		.4byte	.LASF77
 2610 02ad 03       		.byte	0x3
 2611 02ae CA01     		.2byte	0x1ca
 2612 02b0 76000000 		.4byte	0x76
 2613 02b4 06       		.byte	0x6
 2614 02b5 00       		.byte	0
 2615 02b6 0A       		.uleb128 0xa
 2616 02b7 6B010000 		.4byte	.LASF78
 2617 02bb 03       		.byte	0x3
 2618 02bc CC01     		.2byte	0x1cc
 2619 02be 85020000 		.4byte	0x285
 2620 02c2 0B       		.uleb128 0xb
 2621 02c3 0C       		.byte	0xc
 2622 02c4 03       		.byte	0x3
 2623 02c5 CF01     		.2byte	0x1cf
 2624 02c7 E6020000 		.4byte	0x2e6
 2625 02cb 0C       		.uleb128 0xc
 2626 02cc 5F090000 		.4byte	.LASF79
 2627 02d0 03       		.byte	0x3
 2628 02d1 D201     		.2byte	0x1d2
 2629 02d3 B6020000 		.4byte	0x2b6
 2630 02d7 00       		.byte	0
 2631 02d8 0C       		.uleb128 0xc
 2632 02d9 33040000 		.4byte	.LASF80
 2633 02dd 03       		.byte	0x3
 2634 02de D501     		.2byte	0x1d5
 2635 02e0 49020000 		.4byte	0x249
 2636 02e4 08       		.byte	0x8
 2637 02e5 00       		.byte	0
 2638 02e6 0A       		.uleb128 0xa
 2639 02e7 86090000 		.4byte	.LASF81
 2640 02eb 03       		.byte	0x3
 2641 02ec D701     		.2byte	0x1d7
 2642 02ee C2020000 		.4byte	0x2c2
 2643 02f2 04       		.uleb128 0x4
 2644 02f3 63070000 		.4byte	.LASF82
 2645 02f7 04       		.byte	0x4
 2646 02f8 34       		.byte	0x34
 2647 02f9 E6020000 		.4byte	0x2e6
 2648 02fd 0E       		.uleb128 0xe
 2649 02fe 16       		.byte	0x16
 2650 02ff 05       		.byte	0x5
 2651 0300 34       		.byte	0x34
 2652 0301 36030000 		.4byte	0x336
 2653 0305 0F       		.uleb128 0xf
 2654 0306 270B0000 		.4byte	.LASF83
 2655 030a 05       		.byte	0x5
 2656 030b 36       		.byte	0x36
ARM GAS  C:\Users\ADMINI~1.SC-\AppData\Local\Temp\ccVsST00.s 			page 58


 2657 030c 39020000 		.4byte	0x239
 2658 0310 00       		.byte	0
 2659 0311 0F       		.uleb128 0xf
 2660 0312 EC0A0000 		.4byte	.LASF84
 2661 0316 05       		.byte	0x5
 2662 0317 37       		.byte	0x37
 2663 0318 36030000 		.4byte	0x336
 2664 031c 10       		.byte	0x10
 2665 031d 0F       		.uleb128 0xf
 2666 031e D4040000 		.4byte	.LASF85
 2667 0322 05       		.byte	0x5
 2668 0323 38       		.byte	0x38
 2669 0324 6B000000 		.4byte	0x6b
 2670 0328 14       		.byte	0x14
 2671 0329 10       		.uleb128 0x10
 2672 032a 73756D00 		.ascii	"sum\000"
 2673 032e 05       		.byte	0x5
 2674 032f 39       		.byte	0x39
 2675 0330 6B000000 		.4byte	0x6b
 2676 0334 15       		.byte	0x15
 2677 0335 00       		.byte	0
 2678 0336 08       		.uleb128 0x8
 2679 0337 6B000000 		.4byte	0x6b
 2680 033b 46030000 		.4byte	0x346
 2681 033f 09       		.uleb128 0x9
 2682 0340 A1000000 		.4byte	0xa1
 2683 0344 03       		.byte	0x3
 2684 0345 00       		.byte	0
 2685 0346 04       		.uleb128 0x4
 2686 0347 130B0000 		.4byte	.LASF86
 2687 034b 05       		.byte	0x5
 2688 034c 3A       		.byte	0x3a
 2689 034d FD020000 		.4byte	0x2fd
 2690 0351 0E       		.uleb128 0xe
 2691 0352 0F       		.byte	0xf
 2692 0353 05       		.byte	0x5
 2693 0354 40       		.byte	0x40
 2694 0355 8A030000 		.4byte	0x38a
 2695 0359 0F       		.uleb128 0xf
 2696 035a EC0A0000 		.4byte	.LASF84
 2697 035e 05       		.byte	0x5
 2698 035f 42       		.byte	0x42
 2699 0360 36030000 		.4byte	0x336
 2700 0364 00       		.byte	0
 2701 0365 0F       		.uleb128 0xf
 2702 0366 FF050000 		.4byte	.LASF87
 2703 036a 05       		.byte	0x5
 2704 036b 43       		.byte	0x43
 2705 036c 8A030000 		.4byte	0x38a
 2706 0370 04       		.byte	0x4
 2707 0371 0F       		.uleb128 0xf
 2708 0372 C2030000 		.4byte	.LASF88
 2709 0376 05       		.byte	0x5
 2710 0377 44       		.byte	0x44
 2711 0378 6B000000 		.4byte	0x6b
 2712 037c 06       		.byte	0x6
 2713 037d 0F       		.uleb128 0xf
ARM GAS  C:\Users\ADMINI~1.SC-\AppData\Local\Temp\ccVsST00.s 			page 59


 2714 037e AF0C0000 		.4byte	.LASF89
 2715 0382 05       		.byte	0x5
 2716 0383 45       		.byte	0x45
 2717 0384 9A030000 		.4byte	0x39a
 2718 0388 07       		.byte	0x7
 2719 0389 00       		.byte	0
 2720 038a 08       		.uleb128 0x8
 2721 038b 6B000000 		.4byte	0x6b
 2722 038f 9A030000 		.4byte	0x39a
 2723 0393 09       		.uleb128 0x9
 2724 0394 A1000000 		.4byte	0xa1
 2725 0398 01       		.byte	0x1
 2726 0399 00       		.byte	0
 2727 039a 08       		.uleb128 0x8
 2728 039b 6B000000 		.4byte	0x6b
 2729 039f AA030000 		.4byte	0x3aa
 2730 03a3 09       		.uleb128 0x9
 2731 03a4 A1000000 		.4byte	0xa1
 2732 03a8 07       		.byte	0x7
 2733 03a9 00       		.byte	0
 2734 03aa 04       		.uleb128 0x4
 2735 03ab C0050000 		.4byte	.LASF90
 2736 03af 05       		.byte	0x5
 2737 03b0 46       		.byte	0x46
 2738 03b1 51030000 		.4byte	0x351
 2739 03b5 0E       		.uleb128 0xe
 2740 03b6 76       		.byte	0x76
 2741 03b7 06       		.byte	0x6
 2742 03b8 20       		.byte	0x20
 2743 03b9 8A040000 		.4byte	0x48a
 2744 03bd 0F       		.uleb128 0xf
 2745 03be 90000000 		.4byte	.LASF91
 2746 03c2 06       		.byte	0x6
 2747 03c3 22       		.byte	0x22
 2748 03c4 8A040000 		.4byte	0x48a
 2749 03c8 00       		.byte	0
 2750 03c9 0F       		.uleb128 0xf
 2751 03ca 1C010000 		.4byte	.LASF92
 2752 03ce 06       		.byte	0x6
 2753 03cf 23       		.byte	0x23
 2754 03d0 9A040000 		.4byte	0x49a
 2755 03d4 28       		.byte	0x28
 2756 03d5 0F       		.uleb128 0xf
 2757 03d6 A90A0000 		.4byte	.LASF93
 2758 03da 06       		.byte	0x6
 2759 03db 25       		.byte	0x25
 2760 03dc 6B000000 		.4byte	0x6b
 2761 03e0 64       		.byte	0x64
 2762 03e1 0F       		.uleb128 0xf
 2763 03e2 620C0000 		.4byte	.LASF94
 2764 03e6 06       		.byte	0x6
 2765 03e7 26       		.byte	0x26
 2766 03e8 6B000000 		.4byte	0x6b
 2767 03ec 65       		.byte	0x65
 2768 03ed 0F       		.uleb128 0xf
 2769 03ee A5090000 		.4byte	.LASF95
 2770 03f2 06       		.byte	0x6
ARM GAS  C:\Users\ADMINI~1.SC-\AppData\Local\Temp\ccVsST00.s 			page 60


 2771 03f3 27       		.byte	0x27
 2772 03f4 6B000000 		.4byte	0x6b
 2773 03f8 66       		.byte	0x66
 2774 03f9 0F       		.uleb128 0xf
 2775 03fa 78060000 		.4byte	.LASF96
 2776 03fe 06       		.byte	0x6
 2777 03ff 28       		.byte	0x28
 2778 0400 6B000000 		.4byte	0x6b
 2779 0404 67       		.byte	0x67
 2780 0405 0F       		.uleb128 0xf
 2781 0406 9D080000 		.4byte	.LASF97
 2782 040a 06       		.byte	0x6
 2783 040b 29       		.byte	0x29
 2784 040c 6B000000 		.4byte	0x6b
 2785 0410 68       		.byte	0x68
 2786 0411 0F       		.uleb128 0xf
 2787 0412 4C010000 		.4byte	.LASF98
 2788 0416 06       		.byte	0x6
 2789 0417 2A       		.byte	0x2a
 2790 0418 6B000000 		.4byte	0x6b
 2791 041c 69       		.byte	0x69
 2792 041d 0F       		.uleb128 0xf
 2793 041e 39090000 		.4byte	.LASF99
 2794 0422 06       		.byte	0x6
 2795 0423 2B       		.byte	0x2b
 2796 0424 6B000000 		.4byte	0x6b
 2797 0428 6A       		.byte	0x6a
 2798 0429 0F       		.uleb128 0xf
 2799 042a AA010000 		.4byte	.LASF100
 2800 042e 06       		.byte	0x6
 2801 042f 2D       		.byte	0x2d
 2802 0430 6B000000 		.4byte	0x6b
 2803 0434 6B       		.byte	0x6b
 2804 0435 0F       		.uleb128 0xf
 2805 0436 500C0000 		.4byte	.LASF101
 2806 043a 06       		.byte	0x6
 2807 043b 2E       		.byte	0x2e
 2808 043c 6B000000 		.4byte	0x6b
 2809 0440 6C       		.byte	0x6c
 2810 0441 0F       		.uleb128 0xf
 2811 0442 1F030000 		.4byte	.LASF102
 2812 0446 06       		.byte	0x6
 2813 0447 2F       		.byte	0x2f
 2814 0448 6B000000 		.4byte	0x6b
 2815 044c 6D       		.byte	0x6d
 2816 044d 0F       		.uleb128 0xf
 2817 044e 79040000 		.4byte	.LASF103
 2818 0452 06       		.byte	0x6
 2819 0453 30       		.byte	0x30
 2820 0454 76000000 		.4byte	0x76
 2821 0458 6E       		.byte	0x6e
 2822 0459 0F       		.uleb128 0xf
 2823 045a E2080000 		.4byte	.LASF104
 2824 045e 06       		.byte	0x6
 2825 045f 31       		.byte	0x31
 2826 0460 6B000000 		.4byte	0x6b
 2827 0464 70       		.byte	0x70
ARM GAS  C:\Users\ADMINI~1.SC-\AppData\Local\Temp\ccVsST00.s 			page 61


 2828 0465 0F       		.uleb128 0xf
 2829 0466 2A040000 		.4byte	.LASF105
 2830 046a 06       		.byte	0x6
 2831 046b 32       		.byte	0x32
 2832 046c 6B000000 		.4byte	0x6b
 2833 0470 71       		.byte	0x71
 2834 0471 0F       		.uleb128 0xf
 2835 0472 7F020000 		.4byte	.LASF106
 2836 0476 06       		.byte	0x6
 2837 0477 34       		.byte	0x34
 2838 0478 6B000000 		.4byte	0x6b
 2839 047c 72       		.byte	0x72
 2840 047d 10       		.uleb128 0x10
 2841 047e 43726300 		.ascii	"Crc\000"
 2842 0482 06       		.byte	0x6
 2843 0483 36       		.byte	0x36
 2844 0484 76000000 		.4byte	0x76
 2845 0488 74       		.byte	0x74
 2846 0489 00       		.byte	0
 2847 048a 08       		.uleb128 0x8
 2848 048b 6B000000 		.4byte	0x6b
 2849 048f 9A040000 		.4byte	0x49a
 2850 0493 09       		.uleb128 0x9
 2851 0494 A1000000 		.4byte	0xa1
 2852 0498 27       		.byte	0x27
 2853 0499 00       		.byte	0
 2854 049a 08       		.uleb128 0x8
 2855 049b 6B000000 		.4byte	0x6b
 2856 049f AA040000 		.4byte	0x4aa
 2857 04a3 09       		.uleb128 0x9
 2858 04a4 A1000000 		.4byte	0xa1
 2859 04a8 3B       		.byte	0x3b
 2860 04a9 00       		.byte	0
 2861 04aa 04       		.uleb128 0x4
 2862 04ab 55060000 		.4byte	.LASF107
 2863 04af 06       		.byte	0x6
 2864 04b0 37       		.byte	0x37
 2865 04b1 B5030000 		.4byte	0x3b5
 2866 04b5 0E       		.uleb128 0xe
 2867 04b6 58       		.byte	0x58
 2868 04b7 07       		.byte	0x7
 2869 04b8 04       		.byte	0x4
 2870 04b9 E2040000 		.4byte	0x4e2
 2871 04bd 0F       		.uleb128 0xf
 2872 04be 23000000 		.4byte	.LASF108
 2873 04c2 07       		.byte	0x7
 2874 04c3 06       		.byte	0x6
 2875 04c4 E2040000 		.4byte	0x4e2
 2876 04c8 00       		.byte	0
 2877 04c9 0F       		.uleb128 0xf
 2878 04ca FB020000 		.4byte	.LASF109
 2879 04ce 07       		.byte	0x7
 2880 04cf 07       		.byte	0x7
 2881 04d0 F2040000 		.4byte	0x4f2
 2882 04d4 08       		.byte	0x8
 2883 04d5 0F       		.uleb128 0xf
 2884 04d6 300A0000 		.4byte	.LASF110
ARM GAS  C:\Users\ADMINI~1.SC-\AppData\Local\Temp\ccVsST00.s 			page 62


 2885 04da 07       		.byte	0x7
 2886 04db 08       		.byte	0x8
 2887 04dc 02050000 		.4byte	0x502
 2888 04e0 18       		.byte	0x18
 2889 04e1 00       		.byte	0
 2890 04e2 08       		.uleb128 0x8
 2891 04e3 64000000 		.4byte	0x64
 2892 04e7 F2040000 		.4byte	0x4f2
 2893 04eb 09       		.uleb128 0x9
 2894 04ec A1000000 		.4byte	0xa1
 2895 04f0 01       		.byte	0x1
 2896 04f1 00       		.byte	0
 2897 04f2 08       		.uleb128 0x8
 2898 04f3 64000000 		.4byte	0x64
 2899 04f7 02050000 		.4byte	0x502
 2900 04fb 09       		.uleb128 0x9
 2901 04fc A1000000 		.4byte	0xa1
 2902 0500 03       		.byte	0x3
 2903 0501 00       		.byte	0
 2904 0502 08       		.uleb128 0x8
 2905 0503 2C000000 		.4byte	0x2c
 2906 0507 12050000 		.4byte	0x512
 2907 050b 09       		.uleb128 0x9
 2908 050c A1000000 		.4byte	0xa1
 2909 0510 3F       		.byte	0x3f
 2910 0511 00       		.byte	0
 2911 0512 04       		.uleb128 0x4
 2912 0513 F4080000 		.4byte	.LASF111
 2913 0517 07       		.byte	0x7
 2914 0518 09       		.byte	0x9
 2915 0519 B5040000 		.4byte	0x4b5
 2916 051d 11       		.uleb128 0x11
 2917 051e 4F030000 		.4byte	.LASF182
 2918 0522 18       		.byte	0x18
 2919 0523 01       		.byte	0x1
 2920 0524 1D       		.byte	0x1d
 2921 0525 4E050000 		.4byte	0x54e
 2922 0529 0F       		.uleb128 0xf
 2923 052a A7030000 		.4byte	.LASF112
 2924 052e 01       		.byte	0x1
 2925 052f 1F       		.byte	0x1f
 2926 0530 9A030000 		.4byte	0x39a
 2927 0534 00       		.byte	0
 2928 0535 0F       		.uleb128 0xf
 2929 0536 EB080000 		.4byte	.LASF113
 2930 053a 01       		.byte	0x1
 2931 053b 20       		.byte	0x20
 2932 053c 9A030000 		.4byte	0x39a
 2933 0540 08       		.byte	0x8
 2934 0541 0F       		.uleb128 0xf
 2935 0542 B0030000 		.4byte	.LASF114
 2936 0546 01       		.byte	0x1
 2937 0547 21       		.byte	0x21
 2938 0548 9A030000 		.4byte	0x39a
 2939 054c 10       		.byte	0x10
 2940 054d 00       		.byte	0
 2941 054e 12       		.uleb128 0x12
ARM GAS  C:\Users\ADMINI~1.SC-\AppData\Local\Temp\ccVsST00.s 			page 63


 2942 054f CE080000 		.4byte	.LASF115
 2943 0553 01       		.byte	0x1
 2944 0554 2C       		.byte	0x2c
 2945 0555 00000000 		.4byte	.LFB35
 2946 0559 58000000 		.4byte	.LFE35-.LFB35
 2947 055d 01       		.uleb128 0x1
 2948 055e 9C       		.byte	0x9c
 2949 055f 80050000 		.4byte	0x580
 2950 0563 13       		.uleb128 0x13
 2951 0564 9A010000 		.4byte	.LASF121
 2952 0568 01       		.byte	0x1
 2953 0569 2C       		.byte	0x2c
 2954 056a 6B000000 		.4byte	0x6b
 2955 056e 02       		.uleb128 0x2
 2956 056f 91       		.byte	0x91
 2957 0570 67       		.sleb128 -25
 2958 0571 14       		.uleb128 0x14
 2959 0572 46020000 		.4byte	.LASF117
 2960 0576 01       		.byte	0x1
 2961 0577 2F       		.byte	0x2f
 2962 0578 F2020000 		.4byte	0x2f2
 2963 057c 02       		.uleb128 0x2
 2964 057d 91       		.byte	0x91
 2965 057e 6C       		.sleb128 -20
 2966 057f 00       		.byte	0
 2967 0580 12       		.uleb128 0x12
 2968 0581 83080000 		.4byte	.LASF116
 2969 0585 01       		.byte	0x1
 2970 0586 3B       		.byte	0x3b
 2971 0587 00000000 		.4byte	.LFB36
 2972 058b 44000000 		.4byte	.LFE36-.LFB36
 2973 058f 01       		.uleb128 0x1
 2974 0590 9C       		.byte	0x9c
 2975 0591 A4050000 		.4byte	0x5a4
 2976 0595 14       		.uleb128 0x14
 2977 0596 46020000 		.4byte	.LASF117
 2978 059a 01       		.byte	0x1
 2979 059b 3E       		.byte	0x3e
 2980 059c F2020000 		.4byte	0x2f2
 2981 05a0 02       		.uleb128 0x2
 2982 05a1 91       		.byte	0x91
 2983 05a2 6C       		.sleb128 -20
 2984 05a3 00       		.byte	0
 2985 05a4 12       		.uleb128 0x12
 2986 05a5 1E020000 		.4byte	.LASF118
 2987 05a9 01       		.byte	0x1
 2988 05aa 4B       		.byte	0x4b
 2989 05ab 00000000 		.4byte	.LFB37
 2990 05af D8000000 		.4byte	.LFE37-.LFB37
 2991 05b3 01       		.uleb128 0x1
 2992 05b4 9C       		.byte	0x9c
 2993 05b5 E2050000 		.4byte	0x5e2
 2994 05b9 15       		.uleb128 0x15
 2995 05ba 6900     		.ascii	"i\000"
 2996 05bc 01       		.byte	0x1
 2997 05bd 4D       		.byte	0x4d
 2998 05be 6B000000 		.4byte	0x6b
ARM GAS  C:\Users\ADMINI~1.SC-\AppData\Local\Temp\ccVsST00.s 			page 64


 2999 05c2 02       		.uleb128 0x2
 3000 05c3 91       		.byte	0x91
 3001 05c4 6F       		.sleb128 -17
 3002 05c5 15       		.uleb128 0x15
 3003 05c6 63726300 		.ascii	"crc\000"
 3004 05ca 01       		.byte	0x1
 3005 05cb 4E       		.byte	0x4e
 3006 05cc 76000000 		.4byte	0x76
 3007 05d0 02       		.uleb128 0x2
 3008 05d1 91       		.byte	0x91
 3009 05d2 6A       		.sleb128 -22
 3010 05d3 14       		.uleb128 0x14
 3011 05d4 4C080000 		.4byte	.LASF119
 3012 05d8 01       		.byte	0x1
 3013 05d9 4F       		.byte	0x4f
 3014 05da 76000000 		.4byte	0x76
 3015 05de 02       		.uleb128 0x2
 3016 05df 91       		.byte	0x91
 3017 05e0 6C       		.sleb128 -20
 3018 05e1 00       		.byte	0
 3019 05e2 12       		.uleb128 0x12
 3020 05e3 59020000 		.4byte	.LASF120
 3021 05e7 01       		.byte	0x1
 3022 05e8 68       		.byte	0x68
 3023 05e9 00000000 		.4byte	.LFB38
 3024 05ed 74000000 		.4byte	.LFE38-.LFB38
 3025 05f1 01       		.uleb128 0x1
 3026 05f2 9C       		.byte	0x9c
 3027 05f3 22060000 		.4byte	0x622
 3028 05f7 16       		.uleb128 0x16
 3029 05f8 636D6400 		.ascii	"cmd\000"
 3030 05fc 01       		.byte	0x1
 3031 05fd 68       		.byte	0x68
 3032 05fe 6B000000 		.4byte	0x6b
 3033 0602 02       		.uleb128 0x2
 3034 0603 91       		.byte	0x91
 3035 0604 67       		.sleb128 -25
 3036 0605 13       		.uleb128 0x13
 3037 0606 A8050000 		.4byte	.LASF122
 3038 060a 01       		.byte	0x1
 3039 060b 68       		.byte	0x68
 3040 060c 6B000000 		.4byte	0x6b
 3041 0610 02       		.uleb128 0x2
 3042 0611 91       		.byte	0x91
 3043 0612 66       		.sleb128 -26
 3044 0613 15       		.uleb128 0x15
 3045 0614 63726300 		.ascii	"crc\000"
 3046 0618 01       		.byte	0x1
 3047 0619 6A       		.byte	0x6a
 3048 061a 76000000 		.4byte	0x76
 3049 061e 02       		.uleb128 0x2
 3050 061f 91       		.byte	0x91
 3051 0620 6E       		.sleb128 -18
 3052 0621 00       		.byte	0
 3053 0622 12       		.uleb128 0x12
 3054 0623 93050000 		.4byte	.LASF123
 3055 0627 01       		.byte	0x1
ARM GAS  C:\Users\ADMINI~1.SC-\AppData\Local\Temp\ccVsST00.s 			page 65


 3056 0628 7C       		.byte	0x7c
 3057 0629 00000000 		.4byte	.LFB39
 3058 062d 84000000 		.4byte	.LFE39-.LFB39
 3059 0631 01       		.uleb128 0x1
 3060 0632 9C       		.byte	0x9c
 3061 0633 54060000 		.4byte	0x654
 3062 0637 15       		.uleb128 0x15
 3063 0638 766F6C00 		.ascii	"vol\000"
 3064 063c 01       		.byte	0x1
 3065 063d 7E       		.byte	0x7e
 3066 063e 76000000 		.4byte	0x76
 3067 0642 02       		.uleb128 0x2
 3068 0643 91       		.byte	0x91
 3069 0644 6E       		.sleb128 -18
 3070 0645 15       		.uleb128 0x15
 3071 0646 63726300 		.ascii	"crc\000"
 3072 064a 01       		.byte	0x1
 3073 064b 7F       		.byte	0x7f
 3074 064c 76000000 		.4byte	0x76
 3075 0650 02       		.uleb128 0x2
 3076 0651 91       		.byte	0x91
 3077 0652 6C       		.sleb128 -20
 3078 0653 00       		.byte	0
 3079 0654 12       		.uleb128 0x12
 3080 0655 F1060000 		.4byte	.LASF124
 3081 0659 01       		.byte	0x1
 3082 065a 94       		.byte	0x94
 3083 065b 00000000 		.4byte	.LFB40
 3084 065f A8000000 		.4byte	.LFE40-.LFB40
 3085 0663 01       		.uleb128 0x1
 3086 0664 9C       		.byte	0x9c
 3087 0665 78060000 		.4byte	0x678
 3088 0669 15       		.uleb128 0x15
 3089 066a 63726300 		.ascii	"crc\000"
 3090 066e 01       		.byte	0x1
 3091 066f 96       		.byte	0x96
 3092 0670 76000000 		.4byte	0x76
 3093 0674 02       		.uleb128 0x2
 3094 0675 91       		.byte	0x91
 3095 0676 6E       		.sleb128 -18
 3096 0677 00       		.byte	0
 3097 0678 12       		.uleb128 0x12
 3098 0679 03070000 		.4byte	.LASF125
 3099 067d 01       		.byte	0x1
 3100 067e B5       		.byte	0xb5
 3101 067f 00000000 		.4byte	.LFB41
 3102 0683 6C000000 		.4byte	.LFE41-.LFB41
 3103 0687 01       		.uleb128 0x1
 3104 0688 9C       		.byte	0x9c
 3105 0689 B8060000 		.4byte	0x6b8
 3106 068d 16       		.uleb128 0x16
 3107 068e 636D6400 		.ascii	"cmd\000"
 3108 0692 01       		.byte	0x1
 3109 0693 B5       		.byte	0xb5
 3110 0694 6B000000 		.4byte	0x6b
 3111 0698 02       		.uleb128 0x2
 3112 0699 91       		.byte	0x91
ARM GAS  C:\Users\ADMINI~1.SC-\AppData\Local\Temp\ccVsST00.s 			page 66


 3113 069a 67       		.sleb128 -25
 3114 069b 13       		.uleb128 0x13
 3115 069c DD0A0000 		.4byte	.LASF126
 3116 06a0 01       		.byte	0x1
 3117 06a1 B5       		.byte	0xb5
 3118 06a2 6B000000 		.4byte	0x6b
 3119 06a6 02       		.uleb128 0x2
 3120 06a7 91       		.byte	0x91
 3121 06a8 66       		.sleb128 -26
 3122 06a9 15       		.uleb128 0x15
 3123 06aa 63726300 		.ascii	"crc\000"
 3124 06ae 01       		.byte	0x1
 3125 06af B7       		.byte	0xb7
 3126 06b0 76000000 		.4byte	0x76
 3127 06b4 02       		.uleb128 0x2
 3128 06b5 91       		.byte	0x91
 3129 06b6 6E       		.sleb128 -18
 3130 06b7 00       		.byte	0
 3131 06b8 12       		.uleb128 0x12
 3132 06b9 4D000000 		.4byte	.LASF127
 3133 06bd 01       		.byte	0x1
 3134 06be C8       		.byte	0xc8
 3135 06bf 00000000 		.4byte	.LFB42
 3136 06c3 88000000 		.4byte	.LFE42-.LFB42
 3137 06c7 01       		.uleb128 0x1
 3138 06c8 9C       		.byte	0x9c
 3139 06c9 EA060000 		.4byte	0x6ea
 3140 06cd 14       		.uleb128 0x14
 3141 06ce 58030000 		.4byte	.LASF128
 3142 06d2 01       		.byte	0x1
 3143 06d3 CA       		.byte	0xca
 3144 06d4 6B000000 		.4byte	0x6b
 3145 06d8 02       		.uleb128 0x2
 3146 06d9 91       		.byte	0x91
 3147 06da 6D       		.sleb128 -19
 3148 06db 14       		.uleb128 0x14
 3149 06dc 650B0000 		.4byte	.LASF129
 3150 06e0 01       		.byte	0x1
 3151 06e1 CB       		.byte	0xcb
 3152 06e2 76000000 		.4byte	0x76
 3153 06e6 02       		.uleb128 0x2
 3154 06e7 91       		.byte	0x91
 3155 06e8 6E       		.sleb128 -18
 3156 06e9 00       		.byte	0
 3157 06ea 12       		.uleb128 0x12
 3158 06eb 590B0000 		.4byte	.LASF130
 3159 06ef 01       		.byte	0x1
 3160 06f0 E6       		.byte	0xe6
 3161 06f1 00000000 		.4byte	.LFB43
 3162 06f5 64000000 		.4byte	.LFE43-.LFB43
 3163 06f9 01       		.uleb128 0x1
 3164 06fa 9C       		.byte	0x9c
 3165 06fb 2A070000 		.4byte	0x72a
 3166 06ff 16       		.uleb128 0x16
 3167 0700 636D6400 		.ascii	"cmd\000"
 3168 0704 01       		.byte	0x1
 3169 0705 E6       		.byte	0xe6
ARM GAS  C:\Users\ADMINI~1.SC-\AppData\Local\Temp\ccVsST00.s 			page 67


 3170 0706 6B000000 		.4byte	0x6b
 3171 070a 02       		.uleb128 0x2
 3172 070b 91       		.byte	0x91
 3173 070c 6F       		.sleb128 -17
 3174 070d 13       		.uleb128 0x13
 3175 070e D30C0000 		.4byte	.LASF131
 3176 0712 01       		.byte	0x1
 3177 0713 E6       		.byte	0xe6
 3178 0714 6B000000 		.4byte	0x6b
 3179 0718 02       		.uleb128 0x2
 3180 0719 91       		.byte	0x91
 3181 071a 6E       		.sleb128 -18
 3182 071b 14       		.uleb128 0x14
 3183 071c 58030000 		.4byte	.LASF128
 3184 0720 01       		.byte	0x1
 3185 0721 E8       		.byte	0xe8
 3186 0722 6B000000 		.4byte	0x6b
 3187 0726 02       		.uleb128 0x2
 3188 0727 91       		.byte	0x91
 3189 0728 77       		.sleb128 -9
 3190 0729 00       		.byte	0
 3191 072a 12       		.uleb128 0x12
 3192 072b 6D020000 		.4byte	.LASF132
 3193 072f 01       		.byte	0x1
 3194 0730 F9       		.byte	0xf9
 3195 0731 00000000 		.4byte	.LFB44
 3196 0735 58000000 		.4byte	.LFE44-.LFB44
 3197 0739 01       		.uleb128 0x1
 3198 073a 9C       		.byte	0x9c
 3199 073b 4E070000 		.4byte	0x74e
 3200 073f 14       		.uleb128 0x14
 3201 0740 58030000 		.4byte	.LASF128
 3202 0744 01       		.byte	0x1
 3203 0745 FB       		.byte	0xfb
 3204 0746 6B000000 		.4byte	0x6b
 3205 074a 02       		.uleb128 0x2
 3206 074b 91       		.byte	0x91
 3207 074c 77       		.sleb128 -9
 3208 074d 00       		.byte	0
 3209 074e 17       		.uleb128 0x17
 3210 074f 67040000 		.4byte	.LASF133
 3211 0753 01       		.byte	0x1
 3212 0754 0D01     		.2byte	0x10d
 3213 0756 00000000 		.4byte	.LFB45
 3214 075a 88000000 		.4byte	.LFE45-.LFB45
 3215 075e 01       		.uleb128 0x1
 3216 075f 9C       		.byte	0x9c
 3217 0760 83070000 		.4byte	0x783
 3218 0764 18       		.uleb128 0x18
 3219 0765 58030000 		.4byte	.LASF128
 3220 0769 01       		.byte	0x1
 3221 076a 0F01     		.2byte	0x10f
 3222 076c 6B000000 		.4byte	0x6b
 3223 0770 02       		.uleb128 0x2
 3224 0771 91       		.byte	0x91
 3225 0772 77       		.sleb128 -9
 3226 0773 18       		.uleb128 0x18
ARM GAS  C:\Users\ADMINI~1.SC-\AppData\Local\Temp\ccVsST00.s 			page 68


 3227 0774 8F060000 		.4byte	.LASF134
 3228 0778 01       		.byte	0x1
 3229 0779 1001     		.2byte	0x110
 3230 077b 39020000 		.4byte	0x239
 3231 077f 02       		.uleb128 0x2
 3232 0780 91       		.byte	0x91
 3233 0781 64       		.sleb128 -28
 3234 0782 00       		.byte	0
 3235 0783 19       		.uleb128 0x19
 3236 0784 27090000 		.4byte	.LASF135
 3237 0788 01       		.byte	0x1
 3238 0789 3101     		.2byte	0x131
 3239 078b 00000000 		.4byte	.LFB46
 3240 078f B8000000 		.4byte	.LFE46-.LFB46
 3241 0793 01       		.uleb128 0x1
 3242 0794 9C       		.byte	0x9c
 3243 0795 F2070000 		.4byte	0x7f2
 3244 0799 1A       		.uleb128 0x1a
 3245 079a D8070000 		.4byte	.LASF136
 3246 079e 01       		.byte	0x1
 3247 079f 3101     		.2byte	0x131
 3248 07a1 A8000000 		.4byte	0xa8
 3249 07a5 02       		.uleb128 0x2
 3250 07a6 91       		.byte	0x91
 3251 07a7 6C       		.sleb128 -20
 3252 07a8 1A       		.uleb128 0x1a
 3253 07a9 BC030000 		.4byte	.LASF137
 3254 07ad 01       		.byte	0x1
 3255 07ae 3101     		.2byte	0x131
 3256 07b0 AE000000 		.4byte	0xae
 3257 07b4 02       		.uleb128 0x2
 3258 07b5 91       		.byte	0x91
 3259 07b6 68       		.sleb128 -24
 3260 07b7 1A       		.uleb128 0x1a
 3261 07b8 19020000 		.4byte	.LASF138
 3262 07bc 01       		.byte	0x1
 3263 07bd 3101     		.2byte	0x131
 3264 07bf 76000000 		.4byte	0x76
 3265 07c3 02       		.uleb128 0x2
 3266 07c4 91       		.byte	0x91
 3267 07c5 66       		.sleb128 -26
 3268 07c6 1B       		.uleb128 0x1b
 3269 07c7 64646C00 		.ascii	"ddl\000"
 3270 07cb 01       		.byte	0x1
 3271 07cc 3301     		.2byte	0x133
 3272 07ce 9A000000 		.4byte	0x9a
 3273 07d2 02       		.uleb128 0x2
 3274 07d3 91       		.byte	0x91
 3275 07d4 77       		.sleb128 -9
 3276 07d5 1B       		.uleb128 0x1b
 3277 07d6 64646800 		.ascii	"ddh\000"
 3278 07da 01       		.byte	0x1
 3279 07db 3301     		.2byte	0x133
 3280 07dd 9A000000 		.4byte	0x9a
 3281 07e1 02       		.uleb128 0x2
 3282 07e2 91       		.byte	0x91
 3283 07e3 76       		.sleb128 -10
ARM GAS  C:\Users\ADMINI~1.SC-\AppData\Local\Temp\ccVsST00.s 			page 69


 3284 07e4 1B       		.uleb128 0x1b
 3285 07e5 6900     		.ascii	"i\000"
 3286 07e7 01       		.byte	0x1
 3287 07e8 3401     		.2byte	0x134
 3288 07ea 5D000000 		.4byte	0x5d
 3289 07ee 02       		.uleb128 0x2
 3290 07ef 91       		.byte	0x91
 3291 07f0 70       		.sleb128 -16
 3292 07f1 00       		.byte	0
 3293 07f2 17       		.uleb128 0x17
 3294 07f3 6E0B0000 		.4byte	.LASF139
 3295 07f7 01       		.byte	0x1
 3296 07f8 4701     		.2byte	0x147
 3297 07fa 00000000 		.4byte	.LFB47
 3298 07fe 70000000 		.4byte	.LFE47-.LFB47
 3299 0802 01       		.uleb128 0x1
 3300 0803 9C       		.byte	0x9c
 3301 0804 48080000 		.4byte	0x848
 3302 0808 1B       		.uleb128 0x1b
 3303 0809 6B657900 		.ascii	"key\000"
 3304 080d 01       		.byte	0x1
 3305 080e 4901     		.2byte	0x149
 3306 0810 39020000 		.4byte	0x239
 3307 0814 02       		.uleb128 0x2
 3308 0815 91       		.byte	0x91
 3309 0816 60       		.sleb128 -32
 3310 0817 18       		.uleb128 0x18
 3311 0818 1E0B0000 		.4byte	.LASF140
 3312 081c 01       		.byte	0x1
 3313 081d 4A01     		.2byte	0x14a
 3314 081f 48080000 		.4byte	0x848
 3315 0823 03       		.uleb128 0x3
 3316 0824 91       		.byte	0x91
 3317 0825 BC7F     		.sleb128 -68
 3318 0827 18       		.uleb128 0x18
 3319 0828 E40A0000 		.4byte	.LASF141
 3320 082c 01       		.byte	0x1
 3321 082d 4C01     		.2byte	0x14c
 3322 082f 58080000 		.4byte	0x858
 3323 0833 03       		.uleb128 0x3
 3324 0834 91       		.byte	0x91
 3325 0835 AC7F     		.sleb128 -84
 3326 0837 1B       		.uleb128 0x1b
 3327 0838 6D643500 		.ascii	"md5\000"
 3328 083c 01       		.byte	0x1
 3329 083d 4D01     		.2byte	0x14d
 3330 083f 12050000 		.4byte	0x512
 3331 0843 03       		.uleb128 0x3
 3332 0844 91       		.byte	0x91
 3333 0845 D47E     		.sleb128 -172
 3334 0847 00       		.byte	0
 3335 0848 08       		.uleb128 0x8
 3336 0849 9A000000 		.4byte	0x9a
 3337 084d 58080000 		.4byte	0x858
 3338 0851 09       		.uleb128 0x9
 3339 0852 A1000000 		.4byte	0xa1
 3340 0856 23       		.byte	0x23
ARM GAS  C:\Users\ADMINI~1.SC-\AppData\Local\Temp\ccVsST00.s 			page 70


 3341 0857 00       		.byte	0
 3342 0858 08       		.uleb128 0x8
 3343 0859 2C000000 		.4byte	0x2c
 3344 085d 68080000 		.4byte	0x868
 3345 0861 09       		.uleb128 0x9
 3346 0862 A1000000 		.4byte	0xa1
 3347 0866 0F       		.byte	0xf
 3348 0867 00       		.byte	0
 3349 0868 1C       		.uleb128 0x1c
 3350 0869 88020000 		.4byte	.LASF142
 3351 086d 01       		.byte	0x1
 3352 086e 5D01     		.2byte	0x15d
 3353 0870 00000000 		.4byte	.LFB48
 3354 0874 5C000000 		.4byte	.LFE48-.LFB48
 3355 0878 01       		.uleb128 0x1
 3356 0879 9C       		.byte	0x9c
 3357 087a 1D       		.uleb128 0x1d
 3358 087b C4090000 		.4byte	.LASF143
 3359 087f 01       		.byte	0x1
 3360 0880 7301     		.2byte	0x173
 3361 0882 00000000 		.4byte	.LFB49
 3362 0886 14000000 		.4byte	.LFE49-.LFB49
 3363 088a 01       		.uleb128 0x1
 3364 088b 9C       		.byte	0x9c
 3365 088c 17       		.uleb128 0x17
 3366 088d 220A0000 		.4byte	.LASF144
 3367 0891 01       		.byte	0x1
 3368 0892 7D01     		.2byte	0x17d
 3369 0894 00000000 		.4byte	.LFB50
 3370 0898 08010000 		.4byte	.LFE50-.LFB50
 3371 089c 01       		.uleb128 0x1
 3372 089d 9C       		.byte	0x9c
 3373 089e EE080000 		.4byte	0x8ee
 3374 08a2 1B       		.uleb128 0x1b
 3375 08a3 636D6400 		.ascii	"cmd\000"
 3376 08a7 01       		.byte	0x1
 3377 08a8 7F01     		.2byte	0x17f
 3378 08aa 6B000000 		.4byte	0x6b
 3379 08ae 02       		.uleb128 0x2
 3380 08af 91       		.byte	0x91
 3381 08b0 6F       		.sleb128 -17
 3382 08b1 18       		.uleb128 0x18
 3383 08b2 5B070000 		.4byte	.LASF145
 3384 08b6 01       		.byte	0x1
 3385 08b7 7F01     		.2byte	0x17f
 3386 08b9 6B000000 		.4byte	0x6b
 3387 08bd 02       		.uleb128 0x2
 3388 08be 91       		.byte	0x91
 3389 08bf 6E       		.sleb128 -18
 3390 08c0 18       		.uleb128 0x18
 3391 08c1 30000000 		.4byte	.LASF146
 3392 08c5 01       		.byte	0x1
 3393 08c6 8001     		.2byte	0x180
 3394 08c8 6B000000 		.4byte	0x6b
 3395 08cc 02       		.uleb128 0x2
 3396 08cd 91       		.byte	0x91
 3397 08ce 6C       		.sleb128 -20
ARM GAS  C:\Users\ADMINI~1.SC-\AppData\Local\Temp\ccVsST00.s 			page 71


 3398 08cf 18       		.uleb128 0x18
 3399 08d0 4F0B0000 		.4byte	.LASF147
 3400 08d4 01       		.byte	0x1
 3401 08d5 8001     		.2byte	0x180
 3402 08d7 6B000000 		.4byte	0x6b
 3403 08db 02       		.uleb128 0x2
 3404 08dc 91       		.byte	0x91
 3405 08dd 6D       		.sleb128 -19
 3406 08de 18       		.uleb128 0x18
 3407 08df E9090000 		.4byte	.LASF148
 3408 08e3 01       		.byte	0x1
 3409 08e4 8201     		.2byte	0x182
 3410 08e6 EE080000 		.4byte	0x8ee
 3411 08ea 02       		.uleb128 0x2
 3412 08eb 91       		.byte	0x91
 3413 08ec 58       		.sleb128 -40
 3414 08ed 00       		.byte	0
 3415 08ee 08       		.uleb128 0x8
 3416 08ef 6B000000 		.4byte	0x6b
 3417 08f3 FE080000 		.4byte	0x8fe
 3418 08f7 09       		.uleb128 0x9
 3419 08f8 A1000000 		.4byte	0xa1
 3420 08fc 13       		.byte	0x13
 3421 08fd 00       		.byte	0
 3422 08fe 1C       		.uleb128 0x1c
 3423 08ff FB030000 		.4byte	.LASF149
 3424 0903 01       		.byte	0x1
 3425 0904 BC01     		.2byte	0x1bc
 3426 0906 00000000 		.4byte	.LFB51
 3427 090a 48000000 		.4byte	.LFE51-.LFB51
 3428 090e 01       		.uleb128 0x1
 3429 090f 9C       		.byte	0x9c
 3430 0910 1E       		.uleb128 0x1e
 3431 0911 BD070000 		.4byte	.LASF155
 3432 0915 01       		.byte	0x1
 3433 0916 D701     		.2byte	0x1d7
 3434 0918 76000000 		.4byte	0x76
 3435 091c 00000000 		.4byte	.LFB52
 3436 0920 C0000000 		.4byte	.LFE52-.LFB52
 3437 0924 01       		.uleb128 0x1
 3438 0925 9C       		.byte	0x9c
 3439 0926 76090000 		.4byte	0x976
 3440 092a 1A       		.uleb128 0x1a
 3441 092b B9080000 		.4byte	.LASF150
 3442 092f 01       		.byte	0x1
 3443 0930 D701     		.2byte	0x1d7
 3444 0932 AE000000 		.4byte	0xae
 3445 0936 02       		.uleb128 0x2
 3446 0937 91       		.byte	0x91
 3447 0938 6C       		.sleb128 -20
 3448 0939 1A       		.uleb128 0x1a
 3449 093a 86060000 		.4byte	.LASF151
 3450 093e 01       		.byte	0x1
 3451 093f D701     		.2byte	0x1d7
 3452 0941 6B000000 		.4byte	0x6b
 3453 0945 02       		.uleb128 0x2
 3454 0946 91       		.byte	0x91
ARM GAS  C:\Users\ADMINI~1.SC-\AppData\Local\Temp\ccVsST00.s 			page 72


 3455 0947 6B       		.sleb128 -21
 3456 0948 18       		.uleb128 0x18
 3457 0949 07060000 		.4byte	.LASF152
 3458 094d 01       		.byte	0x1
 3459 094e D901     		.2byte	0x1d9
 3460 0950 76000000 		.4byte	0x76
 3461 0954 02       		.uleb128 0x2
 3462 0955 91       		.byte	0x91
 3463 0956 76       		.sleb128 -10
 3464 0957 18       		.uleb128 0x18
 3465 0958 9C070000 		.4byte	.LASF153
 3466 095c 01       		.byte	0x1
 3467 095d DA01     		.2byte	0x1da
 3468 095f 6B000000 		.4byte	0x6b
 3469 0963 02       		.uleb128 0x2
 3470 0964 91       		.byte	0x91
 3471 0965 75       		.sleb128 -11
 3472 0966 18       		.uleb128 0x18
 3473 0967 44050000 		.4byte	.LASF154
 3474 096b 01       		.byte	0x1
 3475 096c DB01     		.2byte	0x1db
 3476 096e AE000000 		.4byte	0xae
 3477 0972 02       		.uleb128 0x2
 3478 0973 91       		.byte	0x91
 3479 0974 70       		.sleb128 -16
 3480 0975 00       		.byte	0
 3481 0976 1E       		.uleb128 0x1e
 3482 0977 B7060000 		.4byte	.LASF156
 3483 097b 01       		.byte	0x1
 3484 097c 0002     		.2byte	0x200
 3485 097e 6B000000 		.4byte	0x6b
 3486 0982 00000000 		.4byte	.LFB53
 3487 0986 64000000 		.4byte	.LFE53-.LFB53
 3488 098a 01       		.uleb128 0x1
 3489 098b 9C       		.byte	0x9c
 3490 098c CB090000 		.4byte	0x9cb
 3491 0990 1A       		.uleb128 0x1a
 3492 0991 FB070000 		.4byte	.LASF157
 3493 0995 01       		.byte	0x1
 3494 0996 0002     		.2byte	0x200
 3495 0998 AE000000 		.4byte	0xae
 3496 099c 02       		.uleb128 0x2
 3497 099d 91       		.byte	0x91
 3498 099e 6C       		.sleb128 -20
 3499 099f 1A       		.uleb128 0x1a
 3500 09a0 CC0A0000 		.4byte	.LASF158
 3501 09a4 01       		.byte	0x1
 3502 09a5 0002     		.2byte	0x200
 3503 09a7 6B000000 		.4byte	0x6b
 3504 09ab 02       		.uleb128 0x2
 3505 09ac 91       		.byte	0x91
 3506 09ad 6B       		.sleb128 -21
 3507 09ae 1B       		.uleb128 0x1b
 3508 09af 73756D00 		.ascii	"sum\000"
 3509 09b3 01       		.byte	0x1
 3510 09b4 0202     		.2byte	0x202
 3511 09b6 6B000000 		.4byte	0x6b
ARM GAS  C:\Users\ADMINI~1.SC-\AppData\Local\Temp\ccVsST00.s 			page 73


 3512 09ba 02       		.uleb128 0x2
 3513 09bb 91       		.byte	0x91
 3514 09bc 77       		.sleb128 -9
 3515 09bd 1B       		.uleb128 0x1b
 3516 09be 6900     		.ascii	"i\000"
 3517 09c0 01       		.byte	0x1
 3518 09c1 0202     		.2byte	0x202
 3519 09c3 6B000000 		.4byte	0x6b
 3520 09c7 02       		.uleb128 0x2
 3521 09c8 91       		.byte	0x91
 3522 09c9 76       		.sleb128 -10
 3523 09ca 00       		.byte	0
 3524 09cb 17       		.uleb128 0x17
 3525 09cc BC090000 		.4byte	.LASF159
 3526 09d0 01       		.byte	0x1
 3527 09d1 1102     		.2byte	0x211
 3528 09d3 00000000 		.4byte	.LFB54
 3529 09d7 30030000 		.4byte	.LFE54-.LFB54
 3530 09db 01       		.uleb128 0x1
 3531 09dc 9C       		.byte	0x9c
 3532 09dd 960A0000 		.4byte	0xa96
 3533 09e1 1F       		.uleb128 0x1f
 3534 09e2 6B657900 		.ascii	"key\000"
 3535 09e6 01       		.byte	0x1
 3536 09e7 1102     		.2byte	0x211
 3537 09e9 AE000000 		.4byte	0xae
 3538 09ed 03       		.uleb128 0x3
 3539 09ee 91       		.byte	0x91
 3540 09ef DC7B     		.sleb128 -548
 3541 09f1 1A       		.uleb128 0x1a
 3542 09f2 94080000 		.4byte	.LASF160
 3543 09f6 01       		.byte	0x1
 3544 09f7 1102     		.2byte	0x211
 3545 09f9 6B000000 		.4byte	0x6b
 3546 09fd 03       		.uleb128 0x3
 3547 09fe 91       		.byte	0x91
 3548 09ff DB7B     		.sleb128 -549
 3549 0a01 1F       		.uleb128 0x1f
 3550 0a02 62756600 		.ascii	"buf\000"
 3551 0a06 01       		.byte	0x1
 3552 0a07 1102     		.2byte	0x211
 3553 0a09 AE000000 		.4byte	0xae
 3554 0a0d 03       		.uleb128 0x3
 3555 0a0e 91       		.byte	0x91
 3556 0a0f D47B     		.sleb128 -556
 3557 0a11 1F       		.uleb128 0x1f
 3558 0a12 6C656E00 		.ascii	"len\000"
 3559 0a16 01       		.byte	0x1
 3560 0a17 1102     		.2byte	0x211
 3561 0a19 6B000000 		.4byte	0x6b
 3562 0a1d 03       		.uleb128 0x3
 3563 0a1e 91       		.byte	0x91
 3564 0a1f DA7B     		.sleb128 -550
 3565 0a21 18       		.uleb128 0x18
 3566 0a22 B2060000 		.4byte	.LASF161
 3567 0a26 01       		.byte	0x1
 3568 0a27 1302     		.2byte	0x213
ARM GAS  C:\Users\ADMINI~1.SC-\AppData\Local\Temp\ccVsST00.s 			page 74


 3569 0a29 960A0000 		.4byte	0xa96
 3570 0a2d 03       		.uleb128 0x3
 3571 0a2e 91       		.byte	0x91
 3572 0a2f E07D     		.sleb128 -288
 3573 0a31 18       		.uleb128 0x18
 3574 0a32 0D050000 		.4byte	.LASF162
 3575 0a36 01       		.byte	0x1
 3576 0a37 1402     		.2byte	0x214
 3577 0a39 960A0000 		.4byte	0xa96
 3578 0a3d 03       		.uleb128 0x3
 3579 0a3e 91       		.byte	0x91
 3580 0a3f E07B     		.sleb128 -544
 3581 0a41 1B       		.uleb128 0x1b
 3582 0a42 6900     		.ascii	"i\000"
 3583 0a44 01       		.byte	0x1
 3584 0a45 1502     		.2byte	0x215
 3585 0a47 76000000 		.4byte	0x76
 3586 0a4b 02       		.uleb128 0x2
 3587 0a4c 91       		.byte	0x91
 3588 0a4d 6E       		.sleb128 -18
 3589 0a4e 1B       		.uleb128 0x1b
 3590 0a4f 6A00     		.ascii	"j\000"
 3591 0a51 01       		.byte	0x1
 3592 0a52 1602     		.2byte	0x216
 3593 0a54 76000000 		.4byte	0x76
 3594 0a58 02       		.uleb128 0x2
 3595 0a59 91       		.byte	0x91
 3596 0a5a 6C       		.sleb128 -20
 3597 0a5b 1B       		.uleb128 0x1b
 3598 0a5c 6B00     		.ascii	"k\000"
 3599 0a5e 01       		.byte	0x1
 3600 0a5f 1702     		.2byte	0x217
 3601 0a61 76000000 		.4byte	0x76
 3602 0a65 02       		.uleb128 0x2
 3603 0a66 91       		.byte	0x91
 3604 0a67 60       		.sleb128 -32
 3605 0a68 18       		.uleb128 0x18
 3606 0a69 1C0A0000 		.4byte	.LASF163
 3607 0a6d 01       		.byte	0x1
 3608 0a6e 1802     		.2byte	0x218
 3609 0a70 76000000 		.4byte	0x76
 3610 0a74 02       		.uleb128 0x2
 3611 0a75 91       		.byte	0x91
 3612 0a76 6A       		.sleb128 -22
 3613 0a77 18       		.uleb128 0x18
 3614 0a78 62040000 		.4byte	.LASF164
 3615 0a7c 01       		.byte	0x1
 3616 0a7d 1902     		.2byte	0x219
 3617 0a7f 6B000000 		.4byte	0x6b
 3618 0a83 02       		.uleb128 0x2
 3619 0a84 91       		.byte	0x91
 3620 0a85 63       		.sleb128 -29
 3621 0a86 18       		.uleb128 0x18
 3622 0a87 A8050000 		.4byte	.LASF122
 3623 0a8b 01       		.byte	0x1
 3624 0a8c 1A02     		.2byte	0x21a
 3625 0a8e AE000000 		.4byte	0xae
ARM GAS  C:\Users\ADMINI~1.SC-\AppData\Local\Temp\ccVsST00.s 			page 75


 3626 0a92 02       		.uleb128 0x2
 3627 0a93 91       		.byte	0x91
 3628 0a94 64       		.sleb128 -28
 3629 0a95 00       		.byte	0
 3630 0a96 08       		.uleb128 0x8
 3631 0a97 6B000000 		.4byte	0x6b
 3632 0a9b A60A0000 		.4byte	0xaa6
 3633 0a9f 09       		.uleb128 0x9
 3634 0aa0 A1000000 		.4byte	0xa1
 3635 0aa4 FF       		.byte	0xff
 3636 0aa5 00       		.byte	0
 3637 0aa6 14       		.uleb128 0x14
 3638 0aa7 C9070000 		.4byte	.LASF165
 3639 0aab 01       		.byte	0x1
 3640 0aac 1A       		.byte	0x1a
 3641 0aad 6B000000 		.4byte	0x6b
 3642 0ab1 05       		.uleb128 0x5
 3643 0ab2 03       		.byte	0x3
 3644 0ab3 01000000 		.4byte	lock_open_flag
 3645 0ab7 14       		.uleb128 0x14
 3646 0ab8 AE090000 		.4byte	.LASF166
 3647 0abc 01       		.byte	0x1
 3648 0abd 1B       		.byte	0x1b
 3649 0abe 76000000 		.4byte	0x76
 3650 0ac2 05       		.uleb128 0x5
 3651 0ac3 03       		.byte	0x3
 3652 0ac4 02000000 		.4byte	lock_timeflow
 3653 0ac8 20       		.uleb128 0x20
 3654 0ac9 12050000 		.4byte	.LASF167
 3655 0acd 08       		.byte	0x8
 3656 0ace 2D09     		.2byte	0x92d
 3657 0ad0 79020000 		.4byte	0x279
 3658 0ad4 21       		.uleb128 0x21
 3659 0ad5 3F010000 		.4byte	.LASF168
 3660 0ad9 01       		.byte	0x1
 3661 0ada 16       		.byte	0x16
 3662 0adb 6B000000 		.4byte	0x6b
 3663 0adf 05       		.uleb128 0x5
 3664 0ae0 03       		.byte	0x3
 3665 0ae1 00000000 		.4byte	packetTXStep
 3666 0ae5 22       		.uleb128 0x22
 3667 0ae6 E3060000 		.4byte	.LASF169
 3668 0aea 05       		.byte	0x5
 3669 0aeb 3B       		.byte	0x3b
 3670 0aec 46030000 		.4byte	0x346
 3671 0af0 22       		.uleb128 0x22
 3672 0af1 A0010000 		.4byte	.LASF170
 3673 0af5 05       		.byte	0x5
 3674 0af6 47       		.byte	0x47
 3675 0af7 AA030000 		.4byte	0x3aa
 3676 0afb 08       		.uleb128 0x8
 3677 0afc 6B000000 		.4byte	0x6b
 3678 0b00 0B0B0000 		.4byte	0xb0b
 3679 0b04 09       		.uleb128 0x9
 3680 0b05 A1000000 		.4byte	0xa1
 3681 0b09 2B       		.byte	0x2b
 3682 0b0a 00       		.byte	0
ARM GAS  C:\Users\ADMINI~1.SC-\AppData\Local\Temp\ccVsST00.s 			page 76


 3683 0b0b 22       		.uleb128 0x22
 3684 0b0c 13010000 		.4byte	.LASF171
 3685 0b10 09       		.byte	0x9
 3686 0b11 20       		.byte	0x20
 3687 0b12 FB0A0000 		.4byte	0xafb
 3688 0b16 22       		.uleb128 0x22
 3689 0b17 21080000 		.4byte	.LASF172
 3690 0b1b 09       		.byte	0x9
 3691 0b1c 21       		.byte	0x21
 3692 0b1d 81000000 		.4byte	0x81
 3693 0b21 22       		.uleb128 0x22
 3694 0b22 BE020000 		.4byte	.LASF173
 3695 0b26 09       		.byte	0x9
 3696 0b27 22       		.byte	0x22
 3697 0b28 81000000 		.4byte	0x81
 3698 0b2c 21       		.uleb128 0x21
 3699 0b2d 30090000 		.4byte	.LASF174
 3700 0b31 01       		.byte	0x1
 3701 0b32 15       		.byte	0x15
 3702 0b33 EE080000 		.4byte	0x8ee
 3703 0b37 05       		.uleb128 0x5
 3704 0b38 03       		.byte	0x3
 3705 0b39 00000000 		.4byte	packetTX
 3706 0b3d 22       		.uleb128 0x22
 3707 0b3e 790A0000 		.4byte	.LASF175
 3708 0b42 06       		.byte	0x6
 3709 0b43 38       		.byte	0x38
 3710 0b44 AA040000 		.4byte	0x4aa
 3711 0b48 21       		.uleb128 0x21
 3712 0b49 5D000000 		.4byte	.LASF176
 3713 0b4d 01       		.byte	0x1
 3714 0b4e 17       		.byte	0x17
 3715 0b4f 8A040000 		.4byte	0x48a
 3716 0b53 05       		.uleb128 0x5
 3717 0b54 03       		.byte	0x3
 3718 0b55 00000000 		.4byte	recv_buff
 3719 0b59 21       		.uleb128 0x21
 3720 0b5a 93010000 		.4byte	.LASF177
 3721 0b5e 01       		.byte	0x1
 3722 0b5f 18       		.byte	0x18
 3723 0b60 9A030000 		.4byte	0x39a
 3724 0b64 05       		.uleb128 0x5
 3725 0b65 03       		.byte	0x3
 3726 0b66 00000000 		.4byte	AppKey
 3727 0b6a 21       		.uleb128 0x21
 3728 0b6b E1090000 		.4byte	.LASF178
 3729 0b6f 01       		.byte	0x1
 3730 0b70 24       		.byte	0x24
 3731 0b71 1D050000 		.4byte	0x51d
 3732 0b75 05       		.uleb128 0x5
 3733 0b76 03       		.byte	0x3
 3734 0b77 00000000 		.4byte	key_str
 3735 0b7b 00       		.byte	0
 3736              		.section	.debug_abbrev,"",%progbits
 3737              	.Ldebug_abbrev0:
 3738 0000 01       		.uleb128 0x1
 3739 0001 11       		.uleb128 0x11
ARM GAS  C:\Users\ADMINI~1.SC-\AppData\Local\Temp\ccVsST00.s 			page 77


 3740 0002 01       		.byte	0x1
 3741 0003 25       		.uleb128 0x25
 3742 0004 0E       		.uleb128 0xe
 3743 0005 13       		.uleb128 0x13
 3744 0006 0B       		.uleb128 0xb
 3745 0007 03       		.uleb128 0x3
 3746 0008 0E       		.uleb128 0xe
 3747 0009 1B       		.uleb128 0x1b
 3748 000a 0E       		.uleb128 0xe
 3749 000b 55       		.uleb128 0x55
 3750 000c 17       		.uleb128 0x17
 3751 000d 11       		.uleb128 0x11
 3752 000e 01       		.uleb128 0x1
 3753 000f 10       		.uleb128 0x10
 3754 0010 17       		.uleb128 0x17
 3755 0011 00       		.byte	0
 3756 0012 00       		.byte	0
 3757 0013 02       		.uleb128 0x2
 3758 0014 24       		.uleb128 0x24
 3759 0015 00       		.byte	0
 3760 0016 0B       		.uleb128 0xb
 3761 0017 0B       		.uleb128 0xb
 3762 0018 3E       		.uleb128 0x3e
 3763 0019 0B       		.uleb128 0xb
 3764 001a 03       		.uleb128 0x3
 3765 001b 0E       		.uleb128 0xe
 3766 001c 00       		.byte	0
 3767 001d 00       		.byte	0
 3768 001e 03       		.uleb128 0x3
 3769 001f 24       		.uleb128 0x24
 3770 0020 00       		.byte	0
 3771 0021 0B       		.uleb128 0xb
 3772 0022 0B       		.uleb128 0xb
 3773 0023 3E       		.uleb128 0x3e
 3774 0024 0B       		.uleb128 0xb
 3775 0025 03       		.uleb128 0x3
 3776 0026 08       		.uleb128 0x8
 3777 0027 00       		.byte	0
 3778 0028 00       		.byte	0
 3779 0029 04       		.uleb128 0x4
 3780 002a 16       		.uleb128 0x16
 3781 002b 00       		.byte	0
 3782 002c 03       		.uleb128 0x3
 3783 002d 0E       		.uleb128 0xe
 3784 002e 3A       		.uleb128 0x3a
 3785 002f 0B       		.uleb128 0xb
 3786 0030 3B       		.uleb128 0x3b
 3787 0031 0B       		.uleb128 0xb
 3788 0032 49       		.uleb128 0x49
 3789 0033 13       		.uleb128 0x13
 3790 0034 00       		.byte	0
 3791 0035 00       		.byte	0
 3792 0036 05       		.uleb128 0x5
 3793 0037 0F       		.uleb128 0xf
 3794 0038 00       		.byte	0
 3795 0039 0B       		.uleb128 0xb
 3796 003a 0B       		.uleb128 0xb
ARM GAS  C:\Users\ADMINI~1.SC-\AppData\Local\Temp\ccVsST00.s 			page 78


 3797 003b 49       		.uleb128 0x49
 3798 003c 13       		.uleb128 0x13
 3799 003d 00       		.byte	0
 3800 003e 00       		.byte	0
 3801 003f 06       		.uleb128 0x6
 3802 0040 04       		.uleb128 0x4
 3803 0041 01       		.byte	0x1
 3804 0042 0B       		.uleb128 0xb
 3805 0043 0B       		.uleb128 0xb
 3806 0044 3A       		.uleb128 0x3a
 3807 0045 0B       		.uleb128 0xb
 3808 0046 3B       		.uleb128 0x3b
 3809 0047 0B       		.uleb128 0xb
 3810 0048 01       		.uleb128 0x1
 3811 0049 13       		.uleb128 0x13
 3812 004a 00       		.byte	0
 3813 004b 00       		.byte	0
 3814 004c 07       		.uleb128 0x7
 3815 004d 28       		.uleb128 0x28
 3816 004e 00       		.byte	0
 3817 004f 03       		.uleb128 0x3
 3818 0050 0E       		.uleb128 0xe
 3819 0051 1C       		.uleb128 0x1c
 3820 0052 0D       		.uleb128 0xd
 3821 0053 00       		.byte	0
 3822 0054 00       		.byte	0
 3823 0055 08       		.uleb128 0x8
 3824 0056 01       		.uleb128 0x1
 3825 0057 01       		.byte	0x1
 3826 0058 49       		.uleb128 0x49
 3827 0059 13       		.uleb128 0x13
 3828 005a 01       		.uleb128 0x1
 3829 005b 13       		.uleb128 0x13
 3830 005c 00       		.byte	0
 3831 005d 00       		.byte	0
 3832 005e 09       		.uleb128 0x9
 3833 005f 21       		.uleb128 0x21
 3834 0060 00       		.byte	0
 3835 0061 49       		.uleb128 0x49
 3836 0062 13       		.uleb128 0x13
 3837 0063 2F       		.uleb128 0x2f
 3838 0064 0B       		.uleb128 0xb
 3839 0065 00       		.byte	0
 3840 0066 00       		.byte	0
 3841 0067 0A       		.uleb128 0xa
 3842 0068 16       		.uleb128 0x16
 3843 0069 00       		.byte	0
 3844 006a 03       		.uleb128 0x3
 3845 006b 0E       		.uleb128 0xe
 3846 006c 3A       		.uleb128 0x3a
 3847 006d 0B       		.uleb128 0xb
 3848 006e 3B       		.uleb128 0x3b
 3849 006f 05       		.uleb128 0x5
 3850 0070 49       		.uleb128 0x49
 3851 0071 13       		.uleb128 0x13
 3852 0072 00       		.byte	0
 3853 0073 00       		.byte	0
ARM GAS  C:\Users\ADMINI~1.SC-\AppData\Local\Temp\ccVsST00.s 			page 79


 3854 0074 0B       		.uleb128 0xb
 3855 0075 13       		.uleb128 0x13
 3856 0076 01       		.byte	0x1
 3857 0077 0B       		.uleb128 0xb
 3858 0078 0B       		.uleb128 0xb
 3859 0079 3A       		.uleb128 0x3a
 3860 007a 0B       		.uleb128 0xb
 3861 007b 3B       		.uleb128 0x3b
 3862 007c 05       		.uleb128 0x5
 3863 007d 01       		.uleb128 0x1
 3864 007e 13       		.uleb128 0x13
 3865 007f 00       		.byte	0
 3866 0080 00       		.byte	0
 3867 0081 0C       		.uleb128 0xc
 3868 0082 0D       		.uleb128 0xd
 3869 0083 00       		.byte	0
 3870 0084 03       		.uleb128 0x3
 3871 0085 0E       		.uleb128 0xe
 3872 0086 3A       		.uleb128 0x3a
 3873 0087 0B       		.uleb128 0xb
 3874 0088 3B       		.uleb128 0x3b
 3875 0089 05       		.uleb128 0x5
 3876 008a 49       		.uleb128 0x49
 3877 008b 13       		.uleb128 0x13
 3878 008c 38       		.uleb128 0x38
 3879 008d 0B       		.uleb128 0xb
 3880 008e 00       		.byte	0
 3881 008f 00       		.byte	0
 3882 0090 0D       		.uleb128 0xd
 3883 0091 0D       		.uleb128 0xd
 3884 0092 00       		.byte	0
 3885 0093 03       		.uleb128 0x3
 3886 0094 08       		.uleb128 0x8
 3887 0095 3A       		.uleb128 0x3a
 3888 0096 0B       		.uleb128 0xb
 3889 0097 3B       		.uleb128 0x3b
 3890 0098 05       		.uleb128 0x5
 3891 0099 49       		.uleb128 0x49
 3892 009a 13       		.uleb128 0x13
 3893 009b 38       		.uleb128 0x38
 3894 009c 0B       		.uleb128 0xb
 3895 009d 00       		.byte	0
 3896 009e 00       		.byte	0
 3897 009f 0E       		.uleb128 0xe
 3898 00a0 13       		.uleb128 0x13
 3899 00a1 01       		.byte	0x1
 3900 00a2 0B       		.uleb128 0xb
 3901 00a3 0B       		.uleb128 0xb
 3902 00a4 3A       		.uleb128 0x3a
 3903 00a5 0B       		.uleb128 0xb
 3904 00a6 3B       		.uleb128 0x3b
 3905 00a7 0B       		.uleb128 0xb
 3906 00a8 01       		.uleb128 0x1
 3907 00a9 13       		.uleb128 0x13
 3908 00aa 00       		.byte	0
 3909 00ab 00       		.byte	0
 3910 00ac 0F       		.uleb128 0xf
ARM GAS  C:\Users\ADMINI~1.SC-\AppData\Local\Temp\ccVsST00.s 			page 80


 3911 00ad 0D       		.uleb128 0xd
 3912 00ae 00       		.byte	0
 3913 00af 03       		.uleb128 0x3
 3914 00b0 0E       		.uleb128 0xe
 3915 00b1 3A       		.uleb128 0x3a
 3916 00b2 0B       		.uleb128 0xb
 3917 00b3 3B       		.uleb128 0x3b
 3918 00b4 0B       		.uleb128 0xb
 3919 00b5 49       		.uleb128 0x49
 3920 00b6 13       		.uleb128 0x13
 3921 00b7 38       		.uleb128 0x38
 3922 00b8 0B       		.uleb128 0xb
 3923 00b9 00       		.byte	0
 3924 00ba 00       		.byte	0
 3925 00bb 10       		.uleb128 0x10
 3926 00bc 0D       		.uleb128 0xd
 3927 00bd 00       		.byte	0
 3928 00be 03       		.uleb128 0x3
 3929 00bf 08       		.uleb128 0x8
 3930 00c0 3A       		.uleb128 0x3a
 3931 00c1 0B       		.uleb128 0xb
 3932 00c2 3B       		.uleb128 0x3b
 3933 00c3 0B       		.uleb128 0xb
 3934 00c4 49       		.uleb128 0x49
 3935 00c5 13       		.uleb128 0x13
 3936 00c6 38       		.uleb128 0x38
 3937 00c7 0B       		.uleb128 0xb
 3938 00c8 00       		.byte	0
 3939 00c9 00       		.byte	0
 3940 00ca 11       		.uleb128 0x11
 3941 00cb 13       		.uleb128 0x13
 3942 00cc 01       		.byte	0x1
 3943 00cd 03       		.uleb128 0x3
 3944 00ce 0E       		.uleb128 0xe
 3945 00cf 0B       		.uleb128 0xb
 3946 00d0 0B       		.uleb128 0xb
 3947 00d1 3A       		.uleb128 0x3a
 3948 00d2 0B       		.uleb128 0xb
 3949 00d3 3B       		.uleb128 0x3b
 3950 00d4 0B       		.uleb128 0xb
 3951 00d5 01       		.uleb128 0x1
 3952 00d6 13       		.uleb128 0x13
 3953 00d7 00       		.byte	0
 3954 00d8 00       		.byte	0
 3955 00d9 12       		.uleb128 0x12
 3956 00da 2E       		.uleb128 0x2e
 3957 00db 01       		.byte	0x1
 3958 00dc 3F       		.uleb128 0x3f
 3959 00dd 19       		.uleb128 0x19
 3960 00de 03       		.uleb128 0x3
 3961 00df 0E       		.uleb128 0xe
 3962 00e0 3A       		.uleb128 0x3a
 3963 00e1 0B       		.uleb128 0xb
 3964 00e2 3B       		.uleb128 0x3b
 3965 00e3 0B       		.uleb128 0xb
 3966 00e4 27       		.uleb128 0x27
 3967 00e5 19       		.uleb128 0x19
ARM GAS  C:\Users\ADMINI~1.SC-\AppData\Local\Temp\ccVsST00.s 			page 81


 3968 00e6 11       		.uleb128 0x11
 3969 00e7 01       		.uleb128 0x1
 3970 00e8 12       		.uleb128 0x12
 3971 00e9 06       		.uleb128 0x6
 3972 00ea 40       		.uleb128 0x40
 3973 00eb 18       		.uleb128 0x18
 3974 00ec 9642     		.uleb128 0x2116
 3975 00ee 19       		.uleb128 0x19
 3976 00ef 01       		.uleb128 0x1
 3977 00f0 13       		.uleb128 0x13
 3978 00f1 00       		.byte	0
 3979 00f2 00       		.byte	0
 3980 00f3 13       		.uleb128 0x13
 3981 00f4 05       		.uleb128 0x5
 3982 00f5 00       		.byte	0
 3983 00f6 03       		.uleb128 0x3
 3984 00f7 0E       		.uleb128 0xe
 3985 00f8 3A       		.uleb128 0x3a
 3986 00f9 0B       		.uleb128 0xb
 3987 00fa 3B       		.uleb128 0x3b
 3988 00fb 0B       		.uleb128 0xb
 3989 00fc 49       		.uleb128 0x49
 3990 00fd 13       		.uleb128 0x13
 3991 00fe 02       		.uleb128 0x2
 3992 00ff 18       		.uleb128 0x18
 3993 0100 00       		.byte	0
 3994 0101 00       		.byte	0
 3995 0102 14       		.uleb128 0x14
 3996 0103 34       		.uleb128 0x34
 3997 0104 00       		.byte	0
 3998 0105 03       		.uleb128 0x3
 3999 0106 0E       		.uleb128 0xe
 4000 0107 3A       		.uleb128 0x3a
 4001 0108 0B       		.uleb128 0xb
 4002 0109 3B       		.uleb128 0x3b
 4003 010a 0B       		.uleb128 0xb
 4004 010b 49       		.uleb128 0x49
 4005 010c 13       		.uleb128 0x13
 4006 010d 02       		.uleb128 0x2
 4007 010e 18       		.uleb128 0x18
 4008 010f 00       		.byte	0
 4009 0110 00       		.byte	0
 4010 0111 15       		.uleb128 0x15
 4011 0112 34       		.uleb128 0x34
 4012 0113 00       		.byte	0
 4013 0114 03       		.uleb128 0x3
 4014 0115 08       		.uleb128 0x8
 4015 0116 3A       		.uleb128 0x3a
 4016 0117 0B       		.uleb128 0xb
 4017 0118 3B       		.uleb128 0x3b
 4018 0119 0B       		.uleb128 0xb
 4019 011a 49       		.uleb128 0x49
 4020 011b 13       		.uleb128 0x13
 4021 011c 02       		.uleb128 0x2
 4022 011d 18       		.uleb128 0x18
 4023 011e 00       		.byte	0
 4024 011f 00       		.byte	0
ARM GAS  C:\Users\ADMINI~1.SC-\AppData\Local\Temp\ccVsST00.s 			page 82


 4025 0120 16       		.uleb128 0x16
 4026 0121 05       		.uleb128 0x5
 4027 0122 00       		.byte	0
 4028 0123 03       		.uleb128 0x3
 4029 0124 08       		.uleb128 0x8
 4030 0125 3A       		.uleb128 0x3a
 4031 0126 0B       		.uleb128 0xb
 4032 0127 3B       		.uleb128 0x3b
 4033 0128 0B       		.uleb128 0xb
 4034 0129 49       		.uleb128 0x49
 4035 012a 13       		.uleb128 0x13
 4036 012b 02       		.uleb128 0x2
 4037 012c 18       		.uleb128 0x18
 4038 012d 00       		.byte	0
 4039 012e 00       		.byte	0
 4040 012f 17       		.uleb128 0x17
 4041 0130 2E       		.uleb128 0x2e
 4042 0131 01       		.byte	0x1
 4043 0132 3F       		.uleb128 0x3f
 4044 0133 19       		.uleb128 0x19
 4045 0134 03       		.uleb128 0x3
 4046 0135 0E       		.uleb128 0xe
 4047 0136 3A       		.uleb128 0x3a
 4048 0137 0B       		.uleb128 0xb
 4049 0138 3B       		.uleb128 0x3b
 4050 0139 05       		.uleb128 0x5
 4051 013a 27       		.uleb128 0x27
 4052 013b 19       		.uleb128 0x19
 4053 013c 11       		.uleb128 0x11
 4054 013d 01       		.uleb128 0x1
 4055 013e 12       		.uleb128 0x12
 4056 013f 06       		.uleb128 0x6
 4057 0140 40       		.uleb128 0x40
 4058 0141 18       		.uleb128 0x18
 4059 0142 9642     		.uleb128 0x2116
 4060 0144 19       		.uleb128 0x19
 4061 0145 01       		.uleb128 0x1
 4062 0146 13       		.uleb128 0x13
 4063 0147 00       		.byte	0
 4064 0148 00       		.byte	0
 4065 0149 18       		.uleb128 0x18
 4066 014a 34       		.uleb128 0x34
 4067 014b 00       		.byte	0
 4068 014c 03       		.uleb128 0x3
 4069 014d 0E       		.uleb128 0xe
 4070 014e 3A       		.uleb128 0x3a
 4071 014f 0B       		.uleb128 0xb
 4072 0150 3B       		.uleb128 0x3b
 4073 0151 05       		.uleb128 0x5
 4074 0152 49       		.uleb128 0x49
 4075 0153 13       		.uleb128 0x13
 4076 0154 02       		.uleb128 0x2
 4077 0155 18       		.uleb128 0x18
 4078 0156 00       		.byte	0
 4079 0157 00       		.byte	0
 4080 0158 19       		.uleb128 0x19
 4081 0159 2E       		.uleb128 0x2e
ARM GAS  C:\Users\ADMINI~1.SC-\AppData\Local\Temp\ccVsST00.s 			page 83


 4082 015a 01       		.byte	0x1
 4083 015b 3F       		.uleb128 0x3f
 4084 015c 19       		.uleb128 0x19
 4085 015d 03       		.uleb128 0x3
 4086 015e 0E       		.uleb128 0xe
 4087 015f 3A       		.uleb128 0x3a
 4088 0160 0B       		.uleb128 0xb
 4089 0161 3B       		.uleb128 0x3b
 4090 0162 05       		.uleb128 0x5
 4091 0163 27       		.uleb128 0x27
 4092 0164 19       		.uleb128 0x19
 4093 0165 11       		.uleb128 0x11
 4094 0166 01       		.uleb128 0x1
 4095 0167 12       		.uleb128 0x12
 4096 0168 06       		.uleb128 0x6
 4097 0169 40       		.uleb128 0x40
 4098 016a 18       		.uleb128 0x18
 4099 016b 9742     		.uleb128 0x2117
 4100 016d 19       		.uleb128 0x19
 4101 016e 01       		.uleb128 0x1
 4102 016f 13       		.uleb128 0x13
 4103 0170 00       		.byte	0
 4104 0171 00       		.byte	0
 4105 0172 1A       		.uleb128 0x1a
 4106 0173 05       		.uleb128 0x5
 4107 0174 00       		.byte	0
 4108 0175 03       		.uleb128 0x3
 4109 0176 0E       		.uleb128 0xe
 4110 0177 3A       		.uleb128 0x3a
 4111 0178 0B       		.uleb128 0xb
 4112 0179 3B       		.uleb128 0x3b
 4113 017a 05       		.uleb128 0x5
 4114 017b 49       		.uleb128 0x49
 4115 017c 13       		.uleb128 0x13
 4116 017d 02       		.uleb128 0x2
 4117 017e 18       		.uleb128 0x18
 4118 017f 00       		.byte	0
 4119 0180 00       		.byte	0
 4120 0181 1B       		.uleb128 0x1b
 4121 0182 34       		.uleb128 0x34
 4122 0183 00       		.byte	0
 4123 0184 03       		.uleb128 0x3
 4124 0185 08       		.uleb128 0x8
 4125 0186 3A       		.uleb128 0x3a
 4126 0187 0B       		.uleb128 0xb
 4127 0188 3B       		.uleb128 0x3b
 4128 0189 05       		.uleb128 0x5
 4129 018a 49       		.uleb128 0x49
 4130 018b 13       		.uleb128 0x13
 4131 018c 02       		.uleb128 0x2
 4132 018d 18       		.uleb128 0x18
 4133 018e 00       		.byte	0
 4134 018f 00       		.byte	0
 4135 0190 1C       		.uleb128 0x1c
 4136 0191 2E       		.uleb128 0x2e
 4137 0192 00       		.byte	0
 4138 0193 3F       		.uleb128 0x3f
ARM GAS  C:\Users\ADMINI~1.SC-\AppData\Local\Temp\ccVsST00.s 			page 84


 4139 0194 19       		.uleb128 0x19
 4140 0195 03       		.uleb128 0x3
 4141 0196 0E       		.uleb128 0xe
 4142 0197 3A       		.uleb128 0x3a
 4143 0198 0B       		.uleb128 0xb
 4144 0199 3B       		.uleb128 0x3b
 4145 019a 05       		.uleb128 0x5
 4146 019b 27       		.uleb128 0x27
 4147 019c 19       		.uleb128 0x19
 4148 019d 11       		.uleb128 0x11
 4149 019e 01       		.uleb128 0x1
 4150 019f 12       		.uleb128 0x12
 4151 01a0 06       		.uleb128 0x6
 4152 01a1 40       		.uleb128 0x40
 4153 01a2 18       		.uleb128 0x18
 4154 01a3 9642     		.uleb128 0x2116
 4155 01a5 19       		.uleb128 0x19
 4156 01a6 00       		.byte	0
 4157 01a7 00       		.byte	0
 4158 01a8 1D       		.uleb128 0x1d
 4159 01a9 2E       		.uleb128 0x2e
 4160 01aa 00       		.byte	0
 4161 01ab 3F       		.uleb128 0x3f
 4162 01ac 19       		.uleb128 0x19
 4163 01ad 03       		.uleb128 0x3
 4164 01ae 0E       		.uleb128 0xe
 4165 01af 3A       		.uleb128 0x3a
 4166 01b0 0B       		.uleb128 0xb
 4167 01b1 3B       		.uleb128 0x3b
 4168 01b2 05       		.uleb128 0x5
 4169 01b3 27       		.uleb128 0x27
 4170 01b4 19       		.uleb128 0x19
 4171 01b5 11       		.uleb128 0x11
 4172 01b6 01       		.uleb128 0x1
 4173 01b7 12       		.uleb128 0x12
 4174 01b8 06       		.uleb128 0x6
 4175 01b9 40       		.uleb128 0x40
 4176 01ba 18       		.uleb128 0x18
 4177 01bb 9742     		.uleb128 0x2117
 4178 01bd 19       		.uleb128 0x19
 4179 01be 00       		.byte	0
 4180 01bf 00       		.byte	0
 4181 01c0 1E       		.uleb128 0x1e
 4182 01c1 2E       		.uleb128 0x2e
 4183 01c2 01       		.byte	0x1
 4184 01c3 3F       		.uleb128 0x3f
 4185 01c4 19       		.uleb128 0x19
 4186 01c5 03       		.uleb128 0x3
 4187 01c6 0E       		.uleb128 0xe
 4188 01c7 3A       		.uleb128 0x3a
 4189 01c8 0B       		.uleb128 0xb
 4190 01c9 3B       		.uleb128 0x3b
 4191 01ca 05       		.uleb128 0x5
 4192 01cb 27       		.uleb128 0x27
 4193 01cc 19       		.uleb128 0x19
 4194 01cd 49       		.uleb128 0x49
 4195 01ce 13       		.uleb128 0x13
ARM GAS  C:\Users\ADMINI~1.SC-\AppData\Local\Temp\ccVsST00.s 			page 85


 4196 01cf 11       		.uleb128 0x11
 4197 01d0 01       		.uleb128 0x1
 4198 01d1 12       		.uleb128 0x12
 4199 01d2 06       		.uleb128 0x6
 4200 01d3 40       		.uleb128 0x40
 4201 01d4 18       		.uleb128 0x18
 4202 01d5 9742     		.uleb128 0x2117
 4203 01d7 19       		.uleb128 0x19
 4204 01d8 01       		.uleb128 0x1
 4205 01d9 13       		.uleb128 0x13
 4206 01da 00       		.byte	0
 4207 01db 00       		.byte	0
 4208 01dc 1F       		.uleb128 0x1f
 4209 01dd 05       		.uleb128 0x5
 4210 01de 00       		.byte	0
 4211 01df 03       		.uleb128 0x3
 4212 01e0 08       		.uleb128 0x8
 4213 01e1 3A       		.uleb128 0x3a
 4214 01e2 0B       		.uleb128 0xb
 4215 01e3 3B       		.uleb128 0x3b
 4216 01e4 05       		.uleb128 0x5
 4217 01e5 49       		.uleb128 0x49
 4218 01e6 13       		.uleb128 0x13
 4219 01e7 02       		.uleb128 0x2
 4220 01e8 18       		.uleb128 0x18
 4221 01e9 00       		.byte	0
 4222 01ea 00       		.byte	0
 4223 01eb 20       		.uleb128 0x20
 4224 01ec 34       		.uleb128 0x34
 4225 01ed 00       		.byte	0
 4226 01ee 03       		.uleb128 0x3
 4227 01ef 0E       		.uleb128 0xe
 4228 01f0 3A       		.uleb128 0x3a
 4229 01f1 0B       		.uleb128 0xb
 4230 01f2 3B       		.uleb128 0x3b
 4231 01f3 05       		.uleb128 0x5
 4232 01f4 49       		.uleb128 0x49
 4233 01f5 13       		.uleb128 0x13
 4234 01f6 3F       		.uleb128 0x3f
 4235 01f7 19       		.uleb128 0x19
 4236 01f8 3C       		.uleb128 0x3c
 4237 01f9 19       		.uleb128 0x19
 4238 01fa 00       		.byte	0
 4239 01fb 00       		.byte	0
 4240 01fc 21       		.uleb128 0x21
 4241 01fd 34       		.uleb128 0x34
 4242 01fe 00       		.byte	0
 4243 01ff 03       		.uleb128 0x3
 4244 0200 0E       		.uleb128 0xe
 4245 0201 3A       		.uleb128 0x3a
 4246 0202 0B       		.uleb128 0xb
 4247 0203 3B       		.uleb128 0x3b
 4248 0204 0B       		.uleb128 0xb
 4249 0205 49       		.uleb128 0x49
 4250 0206 13       		.uleb128 0x13
 4251 0207 3F       		.uleb128 0x3f
 4252 0208 19       		.uleb128 0x19
ARM GAS  C:\Users\ADMINI~1.SC-\AppData\Local\Temp\ccVsST00.s 			page 86


 4253 0209 02       		.uleb128 0x2
 4254 020a 18       		.uleb128 0x18
 4255 020b 00       		.byte	0
 4256 020c 00       		.byte	0
 4257 020d 22       		.uleb128 0x22
 4258 020e 34       		.uleb128 0x34
 4259 020f 00       		.byte	0
 4260 0210 03       		.uleb128 0x3
 4261 0211 0E       		.uleb128 0xe
 4262 0212 3A       		.uleb128 0x3a
 4263 0213 0B       		.uleb128 0xb
 4264 0214 3B       		.uleb128 0x3b
 4265 0215 0B       		.uleb128 0xb
 4266 0216 49       		.uleb128 0x49
 4267 0217 13       		.uleb128 0x13
 4268 0218 3F       		.uleb128 0x3f
 4269 0219 19       		.uleb128 0x19
 4270 021a 3C       		.uleb128 0x3c
 4271 021b 19       		.uleb128 0x19
 4272 021c 00       		.byte	0
 4273 021d 00       		.byte	0
 4274 021e 00       		.byte	0
 4275              		.section	.debug_aranges,"",%progbits
 4276 0000 B4000000 		.4byte	0xb4
 4277 0004 0200     		.2byte	0x2
 4278 0006 00000000 		.4byte	.Ldebug_info0
 4279 000a 04       		.byte	0x4
 4280 000b 00       		.byte	0
 4281 000c 0000     		.2byte	0
 4282 000e 0000     		.2byte	0
 4283 0010 00000000 		.4byte	.LFB35
 4284 0014 58000000 		.4byte	.LFE35-.LFB35
 4285 0018 00000000 		.4byte	.LFB36
 4286 001c 44000000 		.4byte	.LFE36-.LFB36
 4287 0020 00000000 		.4byte	.LFB37
 4288 0024 D8000000 		.4byte	.LFE37-.LFB37
 4289 0028 00000000 		.4byte	.LFB38
 4290 002c 74000000 		.4byte	.LFE38-.LFB38
 4291 0030 00000000 		.4byte	.LFB39
 4292 0034 84000000 		.4byte	.LFE39-.LFB39
 4293 0038 00000000 		.4byte	.LFB40
 4294 003c A8000000 		.4byte	.LFE40-.LFB40
 4295 0040 00000000 		.4byte	.LFB41
 4296 0044 6C000000 		.4byte	.LFE41-.LFB41
 4297 0048 00000000 		.4byte	.LFB42
 4298 004c 88000000 		.4byte	.LFE42-.LFB42
 4299 0050 00000000 		.4byte	.LFB43
 4300 0054 64000000 		.4byte	.LFE43-.LFB43
 4301 0058 00000000 		.4byte	.LFB44
 4302 005c 58000000 		.4byte	.LFE44-.LFB44
 4303 0060 00000000 		.4byte	.LFB45
 4304 0064 88000000 		.4byte	.LFE45-.LFB45
 4305 0068 00000000 		.4byte	.LFB46
 4306 006c B8000000 		.4byte	.LFE46-.LFB46
 4307 0070 00000000 		.4byte	.LFB47
 4308 0074 70000000 		.4byte	.LFE47-.LFB47
 4309 0078 00000000 		.4byte	.LFB48
ARM GAS  C:\Users\ADMINI~1.SC-\AppData\Local\Temp\ccVsST00.s 			page 87


 4310 007c 5C000000 		.4byte	.LFE48-.LFB48
 4311 0080 00000000 		.4byte	.LFB49
 4312 0084 14000000 		.4byte	.LFE49-.LFB49
 4313 0088 00000000 		.4byte	.LFB50
 4314 008c 08010000 		.4byte	.LFE50-.LFB50
 4315 0090 00000000 		.4byte	.LFB51
 4316 0094 48000000 		.4byte	.LFE51-.LFB51
 4317 0098 00000000 		.4byte	.LFB52
 4318 009c C0000000 		.4byte	.LFE52-.LFB52
 4319 00a0 00000000 		.4byte	.LFB53
 4320 00a4 64000000 		.4byte	.LFE53-.LFB53
 4321 00a8 00000000 		.4byte	.LFB54
 4322 00ac 30030000 		.4byte	.LFE54-.LFB54
 4323 00b0 00000000 		.4byte	0
 4324 00b4 00000000 		.4byte	0
 4325              		.section	.debug_ranges,"",%progbits
 4326              	.Ldebug_ranges0:
 4327 0000 00000000 		.4byte	.LFB35
 4328 0004 58000000 		.4byte	.LFE35
 4329 0008 00000000 		.4byte	.LFB36
 4330 000c 44000000 		.4byte	.LFE36
 4331 0010 00000000 		.4byte	.LFB37
 4332 0014 D8000000 		.4byte	.LFE37
 4333 0018 00000000 		.4byte	.LFB38
 4334 001c 74000000 		.4byte	.LFE38
 4335 0020 00000000 		.4byte	.LFB39
 4336 0024 84000000 		.4byte	.LFE39
 4337 0028 00000000 		.4byte	.LFB40
 4338 002c A8000000 		.4byte	.LFE40
 4339 0030 00000000 		.4byte	.LFB41
 4340 0034 6C000000 		.4byte	.LFE41
 4341 0038 00000000 		.4byte	.LFB42
 4342 003c 88000000 		.4byte	.LFE42
 4343 0040 00000000 		.4byte	.LFB43
 4344 0044 64000000 		.4byte	.LFE43
 4345 0048 00000000 		.4byte	.LFB44
 4346 004c 58000000 		.4byte	.LFE44
 4347 0050 00000000 		.4byte	.LFB45
 4348 0054 88000000 		.4byte	.LFE45
 4349 0058 00000000 		.4byte	.LFB46
 4350 005c B8000000 		.4byte	.LFE46
 4351 0060 00000000 		.4byte	.LFB47
 4352 0064 70000000 		.4byte	.LFE47
 4353 0068 00000000 		.4byte	.LFB48
 4354 006c 5C000000 		.4byte	.LFE48
 4355 0070 00000000 		.4byte	.LFB49
 4356 0074 14000000 		.4byte	.LFE49
 4357 0078 00000000 		.4byte	.LFB50
 4358 007c 08010000 		.4byte	.LFE50
 4359 0080 00000000 		.4byte	.LFB51
 4360 0084 48000000 		.4byte	.LFE51
 4361 0088 00000000 		.4byte	.LFB52
 4362 008c C0000000 		.4byte	.LFE52
 4363 0090 00000000 		.4byte	.LFB53
 4364 0094 64000000 		.4byte	.LFE53
 4365 0098 00000000 		.4byte	.LFB54
 4366 009c 30030000 		.4byte	.LFE54
ARM GAS  C:\Users\ADMINI~1.SC-\AppData\Local\Temp\ccVsST00.s 			page 88


 4367 00a0 00000000 		.4byte	0
 4368 00a4 00000000 		.4byte	0
 4369              		.section	.debug_line,"",%progbits
 4370              	.Ldebug_line0:
 4371 0000 90030000 		.section	.debug_str,"MS",%progbits,1
 4371      0200CB00 
 4371      00000201 
 4371      FB0E0D00 
 4371      01010101 
 4372              	.LASF67:
 4373 0000 4359424C 		.ascii	"CYBLE_EVT_L2CAP_CBFC_RX_CREDIT_IND\000"
 4373      455F4556 
 4373      545F4C32 
 4373      4341505F 
 4373      43424643 
 4374              	.LASF108:
 4375 0023 636F756E 		.ascii	"count\000"
 4375      7400
 4376              	.LASF10:
 4377 0029 75696E74 		.ascii	"uint16\000"
 4377      313600
 4378              	.LASF146:
 4379 0030 64617461 		.ascii	"data_crc\000"
 4379      5F637263 
 4379      00
 4380              	.LASF76:
 4381 0039 4359424C 		.ascii	"CYBLE_CONN_HANDLE_T\000"
 4381      455F434F 
 4381      4E4E5F48 
 4381      414E444C 
 4381      455F5400 
 4382              	.LASF127:
 4383 004d 486C5F42 		.ascii	"Hl_Back_KeyInfo\000"
 4383      61636B5F 
 4383      4B657949 
 4383      6E666F00 
 4384              	.LASF176:
 4385 005d 72656376 		.ascii	"recv_buff\000"
 4385      5F627566 
 4385      6600
 4386              	.LASF32:
 4387 0067 4359424C 		.ascii	"CYBLE_EVT_GAP_CONNECTION_UPDATE_COMPLETE\000"
 4387      455F4556 
 4387      545F4741 
 4387      505F434F 
 4387      4E4E4543 
 4388              	.LASF91:
 4389 0090 52785F62 		.ascii	"Rx_buff\000"
 4389      75666600 
 4390              	.LASF65:
 4391 0098 4359424C 		.ascii	"CYBLE_EVT_L2CAP_CBFC_DISCONN_CNF\000"
 4391      455F4556 
 4391      545F4C32 
 4391      4341505F 
 4391      43424643 
 4392              	.LASF21:
 4393 00b9 4359424C 		.ascii	"CYBLE_EVT_STACK_BUSY_STATUS\000"
ARM GAS  C:\Users\ADMINI~1.SC-\AppData\Local\Temp\ccVsST00.s 			page 89


 4393      455F4556 
 4393      545F5354 
 4393      41434B5F 
 4393      42555359 
 4394              	.LASF46:
 4395 00d5 4359424C 		.ascii	"CYBLE_EVT_GATTC_READ_MULTI_RSP\000"
 4395      455F4556 
 4395      545F4741 
 4395      5454435F 
 4395      52454144 
 4396              	.LASF51:
 4397 00f4 4359424C 		.ascii	"CYBLE_EVT_GATTS_EXEC_WRITE_REQ\000"
 4397      455F4556 
 4397      545F4741 
 4397      5454535F 
 4397      45584543 
 4398              	.LASF171:
 4399 0113 7061636B 		.ascii	"packetRX\000"
 4399      65745258 
 4399      00
 4400              	.LASF92:
 4401 011c 54785F62 		.ascii	"Tx_buff\000"
 4401      75666600 
 4402              	.LASF18:
 4403 0124 4359424C 		.ascii	"CYBLE_EVT_TIMEOUT\000"
 4403      455F4556 
 4403      545F5449 
 4403      4D454F55 
 4403      5400
 4404              	.LASF4:
 4405 0136 6C6F6E67 		.ascii	"long int\000"
 4405      20696E74 
 4405      00
 4406              	.LASF168:
 4407 013f 7061636B 		.ascii	"packetTXStep\000"
 4407      65745458 
 4407      53746570 
 4407      00
 4408              	.LASF98:
 4409 014c 52785F46 		.ascii	"Rx_Flag\000"
 4409      6C616700 
 4410              	.LASF7:
 4411 0154 6C6F6E67 		.ascii	"long long unsigned int\000"
 4411      206C6F6E 
 4411      6720756E 
 4411      7369676E 
 4411      65642069 
 4412              	.LASF78:
 4413 016b 4359424C 		.ascii	"CYBLE_GATT_VALUE_T\000"
 4413      455F4741 
 4413      54545F56 
 4413      414C5545 
 4413      5F5400
 4414              	.LASF20:
 4415 017e 4359424C 		.ascii	"CYBLE_EVT_HCI_STATUS\000"
 4415      455F4556 
 4415      545F4843 
ARM GAS  C:\Users\ADMINI~1.SC-\AppData\Local\Temp\ccVsST00.s 			page 90


 4415      495F5354 
 4415      41545553 
 4416              	.LASF177:
 4417 0193 4170704B 		.ascii	"AppKey\000"
 4417      657900
 4418              	.LASF121:
 4419 019a 4C656E74 		.ascii	"Lenth\000"
 4419      6800
 4420              	.LASF170:
 4421 01a0 4C6F636B 		.ascii	"Lock_Info\000"
 4421      5F496E66 
 4421      6F00
 4422              	.LASF100:
 4423 01aa 54785F4C 		.ascii	"Tx_Length\000"
 4423      656E6774 
 4423      6800
 4424              	.LASF59:
 4425 01b4 4359424C 		.ascii	"CYBLE_EVT_L2CAP_CONN_PARAM_UPDATE_REQ\000"
 4425      455F4556 
 4425      545F4C32 
 4425      4341505F 
 4425      434F4E4E 
 4426              	.LASF30:
 4427 01da 4359424C 		.ascii	"CYBLE_EVT_GAP_DEVICE_DISCONNECTED\000"
 4427      455F4556 
 4427      545F4741 
 4427      505F4445 
 4427      56494345 
 4428              	.LASF31:
 4429 01fc 4359424C 		.ascii	"CYBLE_EVT_GAP_ENCRYPT_CHANGE\000"
 4429      455F4556 
 4429      545F4741 
 4429      505F454E 
 4429      43525950 
 4430              	.LASF138:
 4431 0219 6E4C656E 		.ascii	"nLen\000"
 4431      00
 4432              	.LASF118:
 4433 021e 53656E64 		.ascii	"Send_LockInfo\000"
 4433      5F4C6F63 
 4433      6B496E66 
 4433      6F00
 4434              	.LASF6:
 4435 022c 6C6F6E67 		.ascii	"long long int\000"
 4435      206C6F6E 
 4435      6720696E 
 4435      7400
 4436              	.LASF0:
 4437 023a 7369676E 		.ascii	"signed char\000"
 4437      65642063 
 4437      68617200 
 4438              	.LASF117:
 4439 0246 6E6F7469 		.ascii	"notificationPacket\000"
 4439      66696361 
 4439      74696F6E 
 4439      5061636B 
 4439      657400
ARM GAS  C:\Users\ADMINI~1.SC-\AppData\Local\Temp\ccVsST00.s 			page 91


 4440              	.LASF120:
 4441 0259 4261636B 		.ascii	"Back_Massage_Minwen\000"
 4441      5F4D6173 
 4441      73616765 
 4441      5F4D696E 
 4441      77656E00 
 4442              	.LASF132:
 4443 026d 486C5F42 		.ascii	"Hl_Back_Lock_Open\000"
 4443      61636B5F 
 4443      4C6F636B 
 4443      5F4F7065 
 4443      6E00
 4444              	.LASF106:
 4445 027f 54785F42 		.ascii	"Tx_Begin\000"
 4445      6567696E 
 4445      00
 4446              	.LASF142:
 4447 0288 6B65795F 		.ascii	"key_touch_lock_process\000"
 4447      746F7563 
 4447      685F6C6F 
 4447      636B5F70 
 4447      726F6365 
 4448              	.LASF33:
 4449 029f 4359424C 		.ascii	"CYBLE_EVT_GAPC_SCAN_START_STOP\000"
 4449      455F4556 
 4449      545F4741 
 4449      50435F53 
 4449      43414E5F 
 4450              	.LASF173:
 4451 02be 7061636B 		.ascii	"packetRXFlag\000"
 4451      65745258 
 4451      466C6167 
 4451      00
 4452              	.LASF23:
 4453 02cb 4359424C 		.ascii	"CYBLE_EVT_GAP_AUTH_REQ\000"
 4453      455F4556 
 4453      545F4741 
 4453      505F4155 
 4453      54485F52 
 4454              	.LASF44:
 4455 02e2 4359424C 		.ascii	"CYBLE_EVT_GATTC_READ_RSP\000"
 4455      455F4556 
 4455      545F4741 
 4455      5454435F 
 4455      52454144 
 4456              	.LASF109:
 4457 02fb 73746174 		.ascii	"state\000"
 4457      6500
 4458              	.LASF49:
 4459 0301 4359424C 		.ascii	"CYBLE_EVT_GATTS_WRITE_CMD_REQ\000"
 4459      455F4556 
 4459      545F4741 
 4459      5454535F 
 4459      57524954 
 4460              	.LASF102:
 4461 031f 54785F4D 		.ascii	"Tx_Mode\000"
 4461      6F646500 
ARM GAS  C:\Users\ADMINI~1.SC-\AppData\Local\Temp\ccVsST00.s 			page 92


 4462              	.LASF28:
 4463 0327 4359424C 		.ascii	"CYBLE_EVT_GAPP_ADVERTISEMENT_START_STOP\000"
 4463      455F4556 
 4463      545F4741 
 4463      50505F41 
 4463      44564552 
 4464              	.LASF182:
 4465 034f 5F4B4559 		.ascii	"_KEY_STR\000"
 4465      5F535452 
 4465      00
 4466              	.LASF128:
 4467 0358 73656E64 		.ascii	"sendlen\000"
 4467      6C656E00 
 4468              	.LASF52:
 4469 0360 4359424C 		.ascii	"CYBLE_EVT_GATTC_EXEC_WRITE_RSP\000"
 4469      455F4556 
 4469      545F4741 
 4469      5454435F 
 4469      45584543 
 4470              	.LASF13:
 4471 037f 646F7562 		.ascii	"double\000"
 4471      6C6500
 4472              	.LASF64:
 4473 0386 4359424C 		.ascii	"CYBLE_EVT_L2CAP_CBFC_DISCONN_IND\000"
 4473      455F4556 
 4473      545F4C32 
 4473      4341505F 
 4473      43424643 
 4474              	.LASF112:
 4475 03a7 726F6F74 		.ascii	"root_key\000"
 4475      5F6B6579 
 4475      00
 4476              	.LASF114:
 4477 03b0 64796E61 		.ascii	"dynamic_key\000"
 4477      6D69635F 
 4477      6B657900 
 4478              	.LASF137:
 4479 03bc 70625372 		.ascii	"pbSrc\000"
 4479      6300
 4480              	.LASF88:
 4481 03c2 496E6974 		.ascii	"InitState\000"
 4481      53746174 
 4481      6500
 4482              	.LASF11:
 4483 03cc 75696E74 		.ascii	"uint32\000"
 4483      333200
 4484              	.LASF72:
 4485 03d3 4359424C 		.ascii	"CYBLE_EVT_MAX\000"
 4485      455F4556 
 4485      545F4D41 
 4485      5800
 4486              	.LASF35:
 4487 03e1 4359424C 		.ascii	"CYBLE_EVT_GATTC_ERROR_RSP\000"
 4487      455F4556 
 4487      545F4741 
 4487      5454435F 
 4487      4552524F 
ARM GAS  C:\Users\ADMINI~1.SC-\AppData\Local\Temp\ccVsST00.s 			page 93


 4488              	.LASF149:
 4489 03fb 53656E64 		.ascii	"SendBleCmd\000"
 4489      426C6543 
 4489      6D6400
 4490              	.LASF69:
 4491 0406 4359424C 		.ascii	"CYBLE_EVT_L2CAP_CBFC_DATA_WRITE_IND\000"
 4491      455F4556 
 4491      545F4C32 
 4491      4341505F 
 4491      43424643 
 4492              	.LASF105:
 4493 042a 54785F44 		.ascii	"Tx_Delay\000"
 4493      656C6179 
 4493      00
 4494              	.LASF80:
 4495 0433 61747472 		.ascii	"attrHandle\000"
 4495      48616E64 
 4495      6C6500
 4496              	.LASF22:
 4497 043e 4359424C 		.ascii	"CYBLE_EVT_GAPC_SCAN_PROGRESS_RESULT\000"
 4497      455F4556 
 4497      545F4741 
 4497      50435F53 
 4497      43414E5F 
 4498              	.LASF164:
 4499 0462 74656D70 		.ascii	"temp\000"
 4499      00
 4500              	.LASF133:
 4501 0467 486C5F42 		.ascii	"Hl_Back_Lock_Info\000"
 4501      61636B5F 
 4501      4C6F636B 
 4501      5F496E66 
 4501      6F00
 4502              	.LASF103:
 4503 0479 54785F57 		.ascii	"Tx_Wait\000"
 4503      61697400 
 4504              	.LASF57:
 4505 0481 4359424C 		.ascii	"CYBLE_EVT_GATTC_STOP_CMD_COMPLETE\000"
 4505      455F4556 
 4505      545F4741 
 4505      5454435F 
 4505      53544F50 
 4506              	.LASF181:
 4507 04a3 453A5C6D 		.ascii	"E:\\my_project\\shhl\\BLE_KEY_wuyuan\\Design02.cyds"
 4507      795F7072 
 4507      6F6A6563 
 4507      745C7368 
 4507      686C5C42 
 4508 04d2 6E00     		.ascii	"n\000"
 4509              	.LASF85:
 4510 04d4 49444368 		.ascii	"IDChangeFlag\000"
 4510      616E6765 
 4510      466C6167 
 4510      00
 4511              	.LASF8:
 4512 04e1 756E7369 		.ascii	"unsigned int\000"
 4512      676E6564 
ARM GAS  C:\Users\ADMINI~1.SC-\AppData\Local\Temp\ccVsST00.s 			page 94


 4512      20696E74 
 4512      00
 4513              	.LASF71:
 4514 04ee 4359424C 		.ascii	"CYBLE_EVT_LE_PING_AUTH_TIMEOUT\000"
 4514      455F4556 
 4514      545F4C45 
 4514      5F50494E 
 4514      475F4155 
 4515              	.LASF162:
 4516 050d 4B626F78 		.ascii	"Kbox\000"
 4516      00
 4517              	.LASF167:
 4518 0512 6379426C 		.ascii	"cyBle_connHandle\000"
 4518      655F636F 
 4518      6E6E4861 
 4518      6E646C65 
 4518      00
 4519              	.LASF5:
 4520 0523 6C6F6E67 		.ascii	"long unsigned int\000"
 4520      20756E73 
 4520      69676E65 
 4520      6420696E 
 4520      7400
 4521              	.LASF180:
 4522 0535 6170705F 		.ascii	"app_protocol.c\000"
 4522      70726F74 
 4522      6F636F6C 
 4522      2E6300
 4523              	.LASF154:
 4524 0544 70753842 		.ascii	"pu8Buf\000"
 4524      756600
 4525              	.LASF39:
 4526 054b 4359424C 		.ascii	"CYBLE_EVT_GATTC_XCHNG_MTU_RSP\000"
 4526      455F4556 
 4526      545F4741 
 4526      5454435F 
 4526      5843484E 
 4527              	.LASF56:
 4528 0569 4359424C 		.ascii	"CYBLE_EVT_GATTS_DATA_SIGNED_CMD_REQ\000"
 4528      455F4556 
 4528      545F4741 
 4528      5454535F 
 4528      44415441 
 4529              	.LASF9:
 4530 058d 75696E74 		.ascii	"uint8\000"
 4530      3800
 4531              	.LASF123:
 4532 0593 53656E64 		.ascii	"Send_Battery_Voltage\000"
 4532      5F426174 
 4532      74657279 
 4532      5F566F6C 
 4532      74616765 
 4533              	.LASF122:
 4534 05a8 64617461 		.ascii	"data\000"
 4534      00
 4535              	.LASF3:
 4536 05ad 73686F72 		.ascii	"short unsigned int\000"
ARM GAS  C:\Users\ADMINI~1.SC-\AppData\Local\Temp\ccVsST00.s 			page 95


 4536      7420756E 
 4536      7369676E 
 4536      65642069 
 4536      6E7400
 4537              	.LASF90:
 4538 05c0 4C4F434B 		.ascii	"LOCK_INFO\000"
 4538      5F494E46 
 4538      4F00
 4539              	.LASF16:
 4540 05ca 4359424C 		.ascii	"CYBLE_EVT_HOST_INVALID\000"
 4540      455F4556 
 4540      545F484F 
 4540      53545F49 
 4540      4E56414C 
 4541              	.LASF42:
 4542 05e1 4359424C 		.ascii	"CYBLE_EVT_GATTC_FIND_INFO_RSP\000"
 4542      455F4556 
 4542      545F4741 
 4542      5454435F 
 4542      46494E44 
 4543              	.LASF87:
 4544 05ff 56657273 		.ascii	"Version\000"
 4544      696F6E00 
 4545              	.LASF152:
 4546 0607 75694352 		.ascii	"uiCRCValue\000"
 4546      4356616C 
 4546      756500
 4547              	.LASF24:
 4548 0612 4359424C 		.ascii	"CYBLE_EVT_GAP_PASSKEY_ENTRY_REQUEST\000"
 4548      455F4556 
 4548      545F4741 
 4548      505F5041 
 4548      53534B45 
 4549              	.LASF29:
 4550 0636 4359424C 		.ascii	"CYBLE_EVT_GAP_DEVICE_CONNECTED\000"
 4550      455F4556 
 4550      545F4741 
 4550      505F4445 
 4550      56494345 
 4551              	.LASF107:
 4552 0655 436F6D41 		.ascii	"ComArray\000"
 4552      72726179 
 4552      00
 4553              	.LASF47:
 4554 065e 4359424C 		.ascii	"CYBLE_EVT_GATTS_WRITE_REQ\000"
 4554      455F4556 
 4554      545F4741 
 4554      5454535F 
 4554      57524954 
 4555              	.LASF96:
 4556 0678 52785F42 		.ascii	"Rx_Begin_Flag\000"
 4556      6567696E 
 4556      5F466C61 
 4556      6700
 4557              	.LASF151:
 4558 0686 75774C65 		.ascii	"uwLength\000"
 4558      6E677468 
ARM GAS  C:\Users\ADMINI~1.SC-\AppData\Local\Temp\ccVsST00.s 			page 96


 4558      00
 4559              	.LASF134:
 4560 068f 7263345F 		.ascii	"rc4_key\000"
 4560      6B657900 
 4561              	.LASF36:
 4562 0697 4359424C 		.ascii	"CYBLE_EVT_GATT_CONNECT_IND\000"
 4562      455F4556 
 4562      545F4741 
 4562      54545F43 
 4562      4F4E4E45 
 4563              	.LASF161:
 4564 06b2 53626F78 		.ascii	"Sbox\000"
 4564      00
 4565              	.LASF156:
 4566 06b7 586F725F 		.ascii	"Xor_Check\000"
 4566      43686563 
 4566      6B00
 4567              	.LASF75:
 4568 06c1 61747449 		.ascii	"attId\000"
 4568      6400
 4569              	.LASF61:
 4570 06c7 4359424C 		.ascii	"CYBLE_EVT_L2CAP_COMMAND_REJ\000"
 4570      455F4556 
 4570      545F4C32 
 4570      4341505F 
 4570      434F4D4D 
 4571              	.LASF169:
 4572 06e3 53797374 		.ascii	"System_Config\000"
 4572      656D5F43 
 4572      6F6E6669 
 4572      6700
 4573              	.LASF124:
 4574 06f1 53656E64 		.ascii	"Send_Factory_Info\000"
 4574      5F466163 
 4574      746F7279 
 4574      5F496E66 
 4574      6F00
 4575              	.LASF125:
 4576 0703 4261636B 		.ascii	"Back_subpackage\000"
 4576      5F737562 
 4576      7061636B 
 4576      61676500 
 4577              	.LASF62:
 4578 0713 4359424C 		.ascii	"CYBLE_EVT_L2CAP_CBFC_CONN_IND\000"
 4578      455F4556 
 4578      545F4C32 
 4578      4341505F 
 4578      43424643 
 4579              	.LASF41:
 4580 0731 4359424C 		.ascii	"CYBLE_EVT_GATTC_READ_BY_TYPE_RSP\000"
 4580      455F4556 
 4580      545F4741 
 4580      5454435F 
 4580      52454144 
 4581              	.LASF15:
 4582 0752 73697A65 		.ascii	"sizetype\000"
 4582      74797065 
ARM GAS  C:\Users\ADMINI~1.SC-\AppData\Local\Temp\ccVsST00.s 			page 97


 4582      00
 4583              	.LASF145:
 4584 075b 64617461 		.ascii	"datalen\000"
 4584      6C656E00 
 4585              	.LASF82:
 4586 0763 4359424C 		.ascii	"CYBLE_GATTS_HANDLE_VALUE_NTF_T\000"
 4586      455F4741 
 4586      5454535F 
 4586      48414E44 
 4586      4C455F56 
 4587              	.LASF27:
 4588 0782 4359424C 		.ascii	"CYBLE_EVT_GAP_AUTH_FAILED\000"
 4588      455F4556 
 4588      545F4741 
 4588      505F4155 
 4588      54485F46 
 4589              	.LASF153:
 4590 079c 75634C6F 		.ascii	"ucLoop\000"
 4590      6F7000
 4591              	.LASF48:
 4592 07a3 4359424C 		.ascii	"CYBLE_EVT_GATTC_WRITE_RSP\000"
 4592      455F4556 
 4592      545F4741 
 4592      5454435F 
 4592      57524954 
 4593              	.LASF155:
 4594 07bd 636F6D43 		.ascii	"comCalCRC16\000"
 4594      616C4352 
 4594      43313600 
 4595              	.LASF165:
 4596 07c9 6C6F636B 		.ascii	"lock_open_flag\000"
 4596      5F6F7065 
 4596      6E5F666C 
 4596      616700
 4597              	.LASF136:
 4598 07d8 70624465 		.ascii	"pbDest\000"
 4598      737400
 4599              	.LASF26:
 4600 07df 4359424C 		.ascii	"CYBLE_EVT_GAP_AUTH_COMPLETE\000"
 4600      455F4556 
 4600      545F4741 
 4600      505F4155 
 4600      54485F43 
 4601              	.LASF157:
 4602 07fb 44617461 		.ascii	"Data\000"
 4602      00
 4603              	.LASF53:
 4604 0800 4359424C 		.ascii	"CYBLE_EVT_GATTC_HANDLE_VALUE_NTF\000"
 4604      455F4556 
 4604      545F4741 
 4604      5454435F 
 4604      48414E44 
 4605              	.LASF172:
 4606 0821 7061636B 		.ascii	"packetRXSize\000"
 4606      65745258 
 4606      53697A65 
 4606      00
ARM GAS  C:\Users\ADMINI~1.SC-\AppData\Local\Temp\ccVsST00.s 			page 98


 4607              	.LASF63:
 4608 082e 4359424C 		.ascii	"CYBLE_EVT_L2CAP_CBFC_CONN_CNF\000"
 4608      455F4556 
 4608      545F4C32 
 4608      4341505F 
 4608      43424643 
 4609              	.LASF119:
 4610 084c 64617461 		.ascii	"data_rand\000"
 4610      5F72616E 
 4610      6400
 4611              	.LASF40:
 4612 0856 4359424C 		.ascii	"CYBLE_EVT_GATTC_READ_BY_GROUP_TYPE_RSP\000"
 4612      455F4556 
 4612      545F4741 
 4612      5454435F 
 4612      52454144 
 4613              	.LASF12:
 4614 087d 666C6F61 		.ascii	"float\000"
 4614      7400
 4615              	.LASF116:
 4616 0883 53656E64 		.ascii	"SendNotification\000"
 4616      4E6F7469 
 4616      66696361 
 4616      74696F6E 
 4616      00
 4617              	.LASF160:
 4618 0894 6B65795F 		.ascii	"key_leng\000"
 4618      6C656E67 
 4618      00
 4619              	.LASF97:
 4620 089d 52785F44 		.ascii	"Rx_Delay\000"
 4620      656C6179 
 4620      00
 4621              	.LASF17:
 4622 08a6 4359424C 		.ascii	"CYBLE_EVT_STACK_ON\000"
 4622      455F4556 
 4622      545F5354 
 4622      41434B5F 
 4622      4F4E00
 4623              	.LASF150:
 4624 08b9 70756342 		.ascii	"pucBuf\000"
 4624      756600
 4625              	.LASF1:
 4626 08c0 756E7369 		.ascii	"unsigned char\000"
 4626      676E6564 
 4626      20636861 
 4626      7200
 4627              	.LASF115:
 4628 08ce 53656E64 		.ascii	"SendNotification_zx\000"
 4628      4E6F7469 
 4628      66696361 
 4628      74696F6E 
 4628      5F7A7800 
 4629              	.LASF104:
 4630 08e2 54785F43 		.ascii	"Tx_Count\000"
 4630      6F756E74 
 4630      00
ARM GAS  C:\Users\ADMINI~1.SC-\AppData\Local\Temp\ccVsST00.s 			page 99


 4631              	.LASF113:
 4632 08eb 6374726C 		.ascii	"ctrl_key\000"
 4632      5F6B6579 
 4632      00
 4633              	.LASF111:
 4634 08f4 4D44355F 		.ascii	"MD5_CTX\000"
 4634      43545800 
 4635              	.LASF2:
 4636 08fc 73686F72 		.ascii	"short int\000"
 4636      7420696E 
 4636      7400
 4637              	.LASF54:
 4638 0906 4359424C 		.ascii	"CYBLE_EVT_GATTC_HANDLE_VALUE_IND\000"
 4638      455F4556 
 4638      545F4741 
 4638      5454435F 
 4638      48414E44 
 4639              	.LASF135:
 4640 0927 48657854 		.ascii	"HexToStr\000"
 4640      6F537472 
 4640      00
 4641              	.LASF174:
 4642 0930 7061636B 		.ascii	"packetTX\000"
 4642      65745458 
 4642      00
 4643              	.LASF99:
 4644 0939 52785F54 		.ascii	"Rx_Tag\000"
 4644      616700
 4645              	.LASF50:
 4646 0940 4359424C 		.ascii	"CYBLE_EVT_GATTS_PREP_WRITE_REQ\000"
 4646      455F4556 
 4646      545F4741 
 4646      5454535F 
 4646      50524550 
 4647              	.LASF79:
 4648 095f 76616C75 		.ascii	"value\000"
 4648      6500
 4649              	.LASF55:
 4650 0965 4359424C 		.ascii	"CYBLE_EVT_GATTS_HANDLE_VALUE_CNF\000"
 4650      455F4556 
 4650      545F4741 
 4650      5454535F 
 4650      48414E44 
 4651              	.LASF81:
 4652 0986 4359424C 		.ascii	"CYBLE_GATT_HANDLE_VALUE_PAIR_T\000"
 4652      455F4741 
 4652      54545F48 
 4652      414E444C 
 4652      455F5641 
 4653              	.LASF95:
 4654 09a5 52785F49 		.ascii	"Rx_Index\000"
 4654      6E646578 
 4654      00
 4655              	.LASF166:
 4656 09ae 6C6F636B 		.ascii	"lock_timeflow\000"
 4656      5F74696D 
 4656      65666C6F 
ARM GAS  C:\Users\ADMINI~1.SC-\AppData\Local\Temp\ccVsST00.s 			page 100


 4656      7700
 4657              	.LASF159:
 4658 09bc 4170705F 		.ascii	"App_RC4\000"
 4658      52433400 
 4659              	.LASF143:
 4660 09c4 6B65795F 		.ascii	"key_touch_lock_flag_set\000"
 4660      746F7563 
 4660      685F6C6F 
 4660      636B5F66 
 4660      6C61675F 
 4661              	.LASF14:
 4662 09dc 63686172 		.ascii	"char\000"
 4662      00
 4663              	.LASF178:
 4664 09e1 6B65795F 		.ascii	"key_str\000"
 4664      73747200 
 4665              	.LASF148:
 4666 09e9 7061636B 		.ascii	"packet_rx\000"
 4666      65745F72 
 4666      7800
 4667              	.LASF58:
 4668 09f3 4359424C 		.ascii	"CYBLE_EVT_GATTS_READ_CHAR_VAL_ACCESS_REQ\000"
 4668      455F4556 
 4668      545F4741 
 4668      5454535F 
 4668      52454144 
 4669              	.LASF163:
 4670 0a1c 696E6465 		.ascii	"index\000"
 4670      7800
 4671              	.LASF144:
 4672 0a22 52656365 		.ascii	"ReceiveBleCmd\000"
 4672      69766542 
 4672      6C65436D 
 4672      6400
 4673              	.LASF110:
 4674 0a30 62756666 		.ascii	"buffer\000"
 4674      657200
 4675              	.LASF68:
 4676 0a37 4359424C 		.ascii	"CYBLE_EVT_L2CAP_CBFC_TX_CREDIT_IND\000"
 4676      455F4556 
 4676      545F4C32 
 4676      4341505F 
 4676      43424643 
 4677              	.LASF66:
 4678 0a5a 4359424C 		.ascii	"CYBLE_EVT_L2CAP_CBFC_DATA_READ\000"
 4678      455F4556 
 4678      545F4C32 
 4678      4341505F 
 4678      43424643 
 4679              	.LASF175:
 4680 0a79 436F6D5F 		.ascii	"Com_Array\000"
 4680      41727261 
 4680      7900
 4681              	.LASF25:
 4682 0a83 4359424C 		.ascii	"CYBLE_EVT_GAP_PASSKEY_DISPLAY_REQUEST\000"
 4682      455F4556 
 4682      545F4741 
ARM GAS  C:\Users\ADMINI~1.SC-\AppData\Local\Temp\ccVsST00.s 			page 101


 4682      505F5041 
 4682      53534B45 
 4683              	.LASF93:
 4684 0aa9 52785F4C 		.ascii	"Rx_Length\000"
 4684      656E6774 
 4684      6800
 4685              	.LASF19:
 4686 0ab3 4359424C 		.ascii	"CYBLE_EVT_HARDWARE_ERROR\000"
 4686      455F4556 
 4686      545F4841 
 4686      52445741 
 4686      52455F45 
 4687              	.LASF158:
 4688 0acc 4C656E67 		.ascii	"Length\000"
 4688      746800
 4689              	.LASF77:
 4690 0ad3 61637475 		.ascii	"actualLen\000"
 4690      616C4C65 
 4690      6E00
 4691              	.LASF126:
 4692 0add 706B5F6E 		.ascii	"pk_num\000"
 4692      756D00
 4693              	.LASF141:
 4694 0ae4 64656372 		.ascii	"decrypt\000"
 4694      79707400 
 4695              	.LASF84:
 4696 0aec 44657669 		.ascii	"DeviceID\000"
 4696      63654944 
 4696      00
 4697              	.LASF38:
 4698 0af5 4359424C 		.ascii	"CYBLE_EVT_GATTS_XCNHG_MTU_REQ\000"
 4698      455F4556 
 4698      545F4741 
 4698      5454535F 
 4698      58434E48 
 4699              	.LASF86:
 4700 0b13 53595354 		.ascii	"SYSTEM_CFG\000"
 4700      454D5F43 
 4700      464700
 4701              	.LASF140:
 4702 0b1e 64657374 		.ascii	"dest_key\000"
 4702      5F6B6579 
 4702      00
 4703              	.LASF83:
 4704 0b27 4D616E61 		.ascii	"ManageKey\000"
 4704      67654B65 
 4704      7900
 4705              	.LASF45:
 4706 0b31 4359424C 		.ascii	"CYBLE_EVT_GATTC_READ_BLOB_RSP\000"
 4706      455F4556 
 4706      545F4741 
 4706      5454435F 
 4706      52454144 
 4707              	.LASF147:
 4708 0b4f 63686563 		.ascii	"check_crc\000"
 4708      6B5F6372 
 4708      6300
ARM GAS  C:\Users\ADMINI~1.SC-\AppData\Local\Temp\ccVsST00.s 			page 102


 4709              	.LASF130:
 4710 0b59 486C5F42 		.ascii	"Hl_Back_Msg\000"
 4710      61636B5F 
 4710      4D736700 
 4711              	.LASF129:
 4712 0b65 62617474 		.ascii	"batt_val\000"
 4712      5F76616C 
 4712      00
 4713              	.LASF139:
 4714 0b6e 74657374 		.ascii	"test_md5\000"
 4714      5F6D6435 
 4714      00
 4715              	.LASF179:
 4716 0b77 474E5520 		.ascii	"GNU C 4.9.3 20150303 (release) [ARM/embedded-4_9-br"
 4716      4320342E 
 4716      392E3320 
 4716      32303135 
 4716      30333033 
 4717 0baa 616E6368 		.ascii	"anch revision 221220] -mcpu=cortex-m0 -mthumb -g -O"
 4717      20726576 
 4717      6973696F 
 4717      6E203232 
 4717      31323230 
 4718 0bdd 30202D66 		.ascii	"0 -ffunction-sections -ffat-lto-objects\000"
 4718      66756E63 
 4718      74696F6E 
 4718      2D736563 
 4718      74696F6E 
 4719              	.LASF43:
 4720 0c05 4359424C 		.ascii	"CYBLE_EVT_GATTC_FIND_BY_TYPE_VALUE_RSP\000"
 4720      455F4556 
 4720      545F4741 
 4720      5454435F 
 4720      46494E44 
 4721              	.LASF34:
 4722 0c2c 4359424C 		.ascii	"CYBLE_EVT_GAP_KEYINFO_EXCHNGE_CMPLT\000"
 4722      455F4556 
 4722      545F4741 
 4722      505F4B45 
 4722      59494E46 
 4723              	.LASF101:
 4724 0c50 54785F53 		.ascii	"Tx_State\000"
 4724      74617465 
 4724      00
 4725              	.LASF74:
 4726 0c59 62644861 		.ascii	"bdHandle\000"
 4726      6E646C65 
 4726      00
 4727              	.LASF94:
 4728 0c62 52785F43 		.ascii	"Rx_Count\000"
 4728      6F756E74 
 4728      00
 4729              	.LASF70:
 4730 0c6b 4359424C 		.ascii	"CYBLE_EVT_PENDING_FLASH_WRITE\000"
 4730      455F4556 
 4730      545F5045 
 4730      4E44494E 
ARM GAS  C:\Users\ADMINI~1.SC-\AppData\Local\Temp\ccVsST00.s 			page 103


 4730      475F464C 
 4731              	.LASF60:
 4732 0c89 4359424C 		.ascii	"CYBLE_EVT_L2CAP_CONN_PARAM_UPDATE_RSP\000"
 4732      455F4556 
 4732      545F4C32 
 4732      4341505F 
 4732      434F4E4E 
 4733              	.LASF89:
 4734 0caf 4C6F636B 		.ascii	"LockKey\000"
 4734      4B657900 
 4735              	.LASF73:
 4736 0cb7 4359424C 		.ascii	"CYBLE_GATT_DB_ATTR_HANDLE_T\000"
 4736      455F4741 
 4736      54545F44 
 4736      425F4154 
 4736      54525F48 
 4737              	.LASF131:
 4738 0cd3 72657375 		.ascii	"result\000"
 4738      6C7400
 4739              	.LASF37:
 4740 0cda 4359424C 		.ascii	"CYBLE_EVT_GATT_DISCONNECT_IND\000"
 4740      455F4556 
 4740      545F4741 
 4740      54545F44 
 4740      4953434F 
 4741              		.ident	"GCC: (GNU Tools for ARM Embedded Processors) 4.9.3 20150303 (release) [ARM/embedded-4_9-br
