ARM GAS  C:\Users\ADMINI~1.SC-\AppData\Local\Temp\cceVp8or.s 			page 1


   1              		.cpu cortex-m0
   2              		.fpu softvfp
   3              		.eabi_attribute 20, 1
   4              		.eabi_attribute 21, 1
   5              		.eabi_attribute 23, 3
   6              		.eabi_attribute 24, 1
   7              		.eabi_attribute 25, 1
   8              		.eabi_attribute 26, 1
   9              		.eabi_attribute 30, 6
  10              		.eabi_attribute 34, 0
  11              		.eabi_attribute 18, 4
  12              		.code	16
  13              		.file	"app_Com.c"
  14              		.text
  15              	.Ltext0:
  16              		.cfi_sections	.debug_frame
  17              		.comm	Com_Array,118,4
  18              		.comm	App_Key,8,4
  19              		.global	Own_Key
  20              		.data
  21              		.align	2
  22              		.type	Own_Key, %object
  23              		.size	Own_Key, 8
  24              	Own_Key:
  25 0000 01       		.byte	1
  26 0001 03       		.byte	3
  27 0002 05       		.byte	5
  28 0003 07       		.byte	7
  29 0004 05       		.byte	5
  30 0005 03       		.byte	3
  31 0006 01       		.byte	1
  32 0007 07       		.byte	7
  33              		.comm	Target_Key,8,4
  34              		.section	.text.Com_Recv_Prov,"ax",%progbits
  35              		.align	2
  36              		.global	Com_Recv_Prov
  37              		.code	16
  38              		.thumb_func
  39              		.type	Com_Recv_Prov, %function
  40              	Com_Recv_Prov:
  41              	.LFB35:
  42              		.file 1 "app_Com.c"
   1:app_Com.c     **** /* ========================================
   2:app_Com.c     ****  *
   3:app_Com.c     ****  * Copyright YOUR COMPANY, THE YEAR
   4:app_Com.c     ****  * All Rights Reserved
   5:app_Com.c     ****  * UNPUBLISHED, LICENSED SOFTWARE.
   6:app_Com.c     ****  *
   7:app_Com.c     ****  * CONFIDENTIAL AND PROPRIETARY INFORMATION
   8:app_Com.c     ****  * WHICH IS THE PROPERTY OF your company.
   9:app_Com.c     ****  *
  10:app_Com.c     ****  * ========================================
  11:app_Com.c     **** */
  12:app_Com.c     **** #include "app_Com.h"
  13:app_Com.c     **** #include "app_protocol.h"
  14:app_Com.c     **** #include "app_lock.h"
  15:app_Com.c     **** #include "Rc4.h"
ARM GAS  C:\Users\ADMINI~1.SC-\AppData\Local\Temp\cceVp8or.s 			page 2


  16:app_Com.c     **** 
  17:app_Com.c     **** ComArray Com_Array;
  18:app_Com.c     **** uint8 App_Key[8];
  19:app_Com.c     **** uint8 Own_Key[8] = {0x01,0x03,0x05,0x07,0x05,0x03,0x01,0x07};
  20:app_Com.c     **** uint8 Target_Key[8];
  21:app_Com.c     **** /***********************************************
  22:app_Com.c     **** * å‡½æ•°åï¼švoid Com_Recv_Prov(void)
  23:app_Com.c     **** * æè¿°  ï¼šå¤„ç†ä¸²å£æŽ¥æ”¶æŒ‡ä»¤
  24:app_Com.c     **** ***********************************************/
  25:app_Com.c     **** void Com_Recv_Prov(void)
  26:app_Com.c     **** {
  43              		.loc 1 26 0
  44              		.cfi_startproc
  45 0000 90B5     		push	{r4, r7, lr}
  46              		.cfi_def_cfa_offset 12
  47              		.cfi_offset 4, -12
  48              		.cfi_offset 7, -8
  49              		.cfi_offset 14, -4
  50 0002 83B0     		sub	sp, sp, #12
  51              		.cfi_def_cfa_offset 24
  52 0004 00AF     		add	r7, sp, #0
  53              		.cfi_def_cfa_register 7
  27:app_Com.c     ****     uint8 Cmd;
  28:app_Com.c     ****     uint16 Rec_CRC,Check_CRC;
  29:app_Com.c     ****        
  30:app_Com.c     ****     if(Com_Array.Rx_Flag)
  54              		.loc 1 30 0
  55 0006 7A4B     		ldr	r3, .L18
  56 0008 6922     		mov	r2, #105
  57 000a 9B5C     		ldrb	r3, [r3, r2]
  58 000c 002B     		cmp	r3, #0
  59 000e 00D1     		bne	.LCB17
  60 0010 A9E0     		b	.L2	@long jump
  61              	.LCB17:
  31:app_Com.c     ****     {
  32:app_Com.c     ****         Com_Array.Rx_Flag = 0;
  62              		.loc 1 32 0
  63 0012 774B     		ldr	r3, .L18
  64 0014 6922     		mov	r2, #105
  65 0016 0021     		mov	r1, #0
  66 0018 9954     		strb	r1, [r3, r2]
  33:app_Com.c     ****         Delay_Time.Delay_1s = 0;
  67              		.loc 1 33 0
  68 001a 764B     		ldr	r3, .L18+4
  69 001c 0022     		mov	r2, #0
  70 001e DA80     		strh	r2, [r3, #6]
  34:app_Com.c     ****         Delay_Time.Delay_1min = 0;
  71              		.loc 1 34 0
  72 0020 744B     		ldr	r3, .L18+4
  73 0022 0022     		mov	r2, #0
  74 0024 1A81     		strh	r2, [r3, #8]
  35:app_Com.c     ****         Rec_CRC = Com_Array.Rx_buff[Com_Array.Rx_Length - 2] *256 + Com_Array.Rx_buff[Com_Array.Rx_
  75              		.loc 1 35 0
  76 0026 724B     		ldr	r3, .L18
  77 0028 6422     		mov	r2, #100
  78 002a 9B5C     		ldrb	r3, [r3, r2]
  79 002c 023B     		sub	r3, r3, #2
ARM GAS  C:\Users\ADMINI~1.SC-\AppData\Local\Temp\cceVp8or.s 			page 3


  80 002e 704A     		ldr	r2, .L18
  81 0030 D35C     		ldrb	r3, [r2, r3]
  82 0032 9BB2     		uxth	r3, r3
  83 0034 1B02     		lsl	r3, r3, #8
  84 0036 99B2     		uxth	r1, r3
  85 0038 6D4B     		ldr	r3, .L18
  86 003a 6422     		mov	r2, #100
  87 003c 9B5C     		ldrb	r3, [r3, r2]
  88 003e 013B     		sub	r3, r3, #1
  89 0040 6B4A     		ldr	r2, .L18
  90 0042 D35C     		ldrb	r3, [r2, r3]
  91 0044 9AB2     		uxth	r2, r3
  92 0046 BB1D     		add	r3, r7, #6
  93 0048 8A18     		add	r2, r1, r2
  94 004a 1A80     		strh	r2, [r3]
  36:app_Com.c     ****         Check_CRC = comCalCRC16(Com_Array.Rx_buff,Com_Array.Rx_Length - 2);
  95              		.loc 1 36 0
  96 004c 684B     		ldr	r3, .L18
  97 004e 6422     		mov	r2, #100
  98 0050 9B5C     		ldrb	r3, [r3, r2]
  99 0052 023B     		sub	r3, r3, #2
 100 0054 DBB2     		uxtb	r3, r3
 101 0056 3C1D     		add	r4, r7, #4
 102 0058 654A     		ldr	r2, .L18
 103 005a 101C     		mov	r0, r2
 104 005c 191C     		mov	r1, r3
 105 005e FFF7FEFF 		bl	comCalCRC16
 106 0062 031C     		mov	r3, r0
 107 0064 2380     		strh	r3, [r4]
  37:app_Com.c     ****         if(Rec_CRC == Check_CRC)
 108              		.loc 1 37 0
 109 0066 BA1D     		add	r2, r7, #6
 110 0068 3B1D     		add	r3, r7, #4
 111 006a 1288     		ldrh	r2, [r2]
 112 006c 1B88     		ldrh	r3, [r3]
 113 006e 9A42     		cmp	r2, r3
 114 0070 73D1     		bne	.L3
  38:app_Com.c     ****         {
  39:app_Com.c     ****             Cmd = Com_Array.Rx_buff[0];
 115              		.loc 1 39 0
 116 0072 FB1C     		add	r3, r7, #3
 117 0074 5E4A     		ldr	r2, .L18
 118 0076 1278     		ldrb	r2, [r2]
 119 0078 1A70     		strb	r2, [r3]
  40:app_Com.c     ****             switch(Cmd)
 120              		.loc 1 40 0
 121 007a FB1C     		add	r3, r7, #3
 122 007c 1B78     		ldrb	r3, [r3]
 123 007e 0A2B     		cmp	r3, #10
 124 0080 68D8     		bhi	.L17
 125 0082 9A00     		lsl	r2, r3, #2
 126 0084 5C4B     		ldr	r3, .L18+8
 127 0086 D318     		add	r3, r2, r3
 128 0088 1B68     		ldr	r3, [r3]
 129 008a 9F46     		mov	pc, r3
 130              		.section	.rodata
 131              		.align	2
ARM GAS  C:\Users\ADMINI~1.SC-\AppData\Local\Temp\cceVp8or.s 			page 4


 132              	.L6:
 133 0000 54010000 		.word	.L17
 134 0004 8C000000 		.word	.L5
 135 0008 54010000 		.word	.L17
 136 000c F4000000 		.word	.L7
 137 0010 EA000000 		.word	.L8
 138 0014 54010000 		.word	.L17
 139 0018 20010000 		.word	.L9
 140 001c 2A010000 		.word	.L10
 141 0020 54010000 		.word	.L17
 142 0024 54010000 		.word	.L17
 143 0028 54010000 		.word	.L17
 144              		.section	.text.Com_Recv_Prov
 145              	.L5:
  41:app_Com.c     ****             {
  42:app_Com.c     ****                 case REQUEST_DEVICE_CMD:    //  è¯·æ±‚è®¾å¤‡ä¿¡æ¯
  43:app_Com.c     ****                     Delay_Time.Ask_Lock_Delay  = 0;
 146              		.loc 1 43 0
 147 008c 594B     		ldr	r3, .L18+4
 148 008e 0022     		mov	r2, #0
 149 0090 5A80     		strh	r2, [r3, #2]
  44:app_Com.c     ****                     Flag.Begin_Ask_Lock = 0;
 150              		.loc 1 44 0
 151 0092 5A4B     		ldr	r3, .L18+12
 152 0094 1A78     		ldrb	r2, [r3]
 153 0096 1021     		mov	r1, #16
 154 0098 8A43     		bic	r2, r1
 155 009a 1A70     		strb	r2, [r3]
  45:app_Com.c     ****                     Delay_Time.NoLock_Count = 0;
 156              		.loc 1 45 0
 157 009c 554B     		ldr	r3, .L18+4
 158 009e 0022     		mov	r2, #0
 159 00a0 1A71     		strb	r2, [r3, #4]
  46:app_Com.c     ****                     memcpy(Lock_Info.DeviceID,Com_Array.Rx_buff+3,4);
 160              		.loc 1 46 0
 161 00a2 5749     		ldr	r1, .L18+16
 162 00a4 524B     		ldr	r3, .L18
 163 00a6 0322     		mov	r2, #3
 164 00a8 9B18     		add	r3, r3, r2
 165 00aa 0422     		mov	r2, #4
 166 00ac 081C     		mov	r0, r1
 167 00ae 191C     		mov	r1, r3
 168 00b0 FFF7FEFF 		bl	memcpy
  47:app_Com.c     ****                     memcpy(Lock_Info.Version,Com_Array.Rx_buff+7,2);
 169              		.loc 1 47 0
 170 00b4 524A     		ldr	r2, .L18+16
 171 00b6 4E4B     		ldr	r3, .L18
 172 00b8 0721     		mov	r1, #7
 173 00ba 0432     		add	r2, r2, #4
 174 00bc 5B18     		add	r3, r3, r1
 175 00be 0224     		mov	r4, #2
 176 00c0 101C     		mov	r0, r2
 177 00c2 191C     		mov	r1, r3
 178 00c4 221C     		mov	r2, r4
 179 00c6 FFF7FEFF 		bl	memcpy
  48:app_Com.c     ****                     Lock_Info.InitState = Com_Array.Rx_buff[9];
 180              		.loc 1 48 0
ARM GAS  C:\Users\ADMINI~1.SC-\AppData\Local\Temp\cceVp8or.s 			page 5


 181 00ca 494B     		ldr	r3, .L18
 182 00cc 5A7A     		ldrb	r2, [r3, #9]
 183 00ce 4C4B     		ldr	r3, .L18+16
 184 00d0 9A71     		strb	r2, [r3, #6]
  49:app_Com.c     ****                     if(Flag.Open_Lock_Success == 0)     
 185              		.loc 1 49 0
 186 00d2 4A4B     		ldr	r3, .L18+12
 187 00d4 1B78     		ldrb	r3, [r3]
 188 00d6 0822     		mov	r2, #8
 189 00d8 1340     		and	r3, r2
 190 00da DBB2     		uxtb	r3, r3
 191 00dc 002B     		cmp	r3, #0
 192 00de 03D1     		bne	.L12
  50:app_Com.c     ****                     {
  51:app_Com.c     ****                         packetTXStep = Send_Lock_Info;
 193              		.loc 1 51 0
 194 00e0 484B     		ldr	r3, .L18+20
 195 00e2 0122     		mov	r2, #1
 196 00e4 1A70     		strb	r2, [r3]
  52:app_Com.c     ****                     }
  53:app_Com.c     ****                     break;
 197              		.loc 1 53 0
 198 00e6 36E0     		b	.L13
 199              	.L12:
 200 00e8 35E0     		b	.L13
 201              	.L8:
  54:app_Com.c     ****                 
  55:app_Com.c     ****                 case CHECK_CODE_CMD:
  56:app_Com.c     ****                     Com_Array.Tx_State = SWAP_KEY;
 202              		.loc 1 56 0
 203 00ea 414B     		ldr	r3, .L18
 204 00ec 6C22     		mov	r2, #108
 205 00ee 0621     		mov	r1, #6
 206 00f0 9954     		strb	r1, [r3, r2]
  57:app_Com.c     ****                     break;
 207              		.loc 1 57 0
 208 00f2 30E0     		b	.L13
 209              	.L7:
  58:app_Com.c     ****                 
  59:app_Com.c     ****                 case SWAP_KEY_CMD:
  60:app_Com.c     ****                     rc4_encrypt(Own_Key,KEY_LEN,Com_Array.Rx_buff + 2,10);		//key1è§£å¯†
 210              		.loc 1 60 0
 211 00f4 444A     		ldr	r2, .L18+24
 212 00f6 454B     		ldr	r3, .L18+28
 213 00f8 101C     		mov	r0, r2
 214 00fa 0821     		mov	r1, #8
 215 00fc 1A1C     		mov	r2, r3
 216 00fe 0A23     		mov	r3, #10
 217 0100 FFF7FEFF 		bl	rc4_encrypt
  61:app_Com.c     ****                     memcpy(Target_Key,&Com_Array.Rx_buff[2],8);
 218              		.loc 1 61 0
 219 0104 4249     		ldr	r1, .L18+32
 220 0106 3A4B     		ldr	r3, .L18
 221 0108 0222     		mov	r2, #2
 222 010a 9B18     		add	r3, r3, r2
 223 010c 0822     		mov	r2, #8
 224 010e 081C     		mov	r0, r1
ARM GAS  C:\Users\ADMINI~1.SC-\AppData\Local\Temp\cceVp8or.s 			page 6


 225 0110 191C     		mov	r1, r3
 226 0112 FFF7FEFF 		bl	memcpy
  62:app_Com.c     ****                     Com_Array.Tx_State = REQUEST_INDEX;
 227              		.loc 1 62 0
 228 0116 364B     		ldr	r3, .L18
 229 0118 6C22     		mov	r2, #108
 230 011a 0721     		mov	r1, #7
 231 011c 9954     		strb	r1, [r3, r2]
  63:app_Com.c     ****                     break;
 232              		.loc 1 63 0
 233 011e 1AE0     		b	.L13
 234              	.L9:
  64:app_Com.c     ****                 
  65:app_Com.c     ****                 case REQUEST_LOCK_INDEX:    // è¯·æ±‚é”æ£€ç´¢å·
  66:app_Com.c     ****                     Com_Array.Tx_State = OPEN_LOCK;
 235              		.loc 1 66 0
 236 0120 334B     		ldr	r3, .L18
 237 0122 6C22     		mov	r2, #108
 238 0124 0821     		mov	r1, #8
 239 0126 9954     		strb	r1, [r3, r2]
  67:app_Com.c     ****                     break;
 240              		.loc 1 67 0
 241 0128 15E0     		b	.L13
 242              	.L10:
  68:app_Com.c     ****                 
  69:app_Com.c     ****                 case OPEN_LOCK_CMD:
  70:app_Com.c     ****                     Com_Array.Tx_State = IDLE;
 243              		.loc 1 70 0
 244 012a 314B     		ldr	r3, .L18
 245 012c 6C22     		mov	r2, #108
 246 012e 0021     		mov	r1, #0
 247 0130 9954     		strb	r1, [r3, r2]
  71:app_Com.c     ****                     packetTXStep = Reply_OpenLock;
 248              		.loc 1 71 0
 249 0132 344B     		ldr	r3, .L18+20
 250 0134 0222     		mov	r2, #2
 251 0136 1A70     		strb	r2, [r3]
  72:app_Com.c     ****                     Flag.Alarm_Work_Step = EVENT_2;
 252              		.loc 1 72 0
 253 0138 304B     		ldr	r3, .L18+12
 254 013a 1A78     		ldrb	r2, [r3]
 255 013c 0721     		mov	r1, #7
 256 013e 8A43     		bic	r2, r1
 257 0140 111C     		add	r1, r2, #0
 258 0142 0222     		mov	r2, #2
 259 0144 0A43     		orr	r2, r1
 260 0146 1A70     		strb	r2, [r3]
  73:app_Com.c     ****                     Flag.Open_Lock_Success = 1;
 261              		.loc 1 73 0
 262 0148 2C4B     		ldr	r3, .L18+12
 263 014a 1A78     		ldrb	r2, [r3]
 264 014c 0821     		mov	r1, #8
 265 014e 0A43     		orr	r2, r1
 266 0150 1A70     		strb	r2, [r3]
  74:app_Com.c     ****                     break;
 267              		.loc 1 74 0
 268 0152 00E0     		b	.L13
ARM GAS  C:\Users\ADMINI~1.SC-\AppData\Local\Temp\cceVp8or.s 			page 7


 269              	.L17:
  75:app_Com.c     ****      
  76:app_Com.c     ****                 case SET_LOCK_ID:
  77:app_Com.c     ****                     break;
  78:app_Com.c     ****                     
  79:app_Com.c     ****                 default:
  80:app_Com.c     ****                     break;
 270              		.loc 1 80 0
 271 0154 C046     		mov	r8, r8
 272              	.L13:
  81:app_Com.c     ****             }
  82:app_Com.c     ****             
  83:app_Com.c     ****             key_touch_lock_flag_set(); //è®¾ç½®å¼€é”è¯·æ±‚æ ‡è¯†
 273              		.loc 1 83 0
 274 0156 FFF7FEFF 		bl	key_touch_lock_flag_set
 275              	.L3:
  84:app_Com.c     ****         }
  85:app_Com.c     ****         memset(Com_Array.Rx_buff,0,sizeof(Com_Array.Rx_buff));
 276              		.loc 1 85 0
 277 015a 254B     		ldr	r3, .L18
 278 015c 181C     		mov	r0, r3
 279 015e 0021     		mov	r1, #0
 280 0160 2822     		mov	r2, #40
 281 0162 FFF7FEFF 		bl	memset
 282              	.L2:
  86:app_Com.c     ****     }
  87:app_Com.c     ****     
  88:app_Com.c     ****     if(Com_Array.Rx_Delay > 100)
 283              		.loc 1 88 0
 284 0166 224B     		ldr	r3, .L18
 285 0168 6822     		mov	r2, #104
 286 016a 9B5C     		ldrb	r3, [r3, r2]
 287 016c 642B     		cmp	r3, #100
 288 016e 11D9     		bls	.L14
  89:app_Com.c     ****     {
  90:app_Com.c     ****         Com_Array.Rx_Delay = 0;
 289              		.loc 1 90 0
 290 0170 1F4B     		ldr	r3, .L18
 291 0172 6822     		mov	r2, #104
 292 0174 0021     		mov	r1, #0
 293 0176 9954     		strb	r1, [r3, r2]
  91:app_Com.c     ****         Com_Array.Rx_Begin_Flag = 0;
 294              		.loc 1 91 0
 295 0178 1D4B     		ldr	r3, .L18
 296 017a 6722     		mov	r2, #103
 297 017c 0021     		mov	r1, #0
 298 017e 9954     		strb	r1, [r3, r2]
  92:app_Com.c     ****         Com_Array.Rx_Count = 0;
 299              		.loc 1 92 0
 300 0180 1B4B     		ldr	r3, .L18
 301 0182 6522     		mov	r2, #101
 302 0184 0021     		mov	r1, #0
 303 0186 9954     		strb	r1, [r3, r2]
  93:app_Com.c     ****         memset(Com_Array.Rx_buff,0,sizeof(Com_Array.Rx_buff));
 304              		.loc 1 93 0
 305 0188 194B     		ldr	r3, .L18
 306 018a 181C     		mov	r0, r3
ARM GAS  C:\Users\ADMINI~1.SC-\AppData\Local\Temp\cceVp8or.s 			page 8


 307 018c 0021     		mov	r1, #0
 308 018e 2822     		mov	r2, #40
 309 0190 FFF7FEFF 		bl	memset
 310              	.L14:
  94:app_Com.c     ****     }
  95:app_Com.c     ****     
  96:app_Com.c     ****     if(Flag.Begin_Ask_Lock)
 311              		.loc 1 96 0
 312 0194 194B     		ldr	r3, .L18+12
 313 0196 1B78     		ldrb	r3, [r3]
 314 0198 1022     		mov	r2, #16
 315 019a 1340     		and	r3, r2
 316 019c DBB2     		uxtb	r3, r3
 317 019e 002B     		cmp	r3, #0
 318 01a0 23D0     		beq	.L1
  97:app_Com.c     ****     {
  98:app_Com.c     ****         Delay_Time.Ask_Lock_Delay ++;
 319              		.loc 1 98 0
 320 01a2 144B     		ldr	r3, .L18+4
 321 01a4 5B88     		ldrh	r3, [r3, #2]
 322 01a6 0133     		add	r3, r3, #1
 323 01a8 9AB2     		uxth	r2, r3
 324 01aa 124B     		ldr	r3, .L18+4
 325 01ac 5A80     		strh	r2, [r3, #2]
  99:app_Com.c     ****         if(Delay_Time.Ask_Lock_Delay > 100) //100ç§’æ²¡æœ‰åº”ç­”
 326              		.loc 1 99 0
 327 01ae 114B     		ldr	r3, .L18+4
 328 01b0 5B88     		ldrh	r3, [r3, #2]
 329 01b2 642B     		cmp	r3, #100
 330 01b4 0DD9     		bls	.L16
 100:app_Com.c     ****         {
 101:app_Com.c     ****             Delay_Time.Ask_Lock_Delay = 0;
 331              		.loc 1 101 0
 332 01b6 0F4B     		ldr	r3, .L18+4
 333 01b8 0022     		mov	r2, #0
 334 01ba 5A80     		strh	r2, [r3, #2]
 102:app_Com.c     ****             Delay_Time.NoLock_Count ++;
 335              		.loc 1 102 0
 336 01bc 0D4B     		ldr	r3, .L18+4
 337 01be 1B79     		ldrb	r3, [r3, #4]
 338 01c0 0133     		add	r3, r3, #1
 339 01c2 DAB2     		uxtb	r2, r3
 340 01c4 0B4B     		ldr	r3, .L18+4
 341 01c6 1A71     		strb	r2, [r3, #4]
 103:app_Com.c     ****             //Flag.Open_Lock_Success = 0;
 104:app_Com.c     ****             Flag.Begin_Ask_Lock = 0;
 342              		.loc 1 104 0
 343 01c8 0C4B     		ldr	r3, .L18+12
 344 01ca 1A78     		ldrb	r2, [r3]
 345 01cc 1021     		mov	r1, #16
 346 01ce 8A43     		bic	r2, r1
 347 01d0 1A70     		strb	r2, [r3]
 348              	.L16:
 105:app_Com.c     ****         }
 106:app_Com.c     ****         if(Delay_Time.NoLock_Count >=3)
 349              		.loc 1 106 0
 350 01d2 084B     		ldr	r3, .L18+4
ARM GAS  C:\Users\ADMINI~1.SC-\AppData\Local\Temp\cceVp8or.s 			page 9


 351 01d4 1B79     		ldrb	r3, [r3, #4]
 352 01d6 022B     		cmp	r3, #2
 353 01d8 07D9     		bls	.L1
 107:app_Com.c     ****         {
 108:app_Com.c     ****             Delay_Time.NoLock_Count = 0;
 354              		.loc 1 108 0
 355 01da 064B     		ldr	r3, .L18+4
 356 01dc 0022     		mov	r2, #0
 357 01de 1A71     		strb	r2, [r3, #4]
 109:app_Com.c     ****             Flag.Open_Lock_Success = 0;
 358              		.loc 1 109 0
 359 01e0 064B     		ldr	r3, .L18+12
 360 01e2 1A78     		ldrb	r2, [r3]
 361 01e4 0821     		mov	r1, #8
 362 01e6 8A43     		bic	r2, r1
 363 01e8 1A70     		strb	r2, [r3]
 364              	.L1:
 110:app_Com.c     ****         }
 111:app_Com.c     ****     }
 112:app_Com.c     **** }
 365              		.loc 1 112 0
 366 01ea BD46     		mov	sp, r7
 367 01ec 03B0     		add	sp, sp, #12
 368              		@ sp needed
 369 01ee 90BD     		pop	{r4, r7, pc}
 370              	.L19:
 371              		.align	2
 372              	.L18:
 373 01f0 00000000 		.word	Com_Array
 374 01f4 00000000 		.word	Delay_Time
 375 01f8 00000000 		.word	.L6
 376 01fc 00000000 		.word	Flag
 377 0200 00000000 		.word	Lock_Info
 378 0204 00000000 		.word	packetTXStep
 379 0208 00000000 		.word	Own_Key
 380 020c 02000000 		.word	Com_Array+2
 381 0210 00000000 		.word	Target_Key
 382              		.cfi_endproc
 383              	.LFE35:
 384              		.size	Com_Recv_Prov, .-Com_Recv_Prov
 385              		.section	.text.Com_Send_Prov,"ax",%progbits
 386              		.align	2
 387              		.global	Com_Send_Prov
 388              		.code	16
 389              		.thumb_func
 390              		.type	Com_Send_Prov, %function
 391              	Com_Send_Prov:
 392              	.LFB36:
 113:app_Com.c     **** 
 114:app_Com.c     **** /***********************************************
 115:app_Com.c     **** * å‡½æ•°åï¼švoid Com_Send_Prov(void)
 116:app_Com.c     **** * æè¿°  ï¼šä¸²å£å‘é€æ•°æ®
 117:app_Com.c     **** ***********************************************/
 118:app_Com.c     **** void Com_Send_Prov(void)
 119:app_Com.c     **** {
 393              		.loc 1 119 0
 394              		.cfi_startproc
ARM GAS  C:\Users\ADMINI~1.SC-\AppData\Local\Temp\cceVp8or.s 			page 10


 395 0000 80B5     		push	{r7, lr}
 396              		.cfi_def_cfa_offset 8
 397              		.cfi_offset 7, -8
 398              		.cfi_offset 14, -4
 399 0002 00AF     		add	r7, sp, #0
 400              		.cfi_def_cfa_register 7
 120:app_Com.c     ****     switch (Com_Array.Tx_State)
 401              		.loc 1 120 0
 402 0004 524B     		ldr	r3, .L39
 403 0006 6C22     		mov	r2, #108
 404 0008 9B5C     		ldrb	r3, [r3, r2]
 405 000a 112B     		cmp	r3, #17
 406 000c 00D9     		bls	.LCB320
 407 000e 9BE0     		b	.L38	@long jump
 408              	.LCB320:
 409 0010 9A00     		lsl	r2, r3, #2
 410 0012 504B     		ldr	r3, .L39+4
 411 0014 D318     		add	r3, r2, r3
 412 0016 1B68     		ldr	r3, [r3]
 413 0018 9F46     		mov	pc, r3
 414              		.section	.rodata
 415              		.align	2
 416              	.L23:
 417 002c 48010000 		.word	.L38
 418 0030 7C000000 		.word	.L24
 419 0034 48010000 		.word	.L38
 420 0038 AC000000 		.word	.L25
 421 003c 48010000 		.word	.L38
 422 0040 10010000 		.word	.L26
 423 0044 1E010000 		.word	.L27
 424 0048 2C010000 		.word	.L28
 425 004c 3A010000 		.word	.L29
 426 0050 48010000 		.word	.L38
 427 0054 48010000 		.word	.L38
 428 0058 48010000 		.word	.L38
 429 005c 48010000 		.word	.L38
 430 0060 48010000 		.word	.L38
 431 0064 48010000 		.word	.L38
 432 0068 48010000 		.word	.L38
 433 006c 1A000000 		.word	.L30
 434 0070 52000000 		.word	.L31
 435              		.section	.text.Com_Send_Prov
 436              	.L30:
 121:app_Com.c     ****     {
 122:app_Com.c     ****     case IDLE:	//ç©ºé—²
 123:app_Com.c     ****         break;   
 124:app_Com.c     ****         
 125:app_Com.c     ****     case RE_REQUEST:
 126:app_Com.c     ****         Com_Array.Tx_Wait ++;
 437              		.loc 1 126 0
 438 001a 4D4B     		ldr	r3, .L39
 439 001c 6E22     		mov	r2, #110
 440 001e 9B5A     		ldrh	r3, [r3, r2]
 441 0020 0133     		add	r3, r3, #1
 442 0022 99B2     		uxth	r1, r3
 443 0024 4A4B     		ldr	r3, .L39
 444 0026 6E22     		mov	r2, #110
ARM GAS  C:\Users\ADMINI~1.SC-\AppData\Local\Temp\cceVp8or.s 			page 11


 445 0028 9952     		strh	r1, [r3, r2]
 127:app_Com.c     ****         if(Com_Array.Tx_Wait >= 300)      //500msæŸ¥è¯¢ä¸€æ¬¡
 446              		.loc 1 127 0
 447 002a 494B     		ldr	r3, .L39
 448 002c 6E22     		mov	r2, #110
 449 002e 9A5A     		ldrh	r2, [r3, r2]
 450 0030 2C23     		mov	r3, #44
 451 0032 FF33     		add	r3, r3, #255
 452 0034 9A42     		cmp	r2, r3
 453 0036 0BD9     		bls	.L33
 128:app_Com.c     ****         {
 129:app_Com.c     ****             Com_Array.Tx_Wait  = 0;
 454              		.loc 1 129 0
 455 0038 454B     		ldr	r3, .L39
 456 003a 6E22     		mov	r2, #110
 457 003c 0021     		mov	r1, #0
 458 003e 9952     		strh	r1, [r3, r2]
 130:app_Com.c     ****             Request_Device_Info(); 
 459              		.loc 1 130 0
 460 0040 FFF7FEFF 		bl	Request_Device_Info
 131:app_Com.c     ****             Flag.Begin_Ask_Lock = 1;
 461              		.loc 1 131 0
 462 0044 444B     		ldr	r3, .L39+8
 463 0046 1A78     		ldrb	r2, [r3]
 464 0048 1021     		mov	r1, #16
 465 004a 0A43     		orr	r2, r1
 466 004c 1A70     		strb	r2, [r3]
 132:app_Com.c     ****         }
 133:app_Com.c     ****         break;
 467              		.loc 1 133 0
 468 004e 7CE0     		b	.L20
 469              	.L33:
 470 0050 7BE0     		b	.L20
 471              	.L31:
 134:app_Com.c     ****         
 135:app_Com.c     ****     case RE_CHECKCODE:
 136:app_Com.c     ****         Com_Array.Tx_Wait ++;
 472              		.loc 1 136 0
 473 0052 3F4B     		ldr	r3, .L39
 474 0054 6E22     		mov	r2, #110
 475 0056 9B5A     		ldrh	r3, [r3, r2]
 476 0058 0133     		add	r3, r3, #1
 477 005a 99B2     		uxth	r1, r3
 478 005c 3C4B     		ldr	r3, .L39
 479 005e 6E22     		mov	r2, #110
 480 0060 9952     		strh	r1, [r3, r2]
 137:app_Com.c     ****         if (Com_Array.Tx_Wait  >= 100)
 481              		.loc 1 137 0
 482 0062 3B4B     		ldr	r3, .L39
 483 0064 6E22     		mov	r2, #110
 484 0066 9B5A     		ldrh	r3, [r3, r2]
 485 0068 632B     		cmp	r3, #99
 486 006a 06D9     		bls	.L34
 138:app_Com.c     ****         {
 139:app_Com.c     ****             Com_Array.Tx_Wait  = 0;
 487              		.loc 1 139 0
 488 006c 384B     		ldr	r3, .L39
ARM GAS  C:\Users\ADMINI~1.SC-\AppData\Local\Temp\cceVp8or.s 			page 12


 489 006e 6E22     		mov	r2, #110
 490 0070 0021     		mov	r1, #0
 491 0072 9952     		strh	r1, [r3, r2]
 140:app_Com.c     ****             Check_Code(); 
 492              		.loc 1 140 0
 493 0074 FFF7FEFF 		bl	Check_Code
 141:app_Com.c     ****         }
 142:app_Com.c     ****         break;        
 494              		.loc 1 142 0
 495 0078 67E0     		b	.L20
 496              	.L34:
 497 007a 66E0     		b	.L20
 498              	.L24:
 143:app_Com.c     ****         
 144:app_Com.c     ****     case SEND_DELAY:	//æ­£åœ¨å‘é€ç­‰å¾…
 145:app_Com.c     ****         Com_Array.Tx_Wait ++;
 499              		.loc 1 145 0
 500 007c 344B     		ldr	r3, .L39
 501 007e 6E22     		mov	r2, #110
 502 0080 9B5A     		ldrh	r3, [r3, r2]
 503 0082 0133     		add	r3, r3, #1
 504 0084 99B2     		uxth	r1, r3
 505 0086 324B     		ldr	r3, .L39
 506 0088 6E22     		mov	r2, #110
 507 008a 9952     		strh	r1, [r3, r2]
 146:app_Com.c     ****         if (Com_Array.Tx_Wait  >= 1000)
 508              		.loc 1 146 0
 509 008c 304B     		ldr	r3, .L39
 510 008e 6E22     		mov	r2, #110
 511 0090 9B5A     		ldrh	r3, [r3, r2]
 512 0092 324A     		ldr	r2, .L39+12
 513 0094 9342     		cmp	r3, r2
 514 0096 08D9     		bls	.L35
 147:app_Com.c     ****         {
 148:app_Com.c     ****             Com_Array.Tx_Wait  = 0;
 515              		.loc 1 148 0
 516 0098 2D4B     		ldr	r3, .L39
 517 009a 6E22     		mov	r2, #110
 518 009c 0021     		mov	r1, #0
 519 009e 9952     		strh	r1, [r3, r2]
 149:app_Com.c     ****             Com_Array.Tx_State = RE_SEND;
 520              		.loc 1 149 0
 521 00a0 2B4B     		ldr	r3, .L39
 522 00a2 6C22     		mov	r2, #108
 523 00a4 0321     		mov	r1, #3
 524 00a6 9954     		strb	r1, [r3, r2]
 150:app_Com.c     ****         }
 151:app_Com.c     ****         break;
 525              		.loc 1 151 0
 526 00a8 4FE0     		b	.L20
 527              	.L35:
 528 00aa 4EE0     		b	.L20
 529              	.L25:
 152:app_Com.c     **** 
 153:app_Com.c     ****     case RE_SEND:	//é‡å‘
 154:app_Com.c     ****         Com_Array.Tx_Wait ++;
 530              		.loc 1 154 0
ARM GAS  C:\Users\ADMINI~1.SC-\AppData\Local\Temp\cceVp8or.s 			page 13


 531 00ac 284B     		ldr	r3, .L39
 532 00ae 6E22     		mov	r2, #110
 533 00b0 9B5A     		ldrh	r3, [r3, r2]
 534 00b2 0133     		add	r3, r3, #1
 535 00b4 99B2     		uxth	r1, r3
 536 00b6 264B     		ldr	r3, .L39
 537 00b8 6E22     		mov	r2, #110
 538 00ba 9952     		strh	r1, [r3, r2]
 155:app_Com.c     ****         if (Com_Array.Tx_Wait  >= 1000)
 539              		.loc 1 155 0
 540 00bc 244B     		ldr	r3, .L39
 541 00be 6E22     		mov	r2, #110
 542 00c0 9B5A     		ldrh	r3, [r3, r2]
 543 00c2 264A     		ldr	r2, .L39+12
 544 00c4 9342     		cmp	r3, r2
 545 00c6 22D9     		bls	.L36
 156:app_Com.c     ****         {
 157:app_Com.c     ****             Com_Array.Tx_Wait = 0;
 546              		.loc 1 157 0
 547 00c8 214B     		ldr	r3, .L39
 548 00ca 6E22     		mov	r2, #110
 549 00cc 0021     		mov	r1, #0
 550 00ce 9952     		strh	r1, [r3, r2]
 158:app_Com.c     ****             if (Com_Array.Tx_Count < 3)
 551              		.loc 1 158 0
 552 00d0 1F4B     		ldr	r3, .L39
 553 00d2 7022     		mov	r2, #112
 554 00d4 9B5C     		ldrb	r3, [r3, r2]
 555 00d6 022B     		cmp	r3, #2
 556 00d8 10D8     		bhi	.L37
 159:app_Com.c     ****             {
 160:app_Com.c     ****                 Com_Array.Tx_Count ++;
 557              		.loc 1 160 0
 558 00da 1D4B     		ldr	r3, .L39
 559 00dc 7022     		mov	r2, #112
 560 00de 9B5C     		ldrb	r3, [r3, r2]
 561 00e0 0133     		add	r3, r3, #1
 562 00e2 D9B2     		uxtb	r1, r3
 563 00e4 1A4B     		ldr	r3, .L39
 564 00e6 7022     		mov	r2, #112
 565 00e8 9954     		strb	r1, [r3, r2]
 161:app_Com.c     ****                 Send_Com(Com_Array.Tx_buff,Com_Array.Tx_Length);
 566              		.loc 1 161 0
 567 00ea 194B     		ldr	r3, .L39
 568 00ec 6B22     		mov	r2, #107
 569 00ee 9B5C     		ldrb	r3, [r3, r2]
 570 00f0 1B4A     		ldr	r2, .L39+16
 571 00f2 101C     		mov	r0, r2
 572 00f4 191C     		mov	r1, r3
 573 00f6 FFF7FEFF 		bl	Send_Com
 574 00fa 08E0     		b	.L36
 575              	.L37:
 162:app_Com.c     ****             }
 163:app_Com.c     ****             else
 164:app_Com.c     ****             {
 165:app_Com.c     ****                 Com_Array.Tx_Count = 0;
 576              		.loc 1 165 0
ARM GAS  C:\Users\ADMINI~1.SC-\AppData\Local\Temp\cceVp8or.s 			page 14


 577 00fc 144B     		ldr	r3, .L39
 578 00fe 7022     		mov	r2, #112
 579 0100 0021     		mov	r1, #0
 580 0102 9954     		strb	r1, [r3, r2]
 166:app_Com.c     ****                 Com_Array.Tx_State = RE_CHECKCODE;
 581              		.loc 1 166 0
 582 0104 124B     		ldr	r3, .L39
 583 0106 6C22     		mov	r2, #108
 584 0108 1121     		mov	r1, #17
 585 010a 9954     		strb	r1, [r3, r2]
 167:app_Com.c     ****             }
 168:app_Com.c     ****         }
 169:app_Com.c     ****         break;
 586              		.loc 1 169 0
 587 010c 1DE0     		b	.L20
 588              	.L36:
 589 010e 1CE0     		b	.L20
 590              	.L26:
 170:app_Com.c     ****         
 171:app_Com.c     ****     case CHECK_CODE:        //å¯¹ç 
 172:app_Com.c     ****         Check_Code();
 591              		.loc 1 172 0
 592 0110 FFF7FEFF 		bl	Check_Code
 173:app_Com.c     ****         Com_Array.Tx_State = SEND_DELAY;        
 593              		.loc 1 173 0
 594 0114 0E4B     		ldr	r3, .L39
 595 0116 6C22     		mov	r2, #108
 596 0118 0121     		mov	r1, #1
 597 011a 9954     		strb	r1, [r3, r2]
 174:app_Com.c     ****         break;
 598              		.loc 1 174 0
 599 011c 15E0     		b	.L20
 600              	.L27:
 175:app_Com.c     ****         
 176:app_Com.c     ****     case SWAP_KEY:          //äº¤æ¢å¯†é’¥
 177:app_Com.c     ****         Swap_Key();
 601              		.loc 1 177 0
 602 011e FFF7FEFF 		bl	Swap_Key
 178:app_Com.c     ****         Com_Array.Tx_State = SEND_DELAY;        
 603              		.loc 1 178 0
 604 0122 0B4B     		ldr	r3, .L39
 605 0124 6C22     		mov	r2, #108
 606 0126 0121     		mov	r1, #1
 607 0128 9954     		strb	r1, [r3, r2]
 179:app_Com.c     ****         break;
 608              		.loc 1 179 0
 609 012a 0EE0     		b	.L20
 610              	.L28:
 180:app_Com.c     ****         
 181:app_Com.c     ****     case REQUEST_INDEX:     //è¯·æ±‚ç´¢å¼•å·
 182:app_Com.c     ****         Request_Index();
 611              		.loc 1 182 0
 612 012c FFF7FEFF 		bl	Request_Index
 183:app_Com.c     ****         Com_Array.Tx_State = SEND_DELAY;        
 613              		.loc 1 183 0
 614 0130 074B     		ldr	r3, .L39
 615 0132 6C22     		mov	r2, #108
ARM GAS  C:\Users\ADMINI~1.SC-\AppData\Local\Temp\cceVp8or.s 			page 15


 616 0134 0121     		mov	r1, #1
 617 0136 9954     		strb	r1, [r3, r2]
 184:app_Com.c     ****         break;
 618              		.loc 1 184 0
 619 0138 07E0     		b	.L20
 620              	.L29:
 185:app_Com.c     ****         
 186:app_Com.c     ****     case OPEN_LOCK:         //å¼€é”
 187:app_Com.c     ****         Open_Lock();
 621              		.loc 1 187 0
 622 013a FFF7FEFF 		bl	Open_Lock
 188:app_Com.c     ****         Com_Array.Tx_State = SEND_DELAY;       
 623              		.loc 1 188 0
 624 013e 044B     		ldr	r3, .L39
 625 0140 6C22     		mov	r2, #108
 626 0142 0121     		mov	r1, #1
 627 0144 9954     		strb	r1, [r3, r2]
 189:app_Com.c     ****         break;
 628              		.loc 1 189 0
 629 0146 00E0     		b	.L20
 630              	.L38:
 190:app_Com.c     ****              
 191:app_Com.c     ****     default:
 192:app_Com.c     ****         break;
 631              		.loc 1 192 0
 632 0148 C046     		mov	r8, r8
 633              	.L20:
 193:app_Com.c     ****         
 194:app_Com.c     ****     }
 195:app_Com.c     **** }
 634              		.loc 1 195 0
 635 014a BD46     		mov	sp, r7
 636              		@ sp needed
 637 014c 80BD     		pop	{r7, pc}
 638              	.L40:
 639 014e C046     		.align	2
 640              	.L39:
 641 0150 00000000 		.word	Com_Array
 642 0154 2C000000 		.word	.L23
 643 0158 00000000 		.word	Flag
 644 015c E7030000 		.word	999
 645 0160 28000000 		.word	Com_Array+40
 646              		.cfi_endproc
 647              	.LFE36:
 648              		.size	Com_Send_Prov, .-Com_Send_Prov
 649              		.section	.text.Request_Device_Info,"ax",%progbits
 650              		.align	2
 651              		.global	Request_Device_Info
 652              		.code	16
 653              		.thumb_func
 654              		.type	Request_Device_Info, %function
 655              	Request_Device_Info:
 656              	.LFB37:
 196:app_Com.c     **** 
 197:app_Com.c     **** /***********************************************
 198:app_Com.c     **** * å‡½æ•°åï¼švoid Request_Device_Info(void)
 199:app_Com.c     **** * æè¿°  ï¼šè¯·æ±‚é”çš„è®¾å¤‡ä¿¡æ¯
ARM GAS  C:\Users\ADMINI~1.SC-\AppData\Local\Temp\cceVp8or.s 			page 16


 200:app_Com.c     **** ***********************************************/
 201:app_Com.c     **** void Request_Device_Info(void)
 202:app_Com.c     **** {
 657              		.loc 1 202 0
 658              		.cfi_startproc
 659 0000 90B5     		push	{r4, r7, lr}
 660              		.cfi_def_cfa_offset 12
 661              		.cfi_offset 4, -12
 662              		.cfi_offset 7, -8
 663              		.cfi_offset 14, -4
 664 0002 83B0     		sub	sp, sp, #12
 665              		.cfi_def_cfa_offset 24
 666 0004 00AF     		add	r7, sp, #0
 667              		.cfi_def_cfa_register 7
 203:app_Com.c     ****     uint16 crc;
 204:app_Com.c     ****     Com_Array.Tx_buff[0] = REQUEST_DEVICE_CMD;
 668              		.loc 1 204 0
 669 0006 164B     		ldr	r3, .L42
 670 0008 2822     		mov	r2, #40
 671 000a 0121     		mov	r1, #1
 672 000c 9954     		strb	r1, [r3, r2]
 205:app_Com.c     ****     Com_Array.Tx_buff[1] = 0;
 673              		.loc 1 205 0
 674 000e 144B     		ldr	r3, .L42
 675 0010 2922     		mov	r2, #41
 676 0012 0021     		mov	r1, #0
 677 0014 9954     		strb	r1, [r3, r2]
 206:app_Com.c     ****     crc = comCalCRC16(Com_Array.Tx_buff,2);
 678              		.loc 1 206 0
 679 0016 BC1D     		add	r4, r7, #6
 680 0018 124B     		ldr	r3, .L42+4
 681 001a 181C     		mov	r0, r3
 682 001c 0221     		mov	r1, #2
 683 001e FFF7FEFF 		bl	comCalCRC16
 684 0022 031C     		mov	r3, r0
 685 0024 2380     		strh	r3, [r4]
 207:app_Com.c     ****     
 208:app_Com.c     ****     Com_Array.Tx_buff[2] = crc / 256;
 686              		.loc 1 208 0
 687 0026 BB1D     		add	r3, r7, #6
 688 0028 1B88     		ldrh	r3, [r3]
 689 002a 1B0A     		lsr	r3, r3, #8
 690 002c 9BB2     		uxth	r3, r3
 691 002e D9B2     		uxtb	r1, r3
 692 0030 0B4B     		ldr	r3, .L42
 693 0032 2A22     		mov	r2, #42
 694 0034 9954     		strb	r1, [r3, r2]
 209:app_Com.c     ****     Com_Array.Tx_buff[3] = crc % 256;   
 695              		.loc 1 209 0
 696 0036 BB1D     		add	r3, r7, #6
 697 0038 1B88     		ldrh	r3, [r3]
 698 003a D9B2     		uxtb	r1, r3
 699 003c 084B     		ldr	r3, .L42
 700 003e 2B22     		mov	r2, #43
 701 0040 9954     		strb	r1, [r3, r2]
 210:app_Com.c     ****     Com_Array.Tx_Length = 4;
 702              		.loc 1 210 0
ARM GAS  C:\Users\ADMINI~1.SC-\AppData\Local\Temp\cceVp8or.s 			page 17


 703 0042 074B     		ldr	r3, .L42
 704 0044 6B22     		mov	r2, #107
 705 0046 0421     		mov	r1, #4
 706 0048 9954     		strb	r1, [r3, r2]
 211:app_Com.c     ****     Send_Com(Com_Array.Tx_buff,Com_Array.Tx_Length);
 707              		.loc 1 211 0
 708 004a 054B     		ldr	r3, .L42
 709 004c 6B22     		mov	r2, #107
 710 004e 9B5C     		ldrb	r3, [r3, r2]
 711 0050 044A     		ldr	r2, .L42+4
 712 0052 101C     		mov	r0, r2
 713 0054 191C     		mov	r1, r3
 714 0056 FFF7FEFF 		bl	Send_Com
 212:app_Com.c     **** }
 715              		.loc 1 212 0
 716 005a BD46     		mov	sp, r7
 717 005c 03B0     		add	sp, sp, #12
 718              		@ sp needed
 719 005e 90BD     		pop	{r4, r7, pc}
 720              	.L43:
 721              		.align	2
 722              	.L42:
 723 0060 00000000 		.word	Com_Array
 724 0064 28000000 		.word	Com_Array+40
 725              		.cfi_endproc
 726              	.LFE37:
 727              		.size	Request_Device_Info, .-Request_Device_Info
 728              		.section	.text.Check_Code,"ax",%progbits
 729              		.align	2
 730              		.global	Check_Code
 731              		.code	16
 732              		.thumb_func
 733              		.type	Check_Code, %function
 734              	Check_Code:
 735              	.LFB38:
 213:app_Com.c     **** 
 214:app_Com.c     **** /***********************************************
 215:app_Com.c     **** * å‡½æ•°åï¼švoid Check_Code(void)
 216:app_Com.c     **** * æè¿°  ï¼šå¯¹ç 
 217:app_Com.c     **** ***********************************************/
 218:app_Com.c     **** void Check_Code(void)
 219:app_Com.c     **** {
 736              		.loc 1 219 0
 737              		.cfi_startproc
 738 0000 90B5     		push	{r4, r7, lr}
 739              		.cfi_def_cfa_offset 12
 740              		.cfi_offset 4, -12
 741              		.cfi_offset 7, -8
 742              		.cfi_offset 14, -4
 743 0002 83B0     		sub	sp, sp, #12
 744              		.cfi_def_cfa_offset 24
 745 0004 00AF     		add	r7, sp, #0
 746              		.cfi_def_cfa_register 7
 220:app_Com.c     ****     uint16 crc;
 221:app_Com.c     ****     Com_Array.Tx_buff[0] = CHECK_CODE_CMD;
 747              		.loc 1 221 0
 748 0006 254B     		ldr	r3, .L45
ARM GAS  C:\Users\ADMINI~1.SC-\AppData\Local\Temp\cceVp8or.s 			page 18


 749 0008 2822     		mov	r2, #40
 750 000a 0421     		mov	r1, #4
 751 000c 9954     		strb	r1, [r3, r2]
 222:app_Com.c     ****     Com_Array.Tx_buff[1] = 2;
 752              		.loc 1 222 0
 753 000e 234B     		ldr	r3, .L45
 754 0010 2922     		mov	r2, #41
 755 0012 0221     		mov	r1, #2
 756 0014 9954     		strb	r1, [r3, r2]
 223:app_Com.c     ****     crc = comCalCRC16(Com_Array.Tx_buff,2);					//å†…éƒ¨æ•ˆéªŒç 
 757              		.loc 1 223 0
 758 0016 BC1D     		add	r4, r7, #6
 759 0018 214B     		ldr	r3, .L45+4
 760 001a 181C     		mov	r0, r3
 761 001c 0221     		mov	r1, #2
 762 001e FFF7FEFF 		bl	comCalCRC16
 763 0022 031C     		mov	r3, r0
 764 0024 2380     		strh	r3, [r4]
 224:app_Com.c     ****     Com_Array.Tx_buff[2] = crc / 256;
 765              		.loc 1 224 0
 766 0026 BB1D     		add	r3, r7, #6
 767 0028 1B88     		ldrh	r3, [r3]
 768 002a 1B0A     		lsr	r3, r3, #8
 769 002c 9BB2     		uxth	r3, r3
 770 002e D9B2     		uxtb	r1, r3
 771 0030 1A4B     		ldr	r3, .L45
 772 0032 2A22     		mov	r2, #42
 773 0034 9954     		strb	r1, [r3, r2]
 225:app_Com.c     ****     Com_Array.Tx_buff[3] = crc % 256; 
 774              		.loc 1 225 0
 775 0036 BB1D     		add	r3, r7, #6
 776 0038 1B88     		ldrh	r3, [r3]
 777 003a D9B2     		uxtb	r1, r3
 778 003c 174B     		ldr	r3, .L45
 779 003e 2B22     		mov	r2, #43
 780 0040 9954     		strb	r1, [r3, r2]
 226:app_Com.c     ****     
 227:app_Com.c     ****     rc4_encrypt(System_Config.ManageKey,MKEY_LEN,Com_Array.Tx_buff + 2, 2);			//ç®¡ç†ä¸­å¿ƒå¯†é’¥å
 781              		.loc 1 227 0
 782 0042 184A     		ldr	r2, .L45+8
 783 0044 184B     		ldr	r3, .L45+12
 784 0046 101C     		mov	r0, r2
 785 0048 1021     		mov	r1, #16
 786 004a 1A1C     		mov	r2, r3
 787 004c 0223     		mov	r3, #2
 788 004e FFF7FEFF 		bl	rc4_encrypt
 228:app_Com.c     ****     crc = comCalCRC16(Com_Array.Tx_buff,4);					//å¤–éƒ¨æ ¡éªŒ
 789              		.loc 1 228 0
 790 0052 BC1D     		add	r4, r7, #6
 791 0054 124B     		ldr	r3, .L45+4
 792 0056 181C     		mov	r0, r3
 793 0058 0421     		mov	r1, #4
 794 005a FFF7FEFF 		bl	comCalCRC16
 795 005e 031C     		mov	r3, r0
 796 0060 2380     		strh	r3, [r4]
 229:app_Com.c     ****     Com_Array.Tx_buff[4] = crc / 256;
 797              		.loc 1 229 0
ARM GAS  C:\Users\ADMINI~1.SC-\AppData\Local\Temp\cceVp8or.s 			page 19


 798 0062 BB1D     		add	r3, r7, #6
 799 0064 1B88     		ldrh	r3, [r3]
 800 0066 1B0A     		lsr	r3, r3, #8
 801 0068 9BB2     		uxth	r3, r3
 802 006a D9B2     		uxtb	r1, r3
 803 006c 0B4B     		ldr	r3, .L45
 804 006e 2C22     		mov	r2, #44
 805 0070 9954     		strb	r1, [r3, r2]
 230:app_Com.c     ****     Com_Array.Tx_buff[5] = crc % 256;     
 806              		.loc 1 230 0
 807 0072 BB1D     		add	r3, r7, #6
 808 0074 1B88     		ldrh	r3, [r3]
 809 0076 D9B2     		uxtb	r1, r3
 810 0078 084B     		ldr	r3, .L45
 811 007a 2D22     		mov	r2, #45
 812 007c 9954     		strb	r1, [r3, r2]
 231:app_Com.c     ****     Com_Array.Tx_Length = 6;    
 813              		.loc 1 231 0
 814 007e 074B     		ldr	r3, .L45
 815 0080 6B22     		mov	r2, #107
 816 0082 0621     		mov	r1, #6
 817 0084 9954     		strb	r1, [r3, r2]
 232:app_Com.c     ****     Send_Com(Com_Array.Tx_buff,Com_Array.Tx_Length);
 818              		.loc 1 232 0
 819 0086 054B     		ldr	r3, .L45
 820 0088 6B22     		mov	r2, #107
 821 008a 9B5C     		ldrb	r3, [r3, r2]
 822 008c 044A     		ldr	r2, .L45+4
 823 008e 101C     		mov	r0, r2
 824 0090 191C     		mov	r1, r3
 825 0092 FFF7FEFF 		bl	Send_Com
 233:app_Com.c     **** }
 826              		.loc 1 233 0
 827 0096 BD46     		mov	sp, r7
 828 0098 03B0     		add	sp, sp, #12
 829              		@ sp needed
 830 009a 90BD     		pop	{r4, r7, pc}
 831              	.L46:
 832              		.align	2
 833              	.L45:
 834 009c 00000000 		.word	Com_Array
 835 00a0 28000000 		.word	Com_Array+40
 836 00a4 00000000 		.word	System_Config
 837 00a8 2A000000 		.word	Com_Array+42
 838              		.cfi_endproc
 839              	.LFE38:
 840              		.size	Check_Code, .-Check_Code
 841              		.section	.text.Swap_Key,"ax",%progbits
 842              		.align	2
 843              		.global	Swap_Key
 844              		.code	16
 845              		.thumb_func
 846              		.type	Swap_Key, %function
 847              	Swap_Key:
 848              	.LFB39:
 234:app_Com.c     **** 
 235:app_Com.c     **** /***********************************************
ARM GAS  C:\Users\ADMINI~1.SC-\AppData\Local\Temp\cceVp8or.s 			page 20


 236:app_Com.c     **** * å‡½æ•°åï¼švoid Swap_Key(void)
 237:app_Com.c     **** * æè¿°  ï¼šäº¤æ¢å¯†é’¥
 238:app_Com.c     **** ***********************************************/
 239:app_Com.c     **** void Swap_Key(void)
 240:app_Com.c     **** {
 849              		.loc 1 240 0
 850              		.cfi_startproc
 851 0000 90B5     		push	{r4, r7, lr}
 852              		.cfi_def_cfa_offset 12
 853              		.cfi_offset 4, -12
 854              		.cfi_offset 7, -8
 855              		.cfi_offset 14, -4
 856 0002 83B0     		sub	sp, sp, #12
 857              		.cfi_def_cfa_offset 24
 858 0004 00AF     		add	r7, sp, #0
 859              		.cfi_def_cfa_register 7
 241:app_Com.c     ****     uint16 crc;
 242:app_Com.c     **** 
 243:app_Com.c     ****     Com_Array.Tx_buff[0] = SWAP_KEY_CMD;
 860              		.loc 1 243 0
 861 0006 2B4B     		ldr	r3, .L48
 862 0008 2822     		mov	r2, #40
 863 000a 0321     		mov	r1, #3
 864 000c 9954     		strb	r1, [r3, r2]
 244:app_Com.c     ****     Com_Array.Tx_buff[1] = 11;
 865              		.loc 1 244 0
 866 000e 294B     		ldr	r3, .L48
 867 0010 2922     		mov	r2, #41
 868 0012 0B21     		mov	r1, #11
 869 0014 9954     		strb	r1, [r3, r2]
 245:app_Com.c     ****     memcpy(Com_Array.Tx_buff + 2, Own_Key, 8);
 870              		.loc 1 245 0
 871 0016 274B     		ldr	r3, .L48
 872 0018 2A22     		mov	r2, #42
 873 001a 2749     		ldr	r1, .L48+4
 874 001c 9B18     		add	r3, r3, r2
 875 001e 0822     		mov	r2, #8
 876 0020 181C     		mov	r0, r3
 877 0022 FFF7FEFF 		bl	memcpy
 246:app_Com.c     ****     Com_Array.Tx_buff[10] = 0; 
 878              		.loc 1 246 0
 879 0026 234B     		ldr	r3, .L48
 880 0028 3222     		mov	r2, #50
 881 002a 0021     		mov	r1, #0
 882 002c 9954     		strb	r1, [r3, r2]
 247:app_Com.c     ****     crc = comCalCRC16(Com_Array.Tx_buff,11);					//å†…éƒ¨æ•ˆéªŒç 
 883              		.loc 1 247 0
 884 002e BC1D     		add	r4, r7, #6
 885 0030 224B     		ldr	r3, .L48+8
 886 0032 181C     		mov	r0, r3
 887 0034 0B21     		mov	r1, #11
 888 0036 FFF7FEFF 		bl	comCalCRC16
 889 003a 031C     		mov	r3, r0
 890 003c 2380     		strh	r3, [r4]
 248:app_Com.c     ****     Com_Array.Tx_buff[11] = crc / 256;
 891              		.loc 1 248 0
 892 003e BB1D     		add	r3, r7, #6
ARM GAS  C:\Users\ADMINI~1.SC-\AppData\Local\Temp\cceVp8or.s 			page 21


 893 0040 1B88     		ldrh	r3, [r3]
 894 0042 1B0A     		lsr	r3, r3, #8
 895 0044 9BB2     		uxth	r3, r3
 896 0046 D9B2     		uxtb	r1, r3
 897 0048 1A4B     		ldr	r3, .L48
 898 004a 3322     		mov	r2, #51
 899 004c 9954     		strb	r1, [r3, r2]
 249:app_Com.c     ****     Com_Array.Tx_buff[12] = crc % 256; 
 900              		.loc 1 249 0
 901 004e BB1D     		add	r3, r7, #6
 902 0050 1B88     		ldrh	r3, [r3]
 903 0052 D9B2     		uxtb	r1, r3
 904 0054 174B     		ldr	r3, .L48
 905 0056 3422     		mov	r2, #52
 906 0058 9954     		strb	r1, [r3, r2]
 250:app_Com.c     ****     
 251:app_Com.c     ****     rc4_encrypt(System_Config.ManageKey,MKEY_LEN,Com_Array.Tx_buff + 2, 11);			//ç®¡ç†ä¸­å¿ƒå¯†é’¥
 907              		.loc 1 251 0
 908 005a 194A     		ldr	r2, .L48+12
 909 005c 194B     		ldr	r3, .L48+16
 910 005e 101C     		mov	r0, r2
 911 0060 1021     		mov	r1, #16
 912 0062 1A1C     		mov	r2, r3
 913 0064 0B23     		mov	r3, #11
 914 0066 FFF7FEFF 		bl	rc4_encrypt
 252:app_Com.c     ****     crc = comCalCRC16(Com_Array.Tx_buff,13);					//å¤–éƒ¨æ ¡éªŒ
 915              		.loc 1 252 0
 916 006a BC1D     		add	r4, r7, #6
 917 006c 134B     		ldr	r3, .L48+8
 918 006e 181C     		mov	r0, r3
 919 0070 0D21     		mov	r1, #13
 920 0072 FFF7FEFF 		bl	comCalCRC16
 921 0076 031C     		mov	r3, r0
 922 0078 2380     		strh	r3, [r4]
 253:app_Com.c     ****     Com_Array.Tx_buff[13] = crc / 256;
 923              		.loc 1 253 0
 924 007a BB1D     		add	r3, r7, #6
 925 007c 1B88     		ldrh	r3, [r3]
 926 007e 1B0A     		lsr	r3, r3, #8
 927 0080 9BB2     		uxth	r3, r3
 928 0082 D9B2     		uxtb	r1, r3
 929 0084 0B4B     		ldr	r3, .L48
 930 0086 3522     		mov	r2, #53
 931 0088 9954     		strb	r1, [r3, r2]
 254:app_Com.c     ****     Com_Array.Tx_buff[14] = crc % 256;     
 932              		.loc 1 254 0
 933 008a BB1D     		add	r3, r7, #6
 934 008c 1B88     		ldrh	r3, [r3]
 935 008e D9B2     		uxtb	r1, r3
 936 0090 084B     		ldr	r3, .L48
 937 0092 3622     		mov	r2, #54
 938 0094 9954     		strb	r1, [r3, r2]
 255:app_Com.c     ****     Com_Array.Tx_Length = 15;    
 939              		.loc 1 255 0
 940 0096 074B     		ldr	r3, .L48
 941 0098 6B22     		mov	r2, #107
 942 009a 0F21     		mov	r1, #15
ARM GAS  C:\Users\ADMINI~1.SC-\AppData\Local\Temp\cceVp8or.s 			page 22


 943 009c 9954     		strb	r1, [r3, r2]
 256:app_Com.c     ****     Send_Com(Com_Array.Tx_buff,Com_Array.Tx_Length);    
 944              		.loc 1 256 0
 945 009e 054B     		ldr	r3, .L48
 946 00a0 6B22     		mov	r2, #107
 947 00a2 9B5C     		ldrb	r3, [r3, r2]
 948 00a4 054A     		ldr	r2, .L48+8
 949 00a6 101C     		mov	r0, r2
 950 00a8 191C     		mov	r1, r3
 951 00aa FFF7FEFF 		bl	Send_Com
 257:app_Com.c     **** }
 952              		.loc 1 257 0
 953 00ae BD46     		mov	sp, r7
 954 00b0 03B0     		add	sp, sp, #12
 955              		@ sp needed
 956 00b2 90BD     		pop	{r4, r7, pc}
 957              	.L49:
 958              		.align	2
 959              	.L48:
 960 00b4 00000000 		.word	Com_Array
 961 00b8 00000000 		.word	Own_Key
 962 00bc 28000000 		.word	Com_Array+40
 963 00c0 00000000 		.word	System_Config
 964 00c4 2A000000 		.word	Com_Array+42
 965              		.cfi_endproc
 966              	.LFE39:
 967              		.size	Swap_Key, .-Swap_Key
 968              		.section	.text.Request_Index,"ax",%progbits
 969              		.align	2
 970              		.global	Request_Index
 971              		.code	16
 972              		.thumb_func
 973              		.type	Request_Index, %function
 974              	Request_Index:
 975              	.LFB40:
 258:app_Com.c     **** 
 259:app_Com.c     **** /***********************************************
 260:app_Com.c     **** * å‡½æ•°åï¼švoid Request_Index(void)
 261:app_Com.c     **** * æè¿°  ï¼šè¯·æ±‚æ£€ç´¢å·
 262:app_Com.c     **** ***********************************************/
 263:app_Com.c     **** void Request_Index(void)
 264:app_Com.c     **** {
 976              		.loc 1 264 0
 977              		.cfi_startproc
 978 0000 90B5     		push	{r4, r7, lr}
 979              		.cfi_def_cfa_offset 12
 980              		.cfi_offset 4, -12
 981              		.cfi_offset 7, -8
 982              		.cfi_offset 14, -4
 983 0002 83B0     		sub	sp, sp, #12
 984              		.cfi_def_cfa_offset 24
 985 0004 00AF     		add	r7, sp, #0
 986              		.cfi_def_cfa_register 7
 265:app_Com.c     ****     uint16 crc;
 266:app_Com.c     ****     Com_Array.Tx_buff[0] = REQUEST_LOCK_INDEX;
 987              		.loc 1 266 0
 988 0006 254B     		ldr	r3, .L51
ARM GAS  C:\Users\ADMINI~1.SC-\AppData\Local\Temp\cceVp8or.s 			page 23


 989 0008 2822     		mov	r2, #40
 990 000a 0621     		mov	r1, #6
 991 000c 9954     		strb	r1, [r3, r2]
 267:app_Com.c     ****     Com_Array.Tx_buff[1] = 2;
 992              		.loc 1 267 0
 993 000e 234B     		ldr	r3, .L51
 994 0010 2922     		mov	r2, #41
 995 0012 0221     		mov	r1, #2
 996 0014 9954     		strb	r1, [r3, r2]
 268:app_Com.c     ****     crc = comCalCRC16(Com_Array.Tx_buff,2);
 997              		.loc 1 268 0
 998 0016 BC1D     		add	r4, r7, #6
 999 0018 214B     		ldr	r3, .L51+4
 1000 001a 181C     		mov	r0, r3
 1001 001c 0221     		mov	r1, #2
 1002 001e FFF7FEFF 		bl	comCalCRC16
 1003 0022 031C     		mov	r3, r0
 1004 0024 2380     		strh	r3, [r4]
 269:app_Com.c     ****     Com_Array.Tx_buff[2] = crc / 256;
 1005              		.loc 1 269 0
 1006 0026 BB1D     		add	r3, r7, #6
 1007 0028 1B88     		ldrh	r3, [r3]
 1008 002a 1B0A     		lsr	r3, r3, #8
 1009 002c 9BB2     		uxth	r3, r3
 1010 002e D9B2     		uxtb	r1, r3
 1011 0030 1A4B     		ldr	r3, .L51
 1012 0032 2A22     		mov	r2, #42
 1013 0034 9954     		strb	r1, [r3, r2]
 270:app_Com.c     ****     Com_Array.Tx_buff[3] = crc % 256;   
 1014              		.loc 1 270 0
 1015 0036 BB1D     		add	r3, r7, #6
 1016 0038 1B88     		ldrh	r3, [r3]
 1017 003a D9B2     		uxtb	r1, r3
 1018 003c 174B     		ldr	r3, .L51
 1019 003e 2B22     		mov	r2, #43
 1020 0040 9954     		strb	r1, [r3, r2]
 271:app_Com.c     ****     rc4_encrypt(Target_Key,KEY_LEN,Com_Array.Tx_buff + 2, 2);
 1021              		.loc 1 271 0
 1022 0042 184A     		ldr	r2, .L51+8
 1023 0044 184B     		ldr	r3, .L51+12
 1024 0046 101C     		mov	r0, r2
 1025 0048 0821     		mov	r1, #8
 1026 004a 1A1C     		mov	r2, r3
 1027 004c 0223     		mov	r3, #2
 1028 004e FFF7FEFF 		bl	rc4_encrypt
 272:app_Com.c     ****     crc = comCalCRC16(Com_Array.Tx_buff,4);
 1029              		.loc 1 272 0
 1030 0052 BC1D     		add	r4, r7, #6
 1031 0054 124B     		ldr	r3, .L51+4
 1032 0056 181C     		mov	r0, r3
 1033 0058 0421     		mov	r1, #4
 1034 005a FFF7FEFF 		bl	comCalCRC16
 1035 005e 031C     		mov	r3, r0
 1036 0060 2380     		strh	r3, [r4]
 273:app_Com.c     ****     Com_Array.Tx_buff[4] = crc / 256;
 1037              		.loc 1 273 0
 1038 0062 BB1D     		add	r3, r7, #6
ARM GAS  C:\Users\ADMINI~1.SC-\AppData\Local\Temp\cceVp8or.s 			page 24


 1039 0064 1B88     		ldrh	r3, [r3]
 1040 0066 1B0A     		lsr	r3, r3, #8
 1041 0068 9BB2     		uxth	r3, r3
 1042 006a D9B2     		uxtb	r1, r3
 1043 006c 0B4B     		ldr	r3, .L51
 1044 006e 2C22     		mov	r2, #44
 1045 0070 9954     		strb	r1, [r3, r2]
 274:app_Com.c     ****     Com_Array.Tx_buff[5] = crc % 256;      
 1046              		.loc 1 274 0
 1047 0072 BB1D     		add	r3, r7, #6
 1048 0074 1B88     		ldrh	r3, [r3]
 1049 0076 D9B2     		uxtb	r1, r3
 1050 0078 084B     		ldr	r3, .L51
 1051 007a 2D22     		mov	r2, #45
 1052 007c 9954     		strb	r1, [r3, r2]
 275:app_Com.c     ****     Com_Array.Tx_Length = 6;
 1053              		.loc 1 275 0
 1054 007e 074B     		ldr	r3, .L51
 1055 0080 6B22     		mov	r2, #107
 1056 0082 0621     		mov	r1, #6
 1057 0084 9954     		strb	r1, [r3, r2]
 276:app_Com.c     ****     Send_Com(Com_Array.Tx_buff,Com_Array.Tx_Length);
 1058              		.loc 1 276 0
 1059 0086 054B     		ldr	r3, .L51
 1060 0088 6B22     		mov	r2, #107
 1061 008a 9B5C     		ldrb	r3, [r3, r2]
 1062 008c 044A     		ldr	r2, .L51+4
 1063 008e 101C     		mov	r0, r2
 1064 0090 191C     		mov	r1, r3
 1065 0092 FFF7FEFF 		bl	Send_Com
 277:app_Com.c     **** }
 1066              		.loc 1 277 0
 1067 0096 BD46     		mov	sp, r7
 1068 0098 03B0     		add	sp, sp, #12
 1069              		@ sp needed
 1070 009a 90BD     		pop	{r4, r7, pc}
 1071              	.L52:
 1072              		.align	2
 1073              	.L51:
 1074 009c 00000000 		.word	Com_Array
 1075 00a0 28000000 		.word	Com_Array+40
 1076 00a4 00000000 		.word	Target_Key
 1077 00a8 2A000000 		.word	Com_Array+42
 1078              		.cfi_endproc
 1079              	.LFE40:
 1080              		.size	Request_Index, .-Request_Index
 1081              		.section	.rodata
 1082              		.align	2
 1083              	.LC0:
 1084 0074 07       		.byte	7
 1085 0075 E0       		.byte	-32
 1086 0076 0A       		.byte	10
 1087 0077 09       		.byte	9
 1088 0078 12       		.byte	18
 1089 0079 20       		.byte	32
 1090 007a 00       		.byte	0
 1091 007b 00       		.section	.text.Open_Lock,"ax",%progbits
ARM GAS  C:\Users\ADMINI~1.SC-\AppData\Local\Temp\cceVp8or.s 			page 25


 1092              		.align	2
 1093              		.global	Open_Lock
 1094              		.code	16
 1095              		.thumb_func
 1096              		.type	Open_Lock, %function
 1097              	Open_Lock:
 1098              	.LFB41:
 278:app_Com.c     **** 
 279:app_Com.c     **** /***********************************************
 280:app_Com.c     **** * å‡½æ•°åï¼švoid Open_Lock(void)
 281:app_Com.c     **** * æè¿°  ï¼šè¯·æ±‚æ£€ç´¢å·
 282:app_Com.c     **** ***********************************************/
 283:app_Com.c     **** void Open_Lock(void)
 284:app_Com.c     **** {
 1099              		.loc 1 284 0
 1100              		.cfi_startproc
 1101 0000 90B5     		push	{r4, r7, lr}
 1102              		.cfi_def_cfa_offset 12
 1103              		.cfi_offset 4, -12
 1104              		.cfi_offset 7, -8
 1105              		.cfi_offset 14, -4
 1106 0002 85B0     		sub	sp, sp, #20
 1107              		.cfi_def_cfa_offset 32
 1108 0004 00AF     		add	r7, sp, #0
 1109              		.cfi_def_cfa_register 7
 285:app_Com.c     ****     uint16 crc;
 286:app_Com.c     ****     uint8 Time[7] = {0x07,0xe0,0x0a,0x09,0x12,0x20,0x00};
 1110              		.loc 1 286 0
 1111 0006 3A1D     		add	r2, r7, #4
 1112 0008 404B     		ldr	r3, .L54
 1113 000a 111C     		mov	r1, r2
 1114 000c 1A1C     		mov	r2, r3
 1115 000e 0723     		mov	r3, #7
 1116 0010 081C     		mov	r0, r1
 1117 0012 111C     		mov	r1, r2
 1118 0014 1A1C     		mov	r2, r3
 1119 0016 FFF7FEFF 		bl	memcpy
 287:app_Com.c     ****     
 288:app_Com.c     ****     Com_Array.Tx_buff[0] = OPEN_LOCK_CMD;
 1120              		.loc 1 288 0
 1121 001a 3D4B     		ldr	r3, .L54+4
 1122 001c 2822     		mov	r2, #40
 1123 001e 0721     		mov	r1, #7
 1124 0020 9954     		strb	r1, [r3, r2]
 289:app_Com.c     ****     Com_Array.Tx_buff[1] = 32;
 1125              		.loc 1 289 0
 1126 0022 3B4B     		ldr	r3, .L54+4
 1127 0024 2922     		mov	r2, #41
 1128 0026 2021     		mov	r1, #32
 1129 0028 9954     		strb	r1, [r3, r2]
 290:app_Com.c     ****     
 291:app_Com.c     ****     memcpy(Com_Array.Tx_buff + 2,LockIdentify,16);
 1130              		.loc 1 291 0
 1131 002a 394B     		ldr	r3, .L54+4
 1132 002c 2A22     		mov	r2, #42
 1133 002e 3949     		ldr	r1, .L54+8
 1134 0030 9B18     		add	r3, r3, r2
ARM GAS  C:\Users\ADMINI~1.SC-\AppData\Local\Temp\cceVp8or.s 			page 26


 1135 0032 1022     		mov	r2, #16
 1136 0034 181C     		mov	r0, r3
 1137 0036 FFF7FEFF 		bl	memcpy
 292:app_Com.c     ****     memcpy(Com_Array.Tx_buff + 18,Time,7);
 1138              		.loc 1 292 0
 1139 003a 354B     		ldr	r3, .L54+4
 1140 003c 3A22     		mov	r2, #58
 1141 003e 391D     		add	r1, r7, #4
 1142 0040 9B18     		add	r3, r3, r2
 1143 0042 0722     		mov	r2, #7
 1144 0044 181C     		mov	r0, r3
 1145 0046 FFF7FEFF 		bl	memcpy
 293:app_Com.c     ****     memcpy(Com_Array.Tx_buff + 25,System_Config.DeviceID,4);
 1146              		.loc 1 293 0
 1147 004a 314A     		ldr	r2, .L54+4
 1148 004c 4121     		mov	r1, #65
 1149 004e 324B     		ldr	r3, .L54+12
 1150 0050 5218     		add	r2, r2, r1
 1151 0052 1033     		add	r3, r3, #16
 1152 0054 0424     		mov	r4, #4
 1153 0056 101C     		mov	r0, r2
 1154 0058 191C     		mov	r1, r3
 1155 005a 221C     		mov	r2, r4
 1156 005c FFF7FEFF 		bl	memcpy
 294:app_Com.c     **** 
 295:app_Com.c     ****     Com_Array.Tx_buff[25] = 0x00;
 1157              		.loc 1 295 0
 1158 0060 2B4B     		ldr	r3, .L54+4
 1159 0062 4122     		mov	r2, #65
 1160 0064 0021     		mov	r1, #0
 1161 0066 9954     		strb	r1, [r3, r2]
 296:app_Com.c     ****     Com_Array.Tx_buff[26] = 0x00;
 1162              		.loc 1 296 0
 1163 0068 294B     		ldr	r3, .L54+4
 1164 006a 4222     		mov	r2, #66
 1165 006c 0021     		mov	r1, #0
 1166 006e 9954     		strb	r1, [r3, r2]
 297:app_Com.c     ****     Com_Array.Tx_buff[31] = 0x01;
 1167              		.loc 1 297 0
 1168 0070 274B     		ldr	r3, .L54+4
 1169 0072 4722     		mov	r2, #71
 1170 0074 0121     		mov	r1, #1
 1171 0076 9954     		strb	r1, [r3, r2]
 298:app_Com.c     ****     crc = comCalCRC16(Com_Array.Tx_buff,32);
 1172              		.loc 1 298 0
 1173 0078 0E23     		mov	r3, #14
 1174 007a FC18     		add	r4, r7, r3
 1175 007c 274B     		ldr	r3, .L54+16
 1176 007e 181C     		mov	r0, r3
 1177 0080 2021     		mov	r1, #32
 1178 0082 FFF7FEFF 		bl	comCalCRC16
 1179 0086 031C     		mov	r3, r0
 1180 0088 2380     		strh	r3, [r4]
 299:app_Com.c     ****     Com_Array.Tx_buff[32] = crc / 256;
 1181              		.loc 1 299 0
 1182 008a 0E23     		mov	r3, #14
 1183 008c FB18     		add	r3, r7, r3
ARM GAS  C:\Users\ADMINI~1.SC-\AppData\Local\Temp\cceVp8or.s 			page 27


 1184 008e 1B88     		ldrh	r3, [r3]
 1185 0090 1B0A     		lsr	r3, r3, #8
 1186 0092 9BB2     		uxth	r3, r3
 1187 0094 D9B2     		uxtb	r1, r3
 1188 0096 1E4B     		ldr	r3, .L54+4
 1189 0098 4822     		mov	r2, #72
 1190 009a 9954     		strb	r1, [r3, r2]
 300:app_Com.c     ****     Com_Array.Tx_buff[33] = crc % 256;   
 1191              		.loc 1 300 0
 1192 009c 0E23     		mov	r3, #14
 1193 009e FB18     		add	r3, r7, r3
 1194 00a0 1B88     		ldrh	r3, [r3]
 1195 00a2 D9B2     		uxtb	r1, r3
 1196 00a4 1A4B     		ldr	r3, .L54+4
 1197 00a6 4922     		mov	r2, #73
 1198 00a8 9954     		strb	r1, [r3, r2]
 301:app_Com.c     ****     
 302:app_Com.c     ****     
 303:app_Com.c     ****     rc4_encrypt(Target_Key,KEY_LEN,Com_Array.Tx_buff + 2, 32);
 1199              		.loc 1 303 0
 1200 00aa 1D4A     		ldr	r2, .L54+20
 1201 00ac 1D4B     		ldr	r3, .L54+24
 1202 00ae 101C     		mov	r0, r2
 1203 00b0 0821     		mov	r1, #8
 1204 00b2 1A1C     		mov	r2, r3
 1205 00b4 2023     		mov	r3, #32
 1206 00b6 FFF7FEFF 		bl	rc4_encrypt
 304:app_Com.c     ****     crc = comCalCRC16(Com_Array.Tx_buff,34);
 1207              		.loc 1 304 0
 1208 00ba 0E23     		mov	r3, #14
 1209 00bc FC18     		add	r4, r7, r3
 1210 00be 174B     		ldr	r3, .L54+16
 1211 00c0 181C     		mov	r0, r3
 1212 00c2 2221     		mov	r1, #34
 1213 00c4 FFF7FEFF 		bl	comCalCRC16
 1214 00c8 031C     		mov	r3, r0
 1215 00ca 2380     		strh	r3, [r4]
 305:app_Com.c     ****     Com_Array.Tx_buff[34] = crc / 256;
 1216              		.loc 1 305 0
 1217 00cc 0E23     		mov	r3, #14
 1218 00ce FB18     		add	r3, r7, r3
 1219 00d0 1B88     		ldrh	r3, [r3]
 1220 00d2 1B0A     		lsr	r3, r3, #8
 1221 00d4 9BB2     		uxth	r3, r3
 1222 00d6 D9B2     		uxtb	r1, r3
 1223 00d8 0D4B     		ldr	r3, .L54+4
 1224 00da 4A22     		mov	r2, #74
 1225 00dc 9954     		strb	r1, [r3, r2]
 306:app_Com.c     ****     Com_Array.Tx_buff[35] = crc % 256;      
 1226              		.loc 1 306 0
 1227 00de 0E23     		mov	r3, #14
 1228 00e0 FB18     		add	r3, r7, r3
 1229 00e2 1B88     		ldrh	r3, [r3]
 1230 00e4 D9B2     		uxtb	r1, r3
 1231 00e6 0A4B     		ldr	r3, .L54+4
 1232 00e8 4B22     		mov	r2, #75
 1233 00ea 9954     		strb	r1, [r3, r2]
ARM GAS  C:\Users\ADMINI~1.SC-\AppData\Local\Temp\cceVp8or.s 			page 28


 307:app_Com.c     ****     Com_Array.Tx_Length = 36;
 1234              		.loc 1 307 0
 1235 00ec 084B     		ldr	r3, .L54+4
 1236 00ee 6B22     		mov	r2, #107
 1237 00f0 2421     		mov	r1, #36
 1238 00f2 9954     		strb	r1, [r3, r2]
 308:app_Com.c     ****     Send_Com(Com_Array.Tx_buff,Com_Array.Tx_Length);    
 1239              		.loc 1 308 0
 1240 00f4 064B     		ldr	r3, .L54+4
 1241 00f6 6B22     		mov	r2, #107
 1242 00f8 9B5C     		ldrb	r3, [r3, r2]
 1243 00fa 084A     		ldr	r2, .L54+16
 1244 00fc 101C     		mov	r0, r2
 1245 00fe 191C     		mov	r1, r3
 1246 0100 FFF7FEFF 		bl	Send_Com
 309:app_Com.c     **** }
 1247              		.loc 1 309 0
 1248 0104 BD46     		mov	sp, r7
 1249 0106 05B0     		add	sp, sp, #20
 1250              		@ sp needed
 1251 0108 90BD     		pop	{r4, r7, pc}
 1252              	.L55:
 1253 010a C046     		.align	2
 1254              	.L54:
 1255 010c 74000000 		.word	.LC0
 1256 0110 00000000 		.word	Com_Array
 1257 0114 00000000 		.word	LockIdentify
 1258 0118 00000000 		.word	System_Config
 1259 011c 28000000 		.word	Com_Array+40
 1260 0120 00000000 		.word	Target_Key
 1261 0124 2A000000 		.word	Com_Array+42
 1262              		.cfi_endproc
 1263              	.LFE41:
 1264              		.size	Open_Lock, .-Open_Lock
 1265              		.section	.text.Set_Lock_ID,"ax",%progbits
 1266              		.align	2
 1267              		.global	Set_Lock_ID
 1268              		.code	16
 1269              		.thumb_func
 1270              		.type	Set_Lock_ID, %function
 1271              	Set_Lock_ID:
 1272              	.LFB42:
 310:app_Com.c     **** 
 311:app_Com.c     **** 
 312:app_Com.c     **** /***********************************************
 313:app_Com.c     **** * å‡½æ•°åï¼švoid Set_Lock_ID(void)
 314:app_Com.c     **** * æè¿°  ï¼šè¯·æ±‚é”çš„è®¾å¤‡ä¿¡æ¯
 315:app_Com.c     **** ***********************************************/
 316:app_Com.c     **** void Set_Lock_ID(void)
 317:app_Com.c     **** {
 1273              		.loc 1 317 0
 1274              		.cfi_startproc
 1275 0000 90B5     		push	{r4, r7, lr}
 1276              		.cfi_def_cfa_offset 12
 1277              		.cfi_offset 4, -12
 1278              		.cfi_offset 7, -8
 1279              		.cfi_offset 14, -4
ARM GAS  C:\Users\ADMINI~1.SC-\AppData\Local\Temp\cceVp8or.s 			page 29


 1280 0002 83B0     		sub	sp, sp, #12
 1281              		.cfi_def_cfa_offset 24
 1282 0004 00AF     		add	r7, sp, #0
 1283              		.cfi_def_cfa_register 7
 318:app_Com.c     ****     uint16 crc;
 319:app_Com.c     ****     Com_Array.Tx_buff[0] = SET_LOCK_ID;
 1284              		.loc 1 319 0
 1285 0006 1A4B     		ldr	r3, .L57
 1286 0008 2822     		mov	r2, #40
 1287 000a 0A21     		mov	r1, #10
 1288 000c 9954     		strb	r1, [r3, r2]
 320:app_Com.c     ****     Com_Array.Tx_buff[1] = 4;
 1289              		.loc 1 320 0
 1290 000e 184B     		ldr	r3, .L57
 1291 0010 2922     		mov	r2, #41
 1292 0012 0421     		mov	r1, #4
 1293 0014 9954     		strb	r1, [r3, r2]
 321:app_Com.c     ****     
 322:app_Com.c     ****     memcpy(Com_Array.Tx_buff + 2,Lock_Info.DeviceID,4);
 1294              		.loc 1 322 0
 1295 0016 164B     		ldr	r3, .L57
 1296 0018 2A22     		mov	r2, #42
 1297 001a 1649     		ldr	r1, .L57+4
 1298 001c 9B18     		add	r3, r3, r2
 1299 001e 0422     		mov	r2, #4
 1300 0020 181C     		mov	r0, r3
 1301 0022 FFF7FEFF 		bl	memcpy
 323:app_Com.c     ****     
 324:app_Com.c     ****     crc = comCalCRC16(Com_Array.Tx_buff,6);
 1302              		.loc 1 324 0
 1303 0026 BC1D     		add	r4, r7, #6
 1304 0028 134B     		ldr	r3, .L57+8
 1305 002a 181C     		mov	r0, r3
 1306 002c 0621     		mov	r1, #6
 1307 002e FFF7FEFF 		bl	comCalCRC16
 1308 0032 031C     		mov	r3, r0
 1309 0034 2380     		strh	r3, [r4]
 325:app_Com.c     ****     
 326:app_Com.c     ****     Com_Array.Tx_buff[6] = crc / 256;
 1310              		.loc 1 326 0
 1311 0036 BB1D     		add	r3, r7, #6
 1312 0038 1B88     		ldrh	r3, [r3]
 1313 003a 1B0A     		lsr	r3, r3, #8
 1314 003c 9BB2     		uxth	r3, r3
 1315 003e D9B2     		uxtb	r1, r3
 1316 0040 0B4B     		ldr	r3, .L57
 1317 0042 2E22     		mov	r2, #46
 1318 0044 9954     		strb	r1, [r3, r2]
 327:app_Com.c     ****     Com_Array.Tx_buff[7] = crc % 256;   
 1319              		.loc 1 327 0
 1320 0046 BB1D     		add	r3, r7, #6
 1321 0048 1B88     		ldrh	r3, [r3]
 1322 004a D9B2     		uxtb	r1, r3
 1323 004c 084B     		ldr	r3, .L57
 1324 004e 2F22     		mov	r2, #47
 1325 0050 9954     		strb	r1, [r3, r2]
 328:app_Com.c     ****     Com_Array.Tx_Length = 8;
ARM GAS  C:\Users\ADMINI~1.SC-\AppData\Local\Temp\cceVp8or.s 			page 30


 1326              		.loc 1 328 0
 1327 0052 074B     		ldr	r3, .L57
 1328 0054 6B22     		mov	r2, #107
 1329 0056 0821     		mov	r1, #8
 1330 0058 9954     		strb	r1, [r3, r2]
 329:app_Com.c     ****     Send_Com(Com_Array.Tx_buff,Com_Array.Tx_Length);
 1331              		.loc 1 329 0
 1332 005a 054B     		ldr	r3, .L57
 1333 005c 6B22     		mov	r2, #107
 1334 005e 9B5C     		ldrb	r3, [r3, r2]
 1335 0060 054A     		ldr	r2, .L57+8
 1336 0062 101C     		mov	r0, r2
 1337 0064 191C     		mov	r1, r3
 1338 0066 FFF7FEFF 		bl	Send_Com
 330:app_Com.c     **** }
 1339              		.loc 1 330 0
 1340 006a BD46     		mov	sp, r7
 1341 006c 03B0     		add	sp, sp, #12
 1342              		@ sp needed
 1343 006e 90BD     		pop	{r4, r7, pc}
 1344              	.L58:
 1345              		.align	2
 1346              	.L57:
 1347 0070 00000000 		.word	Com_Array
 1348 0074 00000000 		.word	Lock_Info
 1349 0078 28000000 		.word	Com_Array+40
 1350              		.cfi_endproc
 1351              	.LFE42:
 1352              		.size	Set_Lock_ID, .-Set_Lock_ID
 1353              		.section	.text.Send_Com,"ax",%progbits
 1354              		.align	2
 1355              		.global	Send_Com
 1356              		.code	16
 1357              		.thumb_func
 1358              		.type	Send_Com, %function
 1359              	Send_Com:
 1360              	.LFB43:
 331:app_Com.c     **** 
 332:app_Com.c     **** /***********************************************
 333:app_Com.c     **** * å‡½æ•°åï¼švoid Send_Com(uint8 *TX_Buffer,uint8 Length)
 334:app_Com.c     **** * æè¿°  ï¼šä¸²å£å‘é€æ•°æ®
 335:app_Com.c     **** ***********************************************/
 336:app_Com.c     **** void Send_Com(uint8 *TX_Buffer,uint8 Length)
 337:app_Com.c     **** {
 1361              		.loc 1 337 0
 1362              		.cfi_startproc
 1363 0000 80B5     		push	{r7, lr}
 1364              		.cfi_def_cfa_offset 8
 1365              		.cfi_offset 7, -8
 1366              		.cfi_offset 14, -4
 1367 0002 84B0     		sub	sp, sp, #16
 1368              		.cfi_def_cfa_offset 24
 1369 0004 00AF     		add	r7, sp, #0
 1370              		.cfi_def_cfa_register 7
 1371 0006 7860     		str	r0, [r7, #4]
 1372 0008 0A1C     		mov	r2, r1
 1373 000a FB1C     		add	r3, r7, #3
ARM GAS  C:\Users\ADMINI~1.SC-\AppData\Local\Temp\cceVp8or.s 			page 31


 1374 000c 1A70     		strb	r2, [r3]
 338:app_Com.c     ****     uint8 i;
 339:app_Com.c     ****     Com_Array.Tx_Begin = 1;
 1375              		.loc 1 339 0
 1376 000e 134B     		ldr	r3, .L62
 1377 0010 7222     		mov	r2, #114
 1378 0012 0121     		mov	r1, #1
 1379 0014 9954     		strb	r1, [r3, r2]
 340:app_Com.c     ****     
 341:app_Com.c     ****     for(i=0; i<Length; i++ )
 1380              		.loc 1 341 0
 1381 0016 0F23     		mov	r3, #15
 1382 0018 FB18     		add	r3, r7, r3
 1383 001a 0022     		mov	r2, #0
 1384 001c 1A70     		strb	r2, [r3]
 1385 001e 0FE0     		b	.L60
 1386              	.L61:
 342:app_Com.c     ****     {
 343:app_Com.c     ****         UART_UartPutChar(TX_Buffer[i]);
 1387              		.loc 1 343 0 discriminator 3
 1388 0020 0F23     		mov	r3, #15
 1389 0022 FB18     		add	r3, r7, r3
 1390 0024 1B78     		ldrb	r3, [r3]
 1391 0026 7A68     		ldr	r2, [r7, #4]
 1392 0028 D318     		add	r3, r2, r3
 1393 002a 1B78     		ldrb	r3, [r3]
 1394 002c 181C     		mov	r0, r3
 1395 002e FFF7FEFF 		bl	UART_SpiUartWriteTxData
 341:app_Com.c     ****     {
 1396              		.loc 1 341 0 discriminator 3
 1397 0032 0F23     		mov	r3, #15
 1398 0034 FB18     		add	r3, r7, r3
 1399 0036 1A78     		ldrb	r2, [r3]
 1400 0038 0F23     		mov	r3, #15
 1401 003a FB18     		add	r3, r7, r3
 1402 003c 0132     		add	r2, r2, #1
 1403 003e 1A70     		strb	r2, [r3]
 1404              	.L60:
 341:app_Com.c     ****     {
 1405              		.loc 1 341 0 is_stmt 0 discriminator 1
 1406 0040 0F23     		mov	r3, #15
 1407 0042 FA18     		add	r2, r7, r3
 1408 0044 FB1C     		add	r3, r7, #3
 1409 0046 1278     		ldrb	r2, [r2]
 1410 0048 1B78     		ldrb	r3, [r3]
 1411 004a 9A42     		cmp	r2, r3
 1412 004c E8D3     		bcc	.L61
 344:app_Com.c     ****     }
 345:app_Com.c     ****     Com_Array.Tx_Wait = 0;
 1413              		.loc 1 345 0 is_stmt 1
 1414 004e 034B     		ldr	r3, .L62
 1415 0050 6E22     		mov	r2, #110
 1416 0052 0021     		mov	r1, #0
 1417 0054 9952     		strh	r1, [r3, r2]
 346:app_Com.c     **** }
 1418              		.loc 1 346 0
 1419 0056 BD46     		mov	sp, r7
ARM GAS  C:\Users\ADMINI~1.SC-\AppData\Local\Temp\cceVp8or.s 			page 32


 1420 0058 04B0     		add	sp, sp, #16
 1421              		@ sp needed
 1422 005a 80BD     		pop	{r7, pc}
 1423              	.L63:
 1424              		.align	2
 1425              	.L62:
 1426 005c 00000000 		.word	Com_Array
 1427              		.cfi_endproc
 1428              	.LFE43:
 1429              		.size	Send_Com, .-Send_Com
 1430              		.text
 1431              	.Letext0:
 1432              		.file 2 "Generated_Source\\PSoC4/cytypes.h"
 1433              		.file 3 "app_Com.h"
 1434              		.file 4 "app_lock.h"
 1435              		.file 5 "app_protocol.h"
 1436              		.file 6 "Generated_Source\\PSoC4/BLE_Stack.h"