ARM GAS  C:\Users\ADMINI~1.SC-\AppData\Local\Temp\ccy9rXlj.s 			page 1


   1              		.cpu cortex-m0
   2              		.fpu softvfp
   3              		.eabi_attribute 20, 1
   4              		.eabi_attribute 21, 1
   5              		.eabi_attribute 23, 3
   6              		.eabi_attribute 24, 1
   7              		.eabi_attribute 25, 1
   8              		.eabi_attribute 26, 1
   9              		.eabi_attribute 30, 6
  10              		.eabi_attribute 34, 0
  11              		.eabi_attribute 18, 4
  12              		.code	16
  13              		.file	"app_lock.c"
  14              		.text
  15              	.Ltext0:
  16              		.cfi_sections	.debug_frame
  17              		.global	LockIdentify
  18              		.section	.rodata
  19              		.align	2
  20              		.type	LockIdentify, %object
  21              		.size	LockIdentify, 16
  22              	LockIdentify:
  23 0000 00       		.byte	0
  24 0001 01       		.byte	1
  25 0002 02       		.byte	2
  26 0003 03       		.byte	3
  27 0004 04       		.byte	4
  28 0005 05       		.byte	5
  29 0006 06       		.byte	6
  30 0007 07       		.byte	7
  31 0008 08       		.byte	8
  32 0009 09       		.byte	9
  33 000a 0A       		.byte	10
  34 000b 0B       		.byte	11
  35 000c 0C       		.byte	12
  36 000d 0D       		.byte	13
  37 000e 0E       		.byte	14
  38 000f 0F       		.byte	15
  39              		.global	Manage_Key
  40              		.align	2
  41              		.type	Manage_Key, %object
  42              		.size	Manage_Key, 16
  43              	Manage_Key:
  44 0010 00       		.byte	0
  45 0011 01       		.byte	1
  46 0012 02       		.byte	2
  47 0013 03       		.byte	3
  48 0014 04       		.byte	4
  49 0015 05       		.byte	5
  50 0016 06       		.byte	6
  51 0017 07       		.byte	7
  52 0018 07       		.byte	7
  53 0019 06       		.byte	6
  54 001a 05       		.byte	5
  55 001b 04       		.byte	4
  56 001c 03       		.byte	3
  57 001d 02       		.byte	2
ARM GAS  C:\Users\ADMINI~1.SC-\AppData\Local\Temp\ccy9rXlj.s 			page 2


  58 001e 01       		.byte	1
  59 001f 00       		.byte	0
  60              		.global	Delay_Time
  61              		.bss
  62              		.align	2
  63              		.type	Delay_Time, %object
  64              		.size	Delay_Time, 10
  65              	Delay_Time:
  66 0000 00000000 		.space	10
  66      00000000 
  66      0000
  67              		.global	Flag
  68 000a 0000     		.align	2
  69              		.type	Flag, %object
  70              		.size	Flag, 4
  71              	Flag:
  72 000c 00000000 		.space	4
  73              		.global	System_Config
  74              		.align	2
  75              		.type	System_Config, %object
  76              		.size	System_Config, 38
  77              	System_Config:
  78 0010 00000000 		.space	38
  78      00000000 
  78      00000000 
  78      00000000 
  78      00000000 
  79              		.global	Lock_Info
  80 0036 0000     		.align	2
  81              		.type	Lock_Info, %object
  82              		.size	Lock_Info, 15
  83              	Lock_Info:
  84 0038 00000000 		.space	15
  84      00000000 
  84      00000000 
  84      000000
  85              		.global	__aeabi_uidivmod
  86              		.global	__aeabi_uidiv
  87 0047 00       		.section	.text.Alarm_Event,"ax",%progbits
  88              		.align	2
  89              		.global	Alarm_Event
  90              		.code	16
  91              		.thumb_func
  92              		.type	Alarm_Event, %function
  93              	Alarm_Event:
  94              	.LFB35:
  95              		.file 1 "app_lock.c"
   1:app_lock.c    **** /* ========================================
   2:app_lock.c    ****  *
   3:app_lock.c    ****  * Copyright YOUR COMPANY, THE YEAR
   4:app_lock.c    ****  * All Rights Reserved
   5:app_lock.c    ****  * UNPUBLISHED, LICENSED SOFTWARE.
   6:app_lock.c    ****  *
   7:app_lock.c    ****  * CONFIDENTIAL AND PROPRIETARY INFORMATION
   8:app_lock.c    ****  * WHICH IS THE PROPERTY OF your company.
   9:app_lock.c    ****  *
  10:app_lock.c    ****  * ========================================
ARM GAS  C:\Users\ADMINI~1.SC-\AppData\Local\Temp\ccy9rXlj.s 			page 3


  11:app_lock.c    **** */
  12:app_lock.c    **** #include "app_lock.h"
  13:app_lock.c    **** #include "RC4.h"
  14:app_lock.c    **** #include "app_protocol.h"
  15:app_lock.c    **** #include "app_Com.h"
  16:app_lock.c    **** #include <string.h>
  17:app_lock.c    **** #include <CyFlash.h>
  18:app_lock.c    **** 
  19:app_lock.c    **** const uint8 LockIdentify[16] = {0x00,0x01,0x02,0x03,0x04,0x05,0x06,0x07,0x08,0x09,0x0A,0x0B,0x0C,0x
  20:app_lock.c    **** const uint8 Manage_Key[16] = {0x00,0x01,0x02,0x03,0x04,0x05,0x06,0x07,0x07,0x06,0x05,0x04,0x03,0x02
  21:app_lock.c    **** 
  22:app_lock.c    **** 
  23:app_lock.c    **** 
  24:app_lock.c    **** DelayTime  Delay_Time = {};
  25:app_lock.c    **** FLAG  Flag = {};
  26:app_lock.c    **** SYSTEM_CFG System_Config = {};
  27:app_lock.c    **** LOCK_INFO Lock_Info = {};
  28:app_lock.c    **** 
  29:app_lock.c    **** 
  30:app_lock.c    **** /***********************************************************
  31:app_lock.c    ****  * @function_name: void Alarm_Event(u8* Data)
  32:app_lock.c    ****  * @function_file: Dr_Alarm.c
  33:app_lock.c    ****  * @描  述： 报警事件主程序
  34:app_lock.c    ****  *
  35:app_lock.c    ****  * @参  数： 报警事件
  36:app_lock.c    ****  * @返  回： 无
  37:app_lock.c    ****  * @作  者： ZhangQun (2014-9-2)
  38:app_lock.c    ****  *---------------------------------------------------------
  39:app_lock.c    ****  * @修改人： ZhangQun (2014-9-2)
  40:app_lock.c    **** ***********************************************************/
  41:app_lock.c    **** void Alarm_Event(uint8 Event)
  42:app_lock.c    **** {
  96              		.loc 1 42 0
  97              		.cfi_startproc
  98 0000 80B5     		push	{r7, lr}
  99              		.cfi_def_cfa_offset 8
 100              		.cfi_offset 7, -8
 101              		.cfi_offset 14, -4
 102 0002 82B0     		sub	sp, sp, #8
 103              		.cfi_def_cfa_offset 16
 104 0004 00AF     		add	r7, sp, #0
 105              		.cfi_def_cfa_register 7
 106 0006 021C     		mov	r2, r0
 107 0008 FB1D     		add	r3, r7, #7
 108 000a 1A70     		strb	r2, [r3]
  43:app_lock.c    ****    switch (Event)
 109              		.loc 1 43 0
 110 000c FB1D     		add	r3, r7, #7
 111 000e 1B78     		ldrb	r3, [r3]
 112 0010 052B     		cmp	r3, #5
 113 0012 00D9     		bls	.LCB18
 114 0014 E5E0     		b	.L2	@long jump
 115              	.LCB18:
 116 0016 9A00     		lsl	r2, r3, #2
 117 0018 774B     		ldr	r3, .L28
 118 001a D318     		add	r3, r2, r3
 119 001c 1B68     		ldr	r3, [r3]
ARM GAS  C:\Users\ADMINI~1.SC-\AppData\Local\Temp\ccy9rXlj.s 			page 4


 120 001e 9F46     		mov	pc, r3
 121              		.section	.rodata
 122              		.align	2
 123              	.L4:
 124 0020 E2010000 		.word	.L2
 125 0024 20000000 		.word	.L3
 126 0028 60000000 		.word	.L5
 127 002c C2000000 		.word	.L6
 128 0030 30010000 		.word	.L7
 129 0034 86010000 		.word	.L8
 130              		.section	.text.Alarm_Event
 131              	.L3:
  44:app_lock.c    ****     {
  45:app_lock.c    ****         case EVENT_1:	//绿灯亮1S
  46:app_lock.c    ****             if (Delay_Time.Alarm_Count == 0)
 132              		.loc 1 46 0
 133 0020 764B     		ldr	r3, .L28+4
 134 0022 1B88     		ldrh	r3, [r3]
 135 0024 002B     		cmp	r3, #0
 136 0026 02D1     		bne	.L9
  47:app_lock.c    ****             {
  48:app_lock.c    ****                 GREEN_OFF;
 137              		.loc 1 48 0
 138 0028 0120     		mov	r0, #1
 139 002a FFF7FEFF 		bl	LED_GREEN_Write
 140              	.L9:
  49:app_lock.c    ****             }
  50:app_lock.c    ****             Delay_Time.Alarm_Count ++;
 141              		.loc 1 50 0
 142 002e 734B     		ldr	r3, .L28+4
 143 0030 1B88     		ldrh	r3, [r3]
 144 0032 0133     		add	r3, r3, #1
 145 0034 9AB2     		uxth	r2, r3
 146 0036 714B     		ldr	r3, .L28+4
 147 0038 1A80     		strh	r2, [r3]
  51:app_lock.c    ****             if(Delay_Time.Alarm_Count > 1000)
 148              		.loc 1 51 0
 149 003a 704B     		ldr	r3, .L28+4
 150 003c 1A88     		ldrh	r2, [r3]
 151 003e FA23     		mov	r3, #250
 152 0040 9B00     		lsl	r3, r3, #2
 153 0042 9A42     		cmp	r2, r3
 154 0044 0BD9     		bls	.L10
  52:app_lock.c    ****             {
  53:app_lock.c    ****                 Delay_Time.Alarm_Count = 0;
 155              		.loc 1 53 0
 156 0046 6D4B     		ldr	r3, .L28+4
 157 0048 0022     		mov	r2, #0
 158 004a 1A80     		strh	r2, [r3]
  54:app_lock.c    ****                 GREEN_ON;
 159              		.loc 1 54 0
 160 004c 0020     		mov	r0, #0
 161 004e FFF7FEFF 		bl	LED_GREEN_Write
  55:app_lock.c    ****                 Flag.Alarm_Work_Step = EVENT_0;
 162              		.loc 1 55 0
 163 0052 6B4B     		ldr	r3, .L28+8
 164 0054 1A78     		ldrb	r2, [r3]
ARM GAS  C:\Users\ADMINI~1.SC-\AppData\Local\Temp\ccy9rXlj.s 			page 5


 165 0056 0721     		mov	r1, #7
 166 0058 8A43     		bic	r2, r1
 167 005a 1A70     		strb	r2, [r3]
  56:app_lock.c    ****             }
  57:app_lock.c    ****             break;
 168              		.loc 1 57 0
 169 005c C8E0     		b	.L1
 170              	.L10:
 171 005e C7E0     		b	.L1
 172              	.L5:
  58:app_lock.c    **** 
  59:app_lock.c    ****         case EVENT_2:   //蜂鸣器：嘀滴
  60:app_lock.c    ****             if (  (Delay_Time.Alarm_Count == 0) 
 173              		.loc 1 60 0
 174 0060 664B     		ldr	r3, .L28+4
 175 0062 1B88     		ldrh	r3, [r3]
 176 0064 002B     		cmp	r3, #0
 177 0066 03D0     		beq	.L12
  61:app_lock.c    ****                || (Delay_Time.Alarm_Count == 200) )
 178              		.loc 1 61 0
 179 0068 644B     		ldr	r3, .L28+4
 180 006a 1B88     		ldrh	r3, [r3]
 181 006c C82B     		cmp	r3, #200
 182 006e 04D1     		bne	.L13
 183              	.L12:
  62:app_lock.c    ****             {
  63:app_lock.c    ****                 GREEN_OFF;
 184              		.loc 1 63 0
 185 0070 0120     		mov	r0, #1
 186 0072 FFF7FEFF 		bl	LED_GREEN_Write
  64:app_lock.c    ****                 PWM_Start();
 187              		.loc 1 64 0
 188 0076 FFF7FEFF 		bl	PWM_Start
 189              	.L13:
  65:app_lock.c    ****             }
  66:app_lock.c    ****             if (Delay_Time.Alarm_Count == 100)
 190              		.loc 1 66 0
 191 007a 604B     		ldr	r3, .L28+4
 192 007c 1B88     		ldrh	r3, [r3]
 193 007e 642B     		cmp	r3, #100
 194 0080 04D1     		bne	.L14
  67:app_lock.c    ****             {
  68:app_lock.c    ****                 GREEN_ON;
 195              		.loc 1 68 0
 196 0082 0020     		mov	r0, #0
 197 0084 FFF7FEFF 		bl	LED_GREEN_Write
  69:app_lock.c    ****                 PWM_Stop();
 198              		.loc 1 69 0
 199 0088 FFF7FEFF 		bl	PWM_Stop
 200              	.L14:
  70:app_lock.c    ****             }            
  71:app_lock.c    ****             Delay_Time.Alarm_Count ++;
 201              		.loc 1 71 0
 202 008c 5B4B     		ldr	r3, .L28+4
 203 008e 1B88     		ldrh	r3, [r3]
 204 0090 0133     		add	r3, r3, #1
 205 0092 9AB2     		uxth	r2, r3
ARM GAS  C:\Users\ADMINI~1.SC-\AppData\Local\Temp\ccy9rXlj.s 			page 6


 206 0094 594B     		ldr	r3, .L28+4
 207 0096 1A80     		strh	r2, [r3]
  72:app_lock.c    ****             if (Delay_Time.Alarm_Count >= 300)
 208              		.loc 1 72 0
 209 0098 584B     		ldr	r3, .L28+4
 210 009a 1A88     		ldrh	r2, [r3]
 211 009c 2C23     		mov	r3, #44
 212 009e FF33     		add	r3, r3, #255
 213 00a0 9A42     		cmp	r2, r3
 214 00a2 0DD9     		bls	.L15
  73:app_lock.c    ****             {
  74:app_lock.c    ****                 Delay_Time.Alarm_Count = 0;
 215              		.loc 1 74 0
 216 00a4 554B     		ldr	r3, .L28+4
 217 00a6 0022     		mov	r2, #0
 218 00a8 1A80     		strh	r2, [r3]
  75:app_lock.c    ****                 GREEN_ON;
 219              		.loc 1 75 0
 220 00aa 0020     		mov	r0, #0
 221 00ac FFF7FEFF 		bl	LED_GREEN_Write
  76:app_lock.c    ****                 PWM_Stop();
 222              		.loc 1 76 0
 223 00b0 FFF7FEFF 		bl	PWM_Stop
  77:app_lock.c    ****                 Flag.Alarm_Work_Step = EVENT_0;            
 224              		.loc 1 77 0
 225 00b4 524B     		ldr	r3, .L28+8
 226 00b6 1A78     		ldrb	r2, [r3]
 227 00b8 0721     		mov	r1, #7
 228 00ba 8A43     		bic	r2, r1
 229 00bc 1A70     		strb	r2, [r3]
  78:app_lock.c    ****             }           
  79:app_lock.c    ****             break;
 230              		.loc 1 79 0
 231 00be 97E0     		b	.L1
 232              	.L15:
 233 00c0 96E0     		b	.L1
 234              	.L6:
  80:app_lock.c    **** 
  81:app_lock.c    ****         case EVENT_3:       //蜂鸣器 滴滴滴
  82:app_lock.c    ****             if (  (Delay_Time.Alarm_Count == 0) 
 235              		.loc 1 82 0
 236 00c2 4E4B     		ldr	r3, .L28+4
 237 00c4 1B88     		ldrh	r3, [r3]
 238 00c6 002B     		cmp	r3, #0
 239 00c8 09D0     		beq	.L16
  83:app_lock.c    ****                || (Delay_Time.Alarm_Count == 200)
 240              		.loc 1 83 0
 241 00ca 4C4B     		ldr	r3, .L28+4
 242 00cc 1B88     		ldrh	r3, [r3]
 243 00ce C82B     		cmp	r3, #200
 244 00d0 05D0     		beq	.L16
  84:app_lock.c    ****                || (Delay_Time.Alarm_Count == 400))
 245              		.loc 1 84 0
 246 00d2 4A4B     		ldr	r3, .L28+4
 247 00d4 1A88     		ldrh	r2, [r3]
 248 00d6 C823     		mov	r3, #200
 249 00d8 5B00     		lsl	r3, r3, #1
ARM GAS  C:\Users\ADMINI~1.SC-\AppData\Local\Temp\ccy9rXlj.s 			page 7


 250 00da 9A42     		cmp	r2, r3
 251 00dc 02D1     		bne	.L17
 252              	.L16:
  85:app_lock.c    ****             {
  86:app_lock.c    ****                 BEEP_OPEN;
 253              		.loc 1 86 0
 254 00de 0120     		mov	r0, #1
 255 00e0 FFF7FEFF 		bl	Beep_Ctrl_Write
 256              	.L17:
  87:app_lock.c    ****             }
  88:app_lock.c    ****             if (  (Delay_Time.Alarm_Count == 100)
 257              		.loc 1 88 0
 258 00e4 454B     		ldr	r3, .L28+4
 259 00e6 1B88     		ldrh	r3, [r3]
 260 00e8 642B     		cmp	r3, #100
 261 00ea 05D0     		beq	.L18
  89:app_lock.c    ****                || (Delay_Time.Alarm_Count == 300) ) 
 262              		.loc 1 89 0
 263 00ec 434B     		ldr	r3, .L28+4
 264 00ee 1A88     		ldrh	r2, [r3]
 265 00f0 9623     		mov	r3, #150
 266 00f2 5B00     		lsl	r3, r3, #1
 267 00f4 9A42     		cmp	r2, r3
 268 00f6 02D1     		bne	.L19
 269              	.L18:
  90:app_lock.c    ****             {
  91:app_lock.c    ****                 BEEP_CLOSE;
 270              		.loc 1 91 0
 271 00f8 0020     		mov	r0, #0
 272 00fa FFF7FEFF 		bl	Beep_Ctrl_Write
 273              	.L19:
  92:app_lock.c    ****             }            
  93:app_lock.c    ****             Delay_Time.Alarm_Count ++;
 274              		.loc 1 93 0
 275 00fe 3F4B     		ldr	r3, .L28+4
 276 0100 1B88     		ldrh	r3, [r3]
 277 0102 0133     		add	r3, r3, #1
 278 0104 9AB2     		uxth	r2, r3
 279 0106 3D4B     		ldr	r3, .L28+4
 280 0108 1A80     		strh	r2, [r3]
  94:app_lock.c    ****             if (Delay_Time.Alarm_Count >= 500)
 281              		.loc 1 94 0
 282 010a 3C4B     		ldr	r3, .L28+4
 283 010c 1A88     		ldrh	r2, [r3]
 284 010e F423     		mov	r3, #244
 285 0110 FF33     		add	r3, r3, #255
 286 0112 9A42     		cmp	r2, r3
 287 0114 0BD9     		bls	.L20
  95:app_lock.c    ****             {
  96:app_lock.c    ****                 Delay_Time.Alarm_Count = 0;
 288              		.loc 1 96 0
 289 0116 394B     		ldr	r3, .L28+4
 290 0118 0022     		mov	r2, #0
 291 011a 1A80     		strh	r2, [r3]
  97:app_lock.c    ****                 BEEP_CLOSE;
 292              		.loc 1 97 0
 293 011c 0020     		mov	r0, #0
ARM GAS  C:\Users\ADMINI~1.SC-\AppData\Local\Temp\ccy9rXlj.s 			page 8


 294 011e FFF7FEFF 		bl	Beep_Ctrl_Write
  98:app_lock.c    ****                 Flag.Alarm_Work_Step = EVENT_0;            
 295              		.loc 1 98 0
 296 0122 374B     		ldr	r3, .L28+8
 297 0124 1A78     		ldrb	r2, [r3]
 298 0126 0721     		mov	r1, #7
 299 0128 8A43     		bic	r2, r1
 300 012a 1A70     		strb	r2, [r3]
  99:app_lock.c    ****             }              
 100:app_lock.c    ****             break;
 301              		.loc 1 100 0
 302 012c 60E0     		b	.L1
 303              	.L20:
 304 012e 5FE0     		b	.L1
 305              	.L7:
 101:app_lock.c    **** 
 102:app_lock.c    ****         case EVENT_4:
 103:app_lock.c    ****             if (  (Delay_Time.Alarm_Count == 0) 
 306              		.loc 1 103 0
 307 0130 324B     		ldr	r3, .L28+4
 308 0132 1B88     		ldrh	r3, [r3]
 309 0134 002B     		cmp	r3, #0
 310 0136 03D0     		beq	.L21
 104:app_lock.c    ****                || (Delay_Time.Alarm_Count == 200) )
 311              		.loc 1 104 0
 312 0138 304B     		ldr	r3, .L28+4
 313 013a 1B88     		ldrh	r3, [r3]
 314 013c C82B     		cmp	r3, #200
 315 013e 02D1     		bne	.L22
 316              	.L21:
 105:app_lock.c    ****             {
 106:app_lock.c    ****                 BEEP_OPEN;
 317              		.loc 1 106 0
 318 0140 0120     		mov	r0, #1
 319 0142 FFF7FEFF 		bl	Beep_Ctrl_Write
 320              	.L22:
 107:app_lock.c    ****             }
 108:app_lock.c    ****             if (Delay_Time.Alarm_Count == 100)
 321              		.loc 1 108 0
 322 0146 2D4B     		ldr	r3, .L28+4
 323 0148 1B88     		ldrh	r3, [r3]
 324 014a 642B     		cmp	r3, #100
 325 014c 02D1     		bne	.L23
 109:app_lock.c    ****             {
 110:app_lock.c    ****                 BEEP_CLOSE;
 326              		.loc 1 110 0
 327 014e 0020     		mov	r0, #0
 328 0150 FFF7FEFF 		bl	Beep_Ctrl_Write
 329              	.L23:
 111:app_lock.c    ****             }     
 112:app_lock.c    ****             Delay_Time.Alarm_Count ++;
 330              		.loc 1 112 0
 331 0154 294B     		ldr	r3, .L28+4
 332 0156 1B88     		ldrh	r3, [r3]
 333 0158 0133     		add	r3, r3, #1
 334 015a 9AB2     		uxth	r2, r3
 335 015c 274B     		ldr	r3, .L28+4
ARM GAS  C:\Users\ADMINI~1.SC-\AppData\Local\Temp\ccy9rXlj.s 			page 9


 336 015e 1A80     		strh	r2, [r3]
 113:app_lock.c    ****             if (Delay_Time.Alarm_Count >= 300)
 337              		.loc 1 113 0
 338 0160 264B     		ldr	r3, .L28+4
 339 0162 1A88     		ldrh	r2, [r3]
 340 0164 2C23     		mov	r3, #44
 341 0166 FF33     		add	r3, r3, #255
 342 0168 9A42     		cmp	r2, r3
 343 016a 0BD9     		bls	.L24
 114:app_lock.c    ****             {
 115:app_lock.c    ****                 Delay_Time.Alarm_Count = 0;
 344              		.loc 1 115 0
 345 016c 234B     		ldr	r3, .L28+4
 346 016e 0022     		mov	r2, #0
 347 0170 1A80     		strh	r2, [r3]
 116:app_lock.c    ****                 BEEP_CLOSE;
 348              		.loc 1 116 0
 349 0172 0020     		mov	r0, #0
 350 0174 FFF7FEFF 		bl	Beep_Ctrl_Write
 117:app_lock.c    ****                 Flag.Alarm_Work_Step = EVENT_0;            
 351              		.loc 1 117 0
 352 0178 214B     		ldr	r3, .L28+8
 353 017a 1A78     		ldrb	r2, [r3]
 354 017c 0721     		mov	r1, #7
 355 017e 8A43     		bic	r2, r1
 356 0180 1A70     		strb	r2, [r3]
 118:app_lock.c    ****             }    
 119:app_lock.c    ****             break;      
 357              		.loc 1 119 0
 358 0182 35E0     		b	.L1
 359              	.L24:
 360 0184 34E0     		b	.L1
 361              	.L8:
 120:app_lock.c    ****             
 121:app_lock.c    ****         case EVENT_5:
 122:app_lock.c    ****             if((Delay_Time.Alarm_Count % 100) == 0)
 362              		.loc 1 122 0
 363 0186 1D4B     		ldr	r3, .L28+4
 364 0188 1B88     		ldrh	r3, [r3]
 365 018a 181C     		mov	r0, r3
 366 018c 6421     		mov	r1, #100
 367 018e FFF7FEFF 		bl	__aeabi_uidivmod
 368 0192 0B1C     		mov	r3, r1
 369 0194 9BB2     		uxth	r3, r3
 370 0196 002B     		cmp	r3, #0
 371 0198 13D1     		bne	.L25
 123:app_lock.c    ****             {
 124:app_lock.c    ****                 if(((Delay_Time.Alarm_Count / 100) % 2) == 0)
 372              		.loc 1 124 0
 373 019a 184B     		ldr	r3, .L28+4
 374 019c 1B88     		ldrh	r3, [r3]
 375 019e 181C     		mov	r0, r3
 376 01a0 6421     		mov	r1, #100
 377 01a2 FFF7FEFF 		bl	__aeabi_uidiv
 378 01a6 031C     		mov	r3, r0
 379 01a8 9BB2     		uxth	r3, r3
 380 01aa 0122     		mov	r2, #1
ARM GAS  C:\Users\ADMINI~1.SC-\AppData\Local\Temp\ccy9rXlj.s 			page 10


 381 01ac 1340     		and	r3, r2
 382 01ae 9BB2     		uxth	r3, r3
 383 01b0 002B     		cmp	r3, #0
 384 01b2 03D1     		bne	.L26
 125:app_lock.c    ****                 {
 126:app_lock.c    ****                     BEEP_OPEN;
 385              		.loc 1 126 0
 386 01b4 0120     		mov	r0, #1
 387 01b6 FFF7FEFF 		bl	Beep_Ctrl_Write
 388 01ba 02E0     		b	.L25
 389              	.L26:
 127:app_lock.c    ****                 }
 128:app_lock.c    ****                 else
 129:app_lock.c    ****                 {
 130:app_lock.c    ****                     BEEP_CLOSE;
 390              		.loc 1 130 0
 391 01bc 0020     		mov	r0, #0
 392 01be FFF7FEFF 		bl	Beep_Ctrl_Write
 393              	.L25:
 131:app_lock.c    ****                 }
 132:app_lock.c    ****             }
 133:app_lock.c    ****             Delay_Time.Alarm_Count ++;
 394              		.loc 1 133 0
 395 01c2 0E4B     		ldr	r3, .L28+4
 396 01c4 1B88     		ldrh	r3, [r3]
 397 01c6 0133     		add	r3, r3, #1
 398 01c8 9AB2     		uxth	r2, r3
 399 01ca 0C4B     		ldr	r3, .L28+4
 400 01cc 1A80     		strh	r2, [r3]
 134:app_lock.c    ****             if(Delay_Time.Alarm_Count >=1000)
 401              		.loc 1 134 0
 402 01ce 0B4B     		ldr	r3, .L28+4
 403 01d0 1B88     		ldrh	r3, [r3]
 404 01d2 0C4A     		ldr	r2, .L28+12
 405 01d4 9342     		cmp	r3, r2
 406 01d6 03D9     		bls	.L27
 135:app_lock.c    ****             {
 136:app_lock.c    ****                 Delay_Time.Alarm_Count = 0;
 407              		.loc 1 136 0
 408 01d8 084B     		ldr	r3, .L28+4
 409 01da 0022     		mov	r2, #0
 410 01dc 1A80     		strh	r2, [r3]
 137:app_lock.c    ****             }
 138:app_lock.c    ****             break;
 411              		.loc 1 138 0
 412 01de 07E0     		b	.L1
 413              	.L27:
 414 01e0 06E0     		b	.L1
 415              	.L2:
 139:app_lock.c    **** 			
 140:app_lock.c    ****         case EVENT_0:	//正常事件
 141:app_lock.c    ****         default:
 142:app_lock.c    ****             Delay_Time.Alarm_Count = 0;
 416              		.loc 1 142 0
 417 01e2 064B     		ldr	r3, .L28+4
 418 01e4 0022     		mov	r2, #0
 419 01e6 1A80     		strh	r2, [r3]
ARM GAS  C:\Users\ADMINI~1.SC-\AppData\Local\Temp\ccy9rXlj.s 			page 11


 143:app_lock.c    ****             BEEP_CLOSE;
 420              		.loc 1 143 0
 421 01e8 0020     		mov	r0, #0
 422 01ea FFF7FEFF 		bl	Beep_Ctrl_Write
 144:app_lock.c    ****             break;
 423              		.loc 1 144 0
 424 01ee C046     		mov	r8, r8
 425              	.L1:
 145:app_lock.c    ****     }
 146:app_lock.c    **** }
 426              		.loc 1 146 0
 427 01f0 BD46     		mov	sp, r7
 428 01f2 02B0     		add	sp, sp, #8
 429              		@ sp needed
 430 01f4 80BD     		pop	{r7, pc}
 431              	.L29:
 432 01f6 C046     		.align	2
 433              	.L28:
 434 01f8 20000000 		.word	.L4
 435 01fc 00000000 		.word	Delay_Time
 436 0200 00000000 		.word	Flag
 437 0204 E7030000 		.word	999
 438              		.cfi_endproc
 439              	.LFE35:
 440              		.size	Alarm_Event, .-Alarm_Event
 441              		.section	.text.Write_Flash,"ax",%progbits
 442              		.align	2
 443              		.global	Write_Flash
 444              		.code	16
 445              		.thumb_func
 446              		.type	Write_Flash, %function
 447              	Write_Flash:
 448              	.LFB36:
 147:app_lock.c    **** 
 148:app_lock.c    **** 
 149:app_lock.c    **** /***********************************************************
 150:app_lock.c    ****  * @function_name: void Write_Flash(uint32 Addr,uint8* Data,uint8 Length)
 151:app_lock.c    ****  * @描  述： 参数存储
 152:app_lock.c    **** ************************************************************/
 153:app_lock.c    **** void Write_Flash(uint8* Data,uint8 Length)
 154:app_lock.c    **** {
 449              		.loc 1 154 0
 450              		.cfi_startproc
 451 0000 80B5     		push	{r7, lr}
 452              		.cfi_def_cfa_offset 8
 453              		.cfi_offset 7, -8
 454              		.cfi_offset 14, -4
 455 0002 A2B0     		sub	sp, sp, #136
 456              		.cfi_def_cfa_offset 144
 457 0004 00AF     		add	r7, sp, #0
 458              		.cfi_def_cfa_register 7
 459 0006 7860     		str	r0, [r7, #4]
 460 0008 0A1C     		mov	r2, r1
 461 000a FB1C     		add	r3, r7, #3
 462 000c 1A70     		strb	r2, [r3]
 155:app_lock.c    ****     uint8 write_buff[0x80] = {0x00};
 463              		.loc 1 155 0
ARM GAS  C:\Users\ADMINI~1.SC-\AppData\Local\Temp\ccy9rXlj.s 			page 12


 464 000e 0823     		mov	r3, #8
 465 0010 FB18     		add	r3, r7, r3
 466 0012 1A1C     		mov	r2, r3
 467 0014 8023     		mov	r3, #128
 468 0016 101C     		mov	r0, r2
 469 0018 0021     		mov	r1, #0
 470 001a 1A1C     		mov	r2, r3
 471 001c FFF7FEFF 		bl	memset
 156:app_lock.c    ****     memcpy(write_buff,Data,Length);
 472              		.loc 1 156 0
 473 0020 FB1C     		add	r3, r7, #3
 474 0022 1B78     		ldrb	r3, [r3]
 475 0024 0822     		mov	r2, #8
 476 0026 B918     		add	r1, r7, r2
 477 0028 7A68     		ldr	r2, [r7, #4]
 478 002a 081C     		mov	r0, r1
 479 002c 111C     		mov	r1, r2
 480 002e 1A1C     		mov	r2, r3
 481 0030 FFF7FEFF 		bl	memcpy
 157:app_lock.c    ****     CySysFlashWriteRow(SysCfg_FLASH_ROW, write_buff);
 482              		.loc 1 157 0
 483 0034 044A     		ldr	r2, .L31
 484 0036 0823     		mov	r3, #8
 485 0038 FB18     		add	r3, r7, r3
 486 003a 101C     		mov	r0, r2
 487 003c 191C     		mov	r1, r3
 488 003e FFF7FEFF 		bl	CySysFlashWriteRow
 158:app_lock.c    **** }
 489              		.loc 1 158 0
 490 0042 BD46     		mov	sp, r7
 491 0044 22B0     		add	sp, sp, #136
 492              		@ sp needed
 493 0046 80BD     		pop	{r7, pc}
 494              	.L32:
 495              		.align	2
 496              	.L31:
 497 0048 FE030000 		.word	1022
 498              		.cfi_endproc
 499              	.LFE36:
 500              		.size	Write_Flash, .-Write_Flash
 501              		.section	.text.Read_Flash,"ax",%progbits
 502              		.align	2
 503              		.global	Read_Flash
 504              		.code	16
 505              		.thumb_func
 506              		.type	Read_Flash, %function
 507              	Read_Flash:
 508              	.LFB37:
 159:app_lock.c    **** 
 160:app_lock.c    **** /***********************************************************
 161:app_lock.c    ****  * @function_name: void Read_Flash(uint32 Addr,uint8* Data,uint8 Length)
 162:app_lock.c    ****  * @描  述： 参数存储
 163:app_lock.c    **** ************************************************************/
 164:app_lock.c    **** void Read_Flash(uint32 Addr,uint8* Data,uint8 Length)
 165:app_lock.c    **** {
 509              		.loc 1 165 0
 510              		.cfi_startproc
ARM GAS  C:\Users\ADMINI~1.SC-\AppData\Local\Temp\ccy9rXlj.s 			page 13


 511 0000 80B5     		push	{r7, lr}
 512              		.cfi_def_cfa_offset 8
 513              		.cfi_offset 7, -8
 514              		.cfi_offset 14, -4
 515 0002 86B0     		sub	sp, sp, #24
 516              		.cfi_def_cfa_offset 32
 517 0004 00AF     		add	r7, sp, #0
 518              		.cfi_def_cfa_register 7
 519 0006 F860     		str	r0, [r7, #12]
 520 0008 B960     		str	r1, [r7, #8]
 521 000a FB1D     		add	r3, r7, #7
 522 000c 1A70     		strb	r2, [r3]
 166:app_lock.c    ****     uint8 i=0;
 523              		.loc 1 166 0
 524 000e 1723     		mov	r3, #23
 525 0010 FB18     		add	r3, r7, r3
 526 0012 0022     		mov	r2, #0
 527 0014 1A70     		strb	r2, [r3]
 167:app_lock.c    ****     for (i = 0; i < Length; i++)
 528              		.loc 1 167 0
 529 0016 1723     		mov	r3, #23
 530 0018 FB18     		add	r3, r7, r3
 531 001a 0022     		mov	r2, #0
 532 001c 1A70     		strb	r2, [r3]
 533 001e 11E0     		b	.L34
 534              	.L35:
 168:app_lock.c    ****     {
 169:app_lock.c    ****         *Data = (*((uint8 *) (Addr + i)));
 535              		.loc 1 169 0 discriminator 3
 536 0020 1723     		mov	r3, #23
 537 0022 FB18     		add	r3, r7, r3
 538 0024 1A78     		ldrb	r2, [r3]
 539 0026 FB68     		ldr	r3, [r7, #12]
 540 0028 D318     		add	r3, r2, r3
 541 002a 1A78     		ldrb	r2, [r3]
 542 002c BB68     		ldr	r3, [r7, #8]
 543 002e 1A70     		strb	r2, [r3]
 170:app_lock.c    ****         Data ++;
 544              		.loc 1 170 0 discriminator 3
 545 0030 BB68     		ldr	r3, [r7, #8]
 546 0032 0133     		add	r3, r3, #1
 547 0034 BB60     		str	r3, [r7, #8]
 167:app_lock.c    ****     for (i = 0; i < Length; i++)
 548              		.loc 1 167 0 discriminator 3
 549 0036 1723     		mov	r3, #23
 550 0038 FB18     		add	r3, r7, r3
 551 003a 1A78     		ldrb	r2, [r3]
 552 003c 1723     		mov	r3, #23
 553 003e FB18     		add	r3, r7, r3
 554 0040 0132     		add	r2, r2, #1
 555 0042 1A70     		strb	r2, [r3]
 556              	.L34:
 167:app_lock.c    ****     for (i = 0; i < Length; i++)
 557              		.loc 1 167 0 is_stmt 0 discriminator 1
 558 0044 1723     		mov	r3, #23
 559 0046 FA18     		add	r2, r7, r3
 560 0048 FB1D     		add	r3, r7, #7
ARM GAS  C:\Users\ADMINI~1.SC-\AppData\Local\Temp\ccy9rXlj.s 			page 14


 561 004a 1278     		ldrb	r2, [r2]
 562 004c 1B78     		ldrb	r3, [r3]
 563 004e 9A42     		cmp	r2, r3
 564 0050 E6D3     		bcc	.L35
 171:app_lock.c    ****     }
 172:app_lock.c    **** }
 565              		.loc 1 172 0 is_stmt 1
 566 0052 BD46     		mov	sp, r7
 567 0054 06B0     		add	sp, sp, #24
 568              		@ sp needed
 569 0056 80BD     		pop	{r7, pc}
 570              		.cfi_endproc
 571              	.LFE37:
 572              		.size	Read_Flash, .-Read_Flash
 573              		.section	.text.Power_Off,"ax",%progbits
 574              		.align	2
 575              		.global	Power_Off
 576              		.code	16
 577              		.thumb_func
 578              		.type	Power_Off, %function
 579              	Power_Off:
 580              	.LFB38:
 173:app_lock.c    **** 
 174:app_lock.c    **** /***********************************************************
 175:app_lock.c    ****  * @function_name: void Power_Off(void)
 176:app_lock.c    ****  * @描  述： 关机程序
 177:app_lock.c    **** ************************************************************/
 178:app_lock.c    **** void Power_Off(void)
 179:app_lock.c    **** {
 581              		.loc 1 179 0
 582              		.cfi_startproc
 583 0000 80B5     		push	{r7, lr}
 584              		.cfi_def_cfa_offset 8
 585              		.cfi_offset 7, -8
 586              		.cfi_offset 14, -4
 587 0002 00AF     		add	r7, sp, #0
 588              		.cfi_def_cfa_register 7
 180:app_lock.c    ****     Delay_Time.Delay_1s ++;
 589              		.loc 1 180 0
 590 0004 104B     		ldr	r3, .L38
 591 0006 DB88     		ldrh	r3, [r3, #6]
 592 0008 0133     		add	r3, r3, #1
 593 000a 9AB2     		uxth	r2, r3
 594 000c 0E4B     		ldr	r3, .L38
 595 000e DA80     		strh	r2, [r3, #6]
 181:app_lock.c    ****     if(Delay_Time.Delay_1s > 1000)       //1S
 596              		.loc 1 181 0
 597 0010 0D4B     		ldr	r3, .L38
 598 0012 DA88     		ldrh	r2, [r3, #6]
 599 0014 FA23     		mov	r3, #250
 600 0016 9B00     		lsl	r3, r3, #2
 601 0018 9A42     		cmp	r2, r3
 602 001a 12D9     		bls	.L36
 182:app_lock.c    ****     {
 183:app_lock.c    ****         Delay_Time.Delay_1s = 0;
 603              		.loc 1 183 0
 604 001c 0A4B     		ldr	r3, .L38
ARM GAS  C:\Users\ADMINI~1.SC-\AppData\Local\Temp\ccy9rXlj.s 			page 15


 605 001e 0022     		mov	r2, #0
 606 0020 DA80     		strh	r2, [r3, #6]
 184:app_lock.c    ****         Delay_Time.Delay_1min ++;
 607              		.loc 1 184 0
 608 0022 094B     		ldr	r3, .L38
 609 0024 1B89     		ldrh	r3, [r3, #8]
 610 0026 0133     		add	r3, r3, #1
 611 0028 9AB2     		uxth	r2, r3
 612 002a 074B     		ldr	r3, .L38
 613 002c 1A81     		strh	r2, [r3, #8]
 185:app_lock.c    ****         if(Delay_Time.Delay_1min >= 120)
 614              		.loc 1 185 0
 615 002e 064B     		ldr	r3, .L38
 616 0030 1B89     		ldrh	r3, [r3, #8]
 617 0032 772B     		cmp	r3, #119
 618 0034 05D9     		bls	.L36
 186:app_lock.c    ****         {
 187:app_lock.c    ****             Delay_Time.Delay_1min = 0;
 619              		.loc 1 187 0
 620 0036 044B     		ldr	r3, .L38
 621 0038 0022     		mov	r2, #0
 622 003a 1A81     		strh	r2, [r3, #8]
 188:app_lock.c    ****             POWERON_OUT_Write(LOW);
 623              		.loc 1 188 0
 624 003c 0020     		mov	r0, #0
 625 003e FFF7FEFF 		bl	POWERON_OUT_Write
 626              	.L36:
 189:app_lock.c    ****         }
 190:app_lock.c    ****     }
 191:app_lock.c    **** }
 627              		.loc 1 191 0
 628 0042 BD46     		mov	sp, r7
 629              		@ sp needed
 630 0044 80BD     		pop	{r7, pc}
 631              	.L39:
 632 0046 C046     		.align	2
 633              	.L38:
 634 0048 00000000 		.word	Delay_Time
 635              		.cfi_endproc
 636              	.LFE38:
 637              		.size	Power_Off, .-Power_Off
 638              		.section	.text.Load_Config,"ax",%progbits
 639              		.align	2
 640              		.global	Load_Config
 641              		.code	16
 642              		.thumb_func
 643              		.type	Load_Config, %function
 644              	Load_Config:
 645              	.LFB39:
 192:app_lock.c    **** 
 193:app_lock.c    **** /***********************************************************
 194:app_lock.c    ****  * @function_name: void Load_Config(void)
 195:app_lock.c    ****  * @描  述： 参数存储
 196:app_lock.c    **** ************************************************************/
 197:app_lock.c    **** void Load_Config(void)
 198:app_lock.c    **** {
 646              		.loc 1 198 0
ARM GAS  C:\Users\ADMINI~1.SC-\AppData\Local\Temp\ccy9rXlj.s 			page 16


 647              		.cfi_startproc
 648 0000 90B5     		push	{r4, r7, lr}
 649              		.cfi_def_cfa_offset 12
 650              		.cfi_offset 4, -12
 651              		.cfi_offset 7, -8
 652              		.cfi_offset 14, -4
 653 0002 83B0     		sub	sp, sp, #12
 654              		.cfi_def_cfa_offset 24
 655 0004 00AF     		add	r7, sp, #0
 656              		.cfi_def_cfa_register 7
 199:app_lock.c    ****     uint8 sum;
 200:app_lock.c    **** 
 201:app_lock.c    ****     Read_Flash(SysCfg_FLASH_ADDR, (uint8 *)&System_Config, sizeof(System_Config));
 657              		.loc 1 201 0
 658 0006 374A     		ldr	r2, .L42
 659 0008 374B     		ldr	r3, .L42+4
 660 000a 101C     		mov	r0, r2
 661 000c 191C     		mov	r1, r3
 662 000e 2622     		mov	r2, #38
 663 0010 FFF7FEFF 		bl	Read_Flash
 202:app_lock.c    ****     sum = CRC_Sum((uint8 *)&System_Config, sizeof(System_Config)-1);
 664              		.loc 1 202 0
 665 0014 FC1D     		add	r4, r7, #7
 666 0016 344B     		ldr	r3, .L42+4
 667 0018 181C     		mov	r0, r3
 668 001a 2521     		mov	r1, #37
 669 001c FFF7FEFF 		bl	CRC_Sum
 670 0020 031C     		mov	r3, r0
 671 0022 2370     		strb	r3, [r4]
 203:app_lock.c    ****     if(sum != System_Config.sum)
 672              		.loc 1 203 0
 673 0024 304B     		ldr	r3, .L42+4
 674 0026 2522     		mov	r2, #37
 675 0028 9B5C     		ldrb	r3, [r3, r2]
 676 002a FA1D     		add	r2, r7, #7
 677 002c 1278     		ldrb	r2, [r2]
 678 002e 9A42     		cmp	r2, r3
 679 0030 54D0     		beq	.L40
 204:app_lock.c    ****     {
 205:app_lock.c    ****         memcpy(System_Config.ManageKey,Manage_Key,16);
 680              		.loc 1 205 0
 681 0032 2D4B     		ldr	r3, .L42+4
 682 0034 2D4A     		ldr	r2, .L42+8
 683 0036 13CA     		ldmia	r2!, {r0, r1, r4}
 684 0038 13C3     		stmia	r3!, {r0, r1, r4}
 685 003a 1268     		ldr	r2, [r2]
 686 003c 1A60     		str	r2, [r3]
 206:app_lock.c    ****         System_Config.DeviceID[0] = 0x01;
 687              		.loc 1 206 0
 688 003e 2A4B     		ldr	r3, .L42+4
 689 0040 0122     		mov	r2, #1
 690 0042 1A74     		strb	r2, [r3, #16]
 207:app_lock.c    ****         System_Config.DeviceID[1] = 0x02;
 691              		.loc 1 207 0
 692 0044 284B     		ldr	r3, .L42+4
 693 0046 0222     		mov	r2, #2
 694 0048 5A74     		strb	r2, [r3, #17]
ARM GAS  C:\Users\ADMINI~1.SC-\AppData\Local\Temp\ccy9rXlj.s 			page 17


 208:app_lock.c    ****         System_Config.DeviceID[2] = 0x03;
 695              		.loc 1 208 0
 696 004a 274B     		ldr	r3, .L42+4
 697 004c 0322     		mov	r2, #3
 698 004e 9A74     		strb	r2, [r3, #18]
 209:app_lock.c    ****         System_Config.DeviceID[3] = 0x04;
 699              		.loc 1 209 0
 700 0050 254B     		ldr	r3, .L42+4
 701 0052 0422     		mov	r2, #4
 702 0054 DA74     		strb	r2, [r3, #19]
 210:app_lock.c    ****         
 211:app_lock.c    ****         System_Config.root_key[0] = 0xa0;
 703              		.loc 1 211 0
 704 0056 244B     		ldr	r3, .L42+4
 705 0058 A022     		mov	r2, #160
 706 005a 1A75     		strb	r2, [r3, #20]
 212:app_lock.c    ****         System_Config.root_key[1] = 0xa1;
 707              		.loc 1 212 0
 708 005c 224B     		ldr	r3, .L42+4
 709 005e A122     		mov	r2, #161
 710 0060 5A75     		strb	r2, [r3, #21]
 213:app_lock.c    ****         System_Config.root_key[2] = 0xa2;
 711              		.loc 1 213 0
 712 0062 214B     		ldr	r3, .L42+4
 713 0064 A222     		mov	r2, #162
 714 0066 9A75     		strb	r2, [r3, #22]
 214:app_lock.c    ****         System_Config.root_key[3] = 0xa3;
 715              		.loc 1 214 0
 716 0068 1F4B     		ldr	r3, .L42+4
 717 006a A322     		mov	r2, #163
 718 006c DA75     		strb	r2, [r3, #23]
 215:app_lock.c    ****         System_Config.root_key[4] = 0xa4;
 719              		.loc 1 215 0
 720 006e 1E4B     		ldr	r3, .L42+4
 721 0070 A422     		mov	r2, #164
 722 0072 1A76     		strb	r2, [r3, #24]
 216:app_lock.c    ****         System_Config.root_key[5] = 0xa5;
 723              		.loc 1 216 0
 724 0074 1C4B     		ldr	r3, .L42+4
 725 0076 A522     		mov	r2, #165
 726 0078 5A76     		strb	r2, [r3, #25]
 217:app_lock.c    ****         System_Config.root_key[6] = 0xa6;
 727              		.loc 1 217 0
 728 007a 1B4B     		ldr	r3, .L42+4
 729 007c A622     		mov	r2, #166
 730 007e 9A76     		strb	r2, [r3, #26]
 218:app_lock.c    ****         System_Config.root_key[7] = 0xa7;
 731              		.loc 1 218 0
 732 0080 194B     		ldr	r3, .L42+4
 733 0082 A722     		mov	r2, #167
 734 0084 DA76     		strb	r2, [r3, #27]
 219:app_lock.c    ****         
 220:app_lock.c    ****         System_Config.ctrl_key[0] = 0xb0;
 735              		.loc 1 220 0
 736 0086 184B     		ldr	r3, .L42+4
 737 0088 B022     		mov	r2, #176
 738 008a 1A77     		strb	r2, [r3, #28]
ARM GAS  C:\Users\ADMINI~1.SC-\AppData\Local\Temp\ccy9rXlj.s 			page 18


 221:app_lock.c    ****         System_Config.ctrl_key[1] = 0xb1;
 739              		.loc 1 221 0
 740 008c 164B     		ldr	r3, .L42+4
 741 008e B122     		mov	r2, #177
 742 0090 5A77     		strb	r2, [r3, #29]
 222:app_lock.c    ****         System_Config.ctrl_key[2] = 0xb2;
 743              		.loc 1 222 0
 744 0092 154B     		ldr	r3, .L42+4
 745 0094 B222     		mov	r2, #178
 746 0096 9A77     		strb	r2, [r3, #30]
 223:app_lock.c    ****         System_Config.ctrl_key[3] = 0xb3;
 747              		.loc 1 223 0
 748 0098 134B     		ldr	r3, .L42+4
 749 009a B322     		mov	r2, #179
 750 009c DA77     		strb	r2, [r3, #31]
 224:app_lock.c    ****         System_Config.ctrl_key[4] = 0xb4;
 751              		.loc 1 224 0
 752 009e 124B     		ldr	r3, .L42+4
 753 00a0 2022     		mov	r2, #32
 754 00a2 B421     		mov	r1, #180
 755 00a4 9954     		strb	r1, [r3, r2]
 225:app_lock.c    ****         System_Config.ctrl_key[5] = 0xb5;
 756              		.loc 1 225 0
 757 00a6 104B     		ldr	r3, .L42+4
 758 00a8 2122     		mov	r2, #33
 759 00aa B521     		mov	r1, #181
 760 00ac 9954     		strb	r1, [r3, r2]
 226:app_lock.c    ****         System_Config.ctrl_key[6] = 0xb6;
 761              		.loc 1 226 0
 762 00ae 0E4B     		ldr	r3, .L42+4
 763 00b0 2222     		mov	r2, #34
 764 00b2 B621     		mov	r1, #182
 765 00b4 9954     		strb	r1, [r3, r2]
 227:app_lock.c    ****         System_Config.ctrl_key[7] = 0xb7;
 766              		.loc 1 227 0
 767 00b6 0C4B     		ldr	r3, .L42+4
 768 00b8 2322     		mov	r2, #35
 769 00ba B721     		mov	r1, #183
 770 00bc 9954     		strb	r1, [r3, r2]
 228:app_lock.c    ****         
 229:app_lock.c    ****         System_Config.sum = CRC_Sum((uint8 *)&System_Config,sizeof(System_Config)-1);
 771              		.loc 1 229 0
 772 00be 0A4B     		ldr	r3, .L42+4
 773 00c0 181C     		mov	r0, r3
 774 00c2 2521     		mov	r1, #37
 775 00c4 FFF7FEFF 		bl	CRC_Sum
 776 00c8 031C     		mov	r3, r0
 777 00ca 191C     		mov	r1, r3
 778 00cc 064B     		ldr	r3, .L42+4
 779 00ce 2522     		mov	r2, #37
 780 00d0 9954     		strb	r1, [r3, r2]
 230:app_lock.c    ****         Write_Flash((uint8 *)&System_Config, sizeof(System_Config));
 781              		.loc 1 230 0
 782 00d2 054B     		ldr	r3, .L42+4
 783 00d4 181C     		mov	r0, r3
 784 00d6 2621     		mov	r1, #38
 785 00d8 FFF7FEFF 		bl	Write_Flash
ARM GAS  C:\Users\ADMINI~1.SC-\AppData\Local\Temp\ccy9rXlj.s 			page 19


 786              	.L40:
 231:app_lock.c    ****     }
 232:app_lock.c    **** }
 787              		.loc 1 232 0
 788 00dc BD46     		mov	sp, r7
 789 00de 03B0     		add	sp, sp, #12
 790              		@ sp needed
 791 00e0 90BD     		pop	{r4, r7, pc}
 792              	.L43:
 793 00e2 C046     		.align	2
 794              	.L42:
 795 00e4 00FF0100 		.word	130816
 796 00e8 00000000 		.word	System_Config
 797 00ec 00000000 		.word	Manage_Key
 798              		.cfi_endproc
 799              	.LFE39:
 800              		.size	Load_Config, .-Load_Config
 801              		.text
 802              	.Letext0:
 803              		.file 2 "Generated_Source\\PSoC4/cytypes.h"
 804              		.file 3 "app_lock.h"
 805              		.file 4 "Generated_Source\\PSoC4/BLE_Stack.h"