ARM GAS  C:\Users\ADMINI~1.SC-\AppData\Local\Temp\cceVp8or.s 			page 1


   1              		.cpu cortex-m0
   2              		.fpu softvfp
   3              		.eabi_attribute 20, 1
   4              		.eabi_attribute 21, 1
   5              		.eabi_attribute 23, 3
   6              		.eabi_attribute 24, 1
   7              		.eabi_attribute 25, 1
   8              		.eabi_attribute 26, 1
   9              		.eabi_attribute 30, 6
  10              		.eabi_attribute 34, 0
  11              		.eabi_attribute 18, 4
  12              		.code	16
  13              		.file	"app_Com.c"
  14              		.text
  15              	.Ltext0:
  16              		.cfi_sections	.debug_frame
  17              		.comm	Com_Array,118,4
  18              		.comm	App_Key,8,4
  19              		.global	Own_Key
  20              		.data
  21              		.align	2
  22              		.type	Own_Key, %object
  23              		.size	Own_Key, 8
  24              	Own_Key:
  25 0000 01       		.byte	1
  26 0001 03       		.byte	3
  27 0002 05       		.byte	5
  28 0003 07       		.byte	7
  29 0004 05       		.byte	5
  30 0005 03       		.byte	3
  31 0006 01       		.byte	1
  32 0007 07       		.byte	7
  33              		.comm	Target_Key,8,4
  34              		.section	.text.Com_Recv_Prov,"ax",%progbits
  35              		.align	2
  36              		.global	Com_Recv_Prov
  37              		.code	16
  38              		.thumb_func
  39              		.type	Com_Recv_Prov, %function
  40              	Com_Recv_Prov:
  41              	.LFB35:
  42              		.file 1 "app_Com.c"
   1:app_Com.c     **** /* ========================================
   2:app_Com.c     ****  *
   3:app_Com.c     ****  * Copyright YOUR COMPANY, THE YEAR
   4:app_Com.c     ****  * All Rights Reserved
   5:app_Com.c     ****  * UNPUBLISHED, LICENSED SOFTWARE.
   6:app_Com.c     ****  *
   7:app_Com.c     ****  * CONFIDENTIAL AND PROPRIETARY INFORMATION
   8:app_Com.c     ****  * WHICH IS THE PROPERTY OF your company.
   9:app_Com.c     ****  *
  10:app_Com.c     ****  * ========================================
  11:app_Com.c     **** */
  12:app_Com.c     **** #include "app_Com.h"
  13:app_Com.c     **** #include "app_protocol.h"
  14:app_Com.c     **** #include "app_lock.h"
  15:app_Com.c     **** #include "Rc4.h"
ARM GAS  C:\Users\ADMINI~1.SC-\AppData\Local\Temp\cceVp8or.s 			page 2


  16:app_Com.c     **** 
  17:app_Com.c     **** ComArray Com_Array;
  18:app_Com.c     **** uint8 App_Key[8];
  19:app_Com.c     **** uint8 Own_Key[8] = {0x01,0x03,0x05,0x07,0x05,0x03,0x01,0x07};
  20:app_Com.c     **** uint8 Target_Key[8];
  21:app_Com.c     **** /***********************************************
  22:app_Com.c     **** * å‡½æ•°åï¼švoid Com_Recv_Prov(void)
  23:app_Com.c     **** * æè¿°  ï¼šå¤„ç†ä¸²å£æŽ¥æ”¶æŒ‡ä»¤
  24:app_Com.c     **** ***********************************************/
  25:app_Com.c     **** void Com_Recv_Prov(void)
  26:app_Com.c     **** {
  43              		.loc 1 26 0
  44              		.cfi_startproc
  45 0000 90B5     		push	{r4, r7, lr}
  46              		.cfi_def_cfa_offset 12
  47              		.cfi_offset 4, -12
  48              		.cfi_offset 7, -8
  49              		.cfi_offset 14, -4
  50 0002 83B0     		sub	sp, sp, #12
  51              		.cfi_def_cfa_offset 24
  52 0004 00AF     		add	r7, sp, #0
  53              		.cfi_def_cfa_register 7
  27:app_Com.c     ****     uint8 Cmd;
  28:app_Com.c     ****     uint16 Rec_CRC,Check_CRC;
  29:app_Com.c     ****        
  30:app_Com.c     ****     if(Com_Array.Rx_Flag)
  54              		.loc 1 30 0
  55 0006 7A4B     		ldr	r3, .L18
  56 0008 6922     		mov	r2, #105
  57 000a 9B5C     		ldrb	r3, [r3, r2]
  58 000c 002B     		cmp	r3, #0
  59 000e 00D1     		bne	.LCB17
  60 0010 A9E0     		b	.L2	@long jump
  61              	.LCB17:
  31:app_Com.c     ****     {
  32:app_Com.c     ****         Com_Array.Rx_Flag = 0;
  62              		.loc 1 32 0
  63 0012 774B     		ldr	r3, .L18
  64 0014 6922     		mov	r2, #105
  65 0016 0021     		mov	r1, #0
  66 0018 9954     		strb	r1, [r3, r2]
  33:app_Com.c     ****         Delay_Time.Delay_1s = 0;
  67              		.loc 1 33 0
  68 001a 764B     		ldr	r3, .L18+4
  69 001c 0022     		mov	r2, #0
  70 001e DA80     		strh	r2, [r3, #6]
  34:app_Com.c     ****         Delay_Time.Delay_1min = 0;
  71              		.loc 1 34 0
  72 0020 744B     		ldr	r3, .L18+4
  73 0022 0022     		mov	r2, #0
  74 0024 1A81     		strh	r2, [r3, #8]
  35:app_Com.c     ****         Rec_CRC = Com_Array.Rx_buff[Com_Array.Rx_Length - 2] *256 + Com_Array.Rx_buff[Com_Array.Rx_
  75              		.loc 1 35 0
  76 0026 724B     		ldr	r3, .L18
  77 0028 6422     		mov	r2, #100
  78 002a 9B5C     		ldrb	r3, [r3, r2]
  79 002c 023B     		sub	r3, r3, #2
ARM GAS  C:\Users\ADMINI~1.SC-\AppData\Local\Temp\cceVp8or.s 			page 3


  80 002e 704A     		ldr	r2, .L18
  81 0030 D35C     		ldrb	r3, [r2, r3]
  82 0032 9BB2     		uxth	r3, r3
  83 0034 1B02     		lsl	r3, r3, #8
  84 0036 99B2     		uxth	r1, r3
  85 0038 6D4B     		ldr	r3, .L18
  86 003a 6422     		mov	r2, #100
  87 003c 9B5C     		ldrb	r3, [r3, r2]
  88 003e 013B     		sub	r3, r3, #1
  89 0040 6B4A     		ldr	r2, .L18
  90 0042 D35C     		ldrb	r3, [r2, r3]
  91 0044 9AB2     		uxth	r2, r3
  92 0046 BB1D     		add	r3, r7, #6
  93 0048 8A18     		add	r2, r1, r2
  94 004a 1A80     		strh	r2, [r3]
  36:app_Com.c     ****         Check_CRC = comCalCRC16(Com_Array.Rx_buff,Com_Array.Rx_Length - 2);
  95              		.loc 1 36 0
  96 004c 684B     		ldr	r3, .L18
  97 004e 6422     		mov	r2, #100
  98 0050 9B5C     		ldrb	r3, [r3, r2]
  99 0052 023B     		sub	r3, r3, #2
 100 0054 DBB2     		uxtb	r3, r3
 101 0056 3C1D     		add	r4, r7, #4
 102 0058 654A     		ldr	r2, .L18
 103 005a 101C     		mov	r0, r2
 104 005c 191C     		mov	r1, r3
 105 005e FFF7FEFF 		bl	comCalCRC16
 106 0062 031C     		mov	r3, r0
 107 0064 2380     		strh	r3, [r4]
  37:app_Com.c     ****         if(Rec_CRC == Check_CRC)
 108              		.loc 1 37 0
 109 0066 BA1D     		add	r2, r7, #6
 110 0068 3B1D     		add	r3, r7, #4
 111 006a 1288     		ldrh	r2, [r2]
 112 006c 1B88     		ldrh	r3, [r3]
 113 006e 9A42     		cmp	r2, r3
 114 0070 73D1     		bne	.L3
  38:app_Com.c     ****         {
  39:app_Com.c     ****             Cmd = Com_Array.Rx_buff[0];
 115              		.loc 1 39 0
 116 0072 FB1C     		add	r3, r7, #3
 117 0074 5E4A     		ldr	r2, .L18
 118 0076 1278     		ldrb	r2, [r2]
 119 0078 1A70     		strb	r2, [r3]
  40:app_Com.c     ****             switch(Cmd)
 120              		.loc 1 40 0
 121 007a FB1C     		add	r3, r7, #3
 122 007c 1B78     		ldrb	r3, [r3]
 123 007e 0A2B     		cmp	r3, #10
 124 0080 68D8     		bhi	.L17
 125 0082 9A00     		lsl	r2, r3, #2
 126 0084 5C4B     		ldr	r3, .L18+8
 127 0086 D318     		add	r3, r2, r3
 128 0088 1B68     		ldr	r3, [r3]
 129 008a 9F46     		mov	pc, r3
 130              		.section	.rodata
 131              		.align	2
ARM GAS  C:\Users\ADMINI~1.SC-\AppData\Local\Temp\cceVp8or.s 			page 4


 132              	.L6:
 133 0000 54010000 		.word	.L17
 134 0004 8C000000 		.word	.L5
 135 0008 54010000 		.word	.L17
 136 000c F4000000 		.word	.L7
 137 0010 EA000000 		.word	.L8
 138 0014 54010000 		.word	.L17
 139 0018 20010000 		.word	.L9
 140 001c 2A010000 		.word	.L10
 141 0020 54010000 		.word	.L17
 142 0024 54010000 		.word	.L17
 143 0028 54010000 		.word	.L17
 144              		.section	.text.Com_Recv_Prov
 145              	.L5:
  41:app_Com.c     ****             {
  42:app_Com.c     ****                 case REQUEST_DEVICE_CMD:    //  è¯·æ±‚è®¾å¤‡ä¿¡æ¯
  43:app_Com.c     ****                     Delay_Time.Ask_Lock_Delay  = 0;
 146              		.loc 1 43 0
 147 008c 594B     		ldr	r3, .L18+4
 148 008e 0022     		mov	r2, #0
 149 0090 5A80     		strh	r2, [r3, #2]
  44:app_Com.c     ****                     Flag.Begin_Ask_Lock = 0;
 150              		.loc 1 44 0
 151 0092 5A4B     		ldr	r3, .L18+12
 152 0094 1A78     		ldrb	r2, [r3]
 153 0096 1021     		mov	r1, #16
 154 0098 8A43     		bic	r2, r1
 155 009a 1A70     		strb	r2, [r3]
  45:app_Com.c     ****                     Delay_Time.NoLock_Count = 0;
 156              		.loc 1 45 0
 157 009c 554B     		ldr	r3, .L18+4
 158 009e 0022     		mov	r2, #0
 159 00a0 1A71     		strb	r2, [r3, #4]
  46:app_Com.c     ****                     memcpy(Lock_Info.DeviceID,Com_Array.Rx_buff+3,4);
 160              		.loc 1 46 0
 161 00a2 5749     		ldr	r1, .L18+16
 162 00a4 524B     		ldr	r3, .L18
 163 00a6 0322     		mov	r2, #3
 164 00a8 9B18     		add	r3, r3, r2
 165 00aa 0422     		mov	r2, #4
 166 00ac 081C     		mov	r0, r1
 167 00ae 191C     		mov	r1, r3
 168 00b0 FFF7FEFF 		bl	memcpy
  47:app_Com.c     ****                     memcpy(Lock_Info.Version,Com_Array.Rx_buff+7,2);
 169              		.loc 1 47 0
 170 00b4 524A     		ldr	r2, .L18+16
 171 00b6 4E4B     		ldr	r3, .L18
 172 00b8 0721     		mov	r1, #7
 173 00ba 0432     		add	r2, r2, #4
 174 00bc 5B18     		add	r3, r3, r1
 175 00be 0224     		mov	r4, #2
 176 00c0 101C     		mov	r0, r2
 177 00c2 191C     		mov	r1, r3
 178 00c4 221C     		mov	r2, r4
 179 00c6 FFF7FEFF 		bl	memcpy
  48:app_Com.c     ****                     Lock_Info.InitState = Com_Array.Rx_buff[9];
 180              		.loc 1 48 0
ARM GAS  C:\Users\ADMINI~1.SC-\AppData\Local\Temp\cceVp8or.s 			page 5


 181 00ca 494B     		ldr	r3, .L18
 182 00cc 5A7A     		ldrb	r2, [r3, #9]
 183 00ce 4C4B     		ldr	r3, .L18+16
 184 00d0 9A71     		strb	r2, [r3, #6]
  49:app_Com.c     ****                     if(Flag.Open_Lock_Success == 0)     
 185              		.loc 1 49 0
 186 00d2 4A4B     		ldr	r3, .L18+12
 187 00d4 1B78     		ldrb	r3, [r3]
 188 00d6 0822     		mov	r2, #8
 189 00d8 1340     		and	r3, r2
 190 00da DBB2     		uxtb	r3, r3
 191 00dc 002B     		cmp	r3, #0
 192 00de 03D1     		bne	.L12
  50:app_Com.c     ****                     {
  51:app_Com.c     ****                         packetTXStep = Send_Lock_Info;
 193              		.loc 1 51 0
 194 00e0 484B     		ldr	r3, .L18+20
 195 00e2 0122     		mov	r2, #1
 196 00e4 1A70     		strb	r2, [r3]
  52:app_Com.c     ****                     }
  53:app_Com.c     ****                     break;
 197              		.loc 1 53 0
 198 00e6 36E0     		b	.L13
 199              	.L12:
 200 00e8 35E0     		b	.L13
 201              	.L8:
  54:app_Com.c     ****                 
  55:app_Com.c     ****                 case CHECK_CODE_CMD:
  56:app_Com.c     ****                     Com_Array.Tx_State = SWAP_KEY;
 202              		.loc 1 56 0
 203 00ea 414B     		ldr	r3, .L18
 204 00ec 6C22     		mov	r2, #108
 205 00ee 0621     		mov	r1, #6
 206 00f0 9954     		strb	r1, [r3, r2]
  57:app_Com.c     ****                     break;
 207              		.loc 1 57 0
 208 00f2 30E0     		b	.L13
 209              	.L7:
  58:app_Com.c     ****                 
  59:app_Com.c     ****                 case SWAP_KEY_CMD:
  60:app_Com.c     ****                     rc4_encrypt(Own_Key,KEY_LEN,Com_Array.Rx_buff + 2,10);		//key1è§£å¯†
 210              		.loc 1 60 0
 211 00f4 444A     		ldr	r2, .L18+24
 212 00f6 454B     		ldr	r3, .L18+28
 213 00f8 101C     		mov	r0, r2
 214 00fa 0821     		mov	r1, #8
 215 00fc 1A1C     		mov	r2, r3
 216 00fe 0A23     		mov	r3, #10
 217 0100 FFF7FEFF 		bl	rc4_encrypt
  61:app_Com.c     ****                     memcpy(Target_Key,&Com_Array.Rx_buff[2],8);
 218              		.loc 1 61 0
 219 0104 4249     		ldr	r1, .L18+32
 220 0106 3A4B     		ldr	r3, .L18
 221 0108 0222     		mov	r2, #2
 222 010a 9B18     		add	r3, r3, r2
 223 010c 0822     		mov	r2, #8
 224 010e 081C     		mov	r0, r1
ARM GAS  C:\Users\ADMINI~1.SC-\AppData\Local\Temp\cceVp8or.s 			page 6


 225 0110 191C     		mov	r1, r3
 226 0112 FFF7FEFF 		bl	memcpy
  62:app_Com.c     ****                     Com_Array.Tx_State = REQUEST_INDEX;
 227              		.loc 1 62 0
 228 0116 364B     		ldr	r3, .L18
 229 0118 6C22     		mov	r2, #108
 230 011a 0721     		mov	r1, #7
 231 011c 9954     		strb	r1, [r3, r2]
  63:app_Com.c     ****                     break;
 232              		.loc 1 63 0
 233 011e 1AE0     		b	.L13
 234              	.L9:
  64:app_Com.c     ****                 
  65:app_Com.c     ****                 case REQUEST_LOCK_INDEX:    // è¯·æ±‚é”æ£€ç´¢å·
  66:app_Com.c     ****                     Com_Array.Tx_State = OPEN_LOCK;
 235              		.loc 1 66 0
 236 0120 334B     		ldr	r3, .L18
 237 0122 6C22     		mov	r2, #108
 238 0124 0821     		mov	r1, #8
 239 0126 9954     		strb	r1, [r3, r2]
  67:app_Com.c     ****                     break;
 240              		.loc 1 67 0
 241 0128 15E0     		b	.L13
 242              	.L10:
  68:app_Com.c     ****                 
  69:app_Com.c     ****                 case OPEN_LOCK_CMD:
  70:app_Com.c     ****                     Com_Array.Tx_State = IDLE;
 243              		.loc 1 70 0
 244 012a 314B     		ldr	r3, .L18
 245 012c 6C22     		mov	r2, #108
 246 012e 0021     		mov	r1, #0
 247 0130 9954     		strb	r1, [r3, r2]
  71:app_Com.c     ****                     packetTXStep = Reply_OpenLock;
 248              		.loc 1 71 0
 249 0132 344B     		ldr	r3, .L18+20
 250 0134 0222     		mov	r2, #2
 251 0136 1A70     		strb	r2, [r3]
  72:app_Com.c     ****                     Flag.Alarm_Work_Step = EVENT_2;
 252              		.loc 1 72 0
 253 0138 304B     		ldr	r3, .L18+12
 254 013a 1A78     		ldrb	r2, [r3]
 255 013c 0721     		mov	r1, #7
 256 013e 8A43     		bic	r2, r1
 257 0140 111C     		add	r1, r2, #0
 258 0142 0222     		mov	r2, #2
 259 0144 0A43     		orr	r2, r1
 260 0146 1A70     		strb	r2, [r3]
  73:app_Com.c     ****                     Flag.Open_Lock_Success = 1;
 261              		.loc 1 73 0
 262 0148 2C4B     		ldr	r3, .L18+12
 263 014a 1A78     		ldrb	r2, [r3]
 264 014c 0821     		mov	r1, #8
 265 014e 0A43     		orr	r2, r1
 266 0150 1A70     		strb	r2, [r3]
  74:app_Com.c     ****                     break;
 267              		.loc 1 74 0
 268 0152 00E0     		b	.L13
ARM GAS  C:\Users\ADMINI~1.SC-\AppData\Local\Temp\cceVp8or.s 			page 7


 269              	.L17:
  75:app_Com.c     ****      
  76:app_Com.c     ****                 case SET_LOCK_ID:
  77:app_Com.c     ****                     break;
  78:app_Com.c     ****                     
  79:app_Com.c     ****                 default:
  80:app_Com.c     ****                     break;
 270              		.loc 1 80 0
 271 0154 C046     		mov	r8, r8
 272              	.L13:
  81:app_Com.c     ****             }
  82:app_Com.c     ****             
  83:app_Com.c     ****             key_touch_lock_flag_set(); //è®¾ç½®å¼€é”è¯·æ±‚æ ‡è¯†
 273              		.loc 1 83 0
 274 0156 FFF7FEFF 		bl	key_touch_lock_flag_set
 275              	.L3:
  84:app_Com.c     ****         }
  85:app_Com.c     ****         memset(Com_Array.Rx_buff,0,sizeof(Com_Array.Rx_buff));
 276              		.loc 1 85 0
 277 015a 254B     		ldr	r3, .L18
 278 015c 181C     		mov	r0, r3
 279 015e 0021     		mov	r1, #0
 280 0160 2822     		mov	r2, #40
 281 0162 FFF7FEFF 		bl	memset
 282              	.L2:
  86:app_Com.c     ****     }
  87:app_Com.c     ****     
  88:app_Com.c     ****     if(Com_Array.Rx_Delay > 100)
 283              		.loc 1 88 0
 284 0166 224B     		ldr	r3, .L18
 285 0168 6822     		mov	r2, #104
 286 016a 9B5C     		ldrb	r3, [r3, r2]
 287 016c 642B     		cmp	r3, #100
 288 016e 11D9     		bls	.L14
  89:app_Com.c     ****     {
  90:app_Com.c     ****         Com_Array.Rx_Delay = 0;
 289              		.loc 1 90 0
 290 0170 1F4B     		ldr	r3, .L18
 291 0172 6822     		mov	r2, #104
 292 0174 0021     		mov	r1, #0
 293 0176 9954     		strb	r1, [r3, r2]
  91:app_Com.c     ****         Com_Array.Rx_Begin_Flag = 0;
 294              		.loc 1 91 0
 295 0178 1D4B     		ldr	r3, .L18
 296 017a 6722     		mov	r2, #103
 297 017c 0021     		mov	r1, #0
 298 017e 9954     		strb	r1, [r3, r2]
  92:app_Com.c     ****         Com_Array.Rx_Count = 0;
 299              		.loc 1 92 0
 300 0180 1B4B     		ldr	r3, .L18
 301 0182 6522     		mov	r2, #101
 302 0184 0021     		mov	r1, #0
 303 0186 9954     		strb	r1, [r3, r2]
  93:app_Com.c     ****         memset(Com_Array.Rx_buff,0,sizeof(Com_Array.Rx_buff));
 304              		.loc 1 93 0
 305 0188 194B     		ldr	r3, .L18
 306 018a 181C     		mov	r0, r3
ARM GAS  C:\Users\ADMINI~1.SC-\AppData\Local\Temp\cceVp8or.s 			page 8


 307 018c 0021     		mov	r1, #0
 308 018e 2822     		mov	r2, #40
 309 0190 FFF7FEFF 		bl	memset
 310              	.L14:
  94:app_Com.c     ****     }
  95:app_Com.c     ****     
  96:app_Com.c     ****     if(Flag.Begin_Ask_Lock)
 311              		.loc 1 96 0
 312 0194 194B     		ldr	r3, .L18+12
 313 0196 1B78     		ldrb	r3, [r3]
 314 0198 1022     		mov	r2, #16
 315 019a 1340     		and	r3, r2
 316 019c DBB2     		uxtb	r3, r3
 317 019e 002B     		cmp	r3, #0
 318 01a0 23D0     		beq	.L1
  97:app_Com.c     ****     {
  98:app_Com.c     ****         Delay_Time.Ask_Lock_Delay ++;
 319              		.loc 1 98 0
 320 01a2 144B     		ldr	r3, .L18+4
 321 01a4 5B88     		ldrh	r3, [r3, #2]
 322 01a6 0133     		add	r3, r3, #1
 323 01a8 9AB2     		uxth	r2, r3
 324 01aa 124B     		ldr	r3, .L18+4
 325 01ac 5A80     		strh	r2, [r3, #2]
  99:app_Com.c     ****         if(Delay_Time.Ask_Lock_Delay > 100) //100ç§’æ²¡æœ‰åº”ç­”
 326              		.loc 1 99 0
 327 01ae 114B     		ldr	r3, .L18+4
 328 01b0 5B88     		ldrh	r3, [r3, #2]
 329 01b2 642B     		cmp	r3, #100
 330 01b4 0DD9     		bls	.L16
 100:app_Com.c     ****         {
 101:app_Com.c     ****             Delay_Time.Ask_Lock_Delay = 0;
 331              		.loc 1 101 0
 332 01b6 0F4B     		ldr	r3, .L18+4
 333 01b8 0022     		mov	r2, #0
 334 01ba 5A80     		strh	r2, [r3, #2]
 102:app_Com.c     ****             Delay_Time.NoLock_Count ++;
 335              		.loc 1 102 0
 336 01bc 0D4B     		ldr	r3, .L18+4
 337 01be 1B79     		ldrb	r3, [r3, #4]
 338 01c0 0133     		add	r3, r3, #1
 339 01c2 DAB2     		uxtb	r2, r3
 340 01c4 0B4B     		ldr	r3, .L18+4
 341 01c6 1A71     		strb	r2, [r3, #4]
 103:app_Com.c     ****             //Flag.Open_Lock_Success = 0;
 104:app_Com.c     ****             Flag.Begin_Ask_Lock = 0;
 342              		.loc 1 104 0
 343 01c8 0C4B     		ldr	r3, .L18+12
 344 01ca 1A78     		ldrb	r2, [r3]
 345 01cc 1021     		mov	r1, #16
 346 01ce 8A43     		bic	r2, r1
 347 01d0 1A70     		strb	r2, [r3]
 348              	.L16:
 105:app_Com.c     ****         }
 106:app_Com.c     ****         if(Delay_Time.NoLock_Count >=3)
 349              		.loc 1 106 0
 350 01d2 084B     		ldr	r3, .L18+4
ARM GAS  C:\Users\ADMINI~1.SC-\AppData\Local\Temp\cceVp8or.s 			page 9


 351 01d4 1B79     		ldrb	r3, [r3, #4]
 352 01d6 022B     		cmp	r3, #2
 353 01d8 07D9     		bls	.L1
 107:app_Com.c     ****         {
 108:app_Com.c     ****             Delay_Time.NoLock_Count = 0;
 354              		.loc 1 108 0
 355 01da 064B     		ldr	r3, .L18+4
 356 01dc 0022     		mov	r2, #0
 357 01de 1A71     		strb	r2, [r3, #4]
 109:app_Com.c     ****             Flag.Open_Lock_Success = 0;
 358              		.loc 1 109 0
 359 01e0 064B     		ldr	r3, .L18+12
 360 01e2 1A78     		ldrb	r2, [r3]
 361 01e4 0821     		mov	r1, #8
 362 01e6 8A43     		bic	r2, r1
 363 01e8 1A70     		strb	r2, [r3]
 364              	.L1:
 110:app_Com.c     ****         }
 111:app_Com.c     ****     }
 112:app_Com.c     **** }
 365              		.loc 1 112 0
 366 01ea BD46     		mov	sp, r7
 367 01ec 03B0     		add	sp, sp, #12
 368              		@ sp needed
 369 01ee 90BD     		pop	{r4, r7, pc}
 370              	.L19:
 371              		.align	2
 372              	.L18:
 373 01f0 00000000 		.word	Com_Array
 374 01f4 00000000 		.word	Delay_Time
 375 01f8 00000000 		.word	.L6
 376 01fc 00000000 		.word	Flag
 377 0200 00000000 		.word	Lock_Info
 378 0204 00000000 		.word	packetTXStep
 379 0208 00000000 		.word	Own_Key
 380 020c 02000000 		.word	Com_Array+2
 381 0210 00000000 		.word	Target_Key
 382              		.cfi_endproc
 383              	.LFE35:
 384              		.size	Com_Recv_Prov, .-Com_Recv_Prov
 385              		.section	.text.Com_Send_Prov,"ax",%progbits
 386              		.align	2
 387              		.global	Com_Send_Prov
 388              		.code	16
 389              		.thumb_func
 390              		.type	Com_Send_Prov, %function
 391              	Com_Send_Prov:
 392              	.LFB36:
 113:app_Com.c     **** 
 114:app_Com.c     **** /***********************************************
 115:app_Com.c     **** * å‡½æ•°åï¼švoid Com_Send_Prov(void)
 116:app_Com.c     **** * æè¿°  ï¼šä¸²å£å‘é€æ•°æ®
 117:app_Com.c     **** ***********************************************/
 118:app_Com.c     **** void Com_Send_Prov(void)
 119:app_Com.c     **** {
 393              		.loc 1 119 0
 394              		.cfi_startproc
ARM GAS  C:\Users\ADMINI~1.SC-\AppData\Local\Temp\cceVp8or.s 			page 10


 395 0000 80B5     		push	{r7, lr}
 396              		.cfi_def_cfa_offset 8
 397              		.cfi_offset 7, -8
 398              		.cfi_offset 14, -4
 399 0002 00AF     		add	r7, sp, #0
 400              		.cfi_def_cfa_register 7
 120:app_Com.c     ****     switch (Com_Array.Tx_State)
 401              		.loc 1 120 0
 402 0004 524B     		ldr	r3, .L39
 403 0006 6C22     		mov	r2, #108
 404 0008 9B5C     		ldrb	r3, [r3, r2]
 405 000a 112B     		cmp	r3, #17
 406 000c 00D9     		bls	.LCB320
 407 000e 9BE0     		b	.L38	@long jump
 408              	.LCB320:
 409 0010 9A00     		lsl	r2, r3, #2
 410 0012 504B     		ldr	r3, .L39+4
 411 0014 D318     		add	r3, r2, r3
 412 0016 1B68     		ldr	r3, [r3]
 413 0018 9F46     		mov	pc, r3
 414              		.section	.rodata
 415              		.align	2
 416              	.L23:
 417 002c 48010000 		.word	.L38
 418 0030 7C000000 		.word	.L24
 419 0034 48010000 		.word	.L38
 420 0038 AC000000 		.word	.L25
 421 003c 48010000 		.word	.L38
 422 0040 10010000 		.word	.L26
 423 0044 1E010000 		.word	.L27
 424 0048 2C010000 		.word	.L28
 425 004c 3A010000 		.word	.L29
 426 0050 48010000 		.word	.L38
 427 0054 48010000 		.word	.L38
 428 0058 48010000 		.word	.L38
 429 005c 48010000 		.word	.L38
 430 0060 48010000 		.word	.L38
 431 0064 48010000 		.word	.L38
 432 0068 48010000 		.word	.L38
 433 006c 1A000000 		.word	.L30
 434 0070 52000000 		.word	.L31
 435              		.section	.text.Com_Send_Prov
 436              	.L30:
 121:app_Com.c     ****     {
 122:app_Com.c     ****     case IDLE:	//ç©ºé—²
 123:app_Com.c     ****         break;   
 124:app_Com.c     ****         
 125:app_Com.c     ****     case RE_REQUEST:
 126:app_Com.c     ****         Com_Array.Tx_Wait ++;
 437              		.loc 1 126 0
 438 001a 4D4B     		ldr	r3, .L39
 439 001c 6E22     		mov	r2, #110
 440 001e 9B5A     		ldrh	r3, [r3, r2]
 441 0020 0133     		add	r3, r3, #1
 442 0022 99B2     		uxth	r1, r3
 443 0024 4A4B     		ldr	r3, .L39
 444 0026 6E22     		mov	r2, #110
ARM GAS  C:\Users\ADMINI~1.SC-\AppData\Local\Temp\cceVp8or.s 			page 11


 445 0028 9952     		strh	r1, [r3, r2]
 127:app_Com.c     ****         if(Com_Array.Tx_Wait >= 300)      //500msæŸ¥è¯¢ä¸€æ¬¡
 446              		.loc 1 127 0
 447 002a 494B     		ldr	r3, .L39
 448 002c 6E22     		mov	r2, #110
 449 002e 9A5A     		ldrh	r2, [r3, r2]
 450 0030 2C23     		mov	r3, #44
 451 0032 FF33     		add	r3, r3, #255
 452 0034 9A42     		cmp	r2, r3
 453 0036 0BD9     		bls	.L33
 128:app_Com.c     ****         {
 129:app_Com.c     ****             Com_Array.Tx_Wait  = 0;
 454              		.loc 1 129 0
 455 0038 454B     		ldr	r3, .L39
 456 003a 6E22     		mov	r2, #110
 457 003c 0021     		mov	r1, #0
 458 003e 9952     		strh	r1, [r3, r2]
 130:app_Com.c     ****             Request_Device_Info(); 
 459              		.loc 1 130 0
 460 0040 FFF7FEFF 		bl	Request_Device_Info
 131:app_Com.c     ****             Flag.Begin_Ask_Lock = 1;
 461              		.loc 1 131 0
 462 0044 444B     		ldr	r3, .L39+8
 463 0046 1A78     		ldrb	r2, [r3]
 464 0048 1021     		mov	r1, #16
 465 004a 0A43     		orr	r2, r1
 466 004c 1A70     		strb	r2, [r3]
 132:app_Com.c     ****         }
 133:app_Com.c     ****         break;
 467              		.loc 1 133 0
 468 004e 7CE0     		b	.L20
 469              	.L33:
 470 0050 7BE0     		b	.L20
 471              	.L31:
 134:app_Com.c     ****         
 135:app_Com.c     ****     case RE_CHECKCODE:
 136:app_Com.c     ****         Com_Array.Tx_Wait ++;
 472              		.loc 1 136 0
 473 0052 3F4B     		ldr	r3, .L39
 474 0054 6E22     		mov	r2, #110
 475 0056 9B5A     		ldrh	r3, [r3, r2]
 476 0058 0133     		add	r3, r3, #1
 477 005a 99B2     		uxth	r1, r3
 478 005c 3C4B     		ldr	r3, .L39
 479 005e 6E22     		mov	r2, #110
 480 0060 9952     		strh	r1, [r3, r2]
 137:app_Com.c     ****         if (Com_Array.Tx_Wait  >= 100)
 481              		.loc 1 137 0
 482 0062 3B4B     		ldr	r3, .L39
 483 0064 6E22     		mov	r2, #110
 484 0066 9B5A     		ldrh	r3, [r3, r2]
 485 0068 632B     		cmp	r3, #99
 486 006a 06D9     		bls	.L34
 138:app_Com.c     ****         {
 139:app_Com.c     ****             Com_Array.Tx_Wait  = 0;
 487              		.loc 1 139 0
 488 006c 384B     		ldr	r3, .L39
ARM GAS  C:\Users\ADMINI~1.SC-\AppData\Local\Temp\cceVp8or.s 			page 12


 489 006e 6E22     		mov	r2, #110
 490 0070 0021     		mov	r1, #0
 491 0072 9952     		strh	r1, [r3, r2]
 140:app_Com.c     ****             Check_Code(); 
 492              		.loc 1 140 0
 493 0074 FFF7FEFF 		bl	Check_Code
 141:app_Com.c     ****         }
 142:app_Com.c     ****         break;        
 494              		.loc 1 142 0
 495 0078 67E0     		b	.L20
 496              	.L34:
 497 007a 66E0     		b	.L20
 498              	.L24:
 143:app_Com.c     ****         
 144:app_Com.c     ****     case SEND_DELAY:	//æ­£åœ¨å‘é€ç­‰å¾…
 145:app_Com.c     ****         Com_Array.Tx_Wait ++;
 499              		.loc 1 145 0
 500 007c 344B     		ldr	r3, .L39
 501 007e 6E22     		mov	r2, #110
 502 0080 9B5A     		ldrh	r3, [r3, r2]
 503 0082 0133     		add	r3, r3, #1
 504 0084 99B2     		uxth	r1, r3
 505 0086 324B     		ldr	r3, .L39
 506 0088 6E22     		mov	r2, #110
 507 008a 9952     		strh	r1, [r3, r2]
 146:app_Com.c     ****         if (Com_Array.Tx_Wait  >= 1000)
 508              		.loc 1 146 0
 509 008c 304B     		ldr	r3, .L39
 510 008e 6E22     		mov	r2, #110
 511 0090 9B5A     		ldrh	r3, [r3, r2]
 512 0092 324A     		ldr	r2, .L39+12
 513 0094 9342     		cmp	r3, r2
 514 0096 08D9     		bls	.L35
 147:app_Com.c     ****         {
 148:app_Com.c     ****             Com_Array.Tx_Wait  = 0;
 515              		.loc 1 148 0
 516 0098 2D4B     		ldr	r3, .L39
 517 009a 6E22     		mov	r2, #110
 518 009c 0021     		mov	r1, #0
 519 009e 9952     		strh	r1, [r3, r2]
 149:app_Com.c     ****             Com_Array.Tx_State = RE_SEND;
 520              		.loc 1 149 0
 521 00a0 2B4B     		ldr	r3, .L39
 522 00a2 6C22     		mov	r2, #108
 523 00a4 0321     		mov	r1, #3
 524 00a6 9954     		strb	r1, [r3, r2]
 150:app_Com.c     ****         }
 151:app_Com.c     ****         break;
 525              		.loc 1 151 0
 526 00a8 4FE0     		b	.L20
 527              	.L35:
 528 00aa 4EE0     		b	.L20
 529              	.L25:
 152:app_Com.c     **** 
 153:app_Com.c     ****     case RE_SEND:	//é‡å‘
 154:app_Com.c     ****         Com_Array.Tx_Wait ++;
 530              		.loc 1 154 0
ARM GAS  C:\Users\ADMINI~1.SC-\AppData\Local\Temp\cceVp8or.s 			page 13


 531 00ac 284B     		ldr	r3, .L39
 532 00ae 6E22     		mov	r2, #110
 533 00b0 9B5A     		ldrh	r3, [r3, r2]
 534 00b2 0133     		add	r3, r3, #1
 535 00b4 99B2     		uxth	r1, r3
 536 00b6 264B     		ldr	r3, .L39
 537 00b8 6E22     		mov	r2, #110
 538 00ba 9952     		strh	r1, [r3, r2]
 155:app_Com.c     ****         if (Com_Array.Tx_Wait  >= 1000)
 539              		.loc 1 155 0
 540 00bc 244B     		ldr	r3, .L39
 541 00be 6E22     		mov	r2, #110
 542 00c0 9B5A     		ldrh	r3, [r3, r2]
 543 00c2 264A     		ldr	r2, .L39+12
 544 00c4 9342     		cmp	r3, r2
 545 00c6 22D9     		bls	.L36
 156:app_Com.c     ****         {
 157:app_Com.c     ****             Com_Array.Tx_Wait = 0;
 546              		.loc 1 157 0
 547 00c8 214B     		ldr	r3, .L39
 548 00ca 6E22     		mov	r2, #110
 549 00cc 0021     		mov	r1, #0
 550 00ce 9952     		strh	r1, [r3, r2]
 158:app_Com.c     ****             if (Com_Array.Tx_Count < 3)
 551              		.loc 1 158 0
 552 00d0 1F4B     		ldr	r3, .L39
 553 00d2 7022     		mov	r2, #112
 554 00d4 9B5C     		ldrb	r3, [r3, r2]
 555 00d6 022B     		cmp	r3, #2
 556 00d8 10D8     		bhi	.L37
 159:app_Com.c     ****             {
 160:app_Com.c     ****                 Com_Array.Tx_Count ++;
 557              		.loc 1 160 0
 558 00da 1D4B     		ldr	r3, .L39
 559 00dc 7022     		mov	r2, #112
 560 00de 9B5C     		ldrb	r3, [r3, r2]
 561 00e0 0133     		add	r3, r3, #1
 562 00e2 D9B2     		uxtb	r1, r3
 563 00e4 1A4B     		ldr	r3, .L39
 564 00e6 7022     		mov	r2, #112
 565 00e8 9954     		strb	r1, [r3, r2]
 161:app_Com.c     ****                 Send_Com(Com_Array.Tx_buff,Com_Array.Tx_Length);
 566              		.loc 1 161 0
 567 00ea 194B     		ldr	r3, .L39
 568 00ec 6B22     		mov	r2, #107
 569 00ee 9B5C     		ldrb	r3, [r3, r2]
 570 00f0 1B4A     		ldr	r2, .L39+16
 571 00f2 101C     		mov	r0, r2
 572 00f4 191C     		mov	r1, r3
 573 00f6 FFF7FEFF 		bl	Send_Com
 574 00fa 08E0     		b	.L36
 575              	.L37:
 162:app_Com.c     ****             }
 163:app_Com.c     ****             else
 164:app_Com.c     ****             {
 165:app_Com.c     ****                 Com_Array.Tx_Count = 0;
 576              		.loc 1 165 0
ARM GAS  C:\Users\ADMINI~1.SC-\AppData\Local\Temp\cceVp8or.s 			page 14


 577 00fc 144B     		ldr	r3, .L39
 578 00fe 7022     		mov	r2, #112
 579 0100 0021     		mov	r1, #0
 580 0102 9954     		strb	r1, [r3, r2]
 166:app_Com.c     ****                 Com_Array.Tx_State = RE_CHECKCODE;
 581              		.loc 1 166 0
 582 0104 124B     		ldr	r3, .L39
 583 0106 6C22     		mov	r2, #108
 584 0108 1121     		mov	r1, #17
 585 010a 9954     		strb	r1, [r3, r2]
 167:app_Com.c     ****             }
 168:app_Com.c     ****         }
 169:app_Com.c     ****         break;
 586              		.loc 1 169 0
 587 010c 1DE0     		b	.L20
 588              	.L36:
 589 010e 1CE0     		b	.L20
 590              	.L26:
 170:app_Com.c     ****         
 171:app_Com.c     ****     case CHECK_CODE:        //å¯¹ç 
 172:app_Com.c     ****         Check_Code();
 591              		.loc 1 172 0
 592 0110 FFF7FEFF 		bl	Check_Code
 173:app_Com.c     ****         Com_Array.Tx_State = SEND_DELAY;        
 593              		.loc 1 173 0
 594 0114 0E4B     		ldr	r3, .L39
 595 0116 6C22     		mov	r2, #108
 596 0118 0121     		mov	r1, #1
 597 011a 9954     		strb	r1, [r3, r2]
 174:app_Com.c     ****         break;
 598              		.loc 1 174 0
 599 011c 15E0     		b	.L20
 600              	.L27:
 175:app_Com.c     ****         
 176:app_Com.c     ****     case SWAP_KEY:          //äº¤æ¢å¯†é’¥
 177:app_Com.c     ****         Swap_Key();
 601              		.loc 1 177 0
 602 011e FFF7FEFF 		bl	Swap_Key
 178:app_Com.c     ****         Com_Array.Tx_State = SEND_DELAY;        
 603              		.loc 1 178 0
 604 0122 0B4B     		ldr	r3, .L39
 605 0124 6C22     		mov	r2, #108
 606 0126 0121     		mov	r1, #1
 607 0128 9954     		strb	r1, [r3, r2]
 179:app_Com.c     ****         break;
 608              		.loc 1 179 0
 609 012a 0EE0     		b	.L20
 610              	.L28:
 180:app_Com.c     ****         
 181:app_Com.c     ****     case REQUEST_INDEX:     //è¯·æ±‚ç´¢å¼•å·
 182:app_Com.c     ****         Request_Index();
 611              		.loc 1 182 0
 612 012c FFF7FEFF 		bl	Request_Index
 183:app_Com.c     ****         Com_Array.Tx_State = SEND_DELAY;        
 613              		.loc 1 183 0
 614 0130 074B     		ldr	r3, .L39
 615 0132 6C22     		mov	r2, #108
ARM GAS  C:\Users\ADMINI~1.SC-\AppData\Local\Temp\cceVp8or.s 			page 15


 616 0134 0121     		mov	r1, #1
 617 0136 9954     		strb	r1, [r3, r2]
 184:app_Com.c     ****         break;
 618              		.loc 1 184 0
 619 0138 07E0     		b	.L20
 620              	.L29:
 185:app_Com.c     ****         
 186:app_Com.c     ****     case OPEN_LOCK:         //å¼€é”
 187:app_Com.c     ****         Open_Lock();
 621              		.loc 1 187 0
 622 013a FFF7FEFF 		bl	Open_Lock
 188:app_Com.c     ****         Com_Array.Tx_State = SEND_DELAY;       
 623              		.loc 1 188 0
 624 013e 044B     		ldr	r3, .L39
 625 0140 6C22     		mov	r2, #108
 626 0142 0121     		mov	r1, #1
 627 0144 9954     		strb	r1, [r3, r2]
 189:app_Com.c     ****         break;
 628              		.loc 1 189 0
 629 0146 00E0     		b	.L20
 630              	.L38:
 190:app_Com.c     ****              
 191:app_Com.c     ****     default:
 192:app_Com.c     ****         break;
 631              		.loc 1 192 0
 632 0148 C046     		mov	r8, r8
 633              	.L20:
 193:app_Com.c     ****         
 194:app_Com.c     ****     }
 195:app_Com.c     **** }
 634              		.loc 1 195 0
 635 014a BD46     		mov	sp, r7
 636              		@ sp needed
 637 014c 80BD     		pop	{r7, pc}
 638              	.L40:
 639 014e C046     		.align	2
 640              	.L39:
 641 0150 00000000 		.word	Com_Array
 642 0154 2C000000 		.word	.L23
 643 0158 00000000 		.word	Flag
 644 015c E7030000 		.word	999
 645 0160 28000000 		.word	Com_Array+40
 646              		.cfi_endproc
 647              	.LFE36:
 648              		.size	Com_Send_Prov, .-Com_Send_Prov
 649              		.section	.text.Request_Device_Info,"ax",%progbits
 650              		.align	2
 651              		.global	Request_Device_Info
 652              		.code	16
 653              		.thumb_func
 654              		.type	Request_Device_Info, %function
 655              	Request_Device_Info:
 656              	.LFB37:
 196:app_Com.c     **** 
 197:app_Com.c     **** /***********************************************
 198:app_Com.c     **** * å‡½æ•°åï¼švoid Request_Device_Info(void)
 199:app_Com.c     **** * æè¿°  ï¼šè¯·æ±‚é”çš„è®¾å¤‡ä¿¡æ¯
ARM GAS  C:\Users\ADMINI~1.SC-\AppData\Local\Temp\cceVp8or.s 			page 16


 200:app_Com.c     **** ***********************************************/
 201:app_Com.c     **** void Request_Device_Info(void)
 202:app_Com.c     **** {
 657              		.loc 1 202 0
 658              		.cfi_startproc
 659 0000 90B5     		push	{r4, r7, lr}
 660              		.cfi_def_cfa_offset 12
 661              		.cfi_offset 4, -12
 662              		.cfi_offset 7, -8
 663              		.cfi_offset 14, -4
 664 0002 83B0     		sub	sp, sp, #12
 665              		.cfi_def_cfa_offset 24
 666 0004 00AF     		add	r7, sp, #0
 667              		.cfi_def_cfa_register 7
 203:app_Com.c     ****     uint16 crc;
 204:app_Com.c     ****     Com_Array.Tx_buff[0] = REQUEST_DEVICE_CMD;
 668              		.loc 1 204 0
 669 0006 164B     		ldr	r3, .L42
 670 0008 2822     		mov	r2, #40
 671 000a 0121     		mov	r1, #1
 672 000c 9954     		strb	r1, [r3, r2]
 205:app_Com.c     ****     Com_Array.Tx_buff[1] = 0;
 673              		.loc 1 205 0
 674 000e 144B     		ldr	r3, .L42
 675 0010 2922     		mov	r2, #41
 676 0012 0021     		mov	r1, #0
 677 0014 9954     		strb	r1, [r3, r2]
 206:app_Com.c     ****     crc = comCalCRC16(Com_Array.Tx_buff,2);
 678              		.loc 1 206 0
 679 0016 BC1D     		add	r4, r7, #6
 680 0018 124B     		ldr	r3, .L42+4
 681 001a 181C     		mov	r0, r3
 682 001c 0221     		mov	r1, #2
 683 001e FFF7FEFF 		bl	comCalCRC16
 684 0022 031C     		mov	r3, r0
 685 0024 2380     		strh	r3, [r4]
 207:app_Com.c     ****     
 208:app_Com.c     ****     Com_Array.Tx_buff[2] = crc / 256;
 686              		.loc 1 208 0
 687 0026 BB1D     		add	r3, r7, #6
 688 0028 1B88     		ldrh	r3, [r3]
 689 002a 1B0A     		lsr	r3, r3, #8
 690 002c 9BB2     		uxth	r3, r3
 691 002e D9B2     		uxtb	r1, r3
 692 0030 0B4B     		ldr	r3, .L42
 693 0032 2A22     		mov	r2, #42
 694 0034 9954     		strb	r1, [r3, r2]
 209:app_Com.c     ****     Com_Array.Tx_buff[3] = crc % 256;   
 695              		.loc 1 209 0
 696 0036 BB1D     		add	r3, r7, #6
 697 0038 1B88     		ldrh	r3, [r3]
 698 003a D9B2     		uxtb	r1, r3
 699 003c 084B     		ldr	r3, .L42
 700 003e 2B22     		mov	r2, #43
 701 0040 9954     		strb	r1, [r3, r2]
 210:app_Com.c     ****     Com_Array.Tx_Length = 4;
 702              		.loc 1 210 0
ARM GAS  C:\Users\ADMINI~1.SC-\AppData\Local\Temp\cceVp8or.s 			page 17


 703 0042 074B     		ldr	r3, .L42
 704 0044 6B22     		mov	r2, #107
 705 0046 0421     		mov	r1, #4
 706 0048 9954     		strb	r1, [r3, r2]
 211:app_Com.c     ****     Send_Com(Com_Array.Tx_buff,Com_Array.Tx_Length);
 707              		.loc 1 211 0
 708 004a 054B     		ldr	r3, .L42
 709 004c 6B22     		mov	r2, #107
 710 004e 9B5C     		ldrb	r3, [r3, r2]
 711 0050 044A     		ldr	r2, .L42+4
 712 0052 101C     		mov	r0, r2
 713 0054 191C     		mov	r1, r3
 714 0056 FFF7FEFF 		bl	Send_Com
 212:app_Com.c     **** }
 715              		.loc 1 212 0
 716 005a BD46     		mov	sp, r7
 717 005c 03B0     		add	sp, sp, #12
 718              		@ sp needed
 719 005e 90BD     		pop	{r4, r7, pc}
 720              	.L43:
 721              		.align	2
 722              	.L42:
 723 0060 00000000 		.word	Com_Array
 724 0064 28000000 		.word	Com_Array+40
 725              		.cfi_endproc
 726              	.LFE37:
 727              		.size	Request_Device_Info, .-Request_Device_Info
 728              		.section	.text.Check_Code,"ax",%progbits
 729              		.align	2
 730              		.global	Check_Code
 731              		.code	16
 732              		.thumb_func
 733              		.type	Check_Code, %function
 734              	Check_Code:
 735              	.LFB38:
 213:app_Com.c     **** 
 214:app_Com.c     **** /***********************************************
 215:app_Com.c     **** * å‡½æ•°åï¼švoid Check_Code(void)
 216:app_Com.c     **** * æè¿°  ï¼šå¯¹ç 
 217:app_Com.c     **** ***********************************************/
 218:app_Com.c     **** void Check_Code(void)
 219:app_Com.c     **** {
 736              		.loc 1 219 0
 737              		.cfi_startproc
 738 0000 90B5     		push	{r4, r7, lr}
 739              		.cfi_def_cfa_offset 12
 740              		.cfi_offset 4, -12
 741              		.cfi_offset 7, -8
 742              		.cfi_offset 14, -4
 743 0002 83B0     		sub	sp, sp, #12
 744              		.cfi_def_cfa_offset 24
 745 0004 00AF     		add	r7, sp, #0
 746              		.cfi_def_cfa_register 7
 220:app_Com.c     ****     uint16 crc;
 221:app_Com.c     ****     Com_Array.Tx_buff[0] = CHECK_CODE_CMD;
 747              		.loc 1 221 0
 748 0006 254B     		ldr	r3, .L45
ARM GAS  C:\Users\ADMINI~1.SC-\AppData\Local\Temp\cceVp8or.s 			page 18


 749 0008 2822     		mov	r2, #40
 750 000a 0421     		mov	r1, #4
 751 000c 9954     		strb	r1, [r3, r2]
 222:app_Com.c     ****     Com_Array.Tx_buff[1] = 2;
 752              		.loc 1 222 0
 753 000e 234B     		ldr	r3, .L45
 754 0010 2922     		mov	r2, #41
 755 0012 0221     		mov	r1, #2
 756 0014 9954     		strb	r1, [r3, r2]
 223:app_Com.c     ****     crc = comCalCRC16(Com_Array.Tx_buff,2);					//å†…éƒ¨æ•ˆéªŒç 
 757              		.loc 1 223 0
 758 0016 BC1D     		add	r4, r7, #6
 759 0018 214B     		ldr	r3, .L45+4
 760 001a 181C     		mov	r0, r3
 761 001c 0221     		mov	r1, #2
 762 001e FFF7FEFF 		bl	comCalCRC16
 763 0022 031C     		mov	r3, r0
 764 0024 2380     		strh	r3, [r4]
 224:app_Com.c     ****     Com_Array.Tx_buff[2] = crc / 256;
 765              		.loc 1 224 0
 766 0026 BB1D     		add	r3, r7, #6
 767 0028 1B88     		ldrh	r3, [r3]
 768 002a 1B0A     		lsr	r3, r3, #8
 769 002c 9BB2     		uxth	r3, r3
 770 002e D9B2     		uxtb	r1, r3
 771 0030 1A4B     		ldr	r3, .L45
 772 0032 2A22     		mov	r2, #42
 773 0034 9954     		strb	r1, [r3, r2]
 225:app_Com.c     ****     Com_Array.Tx_buff[3] = crc % 256; 
 774              		.loc 1 225 0
 775 0036 BB1D     		add	r3, r7, #6
 776 0038 1B88     		ldrh	r3, [r3]
 777 003a D9B2     		uxtb	r1, r3
 778 003c 174B     		ldr	r3, .L45
 779 003e 2B22     		mov	r2, #43
 780 0040 9954     		strb	r1, [r3, r2]
 226:app_Com.c     ****     
 227:app_Com.c     ****     rc4_encrypt(System_Config.ManageKey,MKEY_LEN,Com_Array.Tx_buff + 2, 2);			//ç®¡ç†ä¸­å¿ƒå¯†é’¥å
 781              		.loc 1 227 0
 782 0042 184A     		ldr	r2, .L45+8
 783 0044 184B     		ldr	r3, .L45+12
 784 0046 101C     		mov	r0, r2
 785 0048 1021     		mov	r1, #16
 786 004a 1A1C     		mov	r2, r3
 787 004c 0223     		mov	r3, #2
 788 004e FFF7FEFF 		bl	rc4_encrypt
 228:app_Com.c     ****     crc = comCalCRC16(Com_Array.Tx_buff,4);					//å¤–éƒ¨æ ¡éªŒ
 789              		.loc 1 228 0
 790 0052 BC1D     		add	r4, r7, #6
 791 0054 124B     		ldr	r3, .L45+4
 792 0056 181C     		mov	r0, r3
 793 0058 0421     		mov	r1, #4
 794 005a FFF7FEFF 		bl	comCalCRC16
 795 005e 031C     		mov	r3, r0
 796 0060 2380     		strh	r3, [r4]
 229:app_Com.c     ****     Com_Array.Tx_buff[4] = crc / 256;
 797              		.loc 1 229 0
ARM GAS  C:\Users\ADMINI~1.SC-\AppData\Local\Temp\cceVp8or.s 			page 19


 798 0062 BB1D     		add	r3, r7, #6
 799 0064 1B88     		ldrh	r3, [r3]
 800 0066 1B0A     		lsr	r3, r3, #8
 801 0068 9BB2     		uxth	r3, r3
 802 006a D9B2     		uxtb	r1, r3
 803 006c 0B4B     		ldr	r3, .L45
 804 006e 2C22     		mov	r2, #44
 805 0070 9954     		strb	r1, [r3, r2]
 230:app_Com.c     ****     Com_Array.Tx_buff[5] = crc % 256;     
 806              		.loc 1 230 0
 807 0072 BB1D     		add	r3, r7, #6
 808 0074 1B88     		ldrh	r3, [r3]
 809 0076 D9B2     		uxtb	r1, r3
 810 0078 084B     		ldr	r3, .L45
 811 007a 2D22     		mov	r2, #45
 812 007c 9954     		strb	r1, [r3, r2]
 231:app_Com.c     ****     Com_Array.Tx_Length = 6;    
 813              		.loc 1 231 0
 814 007e 074B     		ldr	r3, .L45
 815 0080 6B22     		mov	r2, #107
 816 0082 0621     		mov	r1, #6
 817 0084 9954     		strb	r1, [r3, r2]
 232:app_Com.c     ****     Send_Com(Com_Array.Tx_buff,Com_Array.Tx_Length);
 818              		.loc 1 232 0
 819 0086 054B     		ldr	r3, .L45
 820 0088 6B22     		mov	r2, #107
 821 008a 9B5C     		ldrb	r3, [r3, r2]
 822 008c 044A     		ldr	r2, .L45+4
 823 008e 101C     		mov	r0, r2
 824 0090 191C     		mov	r1, r3
 825 0092 FFF7FEFF 		bl	Send_Com
 233:app_Com.c     **** }
 826              		.loc 1 233 0
 827 0096 BD46     		mov	sp, r7
 828 0098 03B0     		add	sp, sp, #12
 829              		@ sp needed
 830 009a 90BD     		pop	{r4, r7, pc}
 831              	.L46:
 832              		.align	2
 833              	.L45:
 834 009c 00000000 		.word	Com_Array
 835 00a0 28000000 		.word	Com_Array+40
 836 00a4 00000000 		.word	System_Config
 837 00a8 2A000000 		.word	Com_Array+42
 838              		.cfi_endproc
 839              	.LFE38:
 840              		.size	Check_Code, .-Check_Code
 841              		.section	.text.Swap_Key,"ax",%progbits
 842              		.align	2
 843              		.global	Swap_Key
 844              		.code	16
 845              		.thumb_func
 846              		.type	Swap_Key, %function
 847              	Swap_Key:
 848              	.LFB39:
 234:app_Com.c     **** 
 235:app_Com.c     **** /***********************************************
ARM GAS  C:\Users\ADMINI~1.SC-\AppData\Local\Temp\cceVp8or.s 			page 20


 236:app_Com.c     **** * å‡½æ•°åï¼švoid Swap_Key(void)
 237:app_Com.c     **** * æè¿°  ï¼šäº¤æ¢å¯†é’¥
 238:app_Com.c     **** ***********************************************/
 239:app_Com.c     **** void Swap_Key(void)
 240:app_Com.c     **** {
 849              		.loc 1 240 0
 850              		.cfi_startproc
 851 0000 90B5     		push	{r4, r7, lr}
 852              		.cfi_def_cfa_offset 12
 853              		.cfi_offset 4, -12
 854              		.cfi_offset 7, -8
 855              		.cfi_offset 14, -4
 856 0002 83B0     		sub	sp, sp, #12
 857              		.cfi_def_cfa_offset 24
 858 0004 00AF     		add	r7, sp, #0
 859              		.cfi_def_cfa_register 7
 241:app_Com.c     ****     uint16 crc;
 242:app_Com.c     **** 
 243:app_Com.c     ****     Com_Array.Tx_buff[0] = SWAP_KEY_CMD;
 860              		.loc 1 243 0
 861 0006 2B4B     		ldr	r3, .L48
 862 0008 2822     		mov	r2, #40
 863 000a 0321     		mov	r1, #3
 864 000c 9954     		strb	r1, [r3, r2]
 244:app_Com.c     ****     Com_Array.Tx_buff[1] = 11;
 865              		.loc 1 244 0
 866 000e 294B     		ldr	r3, .L48
 867 0010 2922     		mov	r2, #41
 868 0012 0B21     		mov	r1, #11
 869 0014 9954     		strb	r1, [r3, r2]
 245:app_Com.c     ****     memcpy(Com_Array.Tx_buff + 2, Own_Key, 8);
 870              		.loc 1 245 0
 871 0016 274B     		ldr	r3, .L48
 872 0018 2A22     		mov	r2, #42
 873 001a 2749     		ldr	r1, .L48+4
 874 001c 9B18     		add	r3, r3, r2
 875 001e 0822     		mov	r2, #8
 876 0020 181C     		mov	r0, r3
 877 0022 FFF7FEFF 		bl	memcpy
 246:app_Com.c     ****     Com_Array.Tx_buff[10] = 0; 
 878              		.loc 1 246 0
 879 0026 234B     		ldr	r3, .L48
 880 0028 3222     		mov	r2, #50
 881 002a 0021     		mov	r1, #0
 882 002c 9954     		strb	r1, [r3, r2]
 247:app_Com.c     ****     crc = comCalCRC16(Com_Array.Tx_buff,11);					//å†…éƒ¨æ•ˆéªŒç 
 883              		.loc 1 247 0
 884 002e BC1D     		add	r4, r7, #6
 885 0030 224B     		ldr	r3, .L48+8
 886 0032 181C     		mov	r0, r3
 887 0034 0B21     		mov	r1, #11
 888 0036 FFF7FEFF 		bl	comCalCRC16
 889 003a 031C     		mov	r3, r0
 890 003c 2380     		strh	r3, [r4]
 248:app_Com.c     ****     Com_Array.Tx_buff[11] = crc / 256;
 891              		.loc 1 248 0
 892 003e BB1D     		add	r3, r7, #6
ARM GAS  C:\Users\ADMINI~1.SC-\AppData\Local\Temp\cceVp8or.s 			page 21


 893 0040 1B88     		ldrh	r3, [r3]
 894 0042 1B0A     		lsr	r3, r3, #8
 895 0044 9BB2     		uxth	r3, r3
 896 0046 D9B2     		uxtb	r1, r3
 897 0048 1A4B     		ldr	r3, .L48
 898 004a 3322     		mov	r2, #51
 899 004c 9954     		strb	r1, [r3, r2]
 249:app_Com.c     ****     Com_Array.Tx_buff[12] = crc % 256; 
 900              		.loc 1 249 0
 901 004e BB1D     		add	r3, r7, #6
 902 0050 1B88     		ldrh	r3, [r3]
 903 0052 D9B2     		uxtb	r1, r3
 904 0054 174B     		ldr	r3, .L48
 905 0056 3422     		mov	r2, #52
 906 0058 9954     		strb	r1, [r3, r2]
 250:app_Com.c     ****     
 251:app_Com.c     ****     rc4_encrypt(System_Config.ManageKey,MKEY_LEN,Com_Array.Tx_buff + 2, 11);			//ç®¡ç†ä¸­å¿ƒå¯†é’¥
 907              		.loc 1 251 0
 908 005a 194A     		ldr	r2, .L48+12
 909 005c 194B     		ldr	r3, .L48+16
 910 005e 101C     		mov	r0, r2
 911 0060 1021     		mov	r1, #16
 912 0062 1A1C     		mov	r2, r3
 913 0064 0B23     		mov	r3, #11
 914 0066 FFF7FEFF 		bl	rc4_encrypt
 252:app_Com.c     ****     crc = comCalCRC16(Com_Array.Tx_buff,13);					//å¤–éƒ¨æ ¡éªŒ
 915              		.loc 1 252 0
 916 006a BC1D     		add	r4, r7, #6
 917 006c 134B     		ldr	r3, .L48+8
 918 006e 181C     		mov	r0, r3
 919 0070 0D21     		mov	r1, #13
 920 0072 FFF7FEFF 		bl	comCalCRC16
 921 0076 031C     		mov	r3, r0
 922 0078 2380     		strh	r3, [r4]
 253:app_Com.c     ****     Com_Array.Tx_buff[13] = crc / 256;
 923              		.loc 1 253 0
 924 007a BB1D     		add	r3, r7, #6
 925 007c 1B88     		ldrh	r3, [r3]
 926 007e 1B0A     		lsr	r3, r3, #8
 927 0080 9BB2     		uxth	r3, r3
 928 0082 D9B2     		uxtb	r1, r3
 929 0084 0B4B     		ldr	r3, .L48
 930 0086 3522     		mov	r2, #53
 931 0088 9954     		strb	r1, [r3, r2]
 254:app_Com.c     ****     Com_Array.Tx_buff[14] = crc % 256;     
 932              		.loc 1 254 0
 933 008a BB1D     		add	r3, r7, #6
 934 008c 1B88     		ldrh	r3, [r3]
 935 008e D9B2     		uxtb	r1, r3
 936 0090 084B     		ldr	r3, .L48
 937 0092 3622     		mov	r2, #54
 938 0094 9954     		strb	r1, [r3, r2]
 255:app_Com.c     ****     Com_Array.Tx_Length = 15;    
 939              		.loc 1 255 0
 940 0096 074B     		ldr	r3, .L48
 941 0098 6B22     		mov	r2, #107
 942 009a 0F21     		mov	r1, #15
ARM GAS  C:\Users\ADMINI~1.SC-\AppData\Local\Temp\cceVp8or.s 			page 22


 943 009c 9954     		strb	r1, [r3, r2]
 256:app_Com.c     ****     Send_Com(Com_Array.Tx_buff,Com_Array.Tx_Length);    
 944              		.loc 1 256 0
 945 009e 054B     		ldr	r3, .L48
 946 00a0 6B22     		mov	r2, #107
 947 00a2 9B5C     		ldrb	r3, [r3, r2]
 948 00a4 054A     		ldr	r2, .L48+8
 949 00a6 101C     		mov	r0, r2
 950 00a8 191C     		mov	r1, r3
 951 00aa FFF7FEFF 		bl	Send_Com
 257:app_Com.c     **** }
 952              		.loc 1 257 0
 953 00ae BD46     		mov	sp, r7
 954 00b0 03B0     		add	sp, sp, #12
 955              		@ sp needed
 956 00b2 90BD     		pop	{r4, r7, pc}
 957              	.L49:
 958              		.align	2
 959              	.L48:
 960 00b4 00000000 		.word	Com_Array
 961 00b8 00000000 		.word	Own_Key
 962 00bc 28000000 		.word	Com_Array+40
 963 00c0 00000000 		.word	System_Config
 964 00c4 2A000000 		.word	Com_Array+42
 965              		.cfi_endproc
 966              	.LFE39:
 967              		.size	Swap_Key, .-Swap_Key
 968              		.section	.text.Request_Index,"ax",%progbits
 969              		.align	2
 970              		.global	Request_Index
 971              		.code	16
 972              		.thumb_func
 973              		.type	Request_Index, %function
 974              	Request_Index:
 975              	.LFB40:
 258:app_Com.c     **** 
 259:app_Com.c     **** /***********************************************
 260:app_Com.c     **** * å‡½æ•°åï¼švoid Request_Index(void)
 261:app_Com.c     **** * æè¿°  ï¼šè¯·æ±‚æ£€ç´¢å·
 262:app_Com.c     **** ***********************************************/
 263:app_Com.c     **** void Request_Index(void)
 264:app_Com.c     **** {
 976              		.loc 1 264 0
 977              		.cfi_startproc
 978 0000 90B5     		push	{r4, r7, lr}
 979              		.cfi_def_cfa_offset 12
 980              		.cfi_offset 4, -12
 981              		.cfi_offset 7, -8
 982              		.cfi_offset 14, -4
 983 0002 83B0     		sub	sp, sp, #12
 984              		.cfi_def_cfa_offset 24
 985 0004 00AF     		add	r7, sp, #0
 986              		.cfi_def_cfa_register 7
 265:app_Com.c     ****     uint16 crc;
 266:app_Com.c     ****     Com_Array.Tx_buff[0] = REQUEST_LOCK_INDEX;
 987              		.loc 1 266 0
 988 0006 254B     		ldr	r3, .L51
ARM GAS  C:\Users\ADMINI~1.SC-\AppData\Local\Temp\cceVp8or.s 			page 23


 989 0008 2822     		mov	r2, #40
 990 000a 0621     		mov	r1, #6
 991 000c 9954     		strb	r1, [r3, r2]
 267:app_Com.c     ****     Com_Array.Tx_buff[1] = 2;
 992              		.loc 1 267 0
 993 000e 234B     		ldr	r3, .L51
 994 0010 2922     		mov	r2, #41
 995 0012 0221     		mov	r1, #2
 996 0014 9954     		strb	r1, [r3, r2]
 268:app_Com.c     ****     crc = comCalCRC16(Com_Array.Tx_buff,2);
 997              		.loc 1 268 0
 998 0016 BC1D     		add	r4, r7, #6
 999 0018 214B     		ldr	r3, .L51+4
 1000 001a 181C     		mov	r0, r3
 1001 001c 0221     		mov	r1, #2
 1002 001e FFF7FEFF 		bl	comCalCRC16
 1003 0022 031C     		mov	r3, r0
 1004 0024 2380     		strh	r3, [r4]
 269:app_Com.c     ****     Com_Array.Tx_buff[2] = crc / 256;
 1005              		.loc 1 269 0
 1006 0026 BB1D     		add	r3, r7, #6
 1007 0028 1B88     		ldrh	r3, [r3]
 1008 002a 1B0A     		lsr	r3, r3, #8
 1009 002c 9BB2     		uxth	r3, r3
 1010 002e D9B2     		uxtb	r1, r3
 1011 0030 1A4B     		ldr	r3, .L51
 1012 0032 2A22     		mov	r2, #42
 1013 0034 9954     		strb	r1, [r3, r2]
 270:app_Com.c     ****     Com_Array.Tx_buff[3] = crc % 256;   
 1014              		.loc 1 270 0
 1015 0036 BB1D     		add	r3, r7, #6
 1016 0038 1B88     		ldrh	r3, [r3]
 1017 003a D9B2     		uxtb	r1, r3
 1018 003c 174B     		ldr	r3, .L51
 1019 003e 2B22     		mov	r2, #43
 1020 0040 9954     		strb	r1, [r3, r2]
 271:app_Com.c     ****     rc4_encrypt(Target_Key,KEY_LEN,Com_Array.Tx_buff + 2, 2);
 1021              		.loc 1 271 0
 1022 0042 184A     		ldr	r2, .L51+8
 1023 0044 184B     		ldr	r3, .L51+12
 1024 0046 101C     		mov	r0, r2
 1025 0048 0821     		mov	r1, #8
 1026 004a 1A1C     		mov	r2, r3
 1027 004c 0223     		mov	r3, #2
 1028 004e FFF7FEFF 		bl	rc4_encrypt
 272:app_Com.c     ****     crc = comCalCRC16(Com_Array.Tx_buff,4);
 1029              		.loc 1 272 0
 1030 0052 BC1D     		add	r4, r7, #6
 1031 0054 124B     		ldr	r3, .L51+4
 1032 0056 181C     		mov	r0, r3
 1033 0058 0421     		mov	r1, #4
 1034 005a FFF7FEFF 		bl	comCalCRC16
 1035 005e 031C     		mov	r3, r0
 1036 0060 2380     		strh	r3, [r4]
 273:app_Com.c     ****     Com_Array.Tx_buff[4] = crc / 256;
 1037              		.loc 1 273 0
 1038 0062 BB1D     		add	r3, r7, #6
ARM GAS  C:\Users\ADMINI~1.SC-\AppData\Local\Temp\cceVp8or.s 			page 24


 1039 0064 1B88     		ldrh	r3, [r3]
 1040 0066 1B0A     		lsr	r3, r3, #8
 1041 0068 9BB2     		uxth	r3, r3
 1042 006a D9B2     		uxtb	r1, r3
 1043 006c 0B4B     		ldr	r3, .L51
 1044 006e 2C22     		mov	r2, #44
 1045 0070 9954     		strb	r1, [r3, r2]
 274:app_Com.c     ****     Com_Array.Tx_buff[5] = crc % 256;      
 1046              		.loc 1 274 0
 1047 0072 BB1D     		add	r3, r7, #6
 1048 0074 1B88     		ldrh	r3, [r3]
 1049 0076 D9B2     		uxtb	r1, r3
 1050 0078 084B     		ldr	r3, .L51
 1051 007a 2D22     		mov	r2, #45
 1052 007c 9954     		strb	r1, [r3, r2]
 275:app_Com.c     ****     Com_Array.Tx_Length = 6;
 1053              		.loc 1 275 0
 1054 007e 074B     		ldr	r3, .L51
 1055 0080 6B22     		mov	r2, #107
 1056 0082 0621     		mov	r1, #6
 1057 0084 9954     		strb	r1, [r3, r2]
 276:app_Com.c     ****     Send_Com(Com_Array.Tx_buff,Com_Array.Tx_Length);
 1058              		.loc 1 276 0
 1059 0086 054B     		ldr	r3, .L51
 1060 0088 6B22     		mov	r2, #107
 1061 008a 9B5C     		ldrb	r3, [r3, r2]
 1062 008c 044A     		ldr	r2, .L51+4
 1063 008e 101C     		mov	r0, r2
 1064 0090 191C     		mov	r1, r3
 1065 0092 FFF7FEFF 		bl	Send_Com
 277:app_Com.c     **** }
 1066              		.loc 1 277 0
 1067 0096 BD46     		mov	sp, r7
 1068 0098 03B0     		add	sp, sp, #12
 1069              		@ sp needed
 1070 009a 90BD     		pop	{r4, r7, pc}
 1071              	.L52:
 1072              		.align	2
 1073              	.L51:
 1074 009c 00000000 		.word	Com_Array
 1075 00a0 28000000 		.word	Com_Array+40
 1076 00a4 00000000 		.word	Target_Key
 1077 00a8 2A000000 		.word	Com_Array+42
 1078              		.cfi_endproc
 1079              	.LFE40:
 1080              		.size	Request_Index, .-Request_Index
 1081              		.section	.rodata
 1082              		.align	2
 1083              	.LC0:
 1084 0074 07       		.byte	7
 1085 0075 E0       		.byte	-32
 1086 0076 0A       		.byte	10
 1087 0077 09       		.byte	9
 1088 0078 12       		.byte	18
 1089 0079 20       		.byte	32
 1090 007a 00       		.byte	0
 1091 007b 00       		.section	.text.Open_Lock,"ax",%progbits
ARM GAS  C:\Users\ADMINI~1.SC-\AppData\Local\Temp\cceVp8or.s 			page 25


 1092              		.align	2
 1093              		.global	Open_Lock
 1094              		.code	16
 1095              		.thumb_func
 1096              		.type	Open_Lock, %function
 1097              	Open_Lock:
 1098              	.LFB41:
 278:app_Com.c     **** 
 279:app_Com.c     **** /***********************************************
 280:app_Com.c     **** * å‡½æ•°åï¼švoid Open_Lock(void)
 281:app_Com.c     **** * æè¿°  ï¼šè¯·æ±‚æ£€ç´¢å·
 282:app_Com.c     **** ***********************************************/
 283:app_Com.c     **** void Open_Lock(void)
 284:app_Com.c     **** {
 1099              		.loc 1 284 0
 1100              		.cfi_startproc
 1101 0000 90B5     		push	{r4, r7, lr}
 1102              		.cfi_def_cfa_offset 12
 1103              		.cfi_offset 4, -12
 1104              		.cfi_offset 7, -8
 1105              		.cfi_offset 14, -4
 1106 0002 85B0     		sub	sp, sp, #20
 1107              		.cfi_def_cfa_offset 32
 1108 0004 00AF     		add	r7, sp, #0
 1109              		.cfi_def_cfa_register 7
 285:app_Com.c     ****     uint16 crc;
 286:app_Com.c     ****     uint8 Time[7] = {0x07,0xe0,0x0a,0x09,0x12,0x20,0x00};
 1110              		.loc 1 286 0
 1111 0006 3A1D     		add	r2, r7, #4
 1112 0008 404B     		ldr	r3, .L54
 1113 000a 111C     		mov	r1, r2
 1114 000c 1A1C     		mov	r2, r3
 1115 000e 0723     		mov	r3, #7
 1116 0010 081C     		mov	r0, r1
 1117 0012 111C     		mov	r1, r2
 1118 0014 1A1C     		mov	r2, r3
 1119 0016 FFF7FEFF 		bl	memcpy
 287:app_Com.c     ****     
 288:app_Com.c     ****     Com_Array.Tx_buff[0] = OPEN_LOCK_CMD;
 1120              		.loc 1 288 0
 1121 001a 3D4B     		ldr	r3, .L54+4
 1122 001c 2822     		mov	r2, #40
 1123 001e 0721     		mov	r1, #7
 1124 0020 9954     		strb	r1, [r3, r2]
 289:app_Com.c     ****     Com_Array.Tx_buff[1] = 32;
 1125              		.loc 1 289 0
 1126 0022 3B4B     		ldr	r3, .L54+4
 1127 0024 2922     		mov	r2, #41
 1128 0026 2021     		mov	r1, #32
 1129 0028 9954     		strb	r1, [r3, r2]
 290:app_Com.c     ****     
 291:app_Com.c     ****     memcpy(Com_Array.Tx_buff + 2,LockIdentify,16);
 1130              		.loc 1 291 0
 1131 002a 394B     		ldr	r3, .L54+4
 1132 002c 2A22     		mov	r2, #42
 1133 002e 3949     		ldr	r1, .L54+8
 1134 0030 9B18     		add	r3, r3, r2
ARM GAS  C:\Users\ADMINI~1.SC-\AppData\Local\Temp\cceVp8or.s 			page 26


 1135 0032 1022     		mov	r2, #16
 1136 0034 181C     		mov	r0, r3
 1137 0036 FFF7FEFF 		bl	memcpy
 292:app_Com.c     ****     memcpy(Com_Array.Tx_buff + 18,Time,7);
 1138              		.loc 1 292 0
 1139 003a 354B     		ldr	r3, .L54+4
 1140 003c 3A22     		mov	r2, #58
 1141 003e 391D     		add	r1, r7, #4
 1142 0040 9B18     		add	r3, r3, r2
 1143 0042 0722     		mov	r2, #7
 1144 0044 181C     		mov	r0, r3
 1145 0046 FFF7FEFF 		bl	memcpy
 293:app_Com.c     ****     memcpy(Com_Array.Tx_buff + 25,System_Config.DeviceID,4);
 1146              		.loc 1 293 0
 1147 004a 314A     		ldr	r2, .L54+4
 1148 004c 4121     		mov	r1, #65
 1149 004e 324B     		ldr	r3, .L54+12
 1150 0050 5218     		add	r2, r2, r1
 1151 0052 1033     		add	r3, r3, #16
 1152 0054 0424     		mov	r4, #4
 1153 0056 101C     		mov	r0, r2
 1154 0058 191C     		mov	r1, r3
 1155 005a 221C     		mov	r2, r4
 1156 005c FFF7FEFF 		bl	memcpy
 294:app_Com.c     **** 
 295:app_Com.c     ****     Com_Array.Tx_buff[25] = 0x00;
 1157              		.loc 1 295 0
 1158 0060 2B4B     		ldr	r3, .L54+4
 1159 0062 4122     		mov	r2, #65
 1160 0064 0021     		mov	r1, #0
 1161 0066 9954     		strb	r1, [r3, r2]
 296:app_Com.c     ****     Com_Array.Tx_buff[26] = 0x00;
 1162              		.loc 1 296 0
 1163 0068 294B     		ldr	r3, .L54+4
 1164 006a 4222     		mov	r2, #66
 1165 006c 0021     		mov	r1, #0
 1166 006e 9954     		strb	r1, [r3, r2]
 297:app_Com.c     ****     Com_Array.Tx_buff[31] = 0x01;
 1167              		.loc 1 297 0
 1168 0070 274B     		ldr	r3, .L54+4
 1169 0072 4722     		mov	r2, #71
 1170 0074 0121     		mov	r1, #1
 1171 0076 9954     		strb	r1, [r3, r2]
 298:app_Com.c     ****     crc = comCalCRC16(Com_Array.Tx_buff,32);
 1172              		.loc 1 298 0
 1173 0078 0E23     		mov	r3, #14
 1174 007a FC18     		add	r4, r7, r3
 1175 007c 274B     		ldr	r3, .L54+16
 1176 007e 181C     		mov	r0, r3
 1177 0080 2021     		mov	r1, #32
 1178 0082 FFF7FEFF 		bl	comCalCRC16
 1179 0086 031C     		mov	r3, r0
 1180 0088 2380     		strh	r3, [r4]
 299:app_Com.c     ****     Com_Array.Tx_buff[32] = crc / 256;
 1181              		.loc 1 299 0
 1182 008a 0E23     		mov	r3, #14
 1183 008c FB18     		add	r3, r7, r3
ARM GAS  C:\Users\ADMINI~1.SC-\AppData\Local\Temp\cceVp8or.s 			page 27


 1184 008e 1B88     		ldrh	r3, [r3]
 1185 0090 1B0A     		lsr	r3, r3, #8
 1186 0092 9BB2     		uxth	r3, r3
 1187 0094 D9B2     		uxtb	r1, r3
 1188 0096 1E4B     		ldr	r3, .L54+4
 1189 0098 4822     		mov	r2, #72
 1190 009a 9954     		strb	r1, [r3, r2]
 300:app_Com.c     ****     Com_Array.Tx_buff[33] = crc % 256;   
 1191              		.loc 1 300 0
 1192 009c 0E23     		mov	r3, #14
 1193 009e FB18     		add	r3, r7, r3
 1194 00a0 1B88     		ldrh	r3, [r3]
 1195 00a2 D9B2     		uxtb	r1, r3
 1196 00a4 1A4B     		ldr	r3, .L54+4
 1197 00a6 4922     		mov	r2, #73
 1198 00a8 9954     		strb	r1, [r3, r2]
 301:app_Com.c     ****     
 302:app_Com.c     ****     
 303:app_Com.c     ****     rc4_encrypt(Target_Key,KEY_LEN,Com_Array.Tx_buff + 2, 32);
 1199              		.loc 1 303 0
 1200 00aa 1D4A     		ldr	r2, .L54+20
 1201 00ac 1D4B     		ldr	r3, .L54+24
 1202 00ae 101C     		mov	r0, r2
 1203 00b0 0821     		mov	r1, #8
 1204 00b2 1A1C     		mov	r2, r3
 1205 00b4 2023     		mov	r3, #32
 1206 00b6 FFF7FEFF 		bl	rc4_encrypt
 304:app_Com.c     ****     crc = comCalCRC16(Com_Array.Tx_buff,34);
 1207              		.loc 1 304 0
 1208 00ba 0E23     		mov	r3, #14
 1209 00bc FC18     		add	r4, r7, r3
 1210 00be 174B     		ldr	r3, .L54+16
 1211 00c0 181C     		mov	r0, r3
 1212 00c2 2221     		mov	r1, #34
 1213 00c4 FFF7FEFF 		bl	comCalCRC16
 1214 00c8 031C     		mov	r3, r0
 1215 00ca 2380     		strh	r3, [r4]
 305:app_Com.c     ****     Com_Array.Tx_buff[34] = crc / 256;
 1216              		.loc 1 305 0
 1217 00cc 0E23     		mov	r3, #14
 1218 00ce FB18     		add	r3, r7, r3
 1219 00d0 1B88     		ldrh	r3, [r3]
 1220 00d2 1B0A     		lsr	r3, r3, #8
 1221 00d4 9BB2     		uxth	r3, r3
 1222 00d6 D9B2     		uxtb	r1, r3
 1223 00d8 0D4B     		ldr	r3, .L54+4
 1224 00da 4A22     		mov	r2, #74
 1225 00dc 9954     		strb	r1, [r3, r2]
 306:app_Com.c     ****     Com_Array.Tx_buff[35] = crc % 256;      
 1226              		.loc 1 306 0
 1227 00de 0E23     		mov	r3, #14
 1228 00e0 FB18     		add	r3, r7, r3
 1229 00e2 1B88     		ldrh	r3, [r3]
 1230 00e4 D9B2     		uxtb	r1, r3
 1231 00e6 0A4B     		ldr	r3, .L54+4
 1232 00e8 4B22     		mov	r2, #75
 1233 00ea 9954     		strb	r1, [r3, r2]
ARM GAS  C:\Users\ADMINI~1.SC-\AppData\Local\Temp\cceVp8or.s 			page 28


 307:app_Com.c     ****     Com_Array.Tx_Length = 36;
 1234              		.loc 1 307 0
 1235 00ec 084B     		ldr	r3, .L54+4
 1236 00ee 6B22     		mov	r2, #107
 1237 00f0 2421     		mov	r1, #36
 1238 00f2 9954     		strb	r1, [r3, r2]
 308:app_Com.c     ****     Send_Com(Com_Array.Tx_buff,Com_Array.Tx_Length);    
 1239              		.loc 1 308 0
 1240 00f4 064B     		ldr	r3, .L54+4
 1241 00f6 6B22     		mov	r2, #107
 1242 00f8 9B5C     		ldrb	r3, [r3, r2]
 1243 00fa 084A     		ldr	r2, .L54+16
 1244 00fc 101C     		mov	r0, r2
 1245 00fe 191C     		mov	r1, r3
 1246 0100 FFF7FEFF 		bl	Send_Com
 309:app_Com.c     **** }
 1247              		.loc 1 309 0
 1248 0104 BD46     		mov	sp, r7
 1249 0106 05B0     		add	sp, sp, #20
 1250              		@ sp needed
 1251 0108 90BD     		pop	{r4, r7, pc}
 1252              	.L55:
 1253 010a C046     		.align	2
 1254              	.L54:
 1255 010c 74000000 		.word	.LC0
 1256 0110 00000000 		.word	Com_Array
 1257 0114 00000000 		.word	LockIdentify
 1258 0118 00000000 		.word	System_Config
 1259 011c 28000000 		.word	Com_Array+40
 1260 0120 00000000 		.word	Target_Key
 1261 0124 2A000000 		.word	Com_Array+42
 1262              		.cfi_endproc
 1263              	.LFE41:
 1264              		.size	Open_Lock, .-Open_Lock
 1265              		.section	.text.Set_Lock_ID,"ax",%progbits
 1266              		.align	2
 1267              		.global	Set_Lock_ID
 1268              		.code	16
 1269              		.thumb_func
 1270              		.type	Set_Lock_ID, %function
 1271              	Set_Lock_ID:
 1272              	.LFB42:
 310:app_Com.c     **** 
 311:app_Com.c     **** 
 312:app_Com.c     **** /***********************************************
 313:app_Com.c     **** * å‡½æ•°åï¼švoid Set_Lock_ID(void)
 314:app_Com.c     **** * æè¿°  ï¼šè¯·æ±‚é”çš„è®¾å¤‡ä¿¡æ¯
 315:app_Com.c     **** ***********************************************/
 316:app_Com.c     **** void Set_Lock_ID(void)
 317:app_Com.c     **** {
 1273              		.loc 1 317 0
 1274              		.cfi_startproc
 1275 0000 90B5     		push	{r4, r7, lr}
 1276              		.cfi_def_cfa_offset 12
 1277              		.cfi_offset 4, -12
 1278              		.cfi_offset 7, -8
 1279              		.cfi_offset 14, -4
ARM GAS  C:\Users\ADMINI~1.SC-\AppData\Local\Temp\cceVp8or.s 			page 29


 1280 0002 83B0     		sub	sp, sp, #12
 1281              		.cfi_def_cfa_offset 24
 1282 0004 00AF     		add	r7, sp, #0
 1283              		.cfi_def_cfa_register 7
 318:app_Com.c     ****     uint16 crc;
 319:app_Com.c     ****     Com_Array.Tx_buff[0] = SET_LOCK_ID;
 1284              		.loc 1 319 0
 1285 0006 1A4B     		ldr	r3, .L57
 1286 0008 2822     		mov	r2, #40
 1287 000a 0A21     		mov	r1, #10
 1288 000c 9954     		strb	r1, [r3, r2]
 320:app_Com.c     ****     Com_Array.Tx_buff[1] = 4;
 1289              		.loc 1 320 0
 1290 000e 184B     		ldr	r3, .L57
 1291 0010 2922     		mov	r2, #41
 1292 0012 0421     		mov	r1, #4
 1293 0014 9954     		strb	r1, [r3, r2]
 321:app_Com.c     ****     
 322:app_Com.c     ****     memcpy(Com_Array.Tx_buff + 2,Lock_Info.DeviceID,4);
 1294              		.loc 1 322 0
 1295 0016 164B     		ldr	r3, .L57
 1296 0018 2A22     		mov	r2, #42
 1297 001a 1649     		ldr	r1, .L57+4
 1298 001c 9B18     		add	r3, r3, r2
 1299 001e 0422     		mov	r2, #4
 1300 0020 181C     		mov	r0, r3
 1301 0022 FFF7FEFF 		bl	memcpy
 323:app_Com.c     ****     
 324:app_Com.c     ****     crc = comCalCRC16(Com_Array.Tx_buff,6);
 1302              		.loc 1 324 0
 1303 0026 BC1D     		add	r4, r7, #6
 1304 0028 134B     		ldr	r3, .L57+8
 1305 002a 181C     		mov	r0, r3
 1306 002c 0621     		mov	r1, #6
 1307 002e FFF7FEFF 		bl	comCalCRC16
 1308 0032 031C     		mov	r3, r0
 1309 0034 2380     		strh	r3, [r4]
 325:app_Com.c     ****     
 326:app_Com.c     ****     Com_Array.Tx_buff[6] = crc / 256;
 1310              		.loc 1 326 0
 1311 0036 BB1D     		add	r3, r7, #6
 1312 0038 1B88     		ldrh	r3, [r3]
 1313 003a 1B0A     		lsr	r3, r3, #8
 1314 003c 9BB2     		uxth	r3, r3
 1315 003e D9B2     		uxtb	r1, r3
 1316 0040 0B4B     		ldr	r3, .L57
 1317 0042 2E22     		mov	r2, #46
 1318 0044 9954     		strb	r1, [r3, r2]
 327:app_Com.c     ****     Com_Array.Tx_buff[7] = crc % 256;   
 1319              		.loc 1 327 0
 1320 0046 BB1D     		add	r3, r7, #6
 1321 0048 1B88     		ldrh	r3, [r3]
 1322 004a D9B2     		uxtb	r1, r3
 1323 004c 084B     		ldr	r3, .L57
 1324 004e 2F22     		mov	r2, #47
 1325 0050 9954     		strb	r1, [r3, r2]
 328:app_Com.c     ****     Com_Array.Tx_Length = 8;
ARM GAS  C:\Users\ADMINI~1.SC-\AppData\Local\Temp\cceVp8or.s 			page 30


 1326              		.loc 1 328 0
 1327 0052 074B     		ldr	r3, .L57
 1328 0054 6B22     		mov	r2, #107
 1329 0056 0821     		mov	r1, #8
 1330 0058 9954     		strb	r1, [r3, r2]
 329:app_Com.c     ****     Send_Com(Com_Array.Tx_buff,Com_Array.Tx_Length);
 1331              		.loc 1 329 0
 1332 005a 054B     		ldr	r3, .L57
 1333 005c 6B22     		mov	r2, #107
 1334 005e 9B5C     		ldrb	r3, [r3, r2]
 1335 0060 054A     		ldr	r2, .L57+8
 1336 0062 101C     		mov	r0, r2
 1337 0064 191C     		mov	r1, r3
 1338 0066 FFF7FEFF 		bl	Send_Com
 330:app_Com.c     **** }
 1339              		.loc 1 330 0
 1340 006a BD46     		mov	sp, r7
 1341 006c 03B0     		add	sp, sp, #12
 1342              		@ sp needed
 1343 006e 90BD     		pop	{r4, r7, pc}
 1344              	.L58:
 1345              		.align	2
 1346              	.L57:
 1347 0070 00000000 		.word	Com_Array
 1348 0074 00000000 		.word	Lock_Info
 1349 0078 28000000 		.word	Com_Array+40
 1350              		.cfi_endproc
 1351              	.LFE42:
 1352              		.size	Set_Lock_ID, .-Set_Lock_ID
 1353              		.section	.text.Send_Com,"ax",%progbits
 1354              		.align	2
 1355              		.global	Send_Com
 1356              		.code	16
 1357              		.thumb_func
 1358              		.type	Send_Com, %function
 1359              	Send_Com:
 1360              	.LFB43:
 331:app_Com.c     **** 
 332:app_Com.c     **** /***********************************************
 333:app_Com.c     **** * å‡½æ•°åï¼švoid Send_Com(uint8 *TX_Buffer,uint8 Length)
 334:app_Com.c     **** * æè¿°  ï¼šä¸²å£å‘é€æ•°æ®
 335:app_Com.c     **** ***********************************************/
 336:app_Com.c     **** void Send_Com(uint8 *TX_Buffer,uint8 Length)
 337:app_Com.c     **** {
 1361              		.loc 1 337 0
 1362              		.cfi_startproc
 1363 0000 80B5     		push	{r7, lr}
 1364              		.cfi_def_cfa_offset 8
 1365              		.cfi_offset 7, -8
 1366              		.cfi_offset 14, -4
 1367 0002 84B0     		sub	sp, sp, #16
 1368              		.cfi_def_cfa_offset 24
 1369 0004 00AF     		add	r7, sp, #0
 1370              		.cfi_def_cfa_register 7
 1371 0006 7860     		str	r0, [r7, #4]
 1372 0008 0A1C     		mov	r2, r1
 1373 000a FB1C     		add	r3, r7, #3
ARM GAS  C:\Users\ADMINI~1.SC-\AppData\Local\Temp\cceVp8or.s 			page 31


 1374 000c 1A70     		strb	r2, [r3]
 338:app_Com.c     ****     uint8 i;
 339:app_Com.c     ****     Com_Array.Tx_Begin = 1;
 1375              		.loc 1 339 0
 1376 000e 134B     		ldr	r3, .L62
 1377 0010 7222     		mov	r2, #114
 1378 0012 0121     		mov	r1, #1
 1379 0014 9954     		strb	r1, [r3, r2]
 340:app_Com.c     ****     
 341:app_Com.c     ****     for(i=0; i<Length; i++ )
 1380              		.loc 1 341 0
 1381 0016 0F23     		mov	r3, #15
 1382 0018 FB18     		add	r3, r7, r3
 1383 001a 0022     		mov	r2, #0
 1384 001c 1A70     		strb	r2, [r3]
 1385 001e 0FE0     		b	.L60
 1386              	.L61:
 342:app_Com.c     ****     {
 343:app_Com.c     ****         UART_UartPutChar(TX_Buffer[i]);
 1387              		.loc 1 343 0 discriminator 3
 1388 0020 0F23     		mov	r3, #15
 1389 0022 FB18     		add	r3, r7, r3
 1390 0024 1B78     		ldrb	r3, [r3]
 1391 0026 7A68     		ldr	r2, [r7, #4]
 1392 0028 D318     		add	r3, r2, r3
 1393 002a 1B78     		ldrb	r3, [r3]
 1394 002c 181C     		mov	r0, r3
 1395 002e FFF7FEFF 		bl	UART_SpiUartWriteTxData
 341:app_Com.c     ****     {
 1396              		.loc 1 341 0 discriminator 3
 1397 0032 0F23     		mov	r3, #15
 1398 0034 FB18     		add	r3, r7, r3
 1399 0036 1A78     		ldrb	r2, [r3]
 1400 0038 0F23     		mov	r3, #15
 1401 003a FB18     		add	r3, r7, r3
 1402 003c 0132     		add	r2, r2, #1
 1403 003e 1A70     		strb	r2, [r3]
 1404              	.L60:
 341:app_Com.c     ****     {
 1405              		.loc 1 341 0 is_stmt 0 discriminator 1
 1406 0040 0F23     		mov	r3, #15
 1407 0042 FA18     		add	r2, r7, r3
 1408 0044 FB1C     		add	r3, r7, #3
 1409 0046 1278     		ldrb	r2, [r2]
 1410 0048 1B78     		ldrb	r3, [r3]
 1411 004a 9A42     		cmp	r2, r3
 1412 004c E8D3     		bcc	.L61
 344:app_Com.c     ****     }
 345:app_Com.c     ****     Com_Array.Tx_Wait = 0;
 1413              		.loc 1 345 0 is_stmt 1
 1414 004e 034B     		ldr	r3, .L62
 1415 0050 6E22     		mov	r2, #110
 1416 0052 0021     		mov	r1, #0
 1417 0054 9952     		strh	r1, [r3, r2]
 346:app_Com.c     **** }
 1418              		.loc 1 346 0
 1419 0056 BD46     		mov	sp, r7
ARM GAS  C:\Users\ADMINI~1.SC-\AppData\Local\Temp\cceVp8or.s 			page 32


 1420 0058 04B0     		add	sp, sp, #16
 1421              		@ sp needed
 1422 005a 80BD     		pop	{r7, pc}
 1423              	.L63:
 1424              		.align	2
 1425              	.L62:
 1426 005c 00000000 		.word	Com_Array
 1427              		.cfi_endproc
 1428              	.LFE43:
 1429              		.size	Send_Com, .-Send_Com
 1430              		.text
 1431              	.Letext0:
 1432              		.file 2 "Generated_Source\\PSoC4/cytypes.h"
 1433              		.file 3 "app_Com.h"
 1434              		.file 4 "app_lock.h"
 1435              		.file 5 "app_protocol.h"
 1436              		.file 6 "Generated_Source\\PSoC4/BLE_Stack.h"
 1437              		.section	.debug_info,"",%progbits
 1438              	.Ldebug_info0:
 1439 0000 C8060000 		.4byte	0x6c8
 1440 0004 0400     		.2byte	0x4
 1441 0006 00000000 		.4byte	.Ldebug_abbrev0
 1442 000a 04       		.byte	0x4
 1443 000b 01       		.uleb128 0x1
 1444 000c 4C090000 		.4byte	.LASF134
 1445 0010 01       		.byte	0x1
 1446 0011 0C030000 		.4byte	.LASF135
 1447 0015 9F030000 		.4byte	.LASF136
 1448 0019 00000000 		.4byte	.Ldebug_ranges0+0
 1449 001d 00000000 		.4byte	0
 1450 0021 00000000 		.4byte	.Ldebug_line0
 1451 0025 02       		.uleb128 0x2
 1452 0026 01       		.byte	0x1
 1453 0027 06       		.byte	0x6
 1454 0028 D1010000 		.4byte	.LASF0
 1455 002c 02       		.uleb128 0x2
 1456 002d 01       		.byte	0x1
 1457 002e 08       		.byte	0x8
 1458 002f 48070000 		.4byte	.LASF1
 1459 0033 02       		.uleb128 0x2
 1460 0034 02       		.byte	0x2
 1461 0035 05       		.byte	0x5
 1462 0036 80070000 		.4byte	.LASF2
 1463 003a 02       		.uleb128 0x2
 1464 003b 02       		.byte	0x2
 1465 003c 07       		.byte	0x7
 1466 003d 9B040000 		.4byte	.LASF3
 1467 0041 02       		.uleb128 0x2
 1468 0042 04       		.byte	0x4
 1469 0043 05       		.byte	0x5
 1470 0044 23010000 		.4byte	.LASF4
 1471 0048 02       		.uleb128 0x2
 1472 0049 04       		.byte	0x4
 1473 004a 07       		.byte	0x7
 1474 004b 17040000 		.4byte	.LASF5
 1475 004f 02       		.uleb128 0x2
 1476 0050 08       		.byte	0x8
ARM GAS  C:\Users\ADMINI~1.SC-\AppData\Local\Temp\cceVp8or.s 			page 33


 1477 0051 05       		.byte	0x5
 1478 0052 C3010000 		.4byte	.LASF6
 1479 0056 02       		.uleb128 0x2
 1480 0057 08       		.byte	0x8
 1481 0058 07       		.byte	0x7
 1482 0059 41010000 		.4byte	.LASF7
 1483 005d 03       		.uleb128 0x3
 1484 005e 04       		.byte	0x4
 1485 005f 05       		.byte	0x5
 1486 0060 696E7400 		.ascii	"int\000"
 1487 0064 02       		.uleb128 0x2
 1488 0065 04       		.byte	0x4
 1489 0066 07       		.byte	0x7
 1490 0067 DD030000 		.4byte	.LASF8
 1491 006b 04       		.uleb128 0x4
 1492 006c B5020000 		.4byte	.LASF9
 1493 0070 02       		.byte	0x2
 1494 0071 C2       		.byte	0xc2
 1495 0072 2C000000 		.4byte	0x2c
 1496 0076 04       		.uleb128 0x4
 1497 0077 3F000000 		.4byte	.LASF10
 1498 007b 02       		.byte	0x2
 1499 007c C3       		.byte	0xc3
 1500 007d 3A000000 		.4byte	0x3a
 1501 0081 04       		.uleb128 0x4
 1502 0082 05030000 		.4byte	.LASF11
 1503 0086 02       		.byte	0x2
 1504 0087 C4       		.byte	0xc4
 1505 0088 48000000 		.4byte	0x48
 1506 008c 02       		.uleb128 0x2
 1507 008d 04       		.byte	0x4
 1508 008e 04       		.byte	0x4
 1509 008f 1B070000 		.4byte	.LASF12
 1510 0093 02       		.uleb128 0x2
 1511 0094 08       		.byte	0x8
 1512 0095 04       		.byte	0x4
 1513 0096 DA020000 		.4byte	.LASF13
 1514 009a 02       		.uleb128 0x2
 1515 009b 01       		.byte	0x1
 1516 009c 08       		.byte	0x8
 1517 009d 1A080000 		.4byte	.LASF14
 1518 00a1 02       		.uleb128 0x2
 1519 00a2 04       		.byte	0x4
 1520 00a3 07       		.byte	0x7
 1521 00a4 41060000 		.4byte	.LASF15
 1522 00a8 05       		.uleb128 0x5
 1523 00a9 04       		.byte	0x4
 1524 00aa 6B000000 		.4byte	0x6b
 1525 00ae 06       		.uleb128 0x6
 1526 00af 01       		.byte	0x1
 1527 00b0 06       		.byte	0x6
 1528 00b1 A4       		.byte	0xa4
 1529 00b2 33020000 		.4byte	0x233
 1530 00b6 07       		.uleb128 0x7
 1531 00b7 B8040000 		.4byte	.LASF16
 1532 00bb 00       		.sleb128 0
 1533 00bc 07       		.uleb128 0x7
ARM GAS  C:\Users\ADMINI~1.SC-\AppData\Local\Temp\cceVp8or.s 			page 34


 1534 00bd DD010000 		.4byte	.LASF17
 1535 00c1 01       		.sleb128 1
 1536 00c2 07       		.uleb128 0x7
 1537 00c3 11010000 		.4byte	.LASF18
 1538 00c7 02       		.sleb128 2
 1539 00c8 07       		.uleb128 0x7
 1540 00c9 B3080000 		.4byte	.LASF19
 1541 00cd 03       		.sleb128 3
 1542 00ce 07       		.uleb128 0x7
 1543 00cf 58010000 		.4byte	.LASF20
 1544 00d3 04       		.sleb128 4
 1545 00d4 07       		.uleb128 0x7
 1546 00d5 23000000 		.4byte	.LASF21
 1547 00d9 05       		.sleb128 5
 1548 00da 07       		.uleb128 0x7
 1549 00db DE050000 		.4byte	.LASF22
 1550 00df 20       		.sleb128 32
 1551 00e0 07       		.uleb128 0x7
 1552 00e1 28020000 		.4byte	.LASF23
 1553 00e5 21       		.sleb128 33
 1554 00e6 07       		.uleb128 0x7
 1555 00e7 FF040000 		.4byte	.LASF24
 1556 00eb 22       		.sleb128 34
 1557 00ec 07       		.uleb128 0x7
 1558 00ed 59050000 		.4byte	.LASF25
 1559 00f1 23       		.sleb128 35
 1560 00f2 07       		.uleb128 0x7
 1561 00f3 90060000 		.4byte	.LASF26
 1562 00f7 24       		.sleb128 36
 1563 00f8 07       		.uleb128 0x7
 1564 00f9 53060000 		.4byte	.LASF27
 1565 00fd 25       		.sleb128 37
 1566 00fe 07       		.uleb128 0x7
 1567 00ff 8D020000 		.4byte	.LASF28
 1568 0103 26       		.sleb128 38
 1569 0104 07       		.uleb128 0x7
 1570 0105 23050000 		.4byte	.LASF29
 1571 0109 27       		.sleb128 39
 1572 010a 07       		.uleb128 0x7
 1573 010b 1F080000 		.4byte	.LASF30
 1574 010f 28       		.sleb128 40
 1575 0110 07       		.uleb128 0x7
 1576 0111 A6010000 		.4byte	.LASF31
 1577 0115 29       		.sleb128 41
 1578 0116 07       		.uleb128 0x7
 1579 0117 6F000000 		.4byte	.LASF32
 1580 011b 2A       		.sleb128 42
 1581 011c 07       		.uleb128 0x7
 1582 011d 09020000 		.4byte	.LASF33
 1583 0121 2B       		.sleb128 43
 1584 0122 07       		.uleb128 0x7
 1585 0123 010A0000 		.4byte	.LASF34
 1586 0127 2C       		.sleb128 44
 1587 0128 07       		.uleb128 0x7
 1588 0129 F7070000 		.4byte	.LASF35
 1589 012d C000     		.sleb128 64
 1590 012f 07       		.uleb128 0x7
ARM GAS  C:\Users\ADMINI~1.SC-\AppData\Local\Temp\cceVp8or.s 			page 35


 1591 0130 7F050000 		.4byte	.LASF36
 1592 0134 C100     		.sleb128 65
 1593 0136 07       		.uleb128 0x7
 1594 0137 AC0A0000 		.4byte	.LASF37
 1595 013b C200     		.sleb128 66
 1596 013d 07       		.uleb128 0x7
 1597 013e DC080000 		.4byte	.LASF38
 1598 0142 C300     		.sleb128 67
 1599 0144 07       		.uleb128 0x7
 1600 0145 43040000 		.4byte	.LASF39
 1601 0149 C400     		.sleb128 68
 1602 014b 07       		.uleb128 0x7
 1603 014c F4060000 		.4byte	.LASF40
 1604 0150 C500     		.sleb128 69
 1605 0152 07       		.uleb128 0x7
 1606 0153 20060000 		.4byte	.LASF41
 1607 0157 C600     		.sleb128 70
 1608 0159 07       		.uleb128 0x7
 1609 015a CF040000 		.4byte	.LASF42
 1610 015e C700     		.sleb128 71
 1611 0160 07       		.uleb128 0x7
 1612 0161 DA090000 		.4byte	.LASF43
 1613 0165 C800     		.sleb128 72
 1614 0167 07       		.uleb128 0x7
 1615 0168 3F020000 		.4byte	.LASF44
 1616 016c C900     		.sleb128 73
 1617 016e 07       		.uleb128 0x7
 1618 016f 2E090000 		.4byte	.LASF45
 1619 0173 CA00     		.sleb128 74
 1620 0175 07       		.uleb128 0x7
 1621 0176 C1000000 		.4byte	.LASF46
 1622 017a CB00     		.sleb128 75
 1623 017c 07       		.uleb128 0x7
 1624 017d 29040000 		.4byte	.LASF47
 1625 0181 CC00     		.sleb128 76
 1626 0183 07       		.uleb128 0x7
 1627 0184 6D060000 		.4byte	.LASF48
 1628 0188 CD00     		.sleb128 77
 1629 018a 07       		.uleb128 0x7
 1630 018b 5D020000 		.4byte	.LASF49
 1631 018f CE00     		.sleb128 78
 1632 0191 07       		.uleb128 0x7
 1633 0192 B2070000 		.4byte	.LASF50
 1634 0196 CF00     		.sleb128 79
 1635 0198 07       		.uleb128 0x7
 1636 0199 E0000000 		.4byte	.LASF51
 1637 019d D000     		.sleb128 80
 1638 019f 07       		.uleb128 0x7
 1639 01a0 BB020000 		.4byte	.LASF52
 1640 01a4 D100     		.sleb128 81
 1641 01a6 07       		.uleb128 0x7
 1642 01a7 AC060000 		.4byte	.LASF53
 1643 01ab D200     		.sleb128 82
 1644 01ad 07       		.uleb128 0x7
 1645 01ae 8A070000 		.4byte	.LASF54
 1646 01b2 D300     		.sleb128 83
 1647 01b4 07       		.uleb128 0x7
ARM GAS  C:\Users\ADMINI~1.SC-\AppData\Local\Temp\cceVp8or.s 			page 36


 1648 01b5 D6070000 		.4byte	.LASF55
 1649 01b9 D400     		.sleb128 84
 1650 01bb 07       		.uleb128 0x7
 1651 01bc 61040000 		.4byte	.LASF56
 1652 01c0 D500     		.sleb128 85
 1653 01c2 07       		.uleb128 0x7
 1654 01c3 7D030000 		.4byte	.LASF57
 1655 01c7 D600     		.sleb128 86
 1656 01c9 07       		.uleb128 0x7
 1657 01ca 4E080000 		.4byte	.LASF58
 1658 01ce D700     		.sleb128 87
 1659 01d0 07       		.uleb128 0x7
 1660 01d1 80010000 		.4byte	.LASF59
 1661 01d5 F000     		.sleb128 112
 1662 01d7 07       		.uleb128 0x7
 1663 01d8 6D0A0000 		.4byte	.LASF60
 1664 01dc F100     		.sleb128 113
 1665 01de 07       		.uleb128 0x7
 1666 01df A5050000 		.4byte	.LASF61
 1667 01e3 F200     		.sleb128 114
 1668 01e5 07       		.uleb128 0x7
 1669 01e6 02060000 		.4byte	.LASF62
 1670 01ea F300     		.sleb128 115
 1671 01ec 07       		.uleb128 0x7
 1672 01ed D6060000 		.4byte	.LASF63
 1673 01f1 F400     		.sleb128 116
 1674 01f3 07       		.uleb128 0x7
 1675 01f4 250A0000 		.4byte	.LASF64
 1676 01f8 F500     		.sleb128 117
 1677 01fa 07       		.uleb128 0x7
 1678 01fb A0000000 		.4byte	.LASF65
 1679 01ff F600     		.sleb128 118
 1680 0201 07       		.uleb128 0x7
 1681 0202 46000000 		.4byte	.LASF66
 1682 0206 F700     		.sleb128 119
 1683 0208 07       		.uleb128 0x7
 1684 0209 00000000 		.4byte	.LASF67
 1685 020d F800     		.sleb128 120
 1686 020f 07       		.uleb128 0x7
 1687 0210 7C080000 		.4byte	.LASF68
 1688 0214 F900     		.sleb128 121
 1689 0216 07       		.uleb128 0x7
 1690 0217 32030000 		.4byte	.LASF69
 1691 021b FA00     		.sleb128 122
 1692 021d 07       		.uleb128 0x7
 1693 021e 4F0A0000 		.4byte	.LASF70
 1694 0222 FA01     		.sleb128 250
 1695 0224 07       		.uleb128 0x7
 1696 0225 EA030000 		.4byte	.LASF71
 1697 0229 FB01     		.sleb128 251
 1698 022b 07       		.uleb128 0x7
 1699 022c 24030000 		.4byte	.LASF72
 1700 0230 FF01     		.sleb128 255
 1701 0232 00       		.byte	0
 1702 0233 08       		.uleb128 0x8
 1703 0234 6B000000 		.4byte	0x6b
 1704 0238 43020000 		.4byte	0x243
ARM GAS  C:\Users\ADMINI~1.SC-\AppData\Local\Temp\cceVp8or.s 			page 37


 1705 023c 09       		.uleb128 0x9
 1706 023d A1000000 		.4byte	0xa1
 1707 0241 0F       		.byte	0xf
 1708 0242 00       		.byte	0
 1709 0243 08       		.uleb128 0x8
 1710 0244 6B000000 		.4byte	0x6b
 1711 0248 53020000 		.4byte	0x253
 1712 024c 09       		.uleb128 0x9
 1713 024d A1000000 		.4byte	0xa1
 1714 0251 06       		.byte	0x6
 1715 0252 00       		.byte	0
 1716 0253 0A       		.uleb128 0xa
 1717 0254 76       		.byte	0x76
 1718 0255 03       		.byte	0x3
 1719 0256 20       		.byte	0x20
 1720 0257 28030000 		.4byte	0x328
 1721 025b 0B       		.uleb128 0xb
 1722 025c 98000000 		.4byte	.LASF73
 1723 0260 03       		.byte	0x3
 1724 0261 22       		.byte	0x22
 1725 0262 28030000 		.4byte	0x328
 1726 0266 00       		.byte	0
 1727 0267 0B       		.uleb128 0xb
 1728 0268 FF000000 		.4byte	.LASF74
 1729 026c 03       		.byte	0x3
 1730 026d 23       		.byte	0x23
 1731 026e 38030000 		.4byte	0x338
 1732 0272 28       		.byte	0x28
 1733 0273 0B       		.uleb128 0xb
 1734 0274 A9080000 		.4byte	.LASF75
 1735 0278 03       		.byte	0x3
 1736 0279 25       		.byte	0x25
 1737 027a 6B000000 		.4byte	0x6b
 1738 027e 64       		.byte	0x64
 1739 027f 0B       		.uleb128 0xb
 1740 0280 460A0000 		.4byte	.LASF76
 1741 0284 03       		.byte	0x3
 1742 0285 26       		.byte	0x26
 1743 0286 6B000000 		.4byte	0x6b
 1744 028a 65       		.byte	0x65
 1745 028b 0B       		.uleb128 0xb
 1746 028c 11080000 		.4byte	.LASF77
 1747 0290 03       		.byte	0x3
 1748 0291 27       		.byte	0x27
 1749 0292 6B000000 		.4byte	0x6b
 1750 0296 66       		.byte	0x66
 1751 0297 0B       		.uleb128 0xb
 1752 0298 4B050000 		.4byte	.LASF78
 1753 029c 03       		.byte	0x3
 1754 029d 28       		.byte	0x28
 1755 029e 6B000000 		.4byte	0x6b
 1756 02a2 67       		.byte	0x67
 1757 02a3 0B       		.uleb128 0xb
 1758 02a4 21070000 		.4byte	.LASF79
 1759 02a8 03       		.byte	0x3
 1760 02a9 29       		.byte	0x29
 1761 02aa 6B000000 		.4byte	0x6b
ARM GAS  C:\Users\ADMINI~1.SC-\AppData\Local\Temp\cceVp8or.s 			page 38


 1762 02ae 68       		.byte	0x68
 1763 02af 0B       		.uleb128 0xb
 1764 02b0 39010000 		.4byte	.LASF80
 1765 02b4 03       		.byte	0x3
 1766 02b5 2A       		.byte	0x2a
 1767 02b6 6B000000 		.4byte	0x6b
 1768 02ba 69       		.byte	0x69
 1769 02bb 0B       		.uleb128 0xb
 1770 02bc AB070000 		.4byte	.LASF81
 1771 02c0 03       		.byte	0x3
 1772 02c1 2B       		.byte	0x2b
 1773 02c2 6B000000 		.4byte	0x6b
 1774 02c6 6A       		.byte	0x6a
 1775 02c7 0B       		.uleb128 0xb
 1776 02c8 65000000 		.4byte	.LASF82
 1777 02cc 03       		.byte	0x3
 1778 02cd 2D       		.byte	0x2d
 1779 02ce 6B000000 		.4byte	0x6b
 1780 02d2 6B       		.byte	0x6b
 1781 02d3 0B       		.uleb128 0xb
 1782 02d4 87060000 		.4byte	.LASF83
 1783 02d8 03       		.byte	0x3
 1784 02d9 2E       		.byte	0x2e
 1785 02da 6B000000 		.4byte	0x6b
 1786 02de 6C       		.byte	0x6c
 1787 02df 0B       		.uleb128 0xb
 1788 02e0 7B020000 		.4byte	.LASF84
 1789 02e4 03       		.byte	0x3
 1790 02e5 2F       		.byte	0x2f
 1791 02e6 6B000000 		.4byte	0x6b
 1792 02ea 6D       		.byte	0x6d
 1793 02eb 0B       		.uleb128 0xb
 1794 02ec 68030000 		.4byte	.LASF85
 1795 02f0 03       		.byte	0x3
 1796 02f1 30       		.byte	0x30
 1797 02f2 76000000 		.4byte	0x76
 1798 02f6 6E       		.byte	0x6e
 1799 02f7 0B       		.uleb128 0xb
 1800 02f8 66070000 		.4byte	.LASF86
 1801 02fc 03       		.byte	0x3
 1802 02fd 31       		.byte	0x31
 1803 02fe 6B000000 		.4byte	0x6b
 1804 0302 70       		.byte	0x70
 1805 0303 0B       		.uleb128 0xb
 1806 0304 5F030000 		.4byte	.LASF87
 1807 0308 03       		.byte	0x3
 1808 0309 32       		.byte	0x32
 1809 030a 6B000000 		.4byte	0x6b
 1810 030e 71       		.byte	0x71
 1811 030f 0B       		.uleb128 0xb
 1812 0310 A30A0000 		.4byte	.LASF88
 1813 0314 03       		.byte	0x3
 1814 0315 34       		.byte	0x34
 1815 0316 6B000000 		.4byte	0x6b
 1816 031a 72       		.byte	0x72
 1817 031b 0C       		.uleb128 0xc
 1818 031c 43726300 		.ascii	"Crc\000"
ARM GAS  C:\Users\ADMINI~1.SC-\AppData\Local\Temp\cceVp8or.s 			page 39


 1819 0320 03       		.byte	0x3
 1820 0321 36       		.byte	0x36
 1821 0322 76000000 		.4byte	0x76
 1822 0326 74       		.byte	0x74
 1823 0327 00       		.byte	0
 1824 0328 08       		.uleb128 0x8
 1825 0329 6B000000 		.4byte	0x6b
 1826 032d 38030000 		.4byte	0x338
 1827 0331 09       		.uleb128 0x9
 1828 0332 A1000000 		.4byte	0xa1
 1829 0336 27       		.byte	0x27
 1830 0337 00       		.byte	0
 1831 0338 08       		.uleb128 0x8
 1832 0339 6B000000 		.4byte	0x6b
 1833 033d 48030000 		.4byte	0x348
 1834 0341 09       		.uleb128 0x9
 1835 0342 A1000000 		.4byte	0xa1
 1836 0346 3B       		.byte	0x3b
 1837 0347 00       		.byte	0
 1838 0348 04       		.uleb128 0x4
 1839 0349 42050000 		.4byte	.LASF89
 1840 034d 03       		.byte	0x3
 1841 034e 37       		.byte	0x37
 1842 034f 53020000 		.4byte	0x253
 1843 0353 0A       		.uleb128 0xa
 1844 0354 26       		.byte	0x26
 1845 0355 04       		.byte	0x4
 1846 0356 34       		.byte	0x34
 1847 0357 A4030000 		.4byte	0x3a4
 1848 035b 0B       		.uleb128 0xb
 1849 035c 24090000 		.4byte	.LASF90
 1850 0360 04       		.byte	0x4
 1851 0361 36       		.byte	0x36
 1852 0362 33020000 		.4byte	0x233
 1853 0366 00       		.byte	0
 1854 0367 0B       		.uleb128 0xb
 1855 0368 D3080000 		.4byte	.LASF91
 1856 036c 04       		.byte	0x4
 1857 036d 37       		.byte	0x37
 1858 036e A4030000 		.4byte	0x3a4
 1859 0372 10       		.byte	0x10
 1860 0373 0B       		.uleb128 0xb
 1861 0374 4A060000 		.4byte	.LASF92
 1862 0378 04       		.byte	0x4
 1863 0379 38       		.byte	0x38
 1864 037a B4030000 		.4byte	0x3b4
 1865 037e 14       		.byte	0x14
 1866 037f 0B       		.uleb128 0xb
 1867 0380 77070000 		.4byte	.LASF93
 1868 0384 04       		.byte	0x4
 1869 0385 39       		.byte	0x39
 1870 0386 B4030000 		.4byte	0x3b4
 1871 038a 1C       		.byte	0x1c
 1872 038b 0B       		.uleb128 0xb
 1873 038c D0030000 		.4byte	.LASF94
 1874 0390 04       		.byte	0x4
 1875 0391 3A       		.byte	0x3a
ARM GAS  C:\Users\ADMINI~1.SC-\AppData\Local\Temp\cceVp8or.s 			page 40


 1876 0392 6B000000 		.4byte	0x6b
 1877 0396 24       		.byte	0x24
 1878 0397 0C       		.uleb128 0xc
 1879 0398 73756D00 		.ascii	"sum\000"
 1880 039c 04       		.byte	0x4
 1881 039d 3B       		.byte	0x3b
 1882 039e 6B000000 		.4byte	0x6b
 1883 03a2 25       		.byte	0x25
 1884 03a3 00       		.byte	0
 1885 03a4 08       		.uleb128 0x8
 1886 03a5 6B000000 		.4byte	0x6b
 1887 03a9 B4030000 		.4byte	0x3b4
 1888 03ad 09       		.uleb128 0x9
 1889 03ae A1000000 		.4byte	0xa1
 1890 03b2 03       		.byte	0x3
 1891 03b3 00       		.byte	0
 1892 03b4 08       		.uleb128 0x8
 1893 03b5 6B000000 		.4byte	0x6b
 1894 03b9 C4030000 		.4byte	0x3c4
 1895 03bd 09       		.uleb128 0x9
 1896 03be A1000000 		.4byte	0xa1
 1897 03c2 07       		.byte	0x7
 1898 03c3 00       		.byte	0
 1899 03c4 04       		.uleb128 0x4
 1900 03c5 FA080000 		.4byte	.LASF95
 1901 03c9 04       		.byte	0x4
 1902 03ca 3C       		.byte	0x3c
 1903 03cb 53030000 		.4byte	0x353
 1904 03cf 0A       		.uleb128 0xa
 1905 03d0 0F       		.byte	0xf
 1906 03d1 04       		.byte	0x4
 1907 03d2 42       		.byte	0x42
 1908 03d3 08040000 		.4byte	0x408
 1909 03d7 0B       		.uleb128 0xb
 1910 03d8 D3080000 		.4byte	.LASF91
 1911 03dc 04       		.byte	0x4
 1912 03dd 44       		.byte	0x44
 1913 03de A4030000 		.4byte	0x3a4
 1914 03e2 00       		.byte	0
 1915 03e3 0B       		.uleb128 0xb
 1916 03e4 F7040000 		.4byte	.LASF96
 1917 03e8 04       		.byte	0x4
 1918 03e9 45       		.byte	0x45
 1919 03ea 08040000 		.4byte	0x408
 1920 03ee 04       		.byte	0x4
 1921 03ef 0B       		.uleb128 0xb
 1922 03f0 FB020000 		.4byte	.LASF97
 1923 03f4 04       		.byte	0x4
 1924 03f5 46       		.byte	0x46
 1925 03f6 6B000000 		.4byte	0x6b
 1926 03fa 06       		.byte	0x6
 1927 03fb 0B       		.uleb128 0xb
 1928 03fc 930A0000 		.4byte	.LASF98
 1929 0400 04       		.byte	0x4
 1930 0401 47       		.byte	0x47
 1931 0402 B4030000 		.4byte	0x3b4
 1932 0406 07       		.byte	0x7
ARM GAS  C:\Users\ADMINI~1.SC-\AppData\Local\Temp\cceVp8or.s 			page 41


 1933 0407 00       		.byte	0
 1934 0408 08       		.uleb128 0x8
 1935 0409 6B000000 		.4byte	0x6b
 1936 040d 18040000 		.4byte	0x418
 1937 0411 09       		.uleb128 0x9
 1938 0412 A1000000 		.4byte	0xa1
 1939 0416 01       		.byte	0x1
 1940 0417 00       		.byte	0
 1941 0418 04       		.uleb128 0x4
 1942 0419 AE040000 		.4byte	.LASF99
 1943 041d 04       		.byte	0x4
 1944 041e 48       		.byte	0x48
 1945 041f CF030000 		.4byte	0x3cf
 1946 0423 0A       		.uleb128 0xa
 1947 0424 0A       		.byte	0xa
 1948 0425 04       		.byte	0x4
 1949 0426 50       		.byte	0x50
 1950 0427 74040000 		.4byte	0x474
 1951 042b 0B       		.uleb128 0xb
 1952 042c 85040000 		.4byte	.LASF100
 1953 0430 04       		.byte	0x4
 1954 0431 52       		.byte	0x52
 1955 0432 76000000 		.4byte	0x76
 1956 0436 00       		.byte	0
 1957 0437 0B       		.uleb128 0xb
 1958 0438 EC020000 		.4byte	.LASF101
 1959 043c 04       		.byte	0x4
 1960 043d 54       		.byte	0x54
 1961 043e 76000000 		.4byte	0x76
 1962 0442 02       		.byte	0x2
 1963 0443 0B       		.uleb128 0xb
 1964 0444 70030000 		.4byte	.LASF102
 1965 0448 04       		.byte	0x4
 1966 0449 55       		.byte	0x55
 1967 044a 6B000000 		.4byte	0x6b
 1968 044e 04       		.byte	0x4
 1969 044f 0B       		.uleb128 0xb
 1970 0450 ED040000 		.4byte	.LASF103
 1971 0454 04       		.byte	0x4
 1972 0455 57       		.byte	0x57
 1973 0456 6B000000 		.4byte	0x6b
 1974 045a 05       		.byte	0x5
 1975 045b 0B       		.uleb128 0xb
 1976 045c 56030000 		.4byte	.LASF104
 1977 0460 04       		.byte	0x4
 1978 0461 58       		.byte	0x58
 1979 0462 76000000 		.4byte	0x76
 1980 0466 06       		.byte	0x6
 1981 0467 0B       		.uleb128 0xb
 1982 0468 05090000 		.4byte	.LASF105
 1983 046c 04       		.byte	0x4
 1984 046d 59       		.byte	0x59
 1985 046e 76000000 		.4byte	0x76
 1986 0472 08       		.byte	0x8
 1987 0473 00       		.byte	0
 1988 0474 04       		.uleb128 0x4
 1989 0475 91040000 		.4byte	.LASF106
ARM GAS  C:\Users\ADMINI~1.SC-\AppData\Local\Temp\cceVp8or.s 			page 42


 1990 0479 04       		.byte	0x4
 1991 047a 5A       		.byte	0x5a
 1992 047b 23040000 		.4byte	0x423
 1993 047f 0A       		.uleb128 0xa
 1994 0480 04       		.byte	0x4
 1995 0481 04       		.byte	0x4
 1996 0482 60       		.byte	0x60
 1997 0483 B5040000 		.4byte	0x4b5
 1998 0487 0D       		.uleb128 0xd
 1999 0488 56070000 		.4byte	.LASF107
 2000 048c 04       		.byte	0x4
 2001 048d 62       		.byte	0x62
 2002 048e 64000000 		.4byte	0x64
 2003 0492 04       		.byte	0x4
 2004 0493 03       		.byte	0x3
 2005 0494 1D       		.byte	0x1d
 2006 0495 00       		.byte	0
 2007 0496 0D       		.uleb128 0xd
 2008 0497 CA0A0000 		.4byte	.LASF108
 2009 049b 04       		.byte	0x4
 2010 049c 63       		.byte	0x63
 2011 049d 64000000 		.4byte	0x64
 2012 04a1 04       		.byte	0x4
 2013 04a2 01       		.byte	0x1
 2014 04a3 1C       		.byte	0x1c
 2015 04a4 00       		.byte	0
 2016 04a5 0D       		.uleb128 0xd
 2017 04a6 C1050000 		.4byte	.LASF109
 2018 04aa 04       		.byte	0x4
 2019 04ab 65       		.byte	0x65
 2020 04ac 64000000 		.4byte	0x64
 2021 04b0 04       		.byte	0x4
 2022 04b1 01       		.byte	0x1
 2023 04b2 1B       		.byte	0x1b
 2024 04b3 00       		.byte	0
 2025 04b4 00       		.byte	0
 2026 04b5 04       		.uleb128 0x4
 2027 04b6 D1070000 		.4byte	.LASF110
 2028 04ba 04       		.byte	0x4
 2029 04bb 67       		.byte	0x67
 2030 04bc 7F040000 		.4byte	0x47f
 2031 04c0 0E       		.uleb128 0xe
 2032 04c1 FB010000 		.4byte	.LASF113
 2033 04c5 01       		.byte	0x1
 2034 04c6 19       		.byte	0x19
 2035 04c7 00000000 		.4byte	.LFB35
 2036 04cb 14020000 		.4byte	.LFE35-.LFB35
 2037 04cf 01       		.uleb128 0x1
 2038 04d0 9C       		.byte	0x9c
 2039 04d1 00050000 		.4byte	0x500
 2040 04d5 0F       		.uleb128 0xf
 2041 04d6 436D6400 		.ascii	"Cmd\000"
 2042 04da 01       		.byte	0x1
 2043 04db 1B       		.byte	0x1b
 2044 04dc 6B000000 		.4byte	0x6b
 2045 04e0 02       		.uleb128 0x2
 2046 04e1 91       		.byte	0x91
ARM GAS  C:\Users\ADMINI~1.SC-\AppData\Local\Temp\cceVp8or.s 			page 43


 2047 04e2 6B       		.sleb128 -21
 2048 04e3 10       		.uleb128 0x10
 2049 04e4 9B0A0000 		.4byte	.LASF111
 2050 04e8 01       		.byte	0x1
 2051 04e9 1C       		.byte	0x1c
 2052 04ea 76000000 		.4byte	0x76
 2053 04ee 02       		.uleb128 0x2
 2054 04ef 91       		.byte	0x91
 2055 04f0 6E       		.sleb128 -18
 2056 04f1 10       		.uleb128 0x10
 2057 04f2 83020000 		.4byte	.LASF112
 2058 04f6 01       		.byte	0x1
 2059 04f7 1C       		.byte	0x1c
 2060 04f8 76000000 		.4byte	0x76
 2061 04fc 02       		.uleb128 0x2
 2062 04fd 91       		.byte	0x91
 2063 04fe 6C       		.sleb128 -20
 2064 04ff 00       		.byte	0
 2065 0500 11       		.uleb128 0x11
 2066 0501 16030000 		.4byte	.LASF137
 2067 0505 01       		.byte	0x1
 2068 0506 76       		.byte	0x76
 2069 0507 00000000 		.4byte	.LFB36
 2070 050b 64010000 		.4byte	.LFE36-.LFB36
 2071 050f 01       		.uleb128 0x1
 2072 0510 9C       		.byte	0x9c
 2073 0511 0E       		.uleb128 0xe
 2074 0512 10090000 		.4byte	.LASF114
 2075 0516 01       		.byte	0x1
 2076 0517 C9       		.byte	0xc9
 2077 0518 00000000 		.4byte	.LFB37
 2078 051c 68000000 		.4byte	.LFE37-.LFB37
 2079 0520 01       		.uleb128 0x1
 2080 0521 9C       		.byte	0x9c
 2081 0522 35050000 		.4byte	0x535
 2082 0526 0F       		.uleb128 0xf
 2083 0527 63726300 		.ascii	"crc\000"
 2084 052b 01       		.byte	0x1
 2085 052c CB       		.byte	0xcb
 2086 052d 76000000 		.4byte	0x76
 2087 0531 02       		.uleb128 0x2
 2088 0532 91       		.byte	0x91
 2089 0533 6E       		.sleb128 -18
 2090 0534 00       		.byte	0
 2091 0535 0E       		.uleb128 0xe
 2092 0536 E1020000 		.4byte	.LASF115
 2093 053a 01       		.byte	0x1
 2094 053b DA       		.byte	0xda
 2095 053c 00000000 		.4byte	.LFB38
 2096 0540 AC000000 		.4byte	.LFE38-.LFB38
 2097 0544 01       		.uleb128 0x1
 2098 0545 9C       		.byte	0x9c
 2099 0546 59050000 		.4byte	0x559
 2100 054a 0F       		.uleb128 0xf
 2101 054b 63726300 		.ascii	"crc\000"
 2102 054f 01       		.byte	0x1
 2103 0550 DC       		.byte	0xdc
ARM GAS  C:\Users\ADMINI~1.SC-\AppData\Local\Temp\cceVp8or.s 			page 44


 2104 0551 76000000 		.4byte	0x76
 2105 0555 02       		.uleb128 0x2
 2106 0556 91       		.byte	0x91
 2107 0557 6E       		.sleb128 -18
 2108 0558 00       		.byte	0
 2109 0559 0E       		.uleb128 0xe
 2110 055a 77010000 		.4byte	.LASF116
 2111 055e 01       		.byte	0x1
 2112 055f EF       		.byte	0xef
 2113 0560 00000000 		.4byte	.LFB39
 2114 0564 C8000000 		.4byte	.LFE39-.LFB39
 2115 0568 01       		.uleb128 0x1
 2116 0569 9C       		.byte	0x9c
 2117 056a 7D050000 		.4byte	0x57d
 2118 056e 0F       		.uleb128 0xf
 2119 056f 63726300 		.ascii	"crc\000"
 2120 0573 01       		.byte	0x1
 2121 0574 F1       		.byte	0xf1
 2122 0575 76000000 		.4byte	0x76
 2123 0579 02       		.uleb128 0x2
 2124 057a 91       		.byte	0x91
 2125 057b 6E       		.sleb128 -18
 2126 057c 00       		.byte	0
 2127 057d 12       		.uleb128 0x12
 2128 057e 09040000 		.4byte	.LASF117
 2129 0582 01       		.byte	0x1
 2130 0583 0701     		.2byte	0x107
 2131 0585 00000000 		.4byte	.LFB40
 2132 0589 AC000000 		.4byte	.LFE40-.LFB40
 2133 058d 01       		.uleb128 0x1
 2134 058e 9C       		.byte	0x9c
 2135 058f A3050000 		.4byte	0x5a3
 2136 0593 13       		.uleb128 0x13
 2137 0594 63726300 		.ascii	"crc\000"
 2138 0598 01       		.byte	0x1
 2139 0599 0901     		.2byte	0x109
 2140 059b 76000000 		.4byte	0x76
 2141 059f 02       		.uleb128 0x2
 2142 05a0 91       		.byte	0x91
 2143 05a1 6E       		.sleb128 -18
 2144 05a2 00       		.byte	0
 2145 05a3 12       		.uleb128 0x12
 2146 05a4 07010000 		.4byte	.LASF118
 2147 05a8 01       		.byte	0x1
 2148 05a9 1B01     		.2byte	0x11b
 2149 05ab 00000000 		.4byte	.LFB41
 2150 05af 28010000 		.4byte	.LFE41-.LFB41
 2151 05b3 01       		.uleb128 0x1
 2152 05b4 9C       		.byte	0x9c
 2153 05b5 D8050000 		.4byte	0x5d8
 2154 05b9 13       		.uleb128 0x13
 2155 05ba 63726300 		.ascii	"crc\000"
 2156 05be 01       		.byte	0x1
 2157 05bf 1D01     		.2byte	0x11d
 2158 05c1 76000000 		.4byte	0x76
 2159 05c5 02       		.uleb128 0x2
 2160 05c6 91       		.byte	0x91
ARM GAS  C:\Users\ADMINI~1.SC-\AppData\Local\Temp\cceVp8or.s 			page 45


 2161 05c7 6E       		.sleb128 -18
 2162 05c8 14       		.uleb128 0x14
 2163 05c9 77080000 		.4byte	.LASF119
 2164 05cd 01       		.byte	0x1
 2165 05ce 1E01     		.2byte	0x11e
 2166 05d0 43020000 		.4byte	0x243
 2167 05d4 02       		.uleb128 0x2
 2168 05d5 91       		.byte	0x91
 2169 05d6 64       		.sleb128 -28
 2170 05d7 00       		.byte	0
 2171 05d8 12       		.uleb128 0x12
 2172 05d9 3C070000 		.4byte	.LASF120
 2173 05dd 01       		.byte	0x1
 2174 05de 3C01     		.2byte	0x13c
 2175 05e0 00000000 		.4byte	.LFB42
 2176 05e4 7C000000 		.4byte	.LFE42-.LFB42
 2177 05e8 01       		.uleb128 0x1
 2178 05e9 9C       		.byte	0x9c
 2179 05ea FE050000 		.4byte	0x5fe
 2180 05ee 13       		.uleb128 0x13
 2181 05ef 63726300 		.ascii	"crc\000"
 2182 05f3 01       		.byte	0x1
 2183 05f4 3E01     		.2byte	0x13e
 2184 05f6 76000000 		.4byte	0x76
 2185 05fa 02       		.uleb128 0x2
 2186 05fb 91       		.byte	0x91
 2187 05fc 6E       		.sleb128 -18
 2188 05fd 00       		.byte	0
 2189 05fe 12       		.uleb128 0x12
 2190 05ff CD060000 		.4byte	.LASF121
 2191 0603 01       		.byte	0x1
 2192 0604 5001     		.2byte	0x150
 2193 0606 00000000 		.4byte	.LFB43
 2194 060a 60000000 		.4byte	.LFE43-.LFB43
 2195 060e 01       		.uleb128 0x1
 2196 060f 9C       		.byte	0x9c
 2197 0610 40060000 		.4byte	0x640
 2198 0614 15       		.uleb128 0x15
 2199 0615 32070000 		.4byte	.LASF122
 2200 0619 01       		.byte	0x1
 2201 061a 5001     		.2byte	0x150
 2202 061c A8000000 		.4byte	0xa8
 2203 0620 02       		.uleb128 0x2
 2204 0621 91       		.byte	0x91
 2205 0622 6C       		.sleb128 -20
 2206 0623 15       		.uleb128 0x15
 2207 0624 CC080000 		.4byte	.LASF123
 2208 0628 01       		.byte	0x1
 2209 0629 5001     		.2byte	0x150
 2210 062b 6B000000 		.4byte	0x6b
 2211 062f 02       		.uleb128 0x2
 2212 0630 91       		.byte	0x91
 2213 0631 6B       		.sleb128 -21
 2214 0632 13       		.uleb128 0x13
 2215 0633 6900     		.ascii	"i\000"
 2216 0635 01       		.byte	0x1
 2217 0636 5201     		.2byte	0x152
ARM GAS  C:\Users\ADMINI~1.SC-\AppData\Local\Temp\cceVp8or.s 			page 46


 2218 0638 6B000000 		.4byte	0x6b
 2219 063c 02       		.uleb128 0x2
 2220 063d 91       		.byte	0x91
 2221 063e 77       		.sleb128 -9
 2222 063f 00       		.byte	0
 2223 0640 16       		.uleb128 0x16
 2224 0641 9F080000 		.4byte	.LASF124
 2225 0645 01       		.byte	0x1
 2226 0646 11       		.byte	0x11
 2227 0647 48030000 		.4byte	0x348
 2228 064b 05       		.uleb128 0x5
 2229 064c 03       		.byte	0x3
 2230 064d 00000000 		.4byte	Com_Array
 2231 0651 17       		.uleb128 0x17
 2232 0652 2C010000 		.4byte	.LASF125
 2233 0656 05       		.byte	0x5
 2234 0657 51       		.byte	0x51
 2235 0658 6B000000 		.4byte	0x6b
 2236 065c 17       		.uleb128 0x17
 2237 065d D0050000 		.4byte	.LASF126
 2238 0661 04       		.byte	0x4
 2239 0662 3D       		.byte	0x3d
 2240 0663 C4030000 		.4byte	0x3c4
 2241 0667 17       		.uleb128 0x17
 2242 0668 41080000 		.4byte	.LASF127
 2243 066c 04       		.byte	0x4
 2244 066d 40       		.byte	0x40
 2245 066e 72060000 		.4byte	0x672
 2246 0672 18       		.uleb128 0x18
 2247 0673 33020000 		.4byte	0x233
 2248 0677 17       		.uleb128 0x17
 2249 0678 6D010000 		.4byte	.LASF128
 2250 067c 04       		.byte	0x4
 2251 067d 49       		.byte	0x49
 2252 067e 18040000 		.4byte	0x418
 2253 0682 17       		.uleb128 0x17
 2254 0683 9A050000 		.4byte	.LASF129
 2255 0687 04       		.byte	0x4
 2256 0688 5B       		.byte	0x5b
 2257 0689 74040000 		.4byte	0x474
 2258 068d 17       		.uleb128 0x17
 2259 068e 58020000 		.4byte	.LASF130
 2260 0692 04       		.byte	0x4
 2261 0693 68       		.byte	0x68
 2262 0694 B5040000 		.4byte	0x4b5
 2263 0698 16       		.uleb128 0x16
 2264 0699 2A070000 		.4byte	.LASF131
 2265 069d 01       		.byte	0x1
 2266 069e 12       		.byte	0x12
 2267 069f B4030000 		.4byte	0x3b4
 2268 06a3 05       		.uleb128 0x5
 2269 06a4 03       		.byte	0x3
 2270 06a5 00000000 		.4byte	App_Key
 2271 06a9 16       		.uleb128 0x16
 2272 06aa 6F070000 		.4byte	.LASF132
 2273 06ae 01       		.byte	0x1
 2274 06af 13       		.byte	0x13
ARM GAS  C:\Users\ADMINI~1.SC-\AppData\Local\Temp\cceVp8or.s 			page 47


 2275 06b0 B4030000 		.4byte	0x3b4
 2276 06b4 05       		.uleb128 0x5
 2277 06b5 03       		.byte	0x3
 2278 06b6 00000000 		.4byte	Own_Key
 2279 06ba 16       		.uleb128 0x16
 2280 06bb F0010000 		.4byte	.LASF133
 2281 06bf 01       		.byte	0x1
 2282 06c0 14       		.byte	0x14
 2283 06c1 B4030000 		.4byte	0x3b4
 2284 06c5 05       		.uleb128 0x5
 2285 06c6 03       		.byte	0x3
 2286 06c7 00000000 		.4byte	Target_Key
 2287 06cb 00       		.byte	0
 2288              		.section	.debug_abbrev,"",%progbits
 2289              	.Ldebug_abbrev0:
 2290 0000 01       		.uleb128 0x1
 2291 0001 11       		.uleb128 0x11
 2292 0002 01       		.byte	0x1
 2293 0003 25       		.uleb128 0x25
 2294 0004 0E       		.uleb128 0xe
 2295 0005 13       		.uleb128 0x13
 2296 0006 0B       		.uleb128 0xb
 2297 0007 03       		.uleb128 0x3
 2298 0008 0E       		.uleb128 0xe
 2299 0009 1B       		.uleb128 0x1b
 2300 000a 0E       		.uleb128 0xe
 2301 000b 55       		.uleb128 0x55
 2302 000c 17       		.uleb128 0x17
 2303 000d 11       		.uleb128 0x11
 2304 000e 01       		.uleb128 0x1
 2305 000f 10       		.uleb128 0x10
 2306 0010 17       		.uleb128 0x17
 2307 0011 00       		.byte	0
 2308 0012 00       		.byte	0
 2309 0013 02       		.uleb128 0x2
 2310 0014 24       		.uleb128 0x24
 2311 0015 00       		.byte	0
 2312 0016 0B       		.uleb128 0xb
 2313 0017 0B       		.uleb128 0xb
 2314 0018 3E       		.uleb128 0x3e
 2315 0019 0B       		.uleb128 0xb
 2316 001a 03       		.uleb128 0x3
 2317 001b 0E       		.uleb128 0xe
 2318 001c 00       		.byte	0
 2319 001d 00       		.byte	0
 2320 001e 03       		.uleb128 0x3
 2321 001f 24       		.uleb128 0x24
 2322 0020 00       		.byte	0
 2323 0021 0B       		.uleb128 0xb
 2324 0022 0B       		.uleb128 0xb
 2325 0023 3E       		.uleb128 0x3e
 2326 0024 0B       		.uleb128 0xb
 2327 0025 03       		.uleb128 0x3
 2328 0026 08       		.uleb128 0x8
 2329 0027 00       		.byte	0
 2330 0028 00       		.byte	0
 2331 0029 04       		.uleb128 0x4
ARM GAS  C:\Users\ADMINI~1.SC-\AppData\Local\Temp\cceVp8or.s 			page 48


 2332 002a 16       		.uleb128 0x16
 2333 002b 00       		.byte	0
 2334 002c 03       		.uleb128 0x3
 2335 002d 0E       		.uleb128 0xe
 2336 002e 3A       		.uleb128 0x3a
 2337 002f 0B       		.uleb128 0xb
 2338 0030 3B       		.uleb128 0x3b
 2339 0031 0B       		.uleb128 0xb
 2340 0032 49       		.uleb128 0x49
 2341 0033 13       		.uleb128 0x13
 2342 0034 00       		.byte	0
 2343 0035 00       		.byte	0
 2344 0036 05       		.uleb128 0x5
 2345 0037 0F       		.uleb128 0xf
 2346 0038 00       		.byte	0
 2347 0039 0B       		.uleb128 0xb
 2348 003a 0B       		.uleb128 0xb
 2349 003b 49       		.uleb128 0x49
 2350 003c 13       		.uleb128 0x13
 2351 003d 00       		.byte	0
 2352 003e 00       		.byte	0
 2353 003f 06       		.uleb128 0x6
 2354 0040 04       		.uleb128 0x4
 2355 0041 01       		.byte	0x1
 2356 0042 0B       		.uleb128 0xb
 2357 0043 0B       		.uleb128 0xb
 2358 0044 3A       		.uleb128 0x3a
 2359 0045 0B       		.uleb128 0xb
 2360 0046 3B       		.uleb128 0x3b
 2361 0047 0B       		.uleb128 0xb
 2362 0048 01       		.uleb128 0x1
 2363 0049 13       		.uleb128 0x13
 2364 004a 00       		.byte	0
 2365 004b 00       		.byte	0
 2366 004c 07       		.uleb128 0x7
 2367 004d 28       		.uleb128 0x28
 2368 004e 00       		.byte	0
 2369 004f 03       		.uleb128 0x3
 2370 0050 0E       		.uleb128 0xe
 2371 0051 1C       		.uleb128 0x1c
 2372 0052 0D       		.uleb128 0xd
 2373 0053 00       		.byte	0
 2374 0054 00       		.byte	0
 2375 0055 08       		.uleb128 0x8
 2376 0056 01       		.uleb128 0x1
 2377 0057 01       		.byte	0x1
 2378 0058 49       		.uleb128 0x49
 2379 0059 13       		.uleb128 0x13
 2380 005a 01       		.uleb128 0x1
 2381 005b 13       		.uleb128 0x13
 2382 005c 00       		.byte	0
 2383 005d 00       		.byte	0
 2384 005e 09       		.uleb128 0x9
 2385 005f 21       		.uleb128 0x21
 2386 0060 00       		.byte	0
 2387 0061 49       		.uleb128 0x49
 2388 0062 13       		.uleb128 0x13
ARM GAS  C:\Users\ADMINI~1.SC-\AppData\Local\Temp\cceVp8or.s 			page 49


 2389 0063 2F       		.uleb128 0x2f
 2390 0064 0B       		.uleb128 0xb
 2391 0065 00       		.byte	0
 2392 0066 00       		.byte	0
 2393 0067 0A       		.uleb128 0xa
 2394 0068 13       		.uleb128 0x13
 2395 0069 01       		.byte	0x1
 2396 006a 0B       		.uleb128 0xb
 2397 006b 0B       		.uleb128 0xb
 2398 006c 3A       		.uleb128 0x3a
 2399 006d 0B       		.uleb128 0xb
 2400 006e 3B       		.uleb128 0x3b
 2401 006f 0B       		.uleb128 0xb
 2402 0070 01       		.uleb128 0x1
 2403 0071 13       		.uleb128 0x13
 2404 0072 00       		.byte	0
 2405 0073 00       		.byte	0
 2406 0074 0B       		.uleb128 0xb
 2407 0075 0D       		.uleb128 0xd
 2408 0076 00       		.byte	0
 2409 0077 03       		.uleb128 0x3
 2410 0078 0E       		.uleb128 0xe
 2411 0079 3A       		.uleb128 0x3a
 2412 007a 0B       		.uleb128 0xb
 2413 007b 3B       		.uleb128 0x3b
 2414 007c 0B       		.uleb128 0xb
 2415 007d 49       		.uleb128 0x49
 2416 007e 13       		.uleb128 0x13
 2417 007f 38       		.uleb128 0x38
 2418 0080 0B       		.uleb128 0xb
 2419 0081 00       		.byte	0
 2420 0082 00       		.byte	0
 2421 0083 0C       		.uleb128 0xc
 2422 0084 0D       		.uleb128 0xd
 2423 0085 00       		.byte	0
 2424 0086 03       		.uleb128 0x3
 2425 0087 08       		.uleb128 0x8
 2426 0088 3A       		.uleb128 0x3a
 2427 0089 0B       		.uleb128 0xb
 2428 008a 3B       		.uleb128 0x3b
 2429 008b 0B       		.uleb128 0xb
 2430 008c 49       		.uleb128 0x49
 2431 008d 13       		.uleb128 0x13
 2432 008e 38       		.uleb128 0x38
 2433 008f 0B       		.uleb128 0xb
 2434 0090 00       		.byte	0
 2435 0091 00       		.byte	0
 2436 0092 0D       		.uleb128 0xd
 2437 0093 0D       		.uleb128 0xd
 2438 0094 00       		.byte	0
 2439 0095 03       		.uleb128 0x3
 2440 0096 0E       		.uleb128 0xe
 2441 0097 3A       		.uleb128 0x3a
 2442 0098 0B       		.uleb128 0xb
 2443 0099 3B       		.uleb128 0x3b
 2444 009a 0B       		.uleb128 0xb
 2445 009b 49       		.uleb128 0x49
ARM GAS  C:\Users\ADMINI~1.SC-\AppData\Local\Temp\cceVp8or.s 			page 50


 2446 009c 13       		.uleb128 0x13
 2447 009d 0B       		.uleb128 0xb
 2448 009e 0B       		.uleb128 0xb
 2449 009f 0D       		.uleb128 0xd
 2450 00a0 0B       		.uleb128 0xb
 2451 00a1 0C       		.uleb128 0xc
 2452 00a2 0B       		.uleb128 0xb
 2453 00a3 38       		.uleb128 0x38
 2454 00a4 0B       		.uleb128 0xb
 2455 00a5 00       		.byte	0
 2456 00a6 00       		.byte	0
 2457 00a7 0E       		.uleb128 0xe
 2458 00a8 2E       		.uleb128 0x2e
 2459 00a9 01       		.byte	0x1
 2460 00aa 3F       		.uleb128 0x3f
 2461 00ab 19       		.uleb128 0x19
 2462 00ac 03       		.uleb128 0x3
 2463 00ad 0E       		.uleb128 0xe
 2464 00ae 3A       		.uleb128 0x3a
 2465 00af 0B       		.uleb128 0xb
 2466 00b0 3B       		.uleb128 0x3b
 2467 00b1 0B       		.uleb128 0xb
 2468 00b2 27       		.uleb128 0x27
 2469 00b3 19       		.uleb128 0x19
 2470 00b4 11       		.uleb128 0x11
 2471 00b5 01       		.uleb128 0x1
 2472 00b6 12       		.uleb128 0x12
 2473 00b7 06       		.uleb128 0x6
 2474 00b8 40       		.uleb128 0x40
 2475 00b9 18       		.uleb128 0x18
 2476 00ba 9642     		.uleb128 0x2116
 2477 00bc 19       		.uleb128 0x19
 2478 00bd 01       		.uleb128 0x1
 2479 00be 13       		.uleb128 0x13
 2480 00bf 00       		.byte	0
 2481 00c0 00       		.byte	0
 2482 00c1 0F       		.uleb128 0xf
 2483 00c2 34       		.uleb128 0x34
 2484 00c3 00       		.byte	0
 2485 00c4 03       		.uleb128 0x3
 2486 00c5 08       		.uleb128 0x8
 2487 00c6 3A       		.uleb128 0x3a
 2488 00c7 0B       		.uleb128 0xb
 2489 00c8 3B       		.uleb128 0x3b
 2490 00c9 0B       		.uleb128 0xb
 2491 00ca 49       		.uleb128 0x49
 2492 00cb 13       		.uleb128 0x13
 2493 00cc 02       		.uleb128 0x2
 2494 00cd 18       		.uleb128 0x18
 2495 00ce 00       		.byte	0
 2496 00cf 00       		.byte	0
 2497 00d0 10       		.uleb128 0x10
 2498 00d1 34       		.uleb128 0x34
 2499 00d2 00       		.byte	0
 2500 00d3 03       		.uleb128 0x3
 2501 00d4 0E       		.uleb128 0xe
 2502 00d5 3A       		.uleb128 0x3a
ARM GAS  C:\Users\ADMINI~1.SC-\AppData\Local\Temp\cceVp8or.s 			page 51


 2503 00d6 0B       		.uleb128 0xb
 2504 00d7 3B       		.uleb128 0x3b
 2505 00d8 0B       		.uleb128 0xb
 2506 00d9 49       		.uleb128 0x49
 2507 00da 13       		.uleb128 0x13
 2508 00db 02       		.uleb128 0x2
 2509 00dc 18       		.uleb128 0x18
 2510 00dd 00       		.byte	0
 2511 00de 00       		.byte	0
 2512 00df 11       		.uleb128 0x11
 2513 00e0 2E       		.uleb128 0x2e
 2514 00e1 00       		.byte	0
 2515 00e2 3F       		.uleb128 0x3f
 2516 00e3 19       		.uleb128 0x19
 2517 00e4 03       		.uleb128 0x3
 2518 00e5 0E       		.uleb128 0xe
 2519 00e6 3A       		.uleb128 0x3a
 2520 00e7 0B       		.uleb128 0xb
 2521 00e8 3B       		.uleb128 0x3b
 2522 00e9 0B       		.uleb128 0xb
 2523 00ea 27       		.uleb128 0x27
 2524 00eb 19       		.uleb128 0x19
 2525 00ec 11       		.uleb128 0x11
 2526 00ed 01       		.uleb128 0x1
 2527 00ee 12       		.uleb128 0x12
 2528 00ef 06       		.uleb128 0x6
 2529 00f0 40       		.uleb128 0x40
 2530 00f1 18       		.uleb128 0x18
 2531 00f2 9642     		.uleb128 0x2116
 2532 00f4 19       		.uleb128 0x19
 2533 00f5 00       		.byte	0
 2534 00f6 00       		.byte	0
 2535 00f7 12       		.uleb128 0x12
 2536 00f8 2E       		.uleb128 0x2e
 2537 00f9 01       		.byte	0x1
 2538 00fa 3F       		.uleb128 0x3f
 2539 00fb 19       		.uleb128 0x19
 2540 00fc 03       		.uleb128 0x3
 2541 00fd 0E       		.uleb128 0xe
 2542 00fe 3A       		.uleb128 0x3a
 2543 00ff 0B       		.uleb128 0xb
 2544 0100 3B       		.uleb128 0x3b
 2545 0101 05       		.uleb128 0x5
 2546 0102 27       		.uleb128 0x27
 2547 0103 19       		.uleb128 0x19
 2548 0104 11       		.uleb128 0x11
 2549 0105 01       		.uleb128 0x1
 2550 0106 12       		.uleb128 0x12
 2551 0107 06       		.uleb128 0x6
 2552 0108 40       		.uleb128 0x40
 2553 0109 18       		.uleb128 0x18
 2554 010a 9642     		.uleb128 0x2116
 2555 010c 19       		.uleb128 0x19
 2556 010d 01       		.uleb128 0x1
 2557 010e 13       		.uleb128 0x13
 2558 010f 00       		.byte	0
 2559 0110 00       		.byte	0
ARM GAS  C:\Users\ADMINI~1.SC-\AppData\Local\Temp\cceVp8or.s 			page 52


 2560 0111 13       		.uleb128 0x13
 2561 0112 34       		.uleb128 0x34
 2562 0113 00       		.byte	0
 2563 0114 03       		.uleb128 0x3
 2564 0115 08       		.uleb128 0x8
 2565 0116 3A       		.uleb128 0x3a
 2566 0117 0B       		.uleb128 0xb
 2567 0118 3B       		.uleb128 0x3b
 2568 0119 05       		.uleb128 0x5
 2569 011a 49       		.uleb128 0x49
 2570 011b 13       		.uleb128 0x13
 2571 011c 02       		.uleb128 0x2
 2572 011d 18       		.uleb128 0x18
 2573 011e 00       		.byte	0
 2574 011f 00       		.byte	0
 2575 0120 14       		.uleb128 0x14
 2576 0121 34       		.uleb128 0x34
 2577 0122 00       		.byte	0
 2578 0123 03       		.uleb128 0x3
 2579 0124 0E       		.uleb128 0xe
 2580 0125 3A       		.uleb128 0x3a
 2581 0126 0B       		.uleb128 0xb
 2582 0127 3B       		.uleb128 0x3b
 2583 0128 05       		.uleb128 0x5
 2584 0129 49       		.uleb128 0x49
 2585 012a 13       		.uleb128 0x13
 2586 012b 02       		.uleb128 0x2
 2587 012c 18       		.uleb128 0x18
 2588 012d 00       		.byte	0
 2589 012e 00       		.byte	0
 2590 012f 15       		.uleb128 0x15
 2591 0130 05       		.uleb128 0x5
 2592 0131 00       		.byte	0
 2593 0132 03       		.uleb128 0x3
 2594 0133 0E       		.uleb128 0xe
 2595 0134 3A       		.uleb128 0x3a
 2596 0135 0B       		.uleb128 0xb
 2597 0136 3B       		.uleb128 0x3b
 2598 0137 05       		.uleb128 0x5
 2599 0138 49       		.uleb128 0x49
 2600 0139 13       		.uleb128 0x13
 2601 013a 02       		.uleb128 0x2
 2602 013b 18       		.uleb128 0x18
 2603 013c 00       		.byte	0
 2604 013d 00       		.byte	0
 2605 013e 16       		.uleb128 0x16
 2606 013f 34       		.uleb128 0x34
 2607 0140 00       		.byte	0
 2608 0141 03       		.uleb128 0x3
 2609 0142 0E       		.uleb128 0xe
 2610 0143 3A       		.uleb128 0x3a
 2611 0144 0B       		.uleb128 0xb
 2612 0145 3B       		.uleb128 0x3b
 2613 0146 0B       		.uleb128 0xb
 2614 0147 49       		.uleb128 0x49
 2615 0148 13       		.uleb128 0x13
 2616 0149 3F       		.uleb128 0x3f
ARM GAS  C:\Users\ADMINI~1.SC-\AppData\Local\Temp\cceVp8or.s 			page 53


 2617 014a 19       		.uleb128 0x19
 2618 014b 02       		.uleb128 0x2
 2619 014c 18       		.uleb128 0x18
 2620 014d 00       		.byte	0
 2621 014e 00       		.byte	0
 2622 014f 17       		.uleb128 0x17
 2623 0150 34       		.uleb128 0x34
 2624 0151 00       		.byte	0
 2625 0152 03       		.uleb128 0x3
 2626 0153 0E       		.uleb128 0xe
 2627 0154 3A       		.uleb128 0x3a
 2628 0155 0B       		.uleb128 0xb
 2629 0156 3B       		.uleb128 0x3b
 2630 0157 0B       		.uleb128 0xb
 2631 0158 49       		.uleb128 0x49
 2632 0159 13       		.uleb128 0x13
 2633 015a 3F       		.uleb128 0x3f
 2634 015b 19       		.uleb128 0x19
 2635 015c 3C       		.uleb128 0x3c
 2636 015d 19       		.uleb128 0x19
 2637 015e 00       		.byte	0
 2638 015f 00       		.byte	0
 2639 0160 18       		.uleb128 0x18
 2640 0161 26       		.uleb128 0x26
 2641 0162 00       		.byte	0
 2642 0163 49       		.uleb128 0x49
 2643 0164 13       		.uleb128 0x13
 2644 0165 00       		.byte	0
 2645 0166 00       		.byte	0
 2646 0167 00       		.byte	0
 2647              		.section	.debug_aranges,"",%progbits
 2648 0000 5C000000 		.4byte	0x5c
 2649 0004 0200     		.2byte	0x2
 2650 0006 00000000 		.4byte	.Ldebug_info0
 2651 000a 04       		.byte	0x4
 2652 000b 00       		.byte	0
 2653 000c 0000     		.2byte	0
 2654 000e 0000     		.2byte	0
 2655 0010 00000000 		.4byte	.LFB35
 2656 0014 14020000 		.4byte	.LFE35-.LFB35
 2657 0018 00000000 		.4byte	.LFB36
 2658 001c 64010000 		.4byte	.LFE36-.LFB36
 2659 0020 00000000 		.4byte	.LFB37
 2660 0024 68000000 		.4byte	.LFE37-.LFB37
 2661 0028 00000000 		.4byte	.LFB38
 2662 002c AC000000 		.4byte	.LFE38-.LFB38
 2663 0030 00000000 		.4byte	.LFB39
 2664 0034 C8000000 		.4byte	.LFE39-.LFB39
 2665 0038 00000000 		.4byte	.LFB40
 2666 003c AC000000 		.4byte	.LFE40-.LFB40
 2667 0040 00000000 		.4byte	.LFB41
 2668 0044 28010000 		.4byte	.LFE41-.LFB41
 2669 0048 00000000 		.4byte	.LFB42
 2670 004c 7C000000 		.4byte	.LFE42-.LFB42
 2671 0050 00000000 		.4byte	.LFB43
 2672 0054 60000000 		.4byte	.LFE43-.LFB43
 2673 0058 00000000 		.4byte	0
ARM GAS  C:\Users\ADMINI~1.SC-\AppData\Local\Temp\cceVp8or.s 			page 54


 2674 005c 00000000 		.4byte	0
 2675              		.section	.debug_ranges,"",%progbits
 2676              	.Ldebug_ranges0:
 2677 0000 00000000 		.4byte	.LFB35
 2678 0004 14020000 		.4byte	.LFE35
 2679 0008 00000000 		.4byte	.LFB36
 2680 000c 64010000 		.4byte	.LFE36
 2681 0010 00000000 		.4byte	.LFB37
 2682 0014 68000000 		.4byte	.LFE37
 2683 0018 00000000 		.4byte	.LFB38
 2684 001c AC000000 		.4byte	.LFE38
 2685 0020 00000000 		.4byte	.LFB39
 2686 0024 C8000000 		.4byte	.LFE39
 2687 0028 00000000 		.4byte	.LFB40
 2688 002c AC000000 		.4byte	.LFE40
 2689 0030 00000000 		.4byte	.LFB41
 2690 0034 28010000 		.4byte	.LFE41
 2691 0038 00000000 		.4byte	.LFB42
 2692 003c 7C000000 		.4byte	.LFE42
 2693 0040 00000000 		.4byte	.LFB43
 2694 0044 60000000 		.4byte	.LFE43
 2695 0048 00000000 		.4byte	0
 2696 004c 00000000 		.4byte	0
 2697              		.section	.debug_line,"",%progbits
 2698              	.Ldebug_line0:
 2699 0000 CE010000 		.section	.debug_str,"MS",%progbits,1
 2699      02008000 
 2699      00000201 
 2699      FB0E0D00 
 2699      01010101 
 2700              	.LASF67:
 2701 0000 4359424C 		.ascii	"CYBLE_EVT_L2CAP_CBFC_RX_CREDIT_IND\000"
 2701      455F4556 
 2701      545F4C32 
 2701      4341505F 
 2701      43424643 
 2702              	.LASF21:
 2703 0023 4359424C 		.ascii	"CYBLE_EVT_STACK_BUSY_STATUS\000"
 2703      455F4556 
 2703      545F5354 
 2703      41434B5F 
 2703      42555359 
 2704              	.LASF10:
 2705 003f 75696E74 		.ascii	"uint16\000"
 2705      313600
 2706              	.LASF66:
 2707 0046 4359424C 		.ascii	"CYBLE_EVT_L2CAP_CBFC_DATA_READ\000"
 2707      455F4556 
 2707      545F4C32 
 2707      4341505F 
 2707      43424643 
 2708              	.LASF82:
 2709 0065 54785F4C 		.ascii	"Tx_Length\000"
 2709      656E6774 
 2709      6800
 2710              	.LASF32:
 2711 006f 4359424C 		.ascii	"CYBLE_EVT_GAP_CONNECTION_UPDATE_COMPLETE\000"
ARM GAS  C:\Users\ADMINI~1.SC-\AppData\Local\Temp\cceVp8or.s 			page 55


 2711      455F4556 
 2711      545F4741 
 2711      505F434F 
 2711      4E4E4543 
 2712              	.LASF73:
 2713 0098 52785F62 		.ascii	"Rx_buff\000"
 2713      75666600 
 2714              	.LASF65:
 2715 00a0 4359424C 		.ascii	"CYBLE_EVT_L2CAP_CBFC_DISCONN_CNF\000"
 2715      455F4556 
 2715      545F4C32 
 2715      4341505F 
 2715      43424643 
 2716              	.LASF46:
 2717 00c1 4359424C 		.ascii	"CYBLE_EVT_GATTC_READ_MULTI_RSP\000"
 2717      455F4556 
 2717      545F4741 
 2717      5454435F 
 2717      52454144 
 2718              	.LASF51:
 2719 00e0 4359424C 		.ascii	"CYBLE_EVT_GATTS_EXEC_WRITE_REQ\000"
 2719      455F4556 
 2719      545F4741 
 2719      5454535F 
 2719      45584543 
 2720              	.LASF74:
 2721 00ff 54785F62 		.ascii	"Tx_buff\000"
 2721      75666600 
 2722              	.LASF118:
 2723 0107 4F70656E 		.ascii	"Open_Lock\000"
 2723      5F4C6F63 
 2723      6B00
 2724              	.LASF18:
 2725 0111 4359424C 		.ascii	"CYBLE_EVT_TIMEOUT\000"
 2725      455F4556 
 2725      545F5449 
 2725      4D454F55 
 2725      5400
 2726              	.LASF4:
 2727 0123 6C6F6E67 		.ascii	"long int\000"
 2727      20696E74 
 2727      00
 2728              	.LASF125:
 2729 012c 7061636B 		.ascii	"packetTXStep\000"
 2729      65745458 
 2729      53746570 
 2729      00
 2730              	.LASF80:
 2731 0139 52785F46 		.ascii	"Rx_Flag\000"
 2731      6C616700 
 2732              	.LASF7:
 2733 0141 6C6F6E67 		.ascii	"long long unsigned int\000"
 2733      206C6F6E 
 2733      6720756E 
 2733      7369676E 
 2733      65642069 
 2734              	.LASF20:
ARM GAS  C:\Users\ADMINI~1.SC-\AppData\Local\Temp\cceVp8or.s 			page 56


 2735 0158 4359424C 		.ascii	"CYBLE_EVT_HCI_STATUS\000"
 2735      455F4556 
 2735      545F4843 
 2735      495F5354 
 2735      41545553 
 2736              	.LASF128:
 2737 016d 4C6F636B 		.ascii	"Lock_Info\000"
 2737      5F496E66 
 2737      6F00
 2738              	.LASF116:
 2739 0177 53776170 		.ascii	"Swap_Key\000"
 2739      5F4B6579 
 2739      00
 2740              	.LASF59:
 2741 0180 4359424C 		.ascii	"CYBLE_EVT_L2CAP_CONN_PARAM_UPDATE_REQ\000"
 2741      455F4556 
 2741      545F4C32 
 2741      4341505F 
 2741      434F4E4E 
 2742              	.LASF31:
 2743 01a6 4359424C 		.ascii	"CYBLE_EVT_GAP_ENCRYPT_CHANGE\000"
 2743      455F4556 
 2743      545F4741 
 2743      505F454E 
 2743      43525950 
 2744              	.LASF6:
 2745 01c3 6C6F6E67 		.ascii	"long long int\000"
 2745      206C6F6E 
 2745      6720696E 
 2745      7400
 2746              	.LASF0:
 2747 01d1 7369676E 		.ascii	"signed char\000"
 2747      65642063 
 2747      68617200 
 2748              	.LASF17:
 2749 01dd 4359424C 		.ascii	"CYBLE_EVT_STACK_ON\000"
 2749      455F4556 
 2749      545F5354 
 2749      41434B5F 
 2749      4F4E00
 2750              	.LASF133:
 2751 01f0 54617267 		.ascii	"Target_Key\000"
 2751      65745F4B 
 2751      657900
 2752              	.LASF113:
 2753 01fb 436F6D5F 		.ascii	"Com_Recv_Prov\000"
 2753      52656376 
 2753      5F50726F 
 2753      7600
 2754              	.LASF33:
 2755 0209 4359424C 		.ascii	"CYBLE_EVT_GAPC_SCAN_START_STOP\000"
 2755      455F4556 
 2755      545F4741 
 2755      50435F53 
 2755      43414E5F 
 2756              	.LASF23:
 2757 0228 4359424C 		.ascii	"CYBLE_EVT_GAP_AUTH_REQ\000"
ARM GAS  C:\Users\ADMINI~1.SC-\AppData\Local\Temp\cceVp8or.s 			page 57


 2757      455F4556 
 2757      545F4741 
 2757      505F4155 
 2757      54485F52 
 2758              	.LASF44:
 2759 023f 4359424C 		.ascii	"CYBLE_EVT_GATTC_READ_RSP\000"
 2759      455F4556 
 2759      545F4741 
 2759      5454435F 
 2759      52454144 
 2760              	.LASF130:
 2761 0258 466C6167 		.ascii	"Flag\000"
 2761      00
 2762              	.LASF49:
 2763 025d 4359424C 		.ascii	"CYBLE_EVT_GATTS_WRITE_CMD_REQ\000"
 2763      455F4556 
 2763      545F4741 
 2763      5454535F 
 2763      57524954 
 2764              	.LASF84:
 2765 027b 54785F4D 		.ascii	"Tx_Mode\000"
 2765      6F646500 
 2766              	.LASF112:
 2767 0283 43686563 		.ascii	"Check_CRC\000"
 2767      6B5F4352 
 2767      4300
 2768              	.LASF28:
 2769 028d 4359424C 		.ascii	"CYBLE_EVT_GAPP_ADVERTISEMENT_START_STOP\000"
 2769      455F4556 
 2769      545F4741 
 2769      50505F41 
 2769      44564552 
 2770              	.LASF9:
 2771 02b5 75696E74 		.ascii	"uint8\000"
 2771      3800
 2772              	.LASF52:
 2773 02bb 4359424C 		.ascii	"CYBLE_EVT_GATTC_EXEC_WRITE_RSP\000"
 2773      455F4556 
 2773      545F4741 
 2773      5454435F 
 2773      45584543 
 2774              	.LASF13:
 2775 02da 646F7562 		.ascii	"double\000"
 2775      6C6500
 2776              	.LASF115:
 2777 02e1 43686563 		.ascii	"Check_Code\000"
 2777      6B5F436F 
 2777      646500
 2778              	.LASF101:
 2779 02ec 41736B5F 		.ascii	"Ask_Lock_Delay\000"
 2779      4C6F636B 
 2779      5F44656C 
 2779      617900
 2780              	.LASF97:
 2781 02fb 496E6974 		.ascii	"InitState\000"
 2781      53746174 
 2781      6500
ARM GAS  C:\Users\ADMINI~1.SC-\AppData\Local\Temp\cceVp8or.s 			page 58


 2782              	.LASF11:
 2783 0305 75696E74 		.ascii	"uint32\000"
 2783      333200
 2784              	.LASF135:
 2785 030c 6170705F 		.ascii	"app_Com.c\000"
 2785      436F6D2E 
 2785      6300
 2786              	.LASF137:
 2787 0316 436F6D5F 		.ascii	"Com_Send_Prov\000"
 2787      53656E64 
 2787      5F50726F 
 2787      7600
 2788              	.LASF72:
 2789 0324 4359424C 		.ascii	"CYBLE_EVT_MAX\000"
 2789      455F4556 
 2789      545F4D41 
 2789      5800
 2790              	.LASF69:
 2791 0332 4359424C 		.ascii	"CYBLE_EVT_L2CAP_CBFC_DATA_WRITE_IND\000"
 2791      455F4556 
 2791      545F4C32 
 2791      4341505F 
 2791      43424643 
 2792              	.LASF104:
 2793 0356 44656C61 		.ascii	"Delay_1s\000"
 2793      795F3173 
 2793      00
 2794              	.LASF87:
 2795 035f 54785F44 		.ascii	"Tx_Delay\000"
 2795      656C6179 
 2795      00
 2796              	.LASF85:
 2797 0368 54785F57 		.ascii	"Tx_Wait\000"
 2797      61697400 
 2798              	.LASF102:
 2799 0370 4E6F4C6F 		.ascii	"NoLock_Count\000"
 2799      636B5F43 
 2799      6F756E74 
 2799      00
 2800              	.LASF57:
 2801 037d 4359424C 		.ascii	"CYBLE_EVT_GATTC_STOP_CMD_COMPLETE\000"
 2801      455F4556 
 2801      545F4741 
 2801      5454435F 
 2801      53544F50 
 2802              	.LASF136:
 2803 039f 453A5C6D 		.ascii	"E:\\my_project\\shhl\\BLE_KEY_wuyuan\\Design02.cyds"
 2803      795F7072 
 2803      6F6A6563 
 2803      745C7368 
 2803      686C5C42 
 2804 03ce 6E00     		.ascii	"n\000"
 2805              	.LASF94:
 2806 03d0 49444368 		.ascii	"IDChangeFlag\000"
 2806      616E6765 
 2806      466C6167 
 2806      00
ARM GAS  C:\Users\ADMINI~1.SC-\AppData\Local\Temp\cceVp8or.s 			page 59


 2807              	.LASF8:
 2808 03dd 756E7369 		.ascii	"unsigned int\000"
 2808      676E6564 
 2808      20696E74 
 2808      00
 2809              	.LASF71:
 2810 03ea 4359424C 		.ascii	"CYBLE_EVT_LE_PING_AUTH_TIMEOUT\000"
 2810      455F4556 
 2810      545F4C45 
 2810      5F50494E 
 2810      475F4155 
 2811              	.LASF117:
 2812 0409 52657175 		.ascii	"Request_Index\000"
 2812      6573745F 
 2812      496E6465 
 2812      7800
 2813              	.LASF5:
 2814 0417 6C6F6E67 		.ascii	"long unsigned int\000"
 2814      20756E73 
 2814      69676E65 
 2814      6420696E 
 2814      7400
 2815              	.LASF47:
 2816 0429 4359424C 		.ascii	"CYBLE_EVT_GATTS_WRITE_REQ\000"
 2816      455F4556 
 2816      545F4741 
 2816      5454535F 
 2816      57524954 
 2817              	.LASF39:
 2818 0443 4359424C 		.ascii	"CYBLE_EVT_GATTC_XCHNG_MTU_RSP\000"
 2818      455F4556 
 2818      545F4741 
 2818      5454435F 
 2818      5843484E 
 2819              	.LASF56:
 2820 0461 4359424C 		.ascii	"CYBLE_EVT_GATTS_DATA_SIGNED_CMD_REQ\000"
 2820      455F4556 
 2820      545F4741 
 2820      5454535F 
 2820      44415441 
 2821              	.LASF100:
 2822 0485 416C6172 		.ascii	"Alarm_Count\000"
 2822      6D5F436F 
 2822      756E7400 
 2823              	.LASF106:
 2824 0491 44656C61 		.ascii	"DelayTime\000"
 2824      7954696D 
 2824      6500
 2825              	.LASF3:
 2826 049b 73686F72 		.ascii	"short unsigned int\000"
 2826      7420756E 
 2826      7369676E 
 2826      65642069 
 2826      6E7400
 2827              	.LASF99:
 2828 04ae 4C4F434B 		.ascii	"LOCK_INFO\000"
 2828      5F494E46 
ARM GAS  C:\Users\ADMINI~1.SC-\AppData\Local\Temp\cceVp8or.s 			page 60


 2828      4F00
 2829              	.LASF16:
 2830 04b8 4359424C 		.ascii	"CYBLE_EVT_HOST_INVALID\000"
 2830      455F4556 
 2830      545F484F 
 2830      53545F49 
 2830      4E56414C 
 2831              	.LASF42:
 2832 04cf 4359424C 		.ascii	"CYBLE_EVT_GATTC_FIND_INFO_RSP\000"
 2832      455F4556 
 2832      545F4741 
 2832      5454435F 
 2832      46494E44 
 2833              	.LASF103:
 2834 04ed 44656C61 		.ascii	"Delay_1ms\000"
 2834      795F316D 
 2834      7300
 2835              	.LASF96:
 2836 04f7 56657273 		.ascii	"Version\000"
 2836      696F6E00 
 2837              	.LASF24:
 2838 04ff 4359424C 		.ascii	"CYBLE_EVT_GAP_PASSKEY_ENTRY_REQUEST\000"
 2838      455F4556 
 2838      545F4741 
 2838      505F5041 
 2838      53534B45 
 2839              	.LASF29:
 2840 0523 4359424C 		.ascii	"CYBLE_EVT_GAP_DEVICE_CONNECTED\000"
 2840      455F4556 
 2840      545F4741 
 2840      505F4445 
 2840      56494345 
 2841              	.LASF89:
 2842 0542 436F6D41 		.ascii	"ComArray\000"
 2842      72726179 
 2842      00
 2843              	.LASF78:
 2844 054b 52785F42 		.ascii	"Rx_Begin_Flag\000"
 2844      6567696E 
 2844      5F466C61 
 2844      6700
 2845              	.LASF25:
 2846 0559 4359424C 		.ascii	"CYBLE_EVT_GAP_PASSKEY_DISPLAY_REQUEST\000"
 2846      455F4556 
 2846      545F4741 
 2846      505F5041 
 2846      53534B45 
 2847              	.LASF36:
 2848 057f 4359424C 		.ascii	"CYBLE_EVT_GATT_CONNECT_IND\000"
 2848      455F4556 
 2848      545F4741 
 2848      54545F43 
 2848      4F4E4E45 
 2849              	.LASF129:
 2850 059a 44656C61 		.ascii	"Delay_Time\000"
 2850      795F5469 
 2850      6D6500
ARM GAS  C:\Users\ADMINI~1.SC-\AppData\Local\Temp\cceVp8or.s 			page 61


 2851              	.LASF61:
 2852 05a5 4359424C 		.ascii	"CYBLE_EVT_L2CAP_COMMAND_REJ\000"
 2852      455F4556 
 2852      545F4C32 
 2852      4341505F 
 2852      434F4D4D 
 2853              	.LASF109:
 2854 05c1 42656769 		.ascii	"Begin_Ask_Lock\000"
 2854      6E5F4173 
 2854      6B5F4C6F 
 2854      636B00
 2855              	.LASF126:
 2856 05d0 53797374 		.ascii	"System_Config\000"
 2856      656D5F43 
 2856      6F6E6669 
 2856      6700
 2857              	.LASF22:
 2858 05de 4359424C 		.ascii	"CYBLE_EVT_GAPC_SCAN_PROGRESS_RESULT\000"
 2858      455F4556 
 2858      545F4741 
 2858      50435F53 
 2858      43414E5F 
 2859              	.LASF62:
 2860 0602 4359424C 		.ascii	"CYBLE_EVT_L2CAP_CBFC_CONN_IND\000"
 2860      455F4556 
 2860      545F4C32 
 2860      4341505F 
 2860      43424643 
 2861              	.LASF41:
 2862 0620 4359424C 		.ascii	"CYBLE_EVT_GATTC_READ_BY_TYPE_RSP\000"
 2862      455F4556 
 2862      545F4741 
 2862      5454435F 
 2862      52454144 
 2863              	.LASF15:
 2864 0641 73697A65 		.ascii	"sizetype\000"
 2864      74797065 
 2864      00
 2865              	.LASF92:
 2866 064a 726F6F74 		.ascii	"root_key\000"
 2866      5F6B6579 
 2866      00
 2867              	.LASF27:
 2868 0653 4359424C 		.ascii	"CYBLE_EVT_GAP_AUTH_FAILED\000"
 2868      455F4556 
 2868      545F4741 
 2868      505F4155 
 2868      54485F46 
 2869              	.LASF48:
 2870 066d 4359424C 		.ascii	"CYBLE_EVT_GATTC_WRITE_RSP\000"
 2870      455F4556 
 2870      545F4741 
 2870      5454435F 
 2870      57524954 
 2871              	.LASF83:
 2872 0687 54785F53 		.ascii	"Tx_State\000"
 2872      74617465 
ARM GAS  C:\Users\ADMINI~1.SC-\AppData\Local\Temp\cceVp8or.s 			page 62


 2872      00
 2873              	.LASF26:
 2874 0690 4359424C 		.ascii	"CYBLE_EVT_GAP_AUTH_COMPLETE\000"
 2874      455F4556 
 2874      545F4741 
 2874      505F4155 
 2874      54485F43 
 2875              	.LASF53:
 2876 06ac 4359424C 		.ascii	"CYBLE_EVT_GATTC_HANDLE_VALUE_NTF\000"
 2876      455F4556 
 2876      545F4741 
 2876      5454435F 
 2876      48414E44 
 2877              	.LASF121:
 2878 06cd 53656E64 		.ascii	"Send_Com\000"
 2878      5F436F6D 
 2878      00
 2879              	.LASF63:
 2880 06d6 4359424C 		.ascii	"CYBLE_EVT_L2CAP_CBFC_CONN_CNF\000"
 2880      455F4556 
 2880      545F4C32 
 2880      4341505F 
 2880      43424643 
 2881              	.LASF40:
 2882 06f4 4359424C 		.ascii	"CYBLE_EVT_GATTC_READ_BY_GROUP_TYPE_RSP\000"
 2882      455F4556 
 2882      545F4741 
 2882      5454435F 
 2882      52454144 
 2883              	.LASF12:
 2884 071b 666C6F61 		.ascii	"float\000"
 2884      7400
 2885              	.LASF79:
 2886 0721 52785F44 		.ascii	"Rx_Delay\000"
 2886      656C6179 
 2886      00
 2887              	.LASF131:
 2888 072a 4170705F 		.ascii	"App_Key\000"
 2888      4B657900 
 2889              	.LASF122:
 2890 0732 54585F42 		.ascii	"TX_Buffer\000"
 2890      75666665 
 2890      7200
 2891              	.LASF120:
 2892 073c 5365745F 		.ascii	"Set_Lock_ID\000"
 2892      4C6F636B 
 2892      5F494400 
 2893              	.LASF1:
 2894 0748 756E7369 		.ascii	"unsigned char\000"
 2894      676E6564 
 2894      20636861 
 2894      7200
 2895              	.LASF107:
 2896 0756 416C6172 		.ascii	"Alarm_Work_Step\000"
 2896      6D5F576F 
 2896      726B5F53 
 2896      74657000 
ARM GAS  C:\Users\ADMINI~1.SC-\AppData\Local\Temp\cceVp8or.s 			page 63


 2897              	.LASF86:
 2898 0766 54785F43 		.ascii	"Tx_Count\000"
 2898      6F756E74 
 2898      00
 2899              	.LASF132:
 2900 076f 4F776E5F 		.ascii	"Own_Key\000"
 2900      4B657900 
 2901              	.LASF93:
 2902 0777 6374726C 		.ascii	"ctrl_key\000"
 2902      5F6B6579 
 2902      00
 2903              	.LASF2:
 2904 0780 73686F72 		.ascii	"short int\000"
 2904      7420696E 
 2904      7400
 2905              	.LASF54:
 2906 078a 4359424C 		.ascii	"CYBLE_EVT_GATTC_HANDLE_VALUE_IND\000"
 2906      455F4556 
 2906      545F4741 
 2906      5454435F 
 2906      48414E44 
 2907              	.LASF81:
 2908 07ab 52785F54 		.ascii	"Rx_Tag\000"
 2908      616700
 2909              	.LASF50:
 2910 07b2 4359424C 		.ascii	"CYBLE_EVT_GATTS_PREP_WRITE_REQ\000"
 2910      455F4556 
 2910      545F4741 
 2910      5454535F 
 2910      50524550 
 2911              	.LASF110:
 2912 07d1 464C4147 		.ascii	"FLAG\000"
 2912      00
 2913              	.LASF55:
 2914 07d6 4359424C 		.ascii	"CYBLE_EVT_GATTS_HANDLE_VALUE_CNF\000"
 2914      455F4556 
 2914      545F4741 
 2914      5454535F 
 2914      48414E44 
 2915              	.LASF35:
 2916 07f7 4359424C 		.ascii	"CYBLE_EVT_GATTC_ERROR_RSP\000"
 2916      455F4556 
 2916      545F4741 
 2916      5454435F 
 2916      4552524F 
 2917              	.LASF77:
 2918 0811 52785F49 		.ascii	"Rx_Index\000"
 2918      6E646578 
 2918      00
 2919              	.LASF14:
 2920 081a 63686172 		.ascii	"char\000"
 2920      00
 2921              	.LASF30:
 2922 081f 4359424C 		.ascii	"CYBLE_EVT_GAP_DEVICE_DISCONNECTED\000"
 2922      455F4556 
 2922      545F4741 
 2922      505F4445 
ARM GAS  C:\Users\ADMINI~1.SC-\AppData\Local\Temp\cceVp8or.s 			page 64


 2922      56494345 
 2923              	.LASF127:
 2924 0841 4C6F636B 		.ascii	"LockIdentify\000"
 2924      4964656E 
 2924      74696679 
 2924      00
 2925              	.LASF58:
 2926 084e 4359424C 		.ascii	"CYBLE_EVT_GATTS_READ_CHAR_VAL_ACCESS_REQ\000"
 2926      455F4556 
 2926      545F4741 
 2926      5454535F 
 2926      52454144 
 2927              	.LASF119:
 2928 0877 54696D65 		.ascii	"Time\000"
 2928      00
 2929              	.LASF68:
 2930 087c 4359424C 		.ascii	"CYBLE_EVT_L2CAP_CBFC_TX_CREDIT_IND\000"
 2930      455F4556 
 2930      545F4C32 
 2930      4341505F 
 2930      43424643 
 2931              	.LASF124:
 2932 089f 436F6D5F 		.ascii	"Com_Array\000"
 2932      41727261 
 2932      7900
 2933              	.LASF75:
 2934 08a9 52785F4C 		.ascii	"Rx_Length\000"
 2934      656E6774 
 2934      6800
 2935              	.LASF19:
 2936 08b3 4359424C 		.ascii	"CYBLE_EVT_HARDWARE_ERROR\000"
 2936      455F4556 
 2936      545F4841 
 2936      52445741 
 2936      52455F45 
 2937              	.LASF123:
 2938 08cc 4C656E67 		.ascii	"Length\000"
 2938      746800
 2939              	.LASF91:
 2940 08d3 44657669 		.ascii	"DeviceID\000"
 2940      63654944 
 2940      00
 2941              	.LASF38:
 2942 08dc 4359424C 		.ascii	"CYBLE_EVT_GATTS_XCNHG_MTU_REQ\000"
 2942      455F4556 
 2942      545F4741 
 2942      5454535F 
 2942      58434E48 
 2943              	.LASF95:
 2944 08fa 53595354 		.ascii	"SYSTEM_CFG\000"
 2944      454D5F43 
 2944      464700
 2945              	.LASF105:
 2946 0905 44656C61 		.ascii	"Delay_1min\000"
 2946      795F316D 
 2946      696E00
 2947              	.LASF114:
ARM GAS  C:\Users\ADMINI~1.SC-\AppData\Local\Temp\cceVp8or.s 			page 65


 2948 0910 52657175 		.ascii	"Request_Device_Info\000"
 2948      6573745F 
 2948      44657669 
 2948      63655F49 
 2948      6E666F00 
 2949              	.LASF90:
 2950 0924 4D616E61 		.ascii	"ManageKey\000"
 2950      67654B65 
 2950      7900
 2951              	.LASF45:
 2952 092e 4359424C 		.ascii	"CYBLE_EVT_GATTC_READ_BLOB_RSP\000"
 2952      455F4556 
 2952      545F4741 
 2952      5454435F 
 2952      52454144 
 2953              	.LASF134:
 2954 094c 474E5520 		.ascii	"GNU C 4.9.3 20150303 (release) [ARM/embedded-4_9-br"
 2954      4320342E 
 2954      392E3320 
 2954      32303135 
 2954      30333033 
 2955 097f 616E6368 		.ascii	"anch revision 221220] -mcpu=cortex-m0 -mthumb -g -O"
 2955      20726576 
 2955      6973696F 
 2955      6E203232 
 2955      31323230 
 2956 09b2 30202D66 		.ascii	"0 -ffunction-sections -ffat-lto-objects\000"
 2956      66756E63 
 2956      74696F6E 
 2956      2D736563 
 2956      74696F6E 
 2957              	.LASF43:
 2958 09da 4359424C 		.ascii	"CYBLE_EVT_GATTC_FIND_BY_TYPE_VALUE_RSP\000"
 2958      455F4556 
 2958      545F4741 
 2958      5454435F 
 2958      46494E44 
 2959              	.LASF34:
 2960 0a01 4359424C 		.ascii	"CYBLE_EVT_GAP_KEYINFO_EXCHNGE_CMPLT\000"
 2960      455F4556 
 2960      545F4741 
 2960      505F4B45 
 2960      59494E46 
 2961              	.LASF64:
 2962 0a25 4359424C 		.ascii	"CYBLE_EVT_L2CAP_CBFC_DISCONN_IND\000"
 2962      455F4556 
 2962      545F4C32 
 2962      4341505F 
 2962      43424643 
 2963              	.LASF76:
 2964 0a46 52785F43 		.ascii	"Rx_Count\000"
 2964      6F756E74 
 2964      00
 2965              	.LASF70:
 2966 0a4f 4359424C 		.ascii	"CYBLE_EVT_PENDING_FLASH_WRITE\000"
 2966      455F4556 
 2966      545F5045 
ARM GAS  C:\Users\ADMINI~1.SC-\AppData\Local\Temp\cceVp8or.s 			page 66


 2966      4E44494E 
 2966      475F464C 
 2967              	.LASF60:
 2968 0a6d 4359424C 		.ascii	"CYBLE_EVT_L2CAP_CONN_PARAM_UPDATE_RSP\000"
 2968      455F4556 
 2968      545F4C32 
 2968      4341505F 
 2968      434F4E4E 
 2969              	.LASF98:
 2970 0a93 4C6F636B 		.ascii	"LockKey\000"
 2970      4B657900 
 2971              	.LASF111:
 2972 0a9b 5265635F 		.ascii	"Rec_CRC\000"
 2972      43524300 
 2973              	.LASF88:
 2974 0aa3 54785F42 		.ascii	"Tx_Begin\000"
 2974      6567696E 
 2974      00
 2975              	.LASF37:
 2976 0aac 4359424C 		.ascii	"CYBLE_EVT_GATT_DISCONNECT_IND\000"
 2976      455F4556 
 2976      545F4741 
 2976      54545F44 
 2976      4953434F 
 2977              	.LASF108:
 2978 0aca 4F70656E 		.ascii	"Open_Lock_Success\000"
 2978      5F4C6F63 
 2978      6B5F5375 
 2978      63636573 
 2978      7300
 2979              		.ident	"GCC: (GNU Tools for ARM Embedded Processors) 4.9.3 20150303 (release) [ARM/embedded-4_9-br
