ARM GAS  C:\Users\ADMINI~1.SC-\AppData\Local\Temp\ccTdZRqJ.s 			page 1


   1              		.cpu cortex-m0
   2              		.fpu softvfp
   3              		.eabi_attribute 20, 1
   4              		.eabi_attribute 21, 1
   5              		.eabi_attribute 23, 3
   6              		.eabi_attribute 24, 1
   7              		.eabi_attribute 25, 1
   8              		.eabi_attribute 26, 1
   9              		.eabi_attribute 30, 6
  10              		.eabi_attribute 34, 0
  11              		.eabi_attribute 18, 4
  12              		.code	16
  13              		.file	"app_protocol.c"
  14              		.text
  15              	.Ltext0:
  16              		.cfi_sections	.debug_frame
  17              		.comm	packetTX,20,4
  18              		.global	packetTXStep
  19              		.bss
  20              		.type	packetTXStep, %object
  21              		.size	packetTXStep, 1
  22              	packetTXStep:
  23 0000 00       		.space	1
  24              		.comm	recv_buff,40,4
  25              		.comm	AppKey,8,4
  26              		.global	key_str
  27              		.data
  28              		.align	2
  29              		.type	key_str, %object
  30              		.size	key_str, 24
  31              	key_str:
  32 0000 A0       		.byte	-96
  33 0001 A1       		.byte	-95
  34 0002 A2       		.byte	-94
  35 0003 A3       		.byte	-93
  36 0004 A4       		.byte	-92
  37 0005 A5       		.byte	-91
  38 0006 A6       		.byte	-90
  39 0007 A7       		.byte	-89
  40 0008 B0       		.byte	-80
  41 0009 B1       		.byte	-79
  42 000a B2       		.byte	-78
  43 000b B3       		.byte	-77
  44 000c B4       		.byte	-76
  45 000d B5       		.byte	-75
  46 000e B6       		.byte	-74
  47 000f B7       		.byte	-73
  48 0010 00       		.byte	0
  49 0011 00000000 		.space	7
  49      000000
  50              		.section	.text.SendNotification_zx,"ax",%progbits
  51              		.align	2
  52              		.global	SendNotification_zx
  53              		.code	16
  54              		.thumb_func
  55              		.type	SendNotification_zx, %function
  56              	SendNotification_zx:
ARM GAS  C:\Users\ADMINI~1.SC-\AppData\Local\Temp\ccTdZRqJ.s 			page 2


  57              	.LFB35:
  58              		.file 1 "app_protocol.c"
   1:app_protocol.c **** /* ========================================
   2:app_protocol.c ****  *
   3:app_protocol.c ****  * Copyright YOUR COMPANY, THE YEAR
   4:app_protocol.c ****  * All Rights Reserved
   5:app_protocol.c ****  * UNPUBLISHED, LICENSED SOFTWARE.
   6:app_protocol.c ****  *
   7:app_protocol.c ****  * CONFIDENTIAL AND PROPRIETARY INFORMATION
   8:app_protocol.c ****  * WHICH IS THE PROPERTY OF your company.
   9:app_protocol.c ****  *
  10:app_protocol.c ****  * ========================================
  11:app_protocol.c **** */
  12:app_protocol.c **** #include "app_protocol.h"
  13:app_protocol.c **** #include "app_ble.h"
  14:app_protocol.c **** #include "app_uart.h"
  15:app_protocol.c **** #include "app_Com.h"
  16:app_protocol.c **** #include <string.h>
  17:app_protocol.c **** #include <stdlib.h>
  18:app_protocol.c **** #include "Rc4.h"
  19:app_protocol.c **** #include "md5.h"
  20:app_protocol.c **** 
  21:app_protocol.c **** uint8 packetTX[20];
  22:app_protocol.c **** uint8 packetTXStep = 0;
  23:app_protocol.c **** uint8 recv_buff[40];
  24:app_protocol.c **** uint8 AppKey[8];
  25:app_protocol.c **** 
  26:app_protocol.c **** 
  27:app_protocol.c **** typedef struct _KEY_STR
  28:app_protocol.c **** {
  29:app_protocol.c ****     uint8 root_key[8]; //根密钥       a0a1a2a3a4a5a6a7
  30:app_protocol.c ****     uint8 ctrl_key[8]; //控制密钥     b0b1b2b3b4b5b6b7
  31:app_protocol.c ****     uint8 dynamic_key[8]; //动态密钥  
  32:app_protocol.c **** }KEY_STR; //
  33:app_protocol.c **** 
  34:app_protocol.c **** struct _KEY_STR key_str = {{0xa0,0xa1,0xa2,0xa3,0xa4,0xa5,0xa6,0xa7},\
  35:app_protocol.c ****                            {0xb0,0xb1,0xb2,0xb3,0xb4,0xb5,0xb6,0xb7,},\
  36:app_protocol.c ****                            {0}};
  37:app_protocol.c **** 
  38:app_protocol.c **** /***********************************************
  39:app_protocol.c **** * 函数名：void SendNotification(void)
  40:app_protocol.c **** * 描述  ：蓝牙发送函数
  41:app_protocol.c **** ***********************************************/
  42:app_protocol.c **** void SendNotification_zx(uint8 Lenth)
  43:app_protocol.c **** {
  59              		.loc 1 43 0
  60              		.cfi_startproc
  61 0000 80B5     		push	{r7, lr}
  62              		.cfi_def_cfa_offset 8
  63              		.cfi_offset 7, -8
  64              		.cfi_offset 14, -4
  65 0002 86B0     		sub	sp, sp, #24
  66              		.cfi_def_cfa_offset 32
  67 0004 00AF     		add	r7, sp, #0
  68              		.cfi_def_cfa_register 7
  69 0006 021C     		mov	r2, r0
  70 0008 FB1D     		add	r3, r7, #7
ARM GAS  C:\Users\ADMINI~1.SC-\AppData\Local\Temp\ccTdZRqJ.s 			page 3


  71 000a 1A70     		strb	r2, [r3]
  44:app_protocol.c ****     /* Create a new notification packet */
  45:app_protocol.c ****     CYBLE_GATTS_HANDLE_VALUE_NTF_T notificationPacket;
  46:app_protocol.c ****     notificationPacket.attrHandle = CYBLE_CUSTOM_SERVICE_RX_FROM_APP_CHAR_HANDLE;
  72              		.loc 1 46 0
  73 000c 0C23     		mov	r3, #12
  74 000e FB18     		add	r3, r7, r3
  75 0010 1322     		mov	r2, #19
  76 0012 1A81     		strh	r2, [r3, #8]
  47:app_protocol.c ****     notificationPacket.value.val = packetTX;   
  77              		.loc 1 47 0
  78 0014 0C23     		mov	r3, #12
  79 0016 FB18     		add	r3, r7, r3
  80 0018 0D4A     		ldr	r2, .L2
  81 001a 1A60     		str	r2, [r3]
  48:app_protocol.c ****     notificationPacket.value.len = Lenth;
  82              		.loc 1 48 0
  83 001c FB1D     		add	r3, r7, #7
  84 001e 1B78     		ldrb	r3, [r3]
  85 0020 9AB2     		uxth	r2, r3
  86 0022 0C23     		mov	r3, #12
  87 0024 FB18     		add	r3, r7, r3
  88 0026 9A80     		strh	r2, [r3, #4]
  49:app_protocol.c ****     /* Report data to BLE component */
  50:app_protocol.c ****     CyBle_GattsNotification(cyBle_connHandle, &notificationPacket);
  89              		.loc 1 50 0
  90 0028 0A4B     		ldr	r3, .L2+4
  91 002a 0C22     		mov	r2, #12
  92 002c B918     		add	r1, r7, r2
  93 002e 1A78     		ldrb	r2, [r3]
  94 0030 5B78     		ldrb	r3, [r3, #1]
  95 0032 1B02     		lsl	r3, r3, #8
  96 0034 1A43     		orr	r2, r3
  97 0036 0023     		mov	r3, #0
  98 0038 1204     		lsl	r2, r2, #16
  99 003a 120C     		lsr	r2, r2, #16
 100 003c 1B0C     		lsr	r3, r3, #16
 101 003e 1B04     		lsl	r3, r3, #16
 102 0040 1343     		orr	r3, r2
 103 0042 181C     		mov	r0, r3
 104 0044 FFF7FEFF 		bl	CyBle_GattsNotification
  51:app_protocol.c **** }
 105              		.loc 1 51 0
 106 0048 BD46     		mov	sp, r7
 107 004a 06B0     		add	sp, sp, #24
 108              		@ sp needed
 109 004c 80BD     		pop	{r7, pc}
 110              	.L3:
 111 004e C046     		.align	2
 112              	.L2:
 113 0050 00000000 		.word	packetTX
 114 0054 00000000 		.word	cyBle_connHandle
 115              		.cfi_endproc
 116              	.LFE35:
 117              		.size	SendNotification_zx, .-SendNotification_zx
 118              		.section	.text.SendNotification,"ax",%progbits
 119              		.align	2
ARM GAS  C:\Users\ADMINI~1.SC-\AppData\Local\Temp\ccTdZRqJ.s 			page 4


 120              		.global	SendNotification
 121              		.code	16
 122              		.thumb_func
 123              		.type	SendNotification, %function
 124              	SendNotification:
 125              	.LFB36:
  52:app_protocol.c **** 
  53:app_protocol.c **** /***********************************************
  54:app_protocol.c **** * 函数名：void SendNotification(void)
  55:app_protocol.c **** * 描述  ：蓝牙发送函数
  56:app_protocol.c **** ***********************************************/
  57:app_protocol.c **** void SendNotification(void)
  58:app_protocol.c **** {
 126              		.loc 1 58 0
 127              		.cfi_startproc
 128 0000 80B5     		push	{r7, lr}
 129              		.cfi_def_cfa_offset 8
 130              		.cfi_offset 7, -8
 131              		.cfi_offset 14, -4
 132 0002 84B0     		sub	sp, sp, #16
 133              		.cfi_def_cfa_offset 24
 134 0004 00AF     		add	r7, sp, #0
 135              		.cfi_def_cfa_register 7
  59:app_protocol.c ****     /* Create a new notification packet */
  60:app_protocol.c ****     CYBLE_GATTS_HANDLE_VALUE_NTF_T notificationPacket;
  61:app_protocol.c ****     notificationPacket.attrHandle = CYBLE_CUSTOM_SERVICE_RX_FROM_APP_CHAR_HANDLE;
 136              		.loc 1 61 0
 137 0006 3B1D     		add	r3, r7, #4
 138 0008 1322     		mov	r2, #19
 139 000a 1A81     		strh	r2, [r3, #8]
  62:app_protocol.c ****     notificationPacket.value.val = packetTX;   
 140              		.loc 1 62 0
 141 000c 3B1D     		add	r3, r7, #4
 142 000e 0B4A     		ldr	r2, .L5
 143 0010 1A60     		str	r2, [r3]
  63:app_protocol.c ****     notificationPacket.value.len = 20;
 144              		.loc 1 63 0
 145 0012 3B1D     		add	r3, r7, #4
 146 0014 1422     		mov	r2, #20
 147 0016 9A80     		strh	r2, [r3, #4]
  64:app_protocol.c ****     /* Report data to BLE component */
  65:app_protocol.c ****     CyBle_GattsNotification(cyBle_connHandle, &notificationPacket);
 148              		.loc 1 65 0
 149 0018 094B     		ldr	r3, .L5+4
 150 001a 391D     		add	r1, r7, #4
 151 001c 1A78     		ldrb	r2, [r3]
 152 001e 5B78     		ldrb	r3, [r3, #1]
 153 0020 1B02     		lsl	r3, r3, #8
 154 0022 1A43     		orr	r2, r3
 155 0024 0023     		mov	r3, #0
 156 0026 1204     		lsl	r2, r2, #16
 157 0028 120C     		lsr	r2, r2, #16
 158 002a 1B0C     		lsr	r3, r3, #16
 159 002c 1B04     		lsl	r3, r3, #16
 160 002e 1343     		orr	r3, r2
 161 0030 181C     		mov	r0, r3
 162 0032 FFF7FEFF 		bl	CyBle_GattsNotification
ARM GAS  C:\Users\ADMINI~1.SC-\AppData\Local\Temp\ccTdZRqJ.s 			page 5


  66:app_protocol.c ****  
  67:app_protocol.c **** }
 163              		.loc 1 67 0
 164 0036 BD46     		mov	sp, r7
 165 0038 04B0     		add	sp, sp, #16
 166              		@ sp needed
 167 003a 80BD     		pop	{r7, pc}
 168              	.L6:
 169              		.align	2
 170              	.L5:
 171 003c 00000000 		.word	packetTX
 172 0040 00000000 		.word	cyBle_connHandle
 173              		.cfi_endproc
 174              	.LFE36:
 175              		.size	SendNotification, .-SendNotification
 176              		.section	.text.Send_LockInfo,"ax",%progbits
 177              		.align	2
 178              		.global	Send_LockInfo
 179              		.code	16
 180              		.thumb_func
 181              		.type	Send_LockInfo, %function
 182              	Send_LockInfo:
 183              	.LFB37:
  68:app_protocol.c **** 
  69:app_protocol.c **** /***********************************************
  70:app_protocol.c **** * 函数名：void Send_LockInfo(void)
  71:app_protocol.c **** * 描述  ：发送锁设备信息
  72:app_protocol.c **** ***********************************************/
  73:app_protocol.c **** void Send_LockInfo(void)
  74:app_protocol.c **** {
 184              		.loc 1 74 0
 185              		.cfi_startproc
 186 0000 90B5     		push	{r4, r7, lr}
 187              		.cfi_def_cfa_offset 12
 188              		.cfi_offset 4, -12
 189              		.cfi_offset 7, -8
 190              		.cfi_offset 14, -4
 191 0002 83B0     		sub	sp, sp, #12
 192              		.cfi_def_cfa_offset 24
 193 0004 00AF     		add	r7, sp, #0
 194              		.cfi_def_cfa_register 7
  75:app_protocol.c ****     uint8 i;
  76:app_protocol.c ****     uint16 crc;
  77:app_protocol.c ****     uint16 data_rand;
  78:app_protocol.c ****     memset(packetTX,0x00,sizeof(packetTX));
 195              		.loc 1 78 0
 196 0006 2F4B     		ldr	r3, .L10
 197 0008 181C     		mov	r0, r3
 198 000a 0021     		mov	r1, #0
 199 000c 1422     		mov	r2, #20
 200 000e FFF7FEFF 		bl	memset
  79:app_protocol.c ****     packetTX[0] = 0x23;         //命令字
 201              		.loc 1 79 0
 202 0012 2C4B     		ldr	r3, .L10
 203 0014 2322     		mov	r2, #35
 204 0016 1A70     		strb	r2, [r3]
  80:app_protocol.c ****     packetTX[1] = 0;            //包号
ARM GAS  C:\Users\ADMINI~1.SC-\AppData\Local\Temp\ccTdZRqJ.s 			page 6


 205              		.loc 1 80 0
 206 0018 2A4B     		ldr	r3, .L10
 207 001a 0022     		mov	r2, #0
 208 001c 5A70     		strb	r2, [r3, #1]
  81:app_protocol.c ****     packetTX[2] = 15;           //长度
 209              		.loc 1 81 0
 210 001e 294B     		ldr	r3, .L10
 211 0020 0F22     		mov	r2, #15
 212 0022 9A70     		strb	r2, [r3, #2]
  82:app_protocol.c ****     
  83:app_protocol.c ****     for(i=0; i<4; i++)      //生成LOCKKEY
 213              		.loc 1 83 0
 214 0024 FB1D     		add	r3, r7, #7
 215 0026 0022     		mov	r2, #0
 216 0028 1A70     		strb	r2, [r3]
 217 002a 20E0     		b	.L8
 218              	.L9:
  84:app_protocol.c ****     {
  85:app_protocol.c ****         data_rand = rand(); 
 219              		.loc 1 85 0 discriminator 3
 220 002c FFF7FEFF 		bl	rand
 221 0030 021C     		mov	r2, r0
 222 0032 3B1D     		add	r3, r7, #4
 223 0034 1A80     		strh	r2, [r3]
  86:app_protocol.c ****         Lock_Info.LockKey[i*2 + 0] = data_rand / 256;
 224              		.loc 1 86 0 discriminator 3
 225 0036 FB1D     		add	r3, r7, #7
 226 0038 1B78     		ldrb	r3, [r3]
 227 003a 5B00     		lsl	r3, r3, #1
 228 003c 3A1D     		add	r2, r7, #4
 229 003e 1288     		ldrh	r2, [r2]
 230 0040 120A     		lsr	r2, r2, #8
 231 0042 92B2     		uxth	r2, r2
 232 0044 D1B2     		uxtb	r1, r2
 233 0046 204A     		ldr	r2, .L10+4
 234 0048 D318     		add	r3, r2, r3
 235 004a 0A1C     		add	r2, r1, #0
 236 004c DA71     		strb	r2, [r3, #7]
  87:app_protocol.c ****         Lock_Info.LockKey[i*2 + 1] = data_rand % 256; 
 237              		.loc 1 87 0 discriminator 3
 238 004e FB1D     		add	r3, r7, #7
 239 0050 1B78     		ldrb	r3, [r3]
 240 0052 5B00     		lsl	r3, r3, #1
 241 0054 0133     		add	r3, r3, #1
 242 0056 3A1D     		add	r2, r7, #4
 243 0058 1288     		ldrh	r2, [r2]
 244 005a D1B2     		uxtb	r1, r2
 245 005c 1A4A     		ldr	r2, .L10+4
 246 005e D318     		add	r3, r2, r3
 247 0060 0A1C     		add	r2, r1, #0
 248 0062 DA71     		strb	r2, [r3, #7]
  83:app_protocol.c ****     {
 249              		.loc 1 83 0 discriminator 3
 250 0064 FB1D     		add	r3, r7, #7
 251 0066 1A78     		ldrb	r2, [r3]
 252 0068 FB1D     		add	r3, r7, #7
 253 006a 0132     		add	r2, r2, #1
ARM GAS  C:\Users\ADMINI~1.SC-\AppData\Local\Temp\ccTdZRqJ.s 			page 7


 254 006c 1A70     		strb	r2, [r3]
 255              	.L8:
  83:app_protocol.c ****     {
 256              		.loc 1 83 0 is_stmt 0 discriminator 1
 257 006e FB1D     		add	r3, r7, #7
 258 0070 1B78     		ldrb	r3, [r3]
 259 0072 032B     		cmp	r3, #3
 260 0074 DAD9     		bls	.L9
  88:app_protocol.c ****     }    
  89:app_protocol.c ****     memcpy(packetTX + 3, Lock_Info.DeviceID,15);
 261              		.loc 1 89 0 is_stmt 1
 262 0076 154A     		ldr	r2, .L10+8
 263 0078 134B     		ldr	r3, .L10+4
 264 007a 101C     		mov	r0, r2
 265 007c 191C     		mov	r1, r3
 266 007e 0F22     		mov	r2, #15
 267 0080 FFF7FEFF 		bl	memcpy
  90:app_protocol.c ****     rc4_encrypt(System_Config.ManageKey,MKEY_LEN,packetTX + 10,8);  //对随机密钥加密
 268              		.loc 1 90 0
 269 0084 124A     		ldr	r2, .L10+12
 270 0086 134B     		ldr	r3, .L10+16
 271 0088 101C     		mov	r0, r2
 272 008a 1021     		mov	r1, #16
 273 008c 1A1C     		mov	r2, r3
 274 008e 0823     		mov	r3, #8
 275 0090 FFF7FEFF 		bl	rc4_encrypt
  91:app_protocol.c ****     crc = comCalCRC16(packetTX,18);
 276              		.loc 1 91 0
 277 0094 BC1C     		add	r4, r7, #2
 278 0096 0B4B     		ldr	r3, .L10
 279 0098 181C     		mov	r0, r3
 280 009a 1221     		mov	r1, #18
 281 009c FFF7FEFF 		bl	comCalCRC16
 282 00a0 031C     		mov	r3, r0
 283 00a2 2380     		strh	r3, [r4]
  92:app_protocol.c ****     packetTX[18] = crc / 256;
 284              		.loc 1 92 0
 285 00a4 BB1C     		add	r3, r7, #2
 286 00a6 1B88     		ldrh	r3, [r3]
 287 00a8 1B0A     		lsr	r3, r3, #8
 288 00aa 9BB2     		uxth	r3, r3
 289 00ac DAB2     		uxtb	r2, r3
 290 00ae 054B     		ldr	r3, .L10
 291 00b0 9A74     		strb	r2, [r3, #18]
  93:app_protocol.c ****     packetTX[19] = crc % 256; 
 292              		.loc 1 93 0
 293 00b2 BB1C     		add	r3, r7, #2
 294 00b4 1B88     		ldrh	r3, [r3]
 295 00b6 DAB2     		uxtb	r2, r3
 296 00b8 024B     		ldr	r3, .L10
 297 00ba DA74     		strb	r2, [r3, #19]
  94:app_protocol.c ****     
  95:app_protocol.c ****     //SendNotification();
  96:app_protocol.c **** }
 298              		.loc 1 96 0
 299 00bc BD46     		mov	sp, r7
 300 00be 03B0     		add	sp, sp, #12
ARM GAS  C:\Users\ADMINI~1.SC-\AppData\Local\Temp\ccTdZRqJ.s 			page 8


 301              		@ sp needed
 302 00c0 90BD     		pop	{r4, r7, pc}
 303              	.L11:
 304 00c2 C046     		.align	2
 305              	.L10:
 306 00c4 00000000 		.word	packetTX
 307 00c8 00000000 		.word	Lock_Info
 308 00cc 03000000 		.word	packetTX+3
 309 00d0 00000000 		.word	System_Config
 310 00d4 0A000000 		.word	packetTX+10
 311              		.cfi_endproc
 312              	.LFE37:
 313              		.size	Send_LockInfo, .-Send_LockInfo
 314              		.section	.text.Back_Massage_Minwen,"ax",%progbits
 315              		.align	2
 316              		.global	Back_Massage_Minwen
 317              		.code	16
 318              		.thumb_func
 319              		.type	Back_Massage_Minwen, %function
 320              	Back_Massage_Minwen:
 321              	.LFB38:
  97:app_protocol.c **** 
  98:app_protocol.c **** /***********************************************
  99:app_protocol.c **** * 函数名：void Back_Massage_Minwen(uint8 cmd,uint8 data)
 100:app_protocol.c **** * 描述  ：返回信息-明文
 101:app_protocol.c **** ***********************************************/
 102:app_protocol.c **** void Back_Massage_Minwen(uint8 cmd,uint8 data)
 103:app_protocol.c **** {
 322              		.loc 1 103 0
 323              		.cfi_startproc
 324 0000 90B5     		push	{r4, r7, lr}
 325              		.cfi_def_cfa_offset 12
 326              		.cfi_offset 4, -12
 327              		.cfi_offset 7, -8
 328              		.cfi_offset 14, -4
 329 0002 85B0     		sub	sp, sp, #20
 330              		.cfi_def_cfa_offset 32
 331 0004 00AF     		add	r7, sp, #0
 332              		.cfi_def_cfa_register 7
 333 0006 021C     		mov	r2, r0
 334 0008 FB1D     		add	r3, r7, #7
 335 000a 1A70     		strb	r2, [r3]
 336 000c BB1D     		add	r3, r7, #6
 337 000e 0A1C     		add	r2, r1, #0
 338 0010 1A70     		strb	r2, [r3]
 104:app_protocol.c ****     uint16 crc;
 105:app_protocol.c ****     memset(packetTX,0x00,sizeof(packetTX));
 339              		.loc 1 105 0
 340 0012 174B     		ldr	r3, .L13
 341 0014 181C     		mov	r0, r3
 342 0016 0021     		mov	r1, #0
 343 0018 1422     		mov	r2, #20
 344 001a FFF7FEFF 		bl	memset
 106:app_protocol.c ****     packetTX[0] = cmd;          //命令字
 345              		.loc 1 106 0
 346 001e 144B     		ldr	r3, .L13
 347 0020 FA1D     		add	r2, r7, #7
ARM GAS  C:\Users\ADMINI~1.SC-\AppData\Local\Temp\ccTdZRqJ.s 			page 9


 348 0022 1278     		ldrb	r2, [r2]
 349 0024 1A70     		strb	r2, [r3]
 107:app_protocol.c ****     packetTX[1] = 0;            //包号
 350              		.loc 1 107 0
 351 0026 124B     		ldr	r3, .L13
 352 0028 0022     		mov	r2, #0
 353 002a 5A70     		strb	r2, [r3, #1]
 108:app_protocol.c ****     packetTX[2] = 1;            //长度
 354              		.loc 1 108 0
 355 002c 104B     		ldr	r3, .L13
 356 002e 0122     		mov	r2, #1
 357 0030 9A70     		strb	r2, [r3, #2]
 109:app_protocol.c ****     packetTX[3] = data;         //结果
 358              		.loc 1 109 0
 359 0032 0F4B     		ldr	r3, .L13
 360 0034 BA1D     		add	r2, r7, #6
 361 0036 1278     		ldrb	r2, [r2]
 362 0038 DA70     		strb	r2, [r3, #3]
 110:app_protocol.c ****     
 111:app_protocol.c ****     crc = comCalCRC16(packetTX,4);
 363              		.loc 1 111 0
 364 003a 0E23     		mov	r3, #14
 365 003c FC18     		add	r4, r7, r3
 366 003e 0C4B     		ldr	r3, .L13
 367 0040 181C     		mov	r0, r3
 368 0042 0421     		mov	r1, #4
 369 0044 FFF7FEFF 		bl	comCalCRC16
 370 0048 031C     		mov	r3, r0
 371 004a 2380     		strh	r3, [r4]
 112:app_protocol.c ****     packetTX[4] = crc / 256;
 372              		.loc 1 112 0
 373 004c 0E23     		mov	r3, #14
 374 004e FB18     		add	r3, r7, r3
 375 0050 1B88     		ldrh	r3, [r3]
 376 0052 1B0A     		lsr	r3, r3, #8
 377 0054 9BB2     		uxth	r3, r3
 378 0056 DAB2     		uxtb	r2, r3
 379 0058 054B     		ldr	r3, .L13
 380 005a 1A71     		strb	r2, [r3, #4]
 113:app_protocol.c ****     packetTX[5] = crc % 256;   
 381              		.loc 1 113 0
 382 005c 0E23     		mov	r3, #14
 383 005e FB18     		add	r3, r7, r3
 384 0060 1B88     		ldrh	r3, [r3]
 385 0062 DAB2     		uxtb	r2, r3
 386 0064 024B     		ldr	r3, .L13
 387 0066 5A71     		strb	r2, [r3, #5]
 114:app_protocol.c ****     //SendNotification();
 115:app_protocol.c **** }
 388              		.loc 1 115 0
 389 0068 BD46     		mov	sp, r7
 390 006a 05B0     		add	sp, sp, #20
 391              		@ sp needed
 392 006c 90BD     		pop	{r4, r7, pc}
 393              	.L14:
 394 006e C046     		.align	2
 395              	.L13:
ARM GAS  C:\Users\ADMINI~1.SC-\AppData\Local\Temp\ccTdZRqJ.s 			page 10


 396 0070 00000000 		.word	packetTX
 397              		.cfi_endproc
 398              	.LFE38:
 399              		.size	Back_Massage_Minwen, .-Back_Massage_Minwen
 400              		.section	.text.Send_Battery_Voltage,"ax",%progbits
 401              		.align	2
 402              		.global	Send_Battery_Voltage
 403              		.code	16
 404              		.thumb_func
 405              		.type	Send_Battery_Voltage, %function
 406              	Send_Battery_Voltage:
 407              	.LFB39:
 116:app_protocol.c **** 
 117:app_protocol.c **** 
 118:app_protocol.c **** /***********************************************
 119:app_protocol.c **** * 函数名：void Send_Battery_Voltage(void)
 120:app_protocol.c **** * 描述  ：发送钥匙电压
 121:app_protocol.c **** ***********************************************/
 122:app_protocol.c **** void Send_Battery_Voltage(void)
 123:app_protocol.c **** {
 408              		.loc 1 123 0
 409              		.cfi_startproc
 410 0000 90B5     		push	{r4, r7, lr}
 411              		.cfi_def_cfa_offset 12
 412              		.cfi_offset 4, -12
 413              		.cfi_offset 7, -8
 414              		.cfi_offset 14, -4
 415 0002 83B0     		sub	sp, sp, #12
 416              		.cfi_def_cfa_offset 24
 417 0004 00AF     		add	r7, sp, #0
 418              		.cfi_def_cfa_register 7
 124:app_protocol.c ****     uint16 vol = 3900;      //电池电压需采样计算
 419              		.loc 1 124 0
 420 0006 BB1D     		add	r3, r7, #6
 421 0008 1C4A     		ldr	r2, .L16
 422 000a 1A80     		strh	r2, [r3]
 125:app_protocol.c ****     uint16 crc;
 126:app_protocol.c ****     vol = Get_Adc();
 423              		.loc 1 126 0
 424 000c BC1D     		add	r4, r7, #6
 425 000e FFF7FEFF 		bl	Get_Adc
 426 0012 031C     		mov	r3, r0
 427 0014 2380     		strh	r3, [r4]
 127:app_protocol.c ****     memset(packetTX,0x00,20);
 428              		.loc 1 127 0
 429 0016 1A4B     		ldr	r3, .L16+4
 430 0018 181C     		mov	r0, r3
 431 001a 0021     		mov	r1, #0
 432 001c 1422     		mov	r2, #20
 433 001e FFF7FEFF 		bl	memset
 128:app_protocol.c ****     packetTX[0] = GET_BATTERY_VOLTAGE;
 434              		.loc 1 128 0
 435 0022 174B     		ldr	r3, .L16+4
 436 0024 1D22     		mov	r2, #29
 437 0026 1A70     		strb	r2, [r3]
 129:app_protocol.c ****     packetTX[1] = 0;
 438              		.loc 1 129 0
ARM GAS  C:\Users\ADMINI~1.SC-\AppData\Local\Temp\ccTdZRqJ.s 			page 11


 439 0028 154B     		ldr	r3, .L16+4
 440 002a 0022     		mov	r2, #0
 441 002c 5A70     		strb	r2, [r3, #1]
 130:app_protocol.c ****     packetTX[2] = 2;
 442              		.loc 1 130 0
 443 002e 144B     		ldr	r3, .L16+4
 444 0030 0222     		mov	r2, #2
 445 0032 9A70     		strb	r2, [r3, #2]
 131:app_protocol.c ****     packetTX[3] = vol/256;
 446              		.loc 1 131 0
 447 0034 BB1D     		add	r3, r7, #6
 448 0036 1B88     		ldrh	r3, [r3]
 449 0038 1B0A     		lsr	r3, r3, #8
 450 003a 9BB2     		uxth	r3, r3
 451 003c DAB2     		uxtb	r2, r3
 452 003e 104B     		ldr	r3, .L16+4
 453 0040 DA70     		strb	r2, [r3, #3]
 132:app_protocol.c ****     packetTX[4] = vol%256;
 454              		.loc 1 132 0
 455 0042 BB1D     		add	r3, r7, #6
 456 0044 1B88     		ldrh	r3, [r3]
 457 0046 DAB2     		uxtb	r2, r3
 458 0048 0D4B     		ldr	r3, .L16+4
 459 004a 1A71     		strb	r2, [r3, #4]
 133:app_protocol.c ****     crc = comCalCRC16(packetTX,5);
 460              		.loc 1 133 0
 461 004c 3C1D     		add	r4, r7, #4
 462 004e 0C4B     		ldr	r3, .L16+4
 463 0050 181C     		mov	r0, r3
 464 0052 0521     		mov	r1, #5
 465 0054 FFF7FEFF 		bl	comCalCRC16
 466 0058 031C     		mov	r3, r0
 467 005a 2380     		strh	r3, [r4]
 134:app_protocol.c ****     packetTX[5] = crc / 256;
 468              		.loc 1 134 0
 469 005c 3B1D     		add	r3, r7, #4
 470 005e 1B88     		ldrh	r3, [r3]
 471 0060 1B0A     		lsr	r3, r3, #8
 472 0062 9BB2     		uxth	r3, r3
 473 0064 DAB2     		uxtb	r2, r3
 474 0066 064B     		ldr	r3, .L16+4
 475 0068 5A71     		strb	r2, [r3, #5]
 135:app_protocol.c ****     packetTX[6] = crc % 256;  
 476              		.loc 1 135 0
 477 006a 3B1D     		add	r3, r7, #4
 478 006c 1B88     		ldrh	r3, [r3]
 479 006e DAB2     		uxtb	r2, r3
 480 0070 034B     		ldr	r3, .L16+4
 481 0072 9A71     		strb	r2, [r3, #6]
 136:app_protocol.c ****     //SendNotification();
 137:app_protocol.c **** }
 482              		.loc 1 137 0
 483 0074 BD46     		mov	sp, r7
 484 0076 03B0     		add	sp, sp, #12
 485              		@ sp needed
 486 0078 90BD     		pop	{r4, r7, pc}
 487              	.L17:
ARM GAS  C:\Users\ADMINI~1.SC-\AppData\Local\Temp\ccTdZRqJ.s 			page 12


 488 007a C046     		.align	2
 489              	.L16:
 490 007c 3C0F0000 		.word	3900
 491 0080 00000000 		.word	packetTX
 492              		.cfi_endproc
 493              	.LFE39:
 494              		.size	Send_Battery_Voltage, .-Send_Battery_Voltage
 495              		.section	.text.Send_Factory_Info,"ax",%progbits
 496              		.align	2
 497              		.global	Send_Factory_Info
 498              		.code	16
 499              		.thumb_func
 500              		.type	Send_Factory_Info, %function
 501              	Send_Factory_Info:
 502              	.LFB40:
 138:app_protocol.c **** 
 139:app_protocol.c **** 
 140:app_protocol.c **** 
 141:app_protocol.c **** 
 142:app_protocol.c **** /***********************************************
 143:app_protocol.c **** * 函数名：void Send_Factory_Info(void)
 144:app_protocol.c **** * 描述  ：发送钥匙出厂信息
 145:app_protocol.c **** ***********************************************/
 146:app_protocol.c **** void Send_Factory_Info(void)
 147:app_protocol.c **** {
 503              		.loc 1 147 0
 504              		.cfi_startproc
 505 0000 90B5     		push	{r4, r7, lr}
 506              		.cfi_def_cfa_offset 12
 507              		.cfi_offset 4, -12
 508              		.cfi_offset 7, -8
 509              		.cfi_offset 14, -4
 510 0002 83B0     		sub	sp, sp, #12
 511              		.cfi_def_cfa_offset 24
 512 0004 00AF     		add	r7, sp, #0
 513              		.cfi_def_cfa_register 7
 148:app_protocol.c ****     uint16 crc;
 149:app_protocol.c ****     memset(packetTX,0x00,20);
 514              		.loc 1 149 0
 515 0006 254B     		ldr	r3, .L19
 516 0008 181C     		mov	r0, r3
 517 000a 0021     		mov	r1, #0
 518 000c 1422     		mov	r2, #20
 519 000e FFF7FEFF 		bl	memset
 150:app_protocol.c ****     
 151:app_protocol.c ****     packetTX[0] = REQUEST_FACTORY_INFO;
 520              		.loc 1 151 0
 521 0012 224B     		ldr	r3, .L19
 522 0014 0B22     		mov	r2, #11
 523 0016 1A70     		strb	r2, [r3]
 152:app_protocol.c ****     packetTX[1] = 0;
 524              		.loc 1 152 0
 525 0018 204B     		ldr	r3, .L19
 526 001a 0022     		mov	r2, #0
 527 001c 5A70     		strb	r2, [r3, #1]
 153:app_protocol.c ****     packetTX[2] = 13;
 528              		.loc 1 153 0
ARM GAS  C:\Users\ADMINI~1.SC-\AppData\Local\Temp\ccTdZRqJ.s 			page 13


 529 001e 1F4B     		ldr	r3, .L19
 530 0020 0D22     		mov	r2, #13
 531 0022 9A70     		strb	r2, [r3, #2]
 154:app_protocol.c ****     packetTX[3] = BLE_NORMAL_KEY;
 532              		.loc 1 154 0
 533 0024 1D4B     		ldr	r3, .L19
 534 0026 1322     		mov	r2, #19
 535 0028 DA70     		strb	r2, [r3, #3]
 155:app_protocol.c ****     memcpy(packetTX + 4, System_Config.DeviceID,4);
 536              		.loc 1 155 0
 537 002a 1D4A     		ldr	r2, .L19+4
 538 002c 1D4B     		ldr	r3, .L19+8
 539 002e 111C     		mov	r1, r2
 540 0030 1033     		add	r3, r3, #16
 541 0032 0422     		mov	r2, #4
 542 0034 081C     		mov	r0, r1
 543 0036 191C     		mov	r1, r3
 544 0038 FFF7FEFF 		bl	memcpy
 156:app_protocol.c **** 
 157:app_protocol.c ****     packetTX[8] = Ver_H;
 545              		.loc 1 157 0
 546 003c 174B     		ldr	r3, .L19
 547 003e 0122     		mov	r2, #1
 548 0040 1A72     		strb	r2, [r3, #8]
 158:app_protocol.c ****     packetTX[9] = Ver_L;
 549              		.loc 1 158 0
 550 0042 164B     		ldr	r3, .L19
 551 0044 0022     		mov	r2, #0
 552 0046 5A72     		strb	r2, [r3, #9]
 159:app_protocol.c ****     packetTX[10] = Hw_Ver_H;
 553              		.loc 1 159 0
 554 0048 144B     		ldr	r3, .L19
 555 004a 0122     		mov	r2, #1
 556 004c 9A72     		strb	r2, [r3, #10]
 160:app_protocol.c ****     packetTX[11] = Hw_Ver_L;   
 557              		.loc 1 160 0
 558 004e 134B     		ldr	r3, .L19
 559 0050 0022     		mov	r2, #0
 560 0052 DA72     		strb	r2, [r3, #11]
 161:app_protocol.c ****     
 162:app_protocol.c ****     packetTX[12] = 1;
 561              		.loc 1 162 0
 562 0054 114B     		ldr	r3, .L19
 563 0056 0122     		mov	r2, #1
 564 0058 1A73     		strb	r2, [r3, #12]
 163:app_protocol.c ****     
 164:app_protocol.c ****     packetTX[13] = FACTORY_YEAR;
 565              		.loc 1 164 0
 566 005a 104B     		ldr	r3, .L19
 567 005c 1022     		mov	r2, #16
 568 005e 5A73     		strb	r2, [r3, #13]
 165:app_protocol.c ****     packetTX[14] = FACTORY_MONTH;
 569              		.loc 1 165 0
 570 0060 0E4B     		ldr	r3, .L19
 571 0062 0B22     		mov	r2, #11
 572 0064 9A73     		strb	r2, [r3, #14]
 166:app_protocol.c ****     packetTX[15] = FACTORY_DAY;
ARM GAS  C:\Users\ADMINI~1.SC-\AppData\Local\Temp\ccTdZRqJ.s 			page 14


 573              		.loc 1 166 0
 574 0066 0D4B     		ldr	r3, .L19
 575 0068 0F22     		mov	r2, #15
 576 006a DA73     		strb	r2, [r3, #15]
 167:app_protocol.c ****     
 168:app_protocol.c ****     crc = comCalCRC16(packetTX,16);
 577              		.loc 1 168 0
 578 006c BC1D     		add	r4, r7, #6
 579 006e 0B4B     		ldr	r3, .L19
 580 0070 181C     		mov	r0, r3
 581 0072 1021     		mov	r1, #16
 582 0074 FFF7FEFF 		bl	comCalCRC16
 583 0078 031C     		mov	r3, r0
 584 007a 2380     		strh	r3, [r4]
 169:app_protocol.c ****     packetTX[16] = crc / 256;
 585              		.loc 1 169 0
 586 007c BB1D     		add	r3, r7, #6
 587 007e 1B88     		ldrh	r3, [r3]
 588 0080 1B0A     		lsr	r3, r3, #8
 589 0082 9BB2     		uxth	r3, r3
 590 0084 DAB2     		uxtb	r2, r3
 591 0086 054B     		ldr	r3, .L19
 592 0088 1A74     		strb	r2, [r3, #16]
 170:app_protocol.c ****     packetTX[17] = crc % 256;  
 593              		.loc 1 170 0
 594 008a BB1D     		add	r3, r7, #6
 595 008c 1B88     		ldrh	r3, [r3]
 596 008e DAB2     		uxtb	r2, r3
 597 0090 024B     		ldr	r3, .L19
 598 0092 5A74     		strb	r2, [r3, #17]
 171:app_protocol.c ****     //SendNotification();
 172:app_protocol.c **** }
 599              		.loc 1 172 0
 600 0094 BD46     		mov	sp, r7
 601 0096 03B0     		add	sp, sp, #12
 602              		@ sp needed
 603 0098 90BD     		pop	{r4, r7, pc}
 604              	.L20:
 605 009a C046     		.align	2
 606              	.L19:
 607 009c 00000000 		.word	packetTX
 608 00a0 04000000 		.word	packetTX+4
 609 00a4 00000000 		.word	System_Config
 610              		.cfi_endproc
 611              	.LFE40:
 612              		.size	Send_Factory_Info, .-Send_Factory_Info
 613              		.section	.text.Back_subpackage,"ax",%progbits
 614              		.align	2
 615              		.global	Back_subpackage
 616              		.code	16
 617              		.thumb_func
 618              		.type	Back_subpackage, %function
 619              	Back_subpackage:
 620              	.LFB41:
 173:app_protocol.c **** 
 174:app_protocol.c **** 
 175:app_protocol.c **** /***********************************************
ARM GAS  C:\Users\ADMINI~1.SC-\AppData\Local\Temp\ccTdZRqJ.s 			page 15


 176:app_protocol.c **** * 函数名：void Back_Massage_Minwen(uint8 cmd,uint8 data)
 177:app_protocol.c **** * 描述  ：分包应答
 178:app_protocol.c **** ***********************************************/
 179:app_protocol.c **** void Back_subpackage(uint8 cmd,uint8 pk_num)
 180:app_protocol.c **** {
 621              		.loc 1 180 0
 622              		.cfi_startproc
 623 0000 90B5     		push	{r4, r7, lr}
 624              		.cfi_def_cfa_offset 12
 625              		.cfi_offset 4, -12
 626              		.cfi_offset 7, -8
 627              		.cfi_offset 14, -4
 628 0002 85B0     		sub	sp, sp, #20
 629              		.cfi_def_cfa_offset 32
 630 0004 00AF     		add	r7, sp, #0
 631              		.cfi_def_cfa_register 7
 632 0006 021C     		mov	r2, r0
 633 0008 FB1D     		add	r3, r7, #7
 634 000a 1A70     		strb	r2, [r3]
 635 000c BB1D     		add	r3, r7, #6
 636 000e 0A1C     		add	r2, r1, #0
 637 0010 1A70     		strb	r2, [r3]
 181:app_protocol.c ****     uint16 crc;
 182:app_protocol.c ****     memset(packetTX,0x00,sizeof(packetTX));
 638              		.loc 1 182 0
 639 0012 154B     		ldr	r3, .L22
 640 0014 181C     		mov	r0, r3
 641 0016 0021     		mov	r1, #0
 642 0018 1422     		mov	r2, #20
 643 001a FFF7FEFF 		bl	memset
 183:app_protocol.c ****     packetTX[0] = cmd;
 644              		.loc 1 183 0
 645 001e 124B     		ldr	r3, .L22
 646 0020 FA1D     		add	r2, r7, #7
 647 0022 1278     		ldrb	r2, [r2]
 648 0024 1A70     		strb	r2, [r3]
 184:app_protocol.c ****     packetTX[1] = pk_num;           //包号
 649              		.loc 1 184 0
 650 0026 104B     		ldr	r3, .L22
 651 0028 BA1D     		add	r2, r7, #6
 652 002a 1278     		ldrb	r2, [r2]
 653 002c 5A70     		strb	r2, [r3, #1]
 185:app_protocol.c ****     packetTX[2] = 0;                //命令字    
 654              		.loc 1 185 0
 655 002e 0E4B     		ldr	r3, .L22
 656 0030 0022     		mov	r2, #0
 657 0032 9A70     		strb	r2, [r3, #2]
 186:app_protocol.c **** 
 187:app_protocol.c ****     crc = comCalCRC16(packetTX,3);
 658              		.loc 1 187 0
 659 0034 0E23     		mov	r3, #14
 660 0036 FC18     		add	r4, r7, r3
 661 0038 0B4B     		ldr	r3, .L22
 662 003a 181C     		mov	r0, r3
 663 003c 0321     		mov	r1, #3
 664 003e FFF7FEFF 		bl	comCalCRC16
 665 0042 031C     		mov	r3, r0
ARM GAS  C:\Users\ADMINI~1.SC-\AppData\Local\Temp\ccTdZRqJ.s 			page 16


 666 0044 2380     		strh	r3, [r4]
 188:app_protocol.c ****     packetTX[3] = crc / 256;
 667              		.loc 1 188 0
 668 0046 0E23     		mov	r3, #14
 669 0048 FB18     		add	r3, r7, r3
 670 004a 1B88     		ldrh	r3, [r3]
 671 004c 1B0A     		lsr	r3, r3, #8
 672 004e 9BB2     		uxth	r3, r3
 673 0050 DAB2     		uxtb	r2, r3
 674 0052 054B     		ldr	r3, .L22
 675 0054 DA70     		strb	r2, [r3, #3]
 189:app_protocol.c ****     packetTX[4] = crc % 256;   
 676              		.loc 1 189 0
 677 0056 0E23     		mov	r3, #14
 678 0058 FB18     		add	r3, r7, r3
 679 005a 1B88     		ldrh	r3, [r3]
 680 005c DAB2     		uxtb	r2, r3
 681 005e 024B     		ldr	r3, .L22
 682 0060 1A71     		strb	r2, [r3, #4]
 190:app_protocol.c ****     //SendNotification();
 191:app_protocol.c **** }
 683              		.loc 1 191 0
 684 0062 BD46     		mov	sp, r7
 685 0064 05B0     		add	sp, sp, #20
 686              		@ sp needed
 687 0066 90BD     		pop	{r4, r7, pc}
 688              	.L23:
 689              		.align	2
 690              	.L22:
 691 0068 00000000 		.word	packetTX
 692              		.cfi_endproc
 693              	.LFE41:
 694              		.size	Back_subpackage, .-Back_subpackage
 695              		.section	.text.Hl_Back_KeyInfo,"ax",%progbits
 696              		.align	2
 697              		.global	Hl_Back_KeyInfo
 698              		.code	16
 699              		.thumb_func
 700              		.type	Hl_Back_KeyInfo, %function
 701              	Hl_Back_KeyInfo:
 702              	.LFB42:
 192:app_protocol.c **** 
 193:app_protocol.c **** 
 194:app_protocol.c **** /***********************************************
 195:app_protocol.c **** * 函数名：void Hl_Back_KeyInfo()
 196:app_protocol.c **** * 描述  ：返回钥匙信息
 197:app_protocol.c **** ***********************************************/
 198:app_protocol.c **** void Hl_Back_KeyInfo(void)
 199:app_protocol.c **** {
 703              		.loc 1 199 0
 704              		.cfi_startproc
 705 0000 90B5     		push	{r4, r7, lr}
 706              		.cfi_def_cfa_offset 12
 707              		.cfi_offset 4, -12
 708              		.cfi_offset 7, -8
 709              		.cfi_offset 14, -4
 710 0002 83B0     		sub	sp, sp, #12
ARM GAS  C:\Users\ADMINI~1.SC-\AppData\Local\Temp\ccTdZRqJ.s 			page 17


 711              		.cfi_def_cfa_offset 24
 712 0004 00AF     		add	r7, sp, #0
 713              		.cfi_def_cfa_register 7
 200:app_protocol.c ****     uint8 sendlen;
 201:app_protocol.c ****     uint16 batt_val = 0;
 714              		.loc 1 201 0
 715 0006 BB1D     		add	r3, r7, #6
 716 0008 0022     		mov	r2, #0
 717 000a 1A80     		strh	r2, [r3]
 202:app_protocol.c ****     packetTX[0] = CMD_GET_KEYINFO;
 718              		.loc 1 202 0
 719 000c 1B4B     		ldr	r3, .L25
 720 000e 0122     		mov	r2, #1
 721 0010 1A70     		strb	r2, [r3]
 203:app_protocol.c ****     packetTX[1] = 8;
 722              		.loc 1 203 0
 723 0012 1A4B     		ldr	r3, .L25
 724 0014 0822     		mov	r2, #8
 725 0016 5A70     		strb	r2, [r3, #1]
 204:app_protocol.c ****     
 205:app_protocol.c ****     memcpy(&packetTX[2], &System_Config.DeviceID, 4); //钥匙ID
 726              		.loc 1 205 0
 727 0018 184A     		ldr	r2, .L25
 728 001a 0221     		mov	r1, #2
 729 001c 184B     		ldr	r3, .L25+4
 730 001e 5218     		add	r2, r2, r1
 731 0020 1033     		add	r3, r3, #16
 732 0022 0424     		mov	r4, #4
 733 0024 101C     		mov	r0, r2
 734 0026 191C     		mov	r1, r3
 735 0028 221C     		mov	r2, r4
 736 002a FFF7FEFF 		bl	memcpy
 206:app_protocol.c ****     
 207:app_protocol.c ****     packetTX[6] = Ver_H;
 737              		.loc 1 207 0
 738 002e 134B     		ldr	r3, .L25
 739 0030 0122     		mov	r2, #1
 740 0032 9A71     		strb	r2, [r3, #6]
 208:app_protocol.c ****     packetTX[7] = Ver_L;
 741              		.loc 1 208 0
 742 0034 114B     		ldr	r3, .L25
 743 0036 0022     		mov	r2, #0
 744 0038 DA71     		strb	r2, [r3, #7]
 209:app_protocol.c ****     
 210:app_protocol.c ****     batt_val = Get_Adc();
 745              		.loc 1 210 0
 746 003a BC1D     		add	r4, r7, #6
 747 003c FFF7FEFF 		bl	Get_Adc
 748 0040 031C     		mov	r3, r0
 749 0042 2380     		strh	r3, [r4]
 211:app_protocol.c ****     //packetTX[8] = (uint8)(batt_val >> 8);
 212:app_protocol.c ****     //packetTX[9] = (uint8)(batt_val);
 213:app_protocol.c ****     packetTX[8] = 0xe;
 750              		.loc 1 213 0
 751 0044 0D4B     		ldr	r3, .L25
 752 0046 0E22     		mov	r2, #14
 753 0048 1A72     		strb	r2, [r3, #8]
ARM GAS  C:\Users\ADMINI~1.SC-\AppData\Local\Temp\ccTdZRqJ.s 			page 18


 214:app_protocol.c ****     packetTX[9] = 0x00;
 754              		.loc 1 214 0
 755 004a 0C4B     		ldr	r3, .L25
 756 004c 0022     		mov	r2, #0
 757 004e 5A72     		strb	r2, [r3, #9]
 215:app_protocol.c ****     
 216:app_protocol.c ****     packetTX[10] = Xor_Check(&packetTX[2], 8);
 758              		.loc 1 216 0
 759 0050 0C4B     		ldr	r3, .L25+8
 760 0052 181C     		mov	r0, r3
 761 0054 0821     		mov	r1, #8
 762 0056 FFF7FEFF 		bl	Xor_Check
 763 005a 031C     		mov	r3, r0
 764 005c 1A1C     		mov	r2, r3
 765 005e 074B     		ldr	r3, .L25
 766 0060 9A72     		strb	r2, [r3, #10]
 217:app_protocol.c ****   
 218:app_protocol.c ****     
 219:app_protocol.c ****     sendlen = packetTX[1] + 3;
 767              		.loc 1 219 0
 768 0062 064B     		ldr	r3, .L25
 769 0064 5A78     		ldrb	r2, [r3, #1]
 770 0066 7B1D     		add	r3, r7, #5
 771 0068 0332     		add	r2, r2, #3
 772 006a 1A70     		strb	r2, [r3]
 220:app_protocol.c ****     
 221:app_protocol.c ****     SendNotification_zx(sendlen);
 773              		.loc 1 221 0
 774 006c 7B1D     		add	r3, r7, #5
 775 006e 1B78     		ldrb	r3, [r3]
 776 0070 181C     		mov	r0, r3
 777 0072 FFF7FEFF 		bl	SendNotification_zx
 222:app_protocol.c **** }
 778              		.loc 1 222 0
 779 0076 BD46     		mov	sp, r7
 780 0078 03B0     		add	sp, sp, #12
 781              		@ sp needed
 782 007a 90BD     		pop	{r4, r7, pc}
 783              	.L26:
 784              		.align	2
 785              	.L25:
 786 007c 00000000 		.word	packetTX
 787 0080 00000000 		.word	System_Config
 788 0084 02000000 		.word	packetTX+2
 789              		.cfi_endproc
 790              	.LFE42:
 791              		.size	Hl_Back_KeyInfo, .-Hl_Back_KeyInfo
 792              		.section	.text.Hl_Back_Msg,"ax",%progbits
 793              		.align	2
 794              		.global	Hl_Back_Msg
 795              		.code	16
 796              		.thumb_func
 797              		.type	Hl_Back_Msg, %function
 798              	Hl_Back_Msg:
 799              	.LFB43:
 223:app_protocol.c **** 
 224:app_protocol.c **** /***********************************************
ARM GAS  C:\Users\ADMINI~1.SC-\AppData\Local\Temp\ccTdZRqJ.s 			page 19


 225:app_protocol.c **** * 函数名：void  Hl_Back_Msg(uint8 cmd, uint8 result)
 226:app_protocol.c **** * 描述  ：返回应答结果
 227:app_protocol.c **** ***********************************************/
 228:app_protocol.c **** void  Hl_Back_Msg(uint8 cmd, uint8 result)
 229:app_protocol.c **** {
 800              		.loc 1 229 0
 801              		.cfi_startproc
 802 0000 80B5     		push	{r7, lr}
 803              		.cfi_def_cfa_offset 8
 804              		.cfi_offset 7, -8
 805              		.cfi_offset 14, -4
 806 0002 84B0     		sub	sp, sp, #16
 807              		.cfi_def_cfa_offset 24
 808 0004 00AF     		add	r7, sp, #0
 809              		.cfi_def_cfa_register 7
 810 0006 021C     		mov	r2, r0
 811 0008 FB1D     		add	r3, r7, #7
 812 000a 1A70     		strb	r2, [r3]
 813 000c BB1D     		add	r3, r7, #6
 814 000e 0A1C     		add	r2, r1, #0
 815 0010 1A70     		strb	r2, [r3]
 230:app_protocol.c ****     uint8 sendlen;
 231:app_protocol.c **** 
 232:app_protocol.c ****     packetTX[0] = cmd;
 816              		.loc 1 232 0
 817 0012 124B     		ldr	r3, .L28
 818 0014 FA1D     		add	r2, r7, #7
 819 0016 1278     		ldrb	r2, [r2]
 820 0018 1A70     		strb	r2, [r3]
 233:app_protocol.c ****     packetTX[1] = 1;
 821              		.loc 1 233 0
 822 001a 104B     		ldr	r3, .L28
 823 001c 0122     		mov	r2, #1
 824 001e 5A70     		strb	r2, [r3, #1]
 234:app_protocol.c ****     packetTX[2] = result;
 825              		.loc 1 234 0
 826 0020 0E4B     		ldr	r3, .L28
 827 0022 BA1D     		add	r2, r7, #6
 828 0024 1278     		ldrb	r2, [r2]
 829 0026 9A70     		strb	r2, [r3, #2]
 235:app_protocol.c ****     
 236:app_protocol.c ****     packetTX[3] = Xor_Check(&packetTX[2], packetTX[1]);
 830              		.loc 1 236 0
 831 0028 0C4B     		ldr	r3, .L28
 832 002a 5B78     		ldrb	r3, [r3, #1]
 833 002c 0C4A     		ldr	r2, .L28+4
 834 002e 101C     		mov	r0, r2
 835 0030 191C     		mov	r1, r3
 836 0032 FFF7FEFF 		bl	Xor_Check
 837 0036 031C     		mov	r3, r0
 838 0038 1A1C     		mov	r2, r3
 839 003a 084B     		ldr	r3, .L28
 840 003c DA70     		strb	r2, [r3, #3]
 237:app_protocol.c ****     
 238:app_protocol.c ****     sendlen = packetTX[1] + 3;
 841              		.loc 1 238 0
 842 003e 074B     		ldr	r3, .L28
ARM GAS  C:\Users\ADMINI~1.SC-\AppData\Local\Temp\ccTdZRqJ.s 			page 20


 843 0040 5A78     		ldrb	r2, [r3, #1]
 844 0042 0F23     		mov	r3, #15
 845 0044 FB18     		add	r3, r7, r3
 846 0046 0332     		add	r2, r2, #3
 847 0048 1A70     		strb	r2, [r3]
 239:app_protocol.c ****     
 240:app_protocol.c ****     SendNotification_zx(sendlen);
 848              		.loc 1 240 0
 849 004a 0F23     		mov	r3, #15
 850 004c FB18     		add	r3, r7, r3
 851 004e 1B78     		ldrb	r3, [r3]
 852 0050 181C     		mov	r0, r3
 853 0052 FFF7FEFF 		bl	SendNotification_zx
 241:app_protocol.c **** }
 854              		.loc 1 241 0
 855 0056 BD46     		mov	sp, r7
 856 0058 04B0     		add	sp, sp, #16
 857              		@ sp needed
 858 005a 80BD     		pop	{r7, pc}
 859              	.L29:
 860              		.align	2
 861              	.L28:
 862 005c 00000000 		.word	packetTX
 863 0060 02000000 		.word	packetTX+2
 864              		.cfi_endproc
 865              	.LFE43:
 866              		.size	Hl_Back_Msg, .-Hl_Back_Msg
 867              		.section	.text.Hl_Back_Lock_Open,"ax",%progbits
 868              		.align	2
 869              		.global	Hl_Back_Lock_Open
 870              		.code	16
 871              		.thumb_func
 872              		.type	Hl_Back_Lock_Open, %function
 873              	Hl_Back_Lock_Open:
 874              	.LFB44:
 242:app_protocol.c **** 
 243:app_protocol.c **** /***********************************************
 244:app_protocol.c **** * 函数名：void Hl_Back_Lock_Open(void)
 245:app_protocol.c **** * 描述  ：返回开锁应答结果
 246:app_protocol.c **** ***********************************************/
 247:app_protocol.c **** void Hl_Back_Lock_Open(void)
 248:app_protocol.c **** {
 875              		.loc 1 248 0
 876              		.cfi_startproc
 877 0000 80B5     		push	{r7, lr}
 878              		.cfi_def_cfa_offset 8
 879              		.cfi_offset 7, -8
 880              		.cfi_offset 14, -4
 881 0002 82B0     		sub	sp, sp, #8
 882              		.cfi_def_cfa_offset 16
 883 0004 00AF     		add	r7, sp, #0
 884              		.cfi_def_cfa_register 7
 249:app_protocol.c ****     uint8 sendlen;
 250:app_protocol.c **** 
 251:app_protocol.c ****     packetTX[0] = CMD_LOCK_OPEN;
 885              		.loc 1 251 0
 886 0006 124B     		ldr	r3, .L31
ARM GAS  C:\Users\ADMINI~1.SC-\AppData\Local\Temp\ccTdZRqJ.s 			page 21


 887 0008 0422     		mov	r2, #4
 888 000a 1A70     		strb	r2, [r3]
 252:app_protocol.c ****     packetTX[1] = 2;
 889              		.loc 1 252 0
 890 000c 104B     		ldr	r3, .L31
 891 000e 0222     		mov	r2, #2
 892 0010 5A70     		strb	r2, [r3, #1]
 253:app_protocol.c ****     packetTX[2] = 1; //结果
 893              		.loc 1 253 0
 894 0012 0F4B     		ldr	r3, .L31
 895 0014 0122     		mov	r2, #1
 896 0016 9A70     		strb	r2, [r3, #2]
 254:app_protocol.c ****     packetTX[3] = 1; //锁状态
 897              		.loc 1 254 0
 898 0018 0D4B     		ldr	r3, .L31
 899 001a 0122     		mov	r2, #1
 900 001c DA70     		strb	r2, [r3, #3]
 255:app_protocol.c ****     
 256:app_protocol.c ****     packetTX[4] = Xor_Check(&packetTX[2], packetTX[1]);
 901              		.loc 1 256 0
 902 001e 0C4B     		ldr	r3, .L31
 903 0020 5B78     		ldrb	r3, [r3, #1]
 904 0022 0C4A     		ldr	r2, .L31+4
 905 0024 101C     		mov	r0, r2
 906 0026 191C     		mov	r1, r3
 907 0028 FFF7FEFF 		bl	Xor_Check
 908 002c 031C     		mov	r3, r0
 909 002e 1A1C     		mov	r2, r3
 910 0030 074B     		ldr	r3, .L31
 911 0032 1A71     		strb	r2, [r3, #4]
 257:app_protocol.c ****     //packetTX[4] = 0;
 258:app_protocol.c ****     sendlen = packetTX[1] + 3;
 912              		.loc 1 258 0
 913 0034 064B     		ldr	r3, .L31
 914 0036 5A78     		ldrb	r2, [r3, #1]
 915 0038 FB1D     		add	r3, r7, #7
 916 003a 0332     		add	r2, r2, #3
 917 003c 1A70     		strb	r2, [r3]
 259:app_protocol.c ****     
 260:app_protocol.c ****     SendNotification_zx(sendlen);
 918              		.loc 1 260 0
 919 003e FB1D     		add	r3, r7, #7
 920 0040 1B78     		ldrb	r3, [r3]
 921 0042 181C     		mov	r0, r3
 922 0044 FFF7FEFF 		bl	SendNotification_zx
 261:app_protocol.c **** }
 923              		.loc 1 261 0
 924 0048 BD46     		mov	sp, r7
 925 004a 02B0     		add	sp, sp, #8
 926              		@ sp needed
 927 004c 80BD     		pop	{r7, pc}
 928              	.L32:
 929 004e C046     		.align	2
 930              	.L31:
 931 0050 00000000 		.word	packetTX
 932 0054 02000000 		.word	packetTX+2
 933              		.cfi_endproc
ARM GAS  C:\Users\ADMINI~1.SC-\AppData\Local\Temp\ccTdZRqJ.s 			page 22


 934              	.LFE44:
 935              		.size	Hl_Back_Lock_Open, .-Hl_Back_Lock_Open
 936              		.section	.text.Hl_Back_Lock_Info,"ax",%progbits
 937              		.align	2
 938              		.global	Hl_Back_Lock_Info
 939              		.code	16
 940              		.thumb_func
 941              		.type	Hl_Back_Lock_Info, %function
 942              	Hl_Back_Lock_Info:
 943              	.LFB45:
 262:app_protocol.c **** 
 263:app_protocol.c **** /***********************************************
 264:app_protocol.c **** * 函数名：void Hl_Back_Lock_Info(void)
 265:app_protocol.c **** * 描述  ：返回锁设备信息 预备开锁
 266:app_protocol.c **** ***********************************************/
 267:app_protocol.c **** void Hl_Back_Lock_Info(void)
 268:app_protocol.c **** {
 944              		.loc 1 268 0
 945              		.cfi_startproc
 946 0000 80B5     		push	{r7, lr}
 947              		.cfi_def_cfa_offset 8
 948              		.cfi_offset 7, -8
 949              		.cfi_offset 14, -4
 950 0002 86B0     		sub	sp, sp, #24
 951              		.cfi_def_cfa_offset 32
 952 0004 00AF     		add	r7, sp, #0
 953              		.cfi_def_cfa_register 7
 269:app_protocol.c ****     uint8 sendlen;
 270:app_protocol.c ****     uint8 rc4_key[16];
 271:app_protocol.c ****     
 272:app_protocol.c ****     packetTX[0] = CMD_UP_LOCKINFO;
 954              		.loc 1 272 0
 955 0006 1D4B     		ldr	r3, .L34
 956 0008 0322     		mov	r2, #3
 957 000a 1A70     		strb	r2, [r3]
 273:app_protocol.c ****     
 274:app_protocol.c ****     packetTX[1] = 7;
 958              		.loc 1 274 0
 959 000c 1B4B     		ldr	r3, .L34
 960 000e 0722     		mov	r2, #7
 961 0010 5A70     		strb	r2, [r3, #1]
 275:app_protocol.c ****     
 276:app_protocol.c ****     memcmp(&packetTX[2], Lock_Info.DeviceID, 4);
 277:app_protocol.c ****     
 278:app_protocol.c ****     packetTX[6] = Ver_H;
 962              		.loc 1 278 0
 963 0012 1A4B     		ldr	r3, .L34
 964 0014 0122     		mov	r2, #1
 965 0016 9A71     		strb	r2, [r3, #6]
 279:app_protocol.c ****     packetTX[7] = Ver_L; 
 966              		.loc 1 279 0
 967 0018 184B     		ldr	r3, .L34
 968 001a 0022     		mov	r2, #0
 969 001c DA71     		strb	r2, [r3, #7]
 280:app_protocol.c ****     
 281:app_protocol.c ****     packetTX[8] = 0; //锁状态
 970              		.loc 1 281 0
ARM GAS  C:\Users\ADMINI~1.SC-\AppData\Local\Temp\ccTdZRqJ.s 			page 23


 971 001e 174B     		ldr	r3, .L34
 972 0020 0022     		mov	r2, #0
 973 0022 1A72     		strb	r2, [r3, #8]
 282:app_protocol.c ****     
 283:app_protocol.c ****     packetTX[9] = Xor_Check(&packetTX[2], packetTX[1]);
 974              		.loc 1 283 0
 975 0024 154B     		ldr	r3, .L34
 976 0026 5B78     		ldrb	r3, [r3, #1]
 977 0028 154A     		ldr	r2, .L34+4
 978 002a 101C     		mov	r0, r2
 979 002c 191C     		mov	r1, r3
 980 002e FFF7FEFF 		bl	Xor_Check
 981 0032 031C     		mov	r3, r0
 982 0034 1A1C     		mov	r2, r3
 983 0036 114B     		ldr	r3, .L34
 984 0038 5A72     		strb	r2, [r3, #9]
 284:app_protocol.c ****     
 285:app_protocol.c ****     memcpy(rc4_key, key_str.dynamic_key, 8);       //动态密钥做高8字节
 985              		.loc 1 285 0
 986 003a 3A1D     		add	r2, r7, #4
 987 003c 114B     		ldr	r3, .L34+8
 988 003e 1033     		add	r3, r3, #16
 989 0040 03CB     		ldmia	r3!, {r0, r1}
 990 0042 03C2     		stmia	r2!, {r0, r1}
 286:app_protocol.c ****     memcpy(&rc4_key[8], key_str.root_key, 8);   //根密钥做低8字节
 991              		.loc 1 286 0
 992 0044 3B1D     		add	r3, r7, #4
 993 0046 0F4A     		ldr	r2, .L34+8
 994 0048 0833     		add	r3, r3, #8
 995 004a 03CA     		ldmia	r2!, {r0, r1}
 996 004c 03C3     		stmia	r3!, {r0, r1}
 287:app_protocol.c ****     App_RC4(rc4_key, 16, &packetTX[2], 7);
 997              		.loc 1 287 0
 998 004e 3A1D     		add	r2, r7, #4
 999 0050 0B4B     		ldr	r3, .L34+4
 1000 0052 101C     		mov	r0, r2
 1001 0054 1021     		mov	r1, #16
 1002 0056 1A1C     		mov	r2, r3
 1003 0058 0723     		mov	r3, #7
 1004 005a FFF7FEFF 		bl	App_RC4
 288:app_protocol.c ****    
 289:app_protocol.c ****     sendlen = packetTX[1] + 3;
 1005              		.loc 1 289 0
 1006 005e 074B     		ldr	r3, .L34
 1007 0060 5A78     		ldrb	r2, [r3, #1]
 1008 0062 1723     		mov	r3, #23
 1009 0064 FB18     		add	r3, r7, r3
 1010 0066 0332     		add	r2, r2, #3
 1011 0068 1A70     		strb	r2, [r3]
 290:app_protocol.c ****     
 291:app_protocol.c ****     SendNotification_zx(sendlen);
 1012              		.loc 1 291 0
 1013 006a 1723     		mov	r3, #23
 1014 006c FB18     		add	r3, r7, r3
 1015 006e 1B78     		ldrb	r3, [r3]
 1016 0070 181C     		mov	r0, r3
 1017 0072 FFF7FEFF 		bl	SendNotification_zx
ARM GAS  C:\Users\ADMINI~1.SC-\AppData\Local\Temp\ccTdZRqJ.s 			page 24


 292:app_protocol.c **** }
 1018              		.loc 1 292 0
 1019 0076 BD46     		mov	sp, r7
 1020 0078 06B0     		add	sp, sp, #24
 1021              		@ sp needed
 1022 007a 80BD     		pop	{r7, pc}
 1023              	.L35:
 1024              		.align	2
 1025              	.L34:
 1026 007c 00000000 		.word	packetTX
 1027 0080 02000000 		.word	packetTX+2
 1028 0084 00000000 		.word	key_str
 1029              		.cfi_endproc
 1030              	.LFE45:
 1031              		.size	Hl_Back_Lock_Info, .-Hl_Back_Lock_Info
 1032              		.section	.text.HexToStr,"ax",%progbits
 1033              		.align	2
 1034              		.global	HexToStr
 1035              		.code	16
 1036              		.thumb_func
 1037              		.type	HexToStr, %function
 1038              	HexToStr:
 1039              	.LFB46:
 293:app_protocol.c **** 
 294:app_protocol.c **** /*
 295:app_protocol.c **** // C prototype : void HexToStr(BYTE *pbDest, BYTE *pbSrc, int nLen)
 296:app_protocol.c **** // parameter(s): [OUT] pbDest - 存放目标字符串
 297:app_protocol.c **** // [IN] pbSrc - 输入16进制数的起始地址
 298:app_protocol.c **** // [IN] nLen - 16进制数的字节数
 299:app_protocol.c **** // return value:
 300:app_protocol.c **** // remarks : 将16进制数转化为字符串
 301:app_protocol.c **** */
 302:app_protocol.c **** void HexToStr(char *pbDest, uint8 *pbSrc, uint16 nLen)
 303:app_protocol.c **** {
 1040              		.loc 1 303 0
 1041              		.cfi_startproc
 1042 0000 80B5     		push	{r7, lr}
 1043              		.cfi_def_cfa_offset 8
 1044              		.cfi_offset 7, -8
 1045              		.cfi_offset 14, -4
 1046 0002 86B0     		sub	sp, sp, #24
 1047              		.cfi_def_cfa_offset 32
 1048 0004 00AF     		add	r7, sp, #0
 1049              		.cfi_def_cfa_register 7
 1050 0006 F860     		str	r0, [r7, #12]
 1051 0008 B960     		str	r1, [r7, #8]
 1052 000a BB1D     		add	r3, r7, #6
 1053 000c 1A80     		strh	r2, [r3]
 304:app_protocol.c ****     char ddl,ddh;
 305:app_protocol.c ****     int i;
 306:app_protocol.c **** 
 307:app_protocol.c ****     for (i=0; i<nLen; i++)
 1054              		.loc 1 307 0
 1055 000e 0023     		mov	r3, #0
 1056 0010 3B61     		str	r3, [r7, #16]
 1057 0012 41E0     		b	.L37
 1058              	.L40:
ARM GAS  C:\Users\ADMINI~1.SC-\AppData\Local\Temp\ccTdZRqJ.s 			page 25


 308:app_protocol.c ****     {
 309:app_protocol.c ****         ddh = 48 + pbSrc[i] / 16;
 1059              		.loc 1 309 0
 1060 0014 3B69     		ldr	r3, [r7, #16]
 1061 0016 BA68     		ldr	r2, [r7, #8]
 1062 0018 D318     		add	r3, r2, r3
 1063 001a 1B78     		ldrb	r3, [r3]
 1064 001c 1B09     		lsr	r3, r3, #4
 1065 001e DAB2     		uxtb	r2, r3
 1066 0020 1623     		mov	r3, #22
 1067 0022 FB18     		add	r3, r7, r3
 1068 0024 3032     		add	r2, r2, #48
 1069 0026 1A70     		strb	r2, [r3]
 310:app_protocol.c ****         ddl = 48 + pbSrc[i] % 16;
 1070              		.loc 1 310 0
 1071 0028 3B69     		ldr	r3, [r7, #16]
 1072 002a BA68     		ldr	r2, [r7, #8]
 1073 002c D318     		add	r3, r2, r3
 1074 002e 1B78     		ldrb	r3, [r3]
 1075 0030 0F22     		mov	r2, #15
 1076 0032 1340     		and	r3, r2
 1077 0034 DAB2     		uxtb	r2, r3
 1078 0036 1723     		mov	r3, #23
 1079 0038 FB18     		add	r3, r7, r3
 1080 003a 3032     		add	r2, r2, #48
 1081 003c 1A70     		strb	r2, [r3]
 311:app_protocol.c ****         if (ddh > 57) ddh = ddh + ('a' - '9' - 1);
 1082              		.loc 1 311 0
 1083 003e 1623     		mov	r3, #22
 1084 0040 FB18     		add	r3, r7, r3
 1085 0042 1B78     		ldrb	r3, [r3]
 1086 0044 392B     		cmp	r3, #57
 1087 0046 06D9     		bls	.L38
 1088              		.loc 1 311 0 is_stmt 0 discriminator 1
 1089 0048 1623     		mov	r3, #22
 1090 004a FB18     		add	r3, r7, r3
 1091 004c 1622     		mov	r2, #22
 1092 004e BA18     		add	r2, r7, r2
 1093 0050 1278     		ldrb	r2, [r2]
 1094 0052 2732     		add	r2, r2, #39
 1095 0054 1A70     		strb	r2, [r3]
 1096              	.L38:
 312:app_protocol.c ****         if (ddl > 57) ddl = ddl + ('a' - '9' - 1);
 1097              		.loc 1 312 0 is_stmt 1
 1098 0056 1723     		mov	r3, #23
 1099 0058 FB18     		add	r3, r7, r3
 1100 005a 1B78     		ldrb	r3, [r3]
 1101 005c 392B     		cmp	r3, #57
 1102 005e 06D9     		bls	.L39
 1103              		.loc 1 312 0 is_stmt 0 discriminator 1
 1104 0060 1723     		mov	r3, #23
 1105 0062 FB18     		add	r3, r7, r3
 1106 0064 1722     		mov	r2, #23
 1107 0066 BA18     		add	r2, r7, r2
 1108 0068 1278     		ldrb	r2, [r2]
 1109 006a 2732     		add	r2, r2, #39
 1110 006c 1A70     		strb	r2, [r3]
ARM GAS  C:\Users\ADMINI~1.SC-\AppData\Local\Temp\ccTdZRqJ.s 			page 26


 1111              	.L39:
 313:app_protocol.c ****         pbDest[i*2] = ddh;
 1112              		.loc 1 313 0 is_stmt 1 discriminator 2
 1113 006e 3B69     		ldr	r3, [r7, #16]
 1114 0070 5B00     		lsl	r3, r3, #1
 1115 0072 1A1C     		mov	r2, r3
 1116 0074 FB68     		ldr	r3, [r7, #12]
 1117 0076 9B18     		add	r3, r3, r2
 1118 0078 1622     		mov	r2, #22
 1119 007a BA18     		add	r2, r7, r2
 1120 007c 1278     		ldrb	r2, [r2]
 1121 007e 1A70     		strb	r2, [r3]
 314:app_protocol.c ****         pbDest[i*2+1] = ddl;
 1122              		.loc 1 314 0 discriminator 2
 1123 0080 3B69     		ldr	r3, [r7, #16]
 1124 0082 5B00     		lsl	r3, r3, #1
 1125 0084 0133     		add	r3, r3, #1
 1126 0086 FA68     		ldr	r2, [r7, #12]
 1127 0088 D318     		add	r3, r2, r3
 1128 008a 1722     		mov	r2, #23
 1129 008c BA18     		add	r2, r7, r2
 1130 008e 1278     		ldrb	r2, [r2]
 1131 0090 1A70     		strb	r2, [r3]
 307:app_protocol.c ****     {
 1132              		.loc 1 307 0 discriminator 2
 1133 0092 3B69     		ldr	r3, [r7, #16]
 1134 0094 0133     		add	r3, r3, #1
 1135 0096 3B61     		str	r3, [r7, #16]
 1136              	.L37:
 307:app_protocol.c ****     {
 1137              		.loc 1 307 0 is_stmt 0 discriminator 1
 1138 0098 BB1D     		add	r3, r7, #6
 1139 009a 1A88     		ldrh	r2, [r3]
 1140 009c 3B69     		ldr	r3, [r7, #16]
 1141 009e 9A42     		cmp	r2, r3
 1142 00a0 B8DC     		bgt	.L40
 315:app_protocol.c ****     }
 316:app_protocol.c **** 
 317:app_protocol.c ****     pbDest[nLen*2] = '\0';
 1143              		.loc 1 317 0 is_stmt 1
 1144 00a2 BB1D     		add	r3, r7, #6
 1145 00a4 1B88     		ldrh	r3, [r3]
 1146 00a6 5B00     		lsl	r3, r3, #1
 1147 00a8 1A1C     		mov	r2, r3
 1148 00aa FB68     		ldr	r3, [r7, #12]
 1149 00ac 9B18     		add	r3, r3, r2
 1150 00ae 0022     		mov	r2, #0
 1151 00b0 1A70     		strb	r2, [r3]
 318:app_protocol.c **** }
 1152              		.loc 1 318 0
 1153 00b2 BD46     		mov	sp, r7
 1154 00b4 06B0     		add	sp, sp, #24
 1155              		@ sp needed
 1156 00b6 80BD     		pop	{r7, pc}
 1157              		.cfi_endproc
 1158              	.LFE46:
 1159              		.size	HexToStr, .-HexToStr
ARM GAS  C:\Users\ADMINI~1.SC-\AppData\Local\Temp\ccTdZRqJ.s 			page 27


 1160              		.section	.text.test_03packet,"ax",%progbits
 1161              		.align	2
 1162              		.global	test_03packet
 1163              		.code	16
 1164              		.thumb_func
 1165              		.type	test_03packet, %function
 1166              	test_03packet:
 1167              	.LFB47:
 319:app_protocol.c **** 
 320:app_protocol.c **** 
 321:app_protocol.c **** void test_03packet()
 322:app_protocol.c **** {
 1168              		.loc 1 322 0
 1169              		.cfi_startproc
 1170 0000 90B5     		push	{r4, r7, lr}
 1171              		.cfi_def_cfa_offset 12
 1172              		.cfi_offset 4, -12
 1173              		.cfi_offset 7, -8
 1174              		.cfi_offset 14, -4
 1175 0002 A9B0     		sub	sp, sp, #164
 1176              		.cfi_def_cfa_offset 176
 1177 0004 00AF     		add	r7, sp, #0
 1178              		.cfi_def_cfa_register 7
 323:app_protocol.c ****     uint8 key[16];
 324:app_protocol.c ****     char  dest_key[36];
 325:app_protocol.c ****     
 326:app_protocol.c ****     unsigned char decrypt[16];
 327:app_protocol.c ****     MD5_CTX md5; 
 328:app_protocol.c ****     
 329:app_protocol.c ****     memcpy(key, key_str.dynamic_key, 8);
 1179              		.loc 1 329 0
 1180 0006 9023     		mov	r3, #144
 1181 0008 FA18     		add	r2, r7, r3
 1182 000a 1A4B     		ldr	r3, .L42
 1183 000c 1033     		add	r3, r3, #16
 1184 000e 03CB     		ldmia	r3!, {r0, r1}
 1185 0010 03C2     		stmia	r2!, {r0, r1}
 330:app_protocol.c ****     memcpy(&key[8], key_str.ctrl_key, 8);
 1186              		.loc 1 330 0
 1187 0012 9023     		mov	r3, #144
 1188 0014 FB18     		add	r3, r7, r3
 1189 0016 174A     		ldr	r2, .L42
 1190 0018 0833     		add	r3, r3, #8
 1191 001a 0832     		add	r2, r2, #8
 1192 001c 03CA     		ldmia	r2!, {r0, r1}
 1193 001e 03C3     		stmia	r3!, {r0, r1}
 331:app_protocol.c ****     
 332:app_protocol.c ****     HexToStr(dest_key, key, 16);
 1194              		.loc 1 332 0
 1195 0020 6C23     		mov	r3, #108
 1196 0022 FA18     		add	r2, r7, r3
 1197 0024 9023     		mov	r3, #144
 1198 0026 FB18     		add	r3, r7, r3
 1199 0028 101C     		mov	r0, r2
 1200 002a 191C     		mov	r1, r3
 1201 002c 1022     		mov	r2, #16
 1202 002e FFF7FEFF 		bl	HexToStr
ARM GAS  C:\Users\ADMINI~1.SC-\AppData\Local\Temp\ccTdZRqJ.s 			page 28


 333:app_protocol.c ****     
 334:app_protocol.c ****     MD5Init(&md5);                
 1203              		.loc 1 334 0
 1204 0032 3B1D     		add	r3, r7, #4
 1205 0034 181C     		mov	r0, r3
 1206 0036 FFF7FEFF 		bl	MD5Init
 335:app_protocol.c ****     MD5Update(&md5, (unsigned char *)dest_key, strlen((char *)dest_key));  
 1207              		.loc 1 335 0
 1208 003a 6C23     		mov	r3, #108
 1209 003c FB18     		add	r3, r7, r3
 1210 003e 181C     		mov	r0, r3
 1211 0040 FFF7FEFF 		bl	strlen
 1212 0044 041C     		mov	r4, r0
 1213 0046 3A1D     		add	r2, r7, #4
 1214 0048 6C23     		mov	r3, #108
 1215 004a FB18     		add	r3, r7, r3
 1216 004c 101C     		mov	r0, r2
 1217 004e 191C     		mov	r1, r3
 1218 0050 221C     		mov	r2, r4
 1219 0052 FFF7FEFF 		bl	MD5Update
 336:app_protocol.c ****     MD5Final(&md5, decrypt);
 1220              		.loc 1 336 0
 1221 0056 3A1D     		add	r2, r7, #4
 1222 0058 5C23     		mov	r3, #92
 1223 005a FB18     		add	r3, r7, r3
 1224 005c 101C     		mov	r0, r2
 1225 005e 191C     		mov	r1, r3
 1226 0060 FFF7FEFF 		bl	MD5Final
 337:app_protocol.c ****     MD5Init(&md5);
 1227              		.loc 1 337 0
 1228 0064 3B1D     		add	r3, r7, #4
 1229 0066 181C     		mov	r0, r3
 1230 0068 FFF7FEFF 		bl	MD5Init
 338:app_protocol.c **** }
 1231              		.loc 1 338 0
 1232 006c BD46     		mov	sp, r7
 1233 006e 29B0     		add	sp, sp, #164
 1234              		@ sp needed
 1235 0070 90BD     		pop	{r4, r7, pc}
 1236              	.L43:
 1237 0072 C046     		.align	2
 1238              	.L42:
 1239 0074 00000000 		.word	key_str
 1240              		.cfi_endproc
 1241              	.LFE47:
 1242              		.size	test_03packet, .-test_03packet
 1243              		.section	.text.ReceiveBleCmd,"ax",%progbits
 1244              		.align	2
 1245              		.global	ReceiveBleCmd
 1246              		.code	16
 1247              		.thumb_func
 1248              		.type	ReceiveBleCmd, %function
 1249              	ReceiveBleCmd:
 1250              	.LFB48:
 339:app_protocol.c **** /***********************************************
 340:app_protocol.c **** * 函数名：void ReceiveBleCmd(void)
 341:app_protocol.c **** * 描述  ：处理蓝牙接收指令
ARM GAS  C:\Users\ADMINI~1.SC-\AppData\Local\Temp\ccTdZRqJ.s 			page 29


 342:app_protocol.c **** ***********************************************/
 343:app_protocol.c **** void ReceiveBleCmd(void)
 344:app_protocol.c **** {
 1251              		.loc 1 344 0
 1252              		.cfi_startproc
 1253 0000 90B5     		push	{r4, r7, lr}
 1254              		.cfi_def_cfa_offset 12
 1255              		.cfi_offset 4, -12
 1256              		.cfi_offset 7, -8
 1257              		.cfi_offset 14, -4
 1258 0002 87B0     		sub	sp, sp, #28
 1259              		.cfi_def_cfa_offset 40
 1260 0004 00AF     		add	r7, sp, #0
 1261              		.cfi_def_cfa_register 7
 345:app_protocol.c ****     uint8 cmd, datalen;
 346:app_protocol.c ****     uint8 data_crc,check_crc;
 347:app_protocol.c ****     
 348:app_protocol.c ****     uint8 packet_rx[20];
 349:app_protocol.c ****     
 350:app_protocol.c ****     if(packetRXFlag)
 1262              		.loc 1 350 0
 1263 0006 3C4B     		ldr	r3, .L55
 1264 0008 1B68     		ldr	r3, [r3]
 1265 000a 002B     		cmp	r3, #0
 1266 000c 71D0     		beq	.L44
 351:app_protocol.c ****     {
 352:app_protocol.c ****         packetRXFlag=0;         
 1267              		.loc 1 352 0
 1268 000e 3A4B     		ldr	r3, .L55
 1269 0010 0022     		mov	r2, #0
 1270 0012 1A60     		str	r2, [r3]
 353:app_protocol.c ****         memcpy(packet_rx, packetRX, packetRXSize);
 1271              		.loc 1 353 0
 1272 0014 394B     		ldr	r3, .L55+4
 1273 0016 1B68     		ldr	r3, [r3]
 1274 0018 391C     		mov	r1, r7
 1275 001a 394A     		ldr	r2, .L55+8
 1276 001c 081C     		mov	r0, r1
 1277 001e 111C     		mov	r1, r2
 1278 0020 1A1C     		mov	r2, r3
 1279 0022 FFF7FEFF 		bl	memcpy
 354:app_protocol.c ****         memset(packetTX, 0, sizeof(packetTX));
 1280              		.loc 1 354 0
 1281 0026 374B     		ldr	r3, .L55+12
 1282 0028 181C     		mov	r0, r3
 1283 002a 0021     		mov	r1, #0
 1284 002c 1422     		mov	r2, #20
 1285 002e FFF7FEFF 		bl	memset
 355:app_protocol.c ****         cmd = packet_rx[0];
 1286              		.loc 1 355 0
 1287 0032 1723     		mov	r3, #23
 1288 0034 FB18     		add	r3, r7, r3
 1289 0036 3A1C     		mov	r2, r7
 1290 0038 1278     		ldrb	r2, [r2]
 1291 003a 1A70     		strb	r2, [r3]
 356:app_protocol.c ****         datalen = packet_rx[1];
 1292              		.loc 1 356 0
ARM GAS  C:\Users\ADMINI~1.SC-\AppData\Local\Temp\ccTdZRqJ.s 			page 30


 1293 003c 1623     		mov	r3, #22
 1294 003e FB18     		add	r3, r7, r3
 1295 0040 3A1C     		mov	r2, r7
 1296 0042 5278     		ldrb	r2, [r2, #1]
 1297 0044 1A70     		strb	r2, [r3]
 357:app_protocol.c ****         
 358:app_protocol.c ****         check_crc = Xor_Check(&packet_rx[2], datalen);     //检查校验
 1298              		.loc 1 358 0
 1299 0046 1523     		mov	r3, #21
 1300 0048 FC18     		add	r4, r7, r3
 1301 004a 3B1C     		mov	r3, r7
 1302 004c 9A1C     		add	r2, r3, #2
 1303 004e 1623     		mov	r3, #22
 1304 0050 FB18     		add	r3, r7, r3
 1305 0052 1B78     		ldrb	r3, [r3]
 1306 0054 101C     		mov	r0, r2
 1307 0056 191C     		mov	r1, r3
 1308 0058 FFF7FEFF 		bl	Xor_Check
 1309 005c 031C     		mov	r3, r0
 1310 005e 2370     		strb	r3, [r4]
 359:app_protocol.c ****         data_crc = packet_rx[2 + datalen];
 1311              		.loc 1 359 0
 1312 0060 1623     		mov	r3, #22
 1313 0062 FB18     		add	r3, r7, r3
 1314 0064 1B78     		ldrb	r3, [r3]
 1315 0066 9A1C     		add	r2, r3, #2
 1316 0068 1423     		mov	r3, #20
 1317 006a FB18     		add	r3, r7, r3
 1318 006c 391C     		mov	r1, r7
 1319 006e 8A5C     		ldrb	r2, [r1, r2]
 1320 0070 1A70     		strb	r2, [r3]
 360:app_protocol.c ****         
 361:app_protocol.c ****  //       if(check_crc == data_crc)
 362:app_protocol.c ****         {
 363:app_protocol.c ****             switch(cmd)
 1321              		.loc 1 363 0
 1322 0072 1723     		mov	r3, #23
 1323 0074 FB18     		add	r3, r7, r3
 1324 0076 1B78     		ldrb	r3, [r3]
 1325 0078 072B     		cmp	r3, #7
 1326 007a 39D8     		bhi	.L54
 1327 007c 9A00     		lsl	r2, r3, #2
 1328 007e 224B     		ldr	r3, .L55+16
 1329 0080 D318     		add	r3, r2, r3
 1330 0082 1B68     		ldr	r3, [r3]
 1331 0084 9F46     		mov	pc, r3
 1332              		.section	.rodata
 1333              		.align	2
 1334              	.L48:
 1335 0000 F0000000 		.word	.L54
 1336 0004 86000000 		.word	.L47
 1337 0008 8C000000 		.word	.L49
 1338 000c F0000000 		.word	.L54
 1339 0010 BA000000 		.word	.L50
 1340 0014 C0000000 		.word	.L51
 1341 0018 D0000000 		.word	.L52
 1342 001c E0000000 		.word	.L53
ARM GAS  C:\Users\ADMINI~1.SC-\AppData\Local\Temp\ccTdZRqJ.s 			page 31


 1343              		.section	.text.ReceiveBleCmd
 1344              	.L47:
 364:app_protocol.c ****             {
 365:app_protocol.c ****                 case CMD_GET_KEYINFO:
 366:app_protocol.c ****                 Hl_Back_KeyInfo();
 1345              		.loc 1 366 0
 1346 0086 FFF7FEFF 		bl	Hl_Back_KeyInfo
 367:app_protocol.c ****                 break;
 1347              		.loc 1 367 0
 1348 008a 32E0     		b	.L44
 1349              	.L49:
 368:app_protocol.c ****                 
 369:app_protocol.c ****                 case CMD_DYNAMIC_KEY: //获得动态密钥
 370:app_protocol.c ****                 memcpy(key_str.dynamic_key, &packet_rx[2], 8);
 1350              		.loc 1 370 0
 1351 008c 1F4A     		ldr	r2, .L55+20
 1352 008e 3B1C     		mov	r3, r7
 1353 0090 0221     		mov	r1, #2
 1354 0092 1032     		add	r2, r2, #16
 1355 0094 5B18     		add	r3, r3, r1
 1356 0096 0824     		mov	r4, #8
 1357 0098 101C     		mov	r0, r2
 1358 009a 191C     		mov	r1, r3
 1359 009c 221C     		mov	r2, r4
 1360 009e FFF7FEFF 		bl	memcpy
 371:app_protocol.c ****                 
 372:app_protocol.c ****                 Hl_Back_Msg(cmd, 1);
 1361              		.loc 1 372 0
 1362 00a2 1723     		mov	r3, #23
 1363 00a4 FB18     		add	r3, r7, r3
 1364 00a6 1B78     		ldrb	r3, [r3]
 1365 00a8 181C     		mov	r0, r3
 1366 00aa 0121     		mov	r1, #1
 1367 00ac FFF7FEFF 		bl	Hl_Back_Msg
 373:app_protocol.c ****                 
 374:app_protocol.c ****                 Hl_Back_Lock_Info();
 1368              		.loc 1 374 0
 1369 00b0 FFF7FEFF 		bl	Hl_Back_Lock_Info
 375:app_protocol.c ****                 
 376:app_protocol.c ****                 test_03packet();
 1370              		.loc 1 376 0
 1371 00b4 FFF7FEFF 		bl	test_03packet
 377:app_protocol.c ****                 break;
 1372              		.loc 1 377 0
 1373 00b8 1BE0     		b	.L44
 1374              	.L50:
 378:app_protocol.c ****                 
 379:app_protocol.c ****                 case CMD_LOCK_OPEN:
 380:app_protocol.c ****                 Hl_Back_Lock_Open();
 1375              		.loc 1 380 0
 1376 00ba FFF7FEFF 		bl	Hl_Back_Lock_Open
 381:app_protocol.c ****                 break;
 1377              		.loc 1 381 0
 1378 00be 18E0     		b	.L44
 1379              	.L51:
 382:app_protocol.c ****                 
 383:app_protocol.c ****                 case CMD_RESET_KEY:
ARM GAS  C:\Users\ADMINI~1.SC-\AppData\Local\Temp\ccTdZRqJ.s 			page 32


 384:app_protocol.c ****                  Hl_Back_Msg(cmd, 1);
 1380              		.loc 1 384 0
 1381 00c0 1723     		mov	r3, #23
 1382 00c2 FB18     		add	r3, r7, r3
 1383 00c4 1B78     		ldrb	r3, [r3]
 1384 00c6 181C     		mov	r0, r3
 1385 00c8 0121     		mov	r1, #1
 1386 00ca FFF7FEFF 		bl	Hl_Back_Msg
 385:app_protocol.c ****                 break;
 1387              		.loc 1 385 0
 1388 00ce 10E0     		b	.L44
 1389              	.L52:
 386:app_protocol.c ****                 
 387:app_protocol.c ****                 case CMD_RESET_LOCKID:
 388:app_protocol.c ****                  Hl_Back_Msg(cmd, 1);
 1390              		.loc 1 388 0
 1391 00d0 1723     		mov	r3, #23
 1392 00d2 FB18     		add	r3, r7, r3
 1393 00d4 1B78     		ldrb	r3, [r3]
 1394 00d6 181C     		mov	r0, r3
 1395 00d8 0121     		mov	r1, #1
 1396 00da FFF7FEFF 		bl	Hl_Back_Msg
 389:app_protocol.c ****                 break;
 1397              		.loc 1 389 0
 1398 00de 08E0     		b	.L44
 1399              	.L53:
 390:app_protocol.c ****                 
 391:app_protocol.c ****                 case CMD_RESET_KEYID:
 392:app_protocol.c ****                  Hl_Back_Msg(cmd, 1);
 1400              		.loc 1 392 0
 1401 00e0 1723     		mov	r3, #23
 1402 00e2 FB18     		add	r3, r7, r3
 1403 00e4 1B78     		ldrb	r3, [r3]
 1404 00e6 181C     		mov	r0, r3
 1405 00e8 0121     		mov	r1, #1
 1406 00ea FFF7FEFF 		bl	Hl_Back_Msg
 393:app_protocol.c ****                 break;
 1407              		.loc 1 393 0
 1408 00ee 00E0     		b	.L44
 1409              	.L54:
 394:app_protocol.c ****                 
 395:app_protocol.c ****                 default:
 396:app_protocol.c ****                 break;
 1410              		.loc 1 396 0
 1411 00f0 C046     		mov	r8, r8
 1412              	.L44:
 397:app_protocol.c ****             }
 398:app_protocol.c ****         }
 399:app_protocol.c **** 
 400:app_protocol.c ****     }
 401:app_protocol.c ****     
 402:app_protocol.c ****     //test_03packet();
 403:app_protocol.c **** }
 1413              		.loc 1 403 0
 1414 00f2 BD46     		mov	sp, r7
 1415 00f4 07B0     		add	sp, sp, #28
 1416              		@ sp needed
ARM GAS  C:\Users\ADMINI~1.SC-\AppData\Local\Temp\ccTdZRqJ.s 			page 33


 1417 00f6 90BD     		pop	{r4, r7, pc}
 1418              	.L56:
 1419              		.align	2
 1420              	.L55:
 1421 00f8 00000000 		.word	packetRXFlag
 1422 00fc 00000000 		.word	packetRXSize
 1423 0100 00000000 		.word	packetRX
 1424 0104 00000000 		.word	packetTX
 1425 0108 00000000 		.word	.L48
 1426 010c 00000000 		.word	key_str
 1427              		.cfi_endproc
 1428              	.LFE48:
 1429              		.size	ReceiveBleCmd, .-ReceiveBleCmd
 1430              		.section	.text.SendBleCmd,"ax",%progbits
 1431              		.align	2
 1432              		.global	SendBleCmd
 1433              		.code	16
 1434              		.thumb_func
 1435              		.type	SendBleCmd, %function
 1436              	SendBleCmd:
 1437              	.LFB49:
 404:app_protocol.c **** 
 405:app_protocol.c **** 
 406:app_protocol.c **** /***********************************************
 407:app_protocol.c **** * 函数名：void SendBleCmd(void)
 408:app_protocol.c **** * 描述  ：处理蓝牙发送指令
 409:app_protocol.c **** ***********************************************/
 410:app_protocol.c **** void SendBleCmd(void)
 411:app_protocol.c **** {
 1438              		.loc 1 411 0
 1439              		.cfi_startproc
 1440 0000 80B5     		push	{r7, lr}
 1441              		.cfi_def_cfa_offset 8
 1442              		.cfi_offset 7, -8
 1443              		.cfi_offset 14, -4
 1444 0002 00AF     		add	r7, sp, #0
 1445              		.cfi_def_cfa_register 7
 412:app_protocol.c ****     switch(packetTXStep)
 1446              		.loc 1 412 0
 1447 0004 0E4B     		ldr	r3, .L64
 1448 0006 1B78     		ldrb	r3, [r3]
 1449 0008 012B     		cmp	r3, #1
 1450 000a 04D0     		beq	.L59
 1451 000c 022B     		cmp	r3, #2
 1452 000e 08D0     		beq	.L60
 1453 0010 002B     		cmp	r3, #0
 1454 0012 12D0     		beq	.L63
 413:app_protocol.c ****     {
 414:app_protocol.c ****         case BLE_IDLE:
 415:app_protocol.c ****             break;
 416:app_protocol.c ****         
 417:app_protocol.c ****         case Send_Lock_Info:
 418:app_protocol.c ****             Send_LockInfo();
 419:app_protocol.c ****             packetTXStep = BLE_IDLE;
 420:app_protocol.c ****             break;
 421:app_protocol.c ****         
 422:app_protocol.c ****         case Reply_OpenLock:
ARM GAS  C:\Users\ADMINI~1.SC-\AppData\Local\Temp\ccTdZRqJ.s 			page 34


 423:app_protocol.c ****             packetTXStep = BLE_IDLE;
 424:app_protocol.c ****             Com_Array.Tx_State = RE_REQUEST;
 425:app_protocol.c ****             Back_Massage_Minwen(OPEN_LOCK_CMD,PRO_SUCCESS);
 426:app_protocol.c ****             break;
 427:app_protocol.c ****         
 428:app_protocol.c ****         default:
 429:app_protocol.c ****             break;     
 1455              		.loc 1 429 0
 1456 0014 12E0     		b	.L57
 1457              	.L59:
 418:app_protocol.c ****             packetTXStep = BLE_IDLE;
 1458              		.loc 1 418 0
 1459 0016 FFF7FEFF 		bl	Send_LockInfo
 419:app_protocol.c ****             break;
 1460              		.loc 1 419 0
 1461 001a 094B     		ldr	r3, .L64
 1462 001c 0022     		mov	r2, #0
 1463 001e 1A70     		strb	r2, [r3]
 420:app_protocol.c ****         
 1464              		.loc 1 420 0
 1465 0020 0CE0     		b	.L57
 1466              	.L60:
 423:app_protocol.c ****             Com_Array.Tx_State = RE_REQUEST;
 1467              		.loc 1 423 0
 1468 0022 074B     		ldr	r3, .L64
 1469 0024 0022     		mov	r2, #0
 1470 0026 1A70     		strb	r2, [r3]
 424:app_protocol.c ****             Back_Massage_Minwen(OPEN_LOCK_CMD,PRO_SUCCESS);
 1471              		.loc 1 424 0
 1472 0028 064B     		ldr	r3, .L64+4
 1473 002a 6C22     		mov	r2, #108
 1474 002c 1021     		mov	r1, #16
 1475 002e 9954     		strb	r1, [r3, r2]
 425:app_protocol.c ****             break;
 1476              		.loc 1 425 0
 1477 0030 0720     		mov	r0, #7
 1478 0032 0021     		mov	r1, #0
 1479 0034 FFF7FEFF 		bl	Back_Massage_Minwen
 426:app_protocol.c ****         
 1480              		.loc 1 426 0
 1481 0038 00E0     		b	.L57
 1482              	.L63:
 415:app_protocol.c ****         
 1483              		.loc 1 415 0
 1484 003a C046     		mov	r8, r8
 1485              	.L57:
 430:app_protocol.c ****     }
 431:app_protocol.c **** }
 1486              		.loc 1 431 0
 1487 003c BD46     		mov	sp, r7
 1488              		@ sp needed
 1489 003e 80BD     		pop	{r7, pc}
 1490              	.L65:
 1491              		.align	2
 1492              	.L64:
 1493 0040 00000000 		.word	packetTXStep
 1494 0044 00000000 		.word	Com_Array
ARM GAS  C:\Users\ADMINI~1.SC-\AppData\Local\Temp\ccTdZRqJ.s 			page 35


 1495              		.cfi_endproc
 1496              	.LFE49:
 1497              		.size	SendBleCmd, .-SendBleCmd
 1498              		.section	.text.comCalCRC16,"ax",%progbits
 1499              		.align	2
 1500              		.global	comCalCRC16
 1501              		.code	16
 1502              		.thumb_func
 1503              		.type	comCalCRC16, %function
 1504              	comCalCRC16:
 1505              	.LFB50:
 432:app_protocol.c **** 
 433:app_protocol.c **** /***********************************************
 434:app_protocol.c **** * 函数名：uint16 comCalCRC16(uint8 *pucBuf, uint8 uwLength)
 435:app_protocol.c **** * 描述  ：CRC16校验
 436:app_protocol.c **** ***********************************************/
 437:app_protocol.c **** uint16 comCalCRC16(uint8 *pucBuf, uint8 uwLength)
 438:app_protocol.c **** {
 1506              		.loc 1 438 0
 1507              		.cfi_startproc
 1508 0000 80B5     		push	{r7, lr}
 1509              		.cfi_def_cfa_offset 8
 1510              		.cfi_offset 7, -8
 1511              		.cfi_offset 14, -4
 1512 0002 84B0     		sub	sp, sp, #16
 1513              		.cfi_def_cfa_offset 24
 1514 0004 00AF     		add	r7, sp, #0
 1515              		.cfi_def_cfa_register 7
 1516 0006 7860     		str	r0, [r7, #4]
 1517 0008 0A1C     		mov	r2, r1
 1518 000a FB1C     		add	r3, r7, #3
 1519 000c 1A70     		strb	r2, [r3]
 439:app_protocol.c ****     uint16 uiCRCValue=0xffff;
 1520              		.loc 1 439 0
 1521 000e 0E23     		mov	r3, #14
 1522 0010 FB18     		add	r3, r7, r3
 1523 0012 0122     		mov	r2, #1
 1524 0014 5242     		neg	r2, r2
 1525 0016 1A80     		strh	r2, [r3]
 440:app_protocol.c ****     uint8 ucLoop;
 441:app_protocol.c ****     uint8 * pu8Buf = (uint8 *)pucBuf;
 1526              		.loc 1 441 0
 1527 0018 7B68     		ldr	r3, [r7, #4]
 1528 001a BB60     		str	r3, [r7, #8]
 442:app_protocol.c ****     while (uwLength--)
 1529              		.loc 1 442 0
 1530 001c 39E0     		b	.L67
 1531              	.L72:
 443:app_protocol.c ****     {
 444:app_protocol.c ****         uiCRCValue ^= *pu8Buf++;
 1532              		.loc 1 444 0
 1533 001e BB68     		ldr	r3, [r7, #8]
 1534 0020 5A1C     		add	r2, r3, #1
 1535 0022 BA60     		str	r2, [r7, #8]
 1536 0024 1B78     		ldrb	r3, [r3]
 1537 0026 99B2     		uxth	r1, r3
 1538 0028 0E23     		mov	r3, #14
ARM GAS  C:\Users\ADMINI~1.SC-\AppData\Local\Temp\ccTdZRqJ.s 			page 36


 1539 002a FB18     		add	r3, r7, r3
 1540 002c 0E22     		mov	r2, #14
 1541 002e BA18     		add	r2, r7, r2
 1542 0030 1288     		ldrh	r2, [r2]
 1543 0032 4A40     		eor	r2, r1
 1544 0034 1A80     		strh	r2, [r3]
 445:app_protocol.c ****         for (ucLoop=0; ucLoop<8; ucLoop++)
 1545              		.loc 1 445 0
 1546 0036 0D23     		mov	r3, #13
 1547 0038 FB18     		add	r3, r7, r3
 1548 003a 0022     		mov	r2, #0
 1549 003c 1A70     		strb	r2, [r3]
 1550 003e 23E0     		b	.L68
 1551              	.L71:
 446:app_protocol.c ****         {
 447:app_protocol.c ****             if (uiCRCValue & 0x0001)
 1552              		.loc 1 447 0
 1553 0040 0E23     		mov	r3, #14
 1554 0042 FB18     		add	r3, r7, r3
 1555 0044 1B88     		ldrh	r3, [r3]
 1556 0046 0122     		mov	r2, #1
 1557 0048 1340     		and	r3, r2
 1558 004a 0FD0     		beq	.L69
 448:app_protocol.c ****             {
 449:app_protocol.c ****                 uiCRCValue >>= 1;
 1559              		.loc 1 449 0
 1560 004c 0E23     		mov	r3, #14
 1561 004e FB18     		add	r3, r7, r3
 1562 0050 0E22     		mov	r2, #14
 1563 0052 BA18     		add	r2, r7, r2
 1564 0054 1288     		ldrh	r2, [r2]
 1565 0056 5208     		lsr	r2, r2, #1
 1566 0058 1A80     		strh	r2, [r3]
 450:app_protocol.c ****                 uiCRCValue ^= CRC_POLY;
 1567              		.loc 1 450 0
 1568 005a 0E23     		mov	r3, #14
 1569 005c FB18     		add	r3, r7, r3
 1570 005e 0E22     		mov	r2, #14
 1571 0060 BA18     		add	r2, r7, r2
 1572 0062 1288     		ldrh	r2, [r2]
 1573 0064 1549     		ldr	r1, .L74
 1574 0066 4A40     		eor	r2, r1
 1575 0068 1A80     		strh	r2, [r3]
 1576 006a 06E0     		b	.L70
 1577              	.L69:
 451:app_protocol.c ****             }
 452:app_protocol.c ****             else
 453:app_protocol.c ****             {
 454:app_protocol.c ****                 uiCRCValue >>= 1;
 1578              		.loc 1 454 0
 1579 006c 0E23     		mov	r3, #14
 1580 006e FB18     		add	r3, r7, r3
 1581 0070 0E22     		mov	r2, #14
 1582 0072 BA18     		add	r2, r7, r2
 1583 0074 1288     		ldrh	r2, [r2]
 1584 0076 5208     		lsr	r2, r2, #1
 1585 0078 1A80     		strh	r2, [r3]
ARM GAS  C:\Users\ADMINI~1.SC-\AppData\Local\Temp\ccTdZRqJ.s 			page 37


 1586              	.L70:
 445:app_protocol.c ****         {
 1587              		.loc 1 445 0 discriminator 2
 1588 007a 0D23     		mov	r3, #13
 1589 007c FB18     		add	r3, r7, r3
 1590 007e 1A78     		ldrb	r2, [r3]
 1591 0080 0D23     		mov	r3, #13
 1592 0082 FB18     		add	r3, r7, r3
 1593 0084 0132     		add	r2, r2, #1
 1594 0086 1A70     		strb	r2, [r3]
 1595              	.L68:
 445:app_protocol.c ****         {
 1596              		.loc 1 445 0 is_stmt 0 discriminator 1
 1597 0088 0D23     		mov	r3, #13
 1598 008a FB18     		add	r3, r7, r3
 1599 008c 1B78     		ldrb	r3, [r3]
 1600 008e 072B     		cmp	r3, #7
 1601 0090 D6D9     		bls	.L71
 1602              	.L67:
 442:app_protocol.c ****     {
 1603              		.loc 1 442 0 is_stmt 1
 1604 0092 FB1C     		add	r3, r7, #3
 1605 0094 1B78     		ldrb	r3, [r3]
 1606 0096 FA1C     		add	r2, r7, #3
 1607 0098 591E     		sub	r1, r3, #1
 1608 009a 1170     		strb	r1, [r2]
 1609 009c 002B     		cmp	r3, #0
 1610 009e BED1     		bne	.L72
 455:app_protocol.c ****             }
 456:app_protocol.c ****         }
 457:app_protocol.c ****     }
 458:app_protocol.c ****     uiCRCValue ^= 0x0000;
 1611              		.loc 1 458 0
 1612 00a0 0E23     		mov	r3, #14
 1613 00a2 FB18     		add	r3, r7, r3
 1614 00a4 0E22     		mov	r2, #14
 1615 00a6 BA18     		add	r2, r7, r2
 1616 00a8 1288     		ldrh	r2, [r2]
 1617 00aa 1A80     		strh	r2, [r3]
 459:app_protocol.c ****     return uiCRCValue;
 1618              		.loc 1 459 0
 1619 00ac 0E23     		mov	r3, #14
 1620 00ae FB18     		add	r3, r7, r3
 1621 00b0 1B88     		ldrh	r3, [r3]
 460:app_protocol.c **** }
 1622              		.loc 1 460 0
 1623 00b2 181C     		mov	r0, r3
 1624 00b4 BD46     		mov	sp, r7
 1625 00b6 04B0     		add	sp, sp, #16
 1626              		@ sp needed
 1627 00b8 80BD     		pop	{r7, pc}
 1628              	.L75:
 1629 00ba C046     		.align	2
 1630              	.L74:
 1631 00bc 01A0FFFF 		.word	-24575
 1632              		.cfi_endproc
 1633              	.LFE50:
ARM GAS  C:\Users\ADMINI~1.SC-\AppData\Local\Temp\ccTdZRqJ.s 			page 38


 1634              		.size	comCalCRC16, .-comCalCRC16
 1635              		.section	.text.Xor_Check,"ax",%progbits
 1636              		.align	2
 1637              		.global	Xor_Check
 1638              		.code	16
 1639              		.thumb_func
 1640              		.type	Xor_Check, %function
 1641              	Xor_Check:
 1642              	.LFB51:
 461:app_protocol.c **** 
 462:app_protocol.c **** /*****************************
 463:app_protocol.c ****  * @function_name: uint8 Xor_Check(uint8 *Data, uint8 Length)
 464:app_protocol.c ****  * @function_file: xxxx.c
 465:app_protocol.c ****  * @描  述：       指定长度数组异或校验计算，XOR 
 466:app_protocol.c ****  *
 467:app_protocol.c ****  * @参  数：       *Data：输入待校验的数据流， Length：数据长度 
 468:app_protocol.c ****  * @返  回：       异或校验和
 469:app_protocol.c ****  * @备  注：	   校验计算长度为1字节，值位数据内容区的所有数据异或值，
 470:app_protocol.c ****                括包号，指令编号和数据内容长度 
 471:app_protocol.c ****  * @举  例 
 472:app_protocol.c ****  T    L        V         C
 473:app_protocol.c **** 02  0003      010200    03
 474:app_protocol.c **** *data = 0x01 0x02 0x00
 475:app_protocol.c **** length= 0x03
 476:app_protocol.c **** sum  = 0x03
 477:app_protocol.c **** *********************************/
 478:app_protocol.c **** uint8 Xor_Check(uint8 *Data, uint8 Length)
 479:app_protocol.c **** {
 1643              		.loc 1 479 0
 1644              		.cfi_startproc
 1645 0000 80B5     		push	{r7, lr}
 1646              		.cfi_def_cfa_offset 8
 1647              		.cfi_offset 7, -8
 1648              		.cfi_offset 14, -4
 1649 0002 84B0     		sub	sp, sp, #16
 1650              		.cfi_def_cfa_offset 24
 1651 0004 00AF     		add	r7, sp, #0
 1652              		.cfi_def_cfa_register 7
 1653 0006 7860     		str	r0, [r7, #4]
 1654 0008 0A1C     		mov	r2, r1
 1655 000a FB1C     		add	r3, r7, #3
 1656 000c 1A70     		strb	r2, [r3]
 480:app_protocol.c ****     uint8 sum=0,i;
 1657              		.loc 1 480 0
 1658 000e 0F23     		mov	r3, #15
 1659 0010 FB18     		add	r3, r7, r3
 1660 0012 0022     		mov	r2, #0
 1661 0014 1A70     		strb	r2, [r3]
 481:app_protocol.c ****     for(i=0; i<Length; i++)
 1662              		.loc 1 481 0
 1663 0016 0E23     		mov	r3, #14
 1664 0018 FB18     		add	r3, r7, r3
 1665 001a 0022     		mov	r2, #0
 1666 001c 1A70     		strb	r2, [r3]
 1667 001e 13E0     		b	.L77
 1668              	.L78:
 482:app_protocol.c ****     {
ARM GAS  C:\Users\ADMINI~1.SC-\AppData\Local\Temp\ccTdZRqJ.s 			page 39


 483:app_protocol.c ****     sum ^= *(Data + i);	
 1669              		.loc 1 483 0 discriminator 3
 1670 0020 0E23     		mov	r3, #14
 1671 0022 FB18     		add	r3, r7, r3
 1672 0024 1B78     		ldrb	r3, [r3]
 1673 0026 7A68     		ldr	r2, [r7, #4]
 1674 0028 D318     		add	r3, r2, r3
 1675 002a 1978     		ldrb	r1, [r3]
 1676 002c 0F23     		mov	r3, #15
 1677 002e FB18     		add	r3, r7, r3
 1678 0030 0F22     		mov	r2, #15
 1679 0032 BA18     		add	r2, r7, r2
 1680 0034 1278     		ldrb	r2, [r2]
 1681 0036 4A40     		eor	r2, r1
 1682 0038 1A70     		strb	r2, [r3]
 481:app_protocol.c ****     for(i=0; i<Length; i++)
 1683              		.loc 1 481 0 discriminator 3
 1684 003a 0E23     		mov	r3, #14
 1685 003c FB18     		add	r3, r7, r3
 1686 003e 1A78     		ldrb	r2, [r3]
 1687 0040 0E23     		mov	r3, #14
 1688 0042 FB18     		add	r3, r7, r3
 1689 0044 0132     		add	r2, r2, #1
 1690 0046 1A70     		strb	r2, [r3]
 1691              	.L77:
 481:app_protocol.c ****     for(i=0; i<Length; i++)
 1692              		.loc 1 481 0 is_stmt 0 discriminator 1
 1693 0048 0E23     		mov	r3, #14
 1694 004a FA18     		add	r2, r7, r3
 1695 004c FB1C     		add	r3, r7, #3
 1696 004e 1278     		ldrb	r2, [r2]
 1697 0050 1B78     		ldrb	r3, [r3]
 1698 0052 9A42     		cmp	r2, r3
 1699 0054 E4D3     		bcc	.L78
 484:app_protocol.c ****     }
 485:app_protocol.c ****     return sum;
 1700              		.loc 1 485 0 is_stmt 1
 1701 0056 0F23     		mov	r3, #15
 1702 0058 FB18     		add	r3, r7, r3
 1703 005a 1B78     		ldrb	r3, [r3]
 486:app_protocol.c **** }
 1704              		.loc 1 486 0
 1705 005c 181C     		mov	r0, r3
 1706 005e BD46     		mov	sp, r7
 1707 0060 04B0     		add	sp, sp, #16
 1708              		@ sp needed
 1709 0062 80BD     		pop	{r7, pc}
 1710              		.cfi_endproc
 1711              	.LFE51:
 1712              		.size	Xor_Check, .-Xor_Check
 1713              		.global	__aeabi_idivmod
 1714              		.section	.text.App_RC4,"ax",%progbits
 1715              		.align	2
 1716              		.global	App_RC4
 1717              		.code	16
 1718              		.thumb_func
 1719              		.type	App_RC4, %function
ARM GAS  C:\Users\ADMINI~1.SC-\AppData\Local\Temp\ccTdZRqJ.s 			page 40


 1720              	App_RC4:
 1721              	.LFB52:
 487:app_protocol.c **** 
 488:app_protocol.c **** /***********************************************************
 489:app_protocol.c **** * @function_name: void Load_System_Config(void)
 490:app_protocol.c **** * @function_file: AppProtocol.c
 491:app_protocol.c **** * @描  述：北京APP rc4加密算法
 492:app_protocol.c **** * @参  数：
 493:app_protocol.c **** * @返  回： void
 494:app_protocol.c **** **********************************************************/
 495:app_protocol.c **** void App_RC4(uint8 *key,uint8 key_leng, uint8 *buf, uint8 len)
 496:app_protocol.c **** {
 1722              		.loc 1 496 0
 1723              		.cfi_startproc
 1724 0000 90B5     		push	{r4, r7, lr}
 1725              		.cfi_def_cfa_offset 12
 1726              		.cfi_offset 4, -12
 1727              		.cfi_offset 7, -8
 1728              		.cfi_offset 14, -4
 1729 0002 C14C     		ldr	r4, .L92
 1730 0004 A544     		add	sp, sp, r4
 1731              		.cfi_def_cfa_offset 560
 1732 0006 00AF     		add	r7, sp, #0
 1733              		.cfi_def_cfa_register 7
 1734 0008 F860     		str	r0, [r7, #12]
 1735 000a 081C     		mov	r0, r1
 1736 000c 7A60     		str	r2, [r7, #4]
 1737 000e 191C     		mov	r1, r3
 1738 0010 BE4B     		ldr	r3, .L92+4
 1739 0012 8822     		mov	r2, #136
 1740 0014 9200     		lsl	r2, r2, #2
 1741 0016 9446     		mov	ip, r2
 1742 0018 BC44     		add	ip, ip, r7
 1743 001a 6344     		add	r3, r3, ip
 1744 001c 021C     		add	r2, r0, #0
 1745 001e 1A70     		strb	r2, [r3]
 1746 0020 BB4B     		ldr	r3, .L92+8
 1747 0022 8822     		mov	r2, #136
 1748 0024 9200     		lsl	r2, r2, #2
 1749 0026 9446     		mov	ip, r2
 1750 0028 BC44     		add	ip, ip, r7
 1751 002a 6344     		add	r3, r3, ip
 1752 002c 0A1C     		add	r2, r1, #0
 1753 002e 1A70     		strb	r2, [r3]
 497:app_protocol.c **** 	uint8 Sbox[256];
 498:app_protocol.c **** 	uint8 Kbox[256];
 499:app_protocol.c **** 	uint16 i;
 500:app_protocol.c **** 	uint16 j=0;
 1754              		.loc 1 500 0
 1755 0030 8723     		mov	r3, #135
 1756 0032 9B00     		lsl	r3, r3, #2
 1757 0034 FB18     		add	r3, r7, r3
 1758 0036 0022     		mov	r2, #0
 1759 0038 1A80     		strh	r2, [r3]
 501:app_protocol.c **** 	uint16 k;
 502:app_protocol.c **** 	uint16 index = 0;
 1760              		.loc 1 502 0
ARM GAS  C:\Users\ADMINI~1.SC-\AppData\Local\Temp\ccTdZRqJ.s 			page 41


 1761 003a B64B     		ldr	r3, .L92+12
 1762 003c FB18     		add	r3, r7, r3
 1763 003e 0022     		mov	r2, #0
 1764 0040 1A80     		strh	r2, [r3]
 503:app_protocol.c **** 	uint8 temp;
 504:app_protocol.c **** 	uint8 *data;
 505:app_protocol.c **** 	data = buf;
 1765              		.loc 1 505 0
 1766 0042 7B68     		ldr	r3, [r7, #4]
 1767 0044 8522     		mov	r2, #133
 1768 0046 9200     		lsl	r2, r2, #2
 1769 0048 BA18     		add	r2, r7, r2
 1770 004a 1360     		str	r3, [r2]
 506:app_protocol.c **** 	
 507:app_protocol.c **** 	if ((buf == NULL) || (len <= 0))		//数据不存在
 1771              		.loc 1 507 0
 1772 004c 7B68     		ldr	r3, [r7, #4]
 1773 004e 002B     		cmp	r3, #0
 1774 0050 00D1     		bne	.LCB1522
 1775 0052 53E1     		b	.L80	@long jump
 1776              	.LCB1522:
 1777              		.loc 1 507 0 is_stmt 0 discriminator 1
 1778 0054 AE4B     		ldr	r3, .L92+8
 1779 0056 8822     		mov	r2, #136
 1780 0058 9200     		lsl	r2, r2, #2
 1781 005a 9446     		mov	ip, r2
 1782 005c BC44     		add	ip, ip, r7
 1783 005e 6344     		add	r3, r3, ip
 1784 0060 1B78     		ldrb	r3, [r3]
 1785 0062 002B     		cmp	r3, #0
 1786 0064 00D1     		bne	.LCB1531
 1787 0066 49E1     		b	.L80	@long jump
 1788              	.LCB1531:
 508:app_protocol.c **** 	{	
 509:app_protocol.c **** 		return;
 510:app_protocol.c **** 	}
 511:app_protocol.c **** 	for(i=0; i<256; i++)
 1789              		.loc 1 511 0 is_stmt 1
 1790 0068 AB4B     		ldr	r3, .L92+16
 1791 006a FB18     		add	r3, r7, r3
 1792 006c 0022     		mov	r2, #0
 1793 006e 1A80     		strh	r2, [r3]
 1794 0070 31E0     		b	.L84
 1795              	.L85:
 512:app_protocol.c **** 	{
 513:app_protocol.c **** 		Sbox[i] = i;
 1796              		.loc 1 513 0 discriminator 3
 1797 0072 A94B     		ldr	r3, .L92+16
 1798 0074 FB18     		add	r3, r7, r3
 1799 0076 1B88     		ldrh	r3, [r3]
 1800 0078 A74A     		ldr	r2, .L92+16
 1801 007a BA18     		add	r2, r7, r2
 1802 007c 1288     		ldrh	r2, [r2]
 1803 007e D1B2     		uxtb	r1, r2
 1804 0080 A64A     		ldr	r2, .L92+20
 1805 0082 8820     		mov	r0, #136
 1806 0084 8000     		lsl	r0, r0, #2
ARM GAS  C:\Users\ADMINI~1.SC-\AppData\Local\Temp\ccTdZRqJ.s 			page 42


 1807 0086 8446     		mov	ip, r0
 1808 0088 BC44     		add	ip, ip, r7
 1809 008a 6244     		add	r2, r2, ip
 1810 008c D154     		strb	r1, [r2, r3]
 514:app_protocol.c **** 		Kbox[i] = key[i % key_leng];
 1811              		.loc 1 514 0 discriminator 3
 1812 008e A24B     		ldr	r3, .L92+16
 1813 0090 FB18     		add	r3, r7, r3
 1814 0092 1C88     		ldrh	r4, [r3]
 1815 0094 A04B     		ldr	r3, .L92+16
 1816 0096 FB18     		add	r3, r7, r3
 1817 0098 1A88     		ldrh	r2, [r3]
 1818 009a 9C4B     		ldr	r3, .L92+4
 1819 009c 8821     		mov	r1, #136
 1820 009e 8900     		lsl	r1, r1, #2
 1821 00a0 8C46     		mov	ip, r1
 1822 00a2 BC44     		add	ip, ip, r7
 1823 00a4 6344     		add	r3, r3, ip
 1824 00a6 1B78     		ldrb	r3, [r3]
 1825 00a8 101C     		mov	r0, r2
 1826 00aa 191C     		mov	r1, r3
 1827 00ac FFF7FEFF 		bl	__aeabi_idivmod
 1828 00b0 0B1C     		mov	r3, r1
 1829 00b2 1A1C     		mov	r2, r3
 1830 00b4 FB68     		ldr	r3, [r7, #12]
 1831 00b6 9B18     		add	r3, r3, r2
 1832 00b8 1A78     		ldrb	r2, [r3]
 1833 00ba 994B     		ldr	r3, .L92+24
 1834 00bc 8821     		mov	r1, #136
 1835 00be 8900     		lsl	r1, r1, #2
 1836 00c0 8C46     		mov	ip, r1
 1837 00c2 BC44     		add	ip, ip, r7
 1838 00c4 6344     		add	r3, r3, ip
 1839 00c6 1A55     		strb	r2, [r3, r4]
 511:app_protocol.c **** 	{
 1840              		.loc 1 511 0 discriminator 3
 1841 00c8 934B     		ldr	r3, .L92+16
 1842 00ca FB18     		add	r3, r7, r3
 1843 00cc 1A88     		ldrh	r2, [r3]
 1844 00ce 924B     		ldr	r3, .L92+16
 1845 00d0 FB18     		add	r3, r7, r3
 1846 00d2 0132     		add	r2, r2, #1
 1847 00d4 1A80     		strh	r2, [r3]
 1848              	.L84:
 511:app_protocol.c **** 	{
 1849              		.loc 1 511 0 is_stmt 0 discriminator 1
 1850 00d6 904B     		ldr	r3, .L92+16
 1851 00d8 FB18     		add	r3, r7, r3
 1852 00da 1B88     		ldrh	r3, [r3]
 1853 00dc FF2B     		cmp	r3, #255
 1854 00de C8D9     		bls	.L85
 515:app_protocol.c **** 	}
 516:app_protocol.c **** 	
 517:app_protocol.c **** 	for(i=0; i<256; i++)
 1855              		.loc 1 517 0 is_stmt 1
 1856 00e0 8D4B     		ldr	r3, .L92+16
 1857 00e2 FB18     		add	r3, r7, r3
ARM GAS  C:\Users\ADMINI~1.SC-\AppData\Local\Temp\ccTdZRqJ.s 			page 43


 1858 00e4 0022     		mov	r2, #0
 1859 00e6 1A80     		strh	r2, [r3]
 1860 00e8 5CE0     		b	.L86
 1861              	.L88:
 518:app_protocol.c **** 	{
 519:app_protocol.c **** 		j = (j + Sbox[i] + Kbox[i]) % 256;
 1862              		.loc 1 519 0 discriminator 3
 1863 00ea 8723     		mov	r3, #135
 1864 00ec 9B00     		lsl	r3, r3, #2
 1865 00ee FB18     		add	r3, r7, r3
 1866 00f0 1B88     		ldrh	r3, [r3]
 1867 00f2 894A     		ldr	r2, .L92+16
 1868 00f4 BA18     		add	r2, r7, r2
 1869 00f6 1288     		ldrh	r2, [r2]
 1870 00f8 8849     		ldr	r1, .L92+20
 1871 00fa 8820     		mov	r0, #136
 1872 00fc 8000     		lsl	r0, r0, #2
 1873 00fe 8446     		mov	ip, r0
 1874 0100 BC44     		add	ip, ip, r7
 1875 0102 6144     		add	r1, r1, ip
 1876 0104 8A5C     		ldrb	r2, [r1, r2]
 1877 0106 9B18     		add	r3, r3, r2
 1878 0108 834A     		ldr	r2, .L92+16
 1879 010a BA18     		add	r2, r7, r2
 1880 010c 1288     		ldrh	r2, [r2]
 1881 010e 8449     		ldr	r1, .L92+24
 1882 0110 8820     		mov	r0, #136
 1883 0112 8000     		lsl	r0, r0, #2
 1884 0114 8446     		mov	ip, r0
 1885 0116 BC44     		add	ip, ip, r7
 1886 0118 6144     		add	r1, r1, ip
 1887 011a 8A5C     		ldrb	r2, [r1, r2]
 1888 011c 9B18     		add	r3, r3, r2
 1889 011e 814A     		ldr	r2, .L92+28
 1890 0120 1340     		and	r3, r2
 1891 0122 03D5     		bpl	.L87
 1892 0124 013B     		sub	r3, r3, #1
 1893 0126 804A     		ldr	r2, .L92+32
 1894 0128 1343     		orr	r3, r2
 1895 012a 0133     		add	r3, r3, #1
 1896              	.L87:
 1897 012c 1A1C     		mov	r2, r3
 1898 012e 8723     		mov	r3, #135
 1899 0130 9B00     		lsl	r3, r3, #2
 1900 0132 FB18     		add	r3, r7, r3
 1901 0134 1A80     		strh	r2, [r3]
 520:app_protocol.c **** 		temp = Sbox[i];
 1902              		.loc 1 520 0 discriminator 3
 1903 0136 784B     		ldr	r3, .L92+16
 1904 0138 FB18     		add	r3, r7, r3
 1905 013a 1A88     		ldrh	r2, [r3]
 1906 013c 7B4B     		ldr	r3, .L92+36
 1907 013e FB18     		add	r3, r7, r3
 1908 0140 7649     		ldr	r1, .L92+20
 1909 0142 8820     		mov	r0, #136
 1910 0144 8000     		lsl	r0, r0, #2
 1911 0146 8446     		mov	ip, r0
ARM GAS  C:\Users\ADMINI~1.SC-\AppData\Local\Temp\ccTdZRqJ.s 			page 44


 1912 0148 BC44     		add	ip, ip, r7
 1913 014a 6144     		add	r1, r1, ip
 1914 014c 8A5C     		ldrb	r2, [r1, r2]
 1915 014e 1A70     		strb	r2, [r3]
 521:app_protocol.c **** 		Sbox[i] = Sbox[j];
 1916              		.loc 1 521 0 discriminator 3
 1917 0150 714B     		ldr	r3, .L92+16
 1918 0152 FB18     		add	r3, r7, r3
 1919 0154 1B88     		ldrh	r3, [r3]
 1920 0156 8722     		mov	r2, #135
 1921 0158 9200     		lsl	r2, r2, #2
 1922 015a BA18     		add	r2, r7, r2
 1923 015c 1288     		ldrh	r2, [r2]
 1924 015e 6F49     		ldr	r1, .L92+20
 1925 0160 8820     		mov	r0, #136
 1926 0162 8000     		lsl	r0, r0, #2
 1927 0164 8446     		mov	ip, r0
 1928 0166 BC44     		add	ip, ip, r7
 1929 0168 6144     		add	r1, r1, ip
 1930 016a 895C     		ldrb	r1, [r1, r2]
 1931 016c 6B4A     		ldr	r2, .L92+20
 1932 016e 8820     		mov	r0, #136
 1933 0170 8000     		lsl	r0, r0, #2
 1934 0172 8446     		mov	ip, r0
 1935 0174 BC44     		add	ip, ip, r7
 1936 0176 6244     		add	r2, r2, ip
 1937 0178 D154     		strb	r1, [r2, r3]
 522:app_protocol.c **** 		Sbox[j] = temp;
 1938              		.loc 1 522 0 discriminator 3
 1939 017a 8723     		mov	r3, #135
 1940 017c 9B00     		lsl	r3, r3, #2
 1941 017e FB18     		add	r3, r7, r3
 1942 0180 1B88     		ldrh	r3, [r3]
 1943 0182 664A     		ldr	r2, .L92+20
 1944 0184 8821     		mov	r1, #136
 1945 0186 8900     		lsl	r1, r1, #2
 1946 0188 8C46     		mov	ip, r1
 1947 018a BC44     		add	ip, ip, r7
 1948 018c 6244     		add	r2, r2, ip
 1949 018e 6749     		ldr	r1, .L92+36
 1950 0190 7918     		add	r1, r7, r1
 1951 0192 0978     		ldrb	r1, [r1]
 1952 0194 D154     		strb	r1, [r2, r3]
 517:app_protocol.c **** 	{
 1953              		.loc 1 517 0 discriminator 3
 1954 0196 604B     		ldr	r3, .L92+16
 1955 0198 FB18     		add	r3, r7, r3
 1956 019a 1A88     		ldrh	r2, [r3]
 1957 019c 5E4B     		ldr	r3, .L92+16
 1958 019e FB18     		add	r3, r7, r3
 1959 01a0 0132     		add	r2, r2, #1
 1960 01a2 1A80     		strh	r2, [r3]
 1961              	.L86:
 517:app_protocol.c **** 	{
 1962              		.loc 1 517 0 is_stmt 0 discriminator 1
 1963 01a4 5C4B     		ldr	r3, .L92+16
 1964 01a6 FB18     		add	r3, r7, r3
ARM GAS  C:\Users\ADMINI~1.SC-\AppData\Local\Temp\ccTdZRqJ.s 			page 45


 1965 01a8 1B88     		ldrh	r3, [r3]
 1966 01aa FF2B     		cmp	r3, #255
 1967 01ac 9DD9     		bls	.L88
 523:app_protocol.c **** 	}
 524:app_protocol.c **** 	
 525:app_protocol.c **** 	while(index < len)
 1968              		.loc 1 525 0 is_stmt 1
 1969 01ae 97E0     		b	.L89
 1970              	.L91:
 526:app_protocol.c **** 	{
 527:app_protocol.c **** 		i = (i + 1) % 256;
 1971              		.loc 1 527 0
 1972 01b0 594B     		ldr	r3, .L92+16
 1973 01b2 FB18     		add	r3, r7, r3
 1974 01b4 1B88     		ldrh	r3, [r3]
 1975 01b6 0133     		add	r3, r3, #1
 1976 01b8 5A4A     		ldr	r2, .L92+28
 1977 01ba 1340     		and	r3, r2
 1978 01bc 03D5     		bpl	.L90
 1979 01be 013B     		sub	r3, r3, #1
 1980 01c0 594A     		ldr	r2, .L92+32
 1981 01c2 1343     		orr	r3, r2
 1982 01c4 0133     		add	r3, r3, #1
 1983              	.L90:
 1984 01c6 1A1C     		mov	r2, r3
 1985 01c8 534B     		ldr	r3, .L92+16
 1986 01ca FB18     		add	r3, r7, r3
 1987 01cc 1A80     		strh	r2, [r3]
 528:app_protocol.c **** 		j = (j + Sbox[i]) % 256;
 1988              		.loc 1 528 0
 1989 01ce 524B     		ldr	r3, .L92+16
 1990 01d0 FB18     		add	r3, r7, r3
 1991 01d2 1B88     		ldrh	r3, [r3]
 1992 01d4 514A     		ldr	r2, .L92+20
 1993 01d6 8821     		mov	r1, #136
 1994 01d8 8900     		lsl	r1, r1, #2
 1995 01da 8C46     		mov	ip, r1
 1996 01dc BC44     		add	ip, ip, r7
 1997 01de 6244     		add	r2, r2, ip
 1998 01e0 D35C     		ldrb	r3, [r2, r3]
 1999 01e2 9AB2     		uxth	r2, r3
 2000 01e4 8723     		mov	r3, #135
 2001 01e6 9B00     		lsl	r3, r3, #2
 2002 01e8 FB18     		add	r3, r7, r3
 2003 01ea 1B88     		ldrh	r3, [r3]
 2004 01ec D318     		add	r3, r2, r3
 2005 01ee 9AB2     		uxth	r2, r3
 2006 01f0 8723     		mov	r3, #135
 2007 01f2 9B00     		lsl	r3, r3, #2
 2008 01f4 FB18     		add	r3, r7, r3
 2009 01f6 FF21     		mov	r1, #255
 2010 01f8 0A40     		and	r2, r1
 2011 01fa 1A80     		strh	r2, [r3]
 529:app_protocol.c **** 		temp = Sbox[i];
 2012              		.loc 1 529 0
 2013 01fc 464B     		ldr	r3, .L92+16
 2014 01fe FB18     		add	r3, r7, r3
ARM GAS  C:\Users\ADMINI~1.SC-\AppData\Local\Temp\ccTdZRqJ.s 			page 46


 2015 0200 1A88     		ldrh	r2, [r3]
 2016 0202 4A4B     		ldr	r3, .L92+36
 2017 0204 FB18     		add	r3, r7, r3
 2018 0206 4549     		ldr	r1, .L92+20
 2019 0208 8820     		mov	r0, #136
 2020 020a 8000     		lsl	r0, r0, #2
 2021 020c 8446     		mov	ip, r0
 2022 020e BC44     		add	ip, ip, r7
 2023 0210 6144     		add	r1, r1, ip
 2024 0212 8A5C     		ldrb	r2, [r1, r2]
 2025 0214 1A70     		strb	r2, [r3]
 530:app_protocol.c **** 		Sbox[i] = Sbox[j];
 2026              		.loc 1 530 0
 2027 0216 404B     		ldr	r3, .L92+16
 2028 0218 FB18     		add	r3, r7, r3
 2029 021a 1B88     		ldrh	r3, [r3]
 2030 021c 8722     		mov	r2, #135
 2031 021e 9200     		lsl	r2, r2, #2
 2032 0220 BA18     		add	r2, r7, r2
 2033 0222 1288     		ldrh	r2, [r2]
 2034 0224 3D49     		ldr	r1, .L92+20
 2035 0226 8820     		mov	r0, #136
 2036 0228 8000     		lsl	r0, r0, #2
 2037 022a 8446     		mov	ip, r0
 2038 022c BC44     		add	ip, ip, r7
 2039 022e 6144     		add	r1, r1, ip
 2040 0230 895C     		ldrb	r1, [r1, r2]
 2041 0232 3A4A     		ldr	r2, .L92+20
 2042 0234 8820     		mov	r0, #136
 2043 0236 8000     		lsl	r0, r0, #2
 2044 0238 8446     		mov	ip, r0
 2045 023a BC44     		add	ip, ip, r7
 2046 023c 6244     		add	r2, r2, ip
 2047 023e D154     		strb	r1, [r2, r3]
 531:app_protocol.c **** 		Sbox[j] = temp;
 2048              		.loc 1 531 0
 2049 0240 8723     		mov	r3, #135
 2050 0242 9B00     		lsl	r3, r3, #2
 2051 0244 FB18     		add	r3, r7, r3
 2052 0246 1B88     		ldrh	r3, [r3]
 2053 0248 344A     		ldr	r2, .L92+20
 2054 024a 8821     		mov	r1, #136
 2055 024c 8900     		lsl	r1, r1, #2
 2056 024e 8C46     		mov	ip, r1
 2057 0250 BC44     		add	ip, ip, r7
 2058 0252 6244     		add	r2, r2, ip
 2059 0254 3549     		ldr	r1, .L92+36
 2060 0256 7918     		add	r1, r7, r1
 2061 0258 0978     		ldrb	r1, [r1]
 2062 025a D154     		strb	r1, [r2, r3]
 532:app_protocol.c **** 		k = (Sbox[i] + Sbox[j]) % 256;
 2063              		.loc 1 532 0
 2064 025c 2E4B     		ldr	r3, .L92+16
 2065 025e FB18     		add	r3, r7, r3
 2066 0260 1B88     		ldrh	r3, [r3]
 2067 0262 2E4A     		ldr	r2, .L92+20
 2068 0264 8821     		mov	r1, #136
ARM GAS  C:\Users\ADMINI~1.SC-\AppData\Local\Temp\ccTdZRqJ.s 			page 47


 2069 0266 8900     		lsl	r1, r1, #2
 2070 0268 8C46     		mov	ip, r1
 2071 026a BC44     		add	ip, ip, r7
 2072 026c 6244     		add	r2, r2, ip
 2073 026e D35C     		ldrb	r3, [r2, r3]
 2074 0270 9AB2     		uxth	r2, r3
 2075 0272 8723     		mov	r3, #135
 2076 0274 9B00     		lsl	r3, r3, #2
 2077 0276 FB18     		add	r3, r7, r3
 2078 0278 1B88     		ldrh	r3, [r3]
 2079 027a 2849     		ldr	r1, .L92+20
 2080 027c 8820     		mov	r0, #136
 2081 027e 8000     		lsl	r0, r0, #2
 2082 0280 8446     		mov	ip, r0
 2083 0282 BC44     		add	ip, ip, r7
 2084 0284 6144     		add	r1, r1, ip
 2085 0286 CB5C     		ldrb	r3, [r1, r3]
 2086 0288 9BB2     		uxth	r3, r3
 2087 028a D318     		add	r3, r2, r3
 2088 028c 9AB2     		uxth	r2, r3
 2089 028e 8423     		mov	r3, #132
 2090 0290 9B00     		lsl	r3, r3, #2
 2091 0292 FB18     		add	r3, r7, r3
 2092 0294 FF21     		mov	r1, #255
 2093 0296 0A40     		and	r2, r1
 2094 0298 1A80     		strh	r2, [r3]
 533:app_protocol.c **** 		buf[index] = data[index] ^ Sbox[k]; 
 2095              		.loc 1 533 0
 2096 029a 1E4B     		ldr	r3, .L92+12
 2097 029c FB18     		add	r3, r7, r3
 2098 029e 1B88     		ldrh	r3, [r3]
 2099 02a0 7A68     		ldr	r2, [r7, #4]
 2100 02a2 D318     		add	r3, r2, r3
 2101 02a4 1B4A     		ldr	r2, .L92+12
 2102 02a6 BA18     		add	r2, r7, r2
 2103 02a8 1288     		ldrh	r2, [r2]
 2104 02aa 8521     		mov	r1, #133
 2105 02ac 8900     		lsl	r1, r1, #2
 2106 02ae 7918     		add	r1, r7, r1
 2107 02b0 0968     		ldr	r1, [r1]
 2108 02b2 8A18     		add	r2, r1, r2
 2109 02b4 1178     		ldrb	r1, [r2]
 2110 02b6 8422     		mov	r2, #132
 2111 02b8 9200     		lsl	r2, r2, #2
 2112 02ba BA18     		add	r2, r7, r2
 2113 02bc 1288     		ldrh	r2, [r2]
 2114 02be 1748     		ldr	r0, .L92+20
 2115 02c0 8824     		mov	r4, #136
 2116 02c2 A400     		lsl	r4, r4, #2
 2117 02c4 A446     		mov	ip, r4
 2118 02c6 BC44     		add	ip, ip, r7
 2119 02c8 6044     		add	r0, r0, ip
 2120 02ca 825C     		ldrb	r2, [r0, r2]
 2121 02cc 4A40     		eor	r2, r1
 2122 02ce D2B2     		uxtb	r2, r2
 2123 02d0 1A70     		strb	r2, [r3]
 534:app_protocol.c **** 		index++;
ARM GAS  C:\Users\ADMINI~1.SC-\AppData\Local\Temp\ccTdZRqJ.s 			page 48


 2124              		.loc 1 534 0
 2125 02d2 104B     		ldr	r3, .L92+12
 2126 02d4 FB18     		add	r3, r7, r3
 2127 02d6 1A88     		ldrh	r2, [r3]
 2128 02d8 0E4B     		ldr	r3, .L92+12
 2129 02da FB18     		add	r3, r7, r3
 2130 02dc 0132     		add	r2, r2, #1
 2131 02de 1A80     		strh	r2, [r3]
 2132              	.L89:
 525:app_protocol.c **** 	{
 2133              		.loc 1 525 0
 2134 02e0 0B4B     		ldr	r3, .L92+8
 2135 02e2 8822     		mov	r2, #136
 2136 02e4 9200     		lsl	r2, r2, #2
 2137 02e6 9446     		mov	ip, r2
 2138 02e8 BC44     		add	ip, ip, r7
 2139 02ea 6344     		add	r3, r3, ip
 2140 02ec 1B78     		ldrb	r3, [r3]
 2141 02ee 9BB2     		uxth	r3, r3
 2142 02f0 084A     		ldr	r2, .L92+12
 2143 02f2 BA18     		add	r2, r7, r2
 2144 02f4 1288     		ldrh	r2, [r2]
 2145 02f6 9A42     		cmp	r2, r3
 2146 02f8 00D2     		bcs	.LCB1880
 2147 02fa 59E7     		b	.L91	@long jump
 2148              	.LCB1880:
 2149              	.L80:
 535:app_protocol.c **** 	}
 536:app_protocol.c **** }
 2150              		.loc 1 536 0
 2151 02fc BD46     		mov	sp, r7
 2152 02fe 8923     		mov	r3, #137
 2153 0300 9B00     		lsl	r3, r3, #2
 2154 0302 9D44     		add	sp, sp, r3
 2155              		@ sp needed
 2156 0304 90BD     		pop	{r4, r7, pc}
 2157              	.L93:
 2158 0306 C046     		.align	2
 2159              	.L92:
 2160 0308 DCFDFFFF 		.word	-548
 2161 030c EBFDFFFF 		.word	-533
 2162 0310 EAFDFFFF 		.word	-534
 2163 0314 1A020000 		.word	538
 2164 0318 1E020000 		.word	542
 2165 031c F0FEFFFF 		.word	-272
 2166 0320 F0FDFFFF 		.word	-528
 2167 0324 FF000080 		.word	-2147483393
 2168 0328 00FFFFFF 		.word	-256
 2169 032c 13020000 		.word	531
 2170              		.cfi_endproc
 2171              	.LFE52:
 2172              		.size	App_RC4, .-App_RC4
 2173              		.text
 2174              	.Letext0:
 2175              		.file 2 "Generated_Source\\PSoC4/cytypes.h"
 2176              		.file 3 "Generated_Source\\PSoC4/BLE_StackGatt.h"
 2177              		.file 4 "Generated_Source\\PSoC4/BLE_StackGattServer.h"
ARM GAS  C:\Users\ADMINI~1.SC-\AppData\Local\Temp\ccTdZRqJ.s 			page 49


 2178              		.file 5 "app_lock.h"
 2179              		.file 6 "app_Com.h"
 2180              		.file 7 "md5.h"
 2181              		.file 8 "Generated_Source\\PSoC4/BLE_eventHandler.h"
 2182              		.file 9 "app_ble.h"
 2183              		.file 10 "Generated_Source\\PSoC4/BLE_Stack.h"