ARM GAS  C:\Users\ADMINI~1.SC-\AppData\Local\Temp\ccSR5MnG.s 			page 1


   1              		.cpu cortex-m0
   2              		.fpu softvfp
   3              		.eabi_attribute 20, 1
   4              		.eabi_attribute 21, 1
   5              		.eabi_attribute 23, 3
   6              		.eabi_attribute 24, 1
   7              		.eabi_attribute 25, 1
   8              		.eabi_attribute 26, 1
   9              		.eabi_attribute 30, 6
  10              		.eabi_attribute 34, 0
  11              		.eabi_attribute 18, 4
  12              		.code	16
  13              		.file	"BLE.c"
  14              		.text
  15              	.Ltext0:
  16              		.cfi_sections	.debug_frame
  17              		.global	cyBle_initVar
  18              		.bss
  19              		.type	cyBle_initVar, %object
  20              		.size	cyBle_initVar, 1
  21              	cyBle_initVar:
  22 0000 00       		.space	1
  23              		.comm	cyBle_stackMemoryRam,2756,8
  24              		.global	cyBle_discoveryParam
  25              		.data
  26              		.align	2
  27              		.type	cyBle_discoveryParam, %object
  28              		.size	cyBle_discoveryParam, 16
  29              	cyBle_discoveryParam:
  30 0000 2000     		.short	32
  31 0002 5000     		.short	80
  32 0004 00       		.byte	0
  33 0005 00       		.byte	0
  34 0006 00       		.byte	0
  35 0007 00       		.byte	0
  36 0008 00       		.byte	0
  37 0009 00       		.byte	0
  38 000a 50       		.byte	80
  39 000b A0       		.byte	-96
  40 000c 00       		.byte	0
  41 000d 07       		.byte	7
  42 000e 00       		.byte	0
  43 000f 00       		.space	1
  44              		.global	cyBle_discoveryData
  45              		.align	2
  46              		.type	cyBle_discoveryData, %object
  47              		.size	cyBle_discoveryData, 32
  48              	cyBle_discoveryData:
  49 0010 02       		.byte	2
  50 0011 01       		.byte	1
  51 0012 06       		.byte	6
  52 0013 0D       		.byte	13
  53 0014 09       		.byte	9
  54 0015 54       		.byte	84
  55 0016 4B       		.byte	75
  56 0017 4C       		.byte	76
  57 0018 2D       		.byte	45
ARM GAS  C:\Users\ADMINI~1.SC-\AppData\Local\Temp\ccSR5MnG.s 			page 2


  58 0019 30       		.byte	48
  59 001a 30       		.byte	48
  60 001b 30       		.byte	48
  61 001c 30       		.byte	48
  62 001d 30       		.byte	48
  63 001e 31       		.byte	49
  64 001f 63       		.byte	99
  65 0020 35       		.byte	53
  66 0021 08       		.byte	8
  67 0022 1B       		.byte	27
  68 0023 00       		.byte	0
  69 0024 00       		.byte	0
  70 0025 00       		.byte	0
  71 0026 00       		.byte	0
  72 0027 50       		.byte	80
  73 0028 A0       		.byte	-96
  74 0029 00       		.byte	0
  75 002a 00       		.byte	0
  76 002b 00       		.byte	0
  77 002c 00       		.byte	0
  78 002d 00       		.byte	0
  79 002e 00       		.byte	0
  80 002f 1A       		.byte	26
  81              		.global	cyBle_scanRspData
  82              		.align	2
  83              		.type	cyBle_scanRspData, %object
  84              		.size	cyBle_scanRspData, 32
  85              	cyBle_scanRspData:
  86 0030 0D       		.byte	13
  87 0031 09       		.byte	9
  88 0032 54       		.byte	84
  89 0033 4B       		.byte	75
  90 0034 4C       		.byte	76
  91 0035 2D       		.byte	45
  92 0036 30       		.byte	48
  93 0037 30       		.byte	48
  94 0038 30       		.byte	48
  95 0039 30       		.byte	48
  96 003a 30       		.byte	48
  97 003b 31       		.byte	49
  98 003c 63       		.byte	99
  99 003d 35       		.byte	53
 100 003e 08       		.byte	8
 101 003f 1B       		.byte	27
 102 0040 00       		.byte	0
 103 0041 00       		.byte	0
 104 0042 00       		.byte	0
 105 0043 00       		.byte	0
 106 0044 50       		.byte	80
 107 0045 A0       		.byte	-96
 108 0046 00       		.byte	0
 109 0047 00       		.byte	0
 110 0048 00       		.byte	0
 111 0049 00       		.byte	0
 112 004a 00       		.byte	0
 113 004b 00       		.byte	0
 114 004c 00       		.byte	0
ARM GAS  C:\Users\ADMINI~1.SC-\AppData\Local\Temp\ccSR5MnG.s 			page 3


 115 004d 00       		.byte	0
 116 004e 00       		.byte	0
 117 004f 17       		.byte	23
 118              		.global	cyBle_discoveryModeInfo
 119              		.align	2
 120              		.type	cyBle_discoveryModeInfo, %object
 121              		.size	cyBle_discoveryModeInfo, 20
 122              	cyBle_discoveryModeInfo:
 123 0050 02       		.byte	2
 124 0051 000000   		.space	3
 125 0054 00000000 		.word	cyBle_discoveryParam
 126 0058 00000000 		.word	cyBle_discoveryData
 127 005c 00000000 		.word	cyBle_scanRspData
 128 0060 0A00     		.short	10
 129 0062 0000     		.space	2
 130              		.comm	cyBle_peerBonding,1,1
 131              		.comm	cyBle_pendingFlashWrite,1,1
 132              		.comm	CyBle_ApplCallback,4,4
 133              		.global	cyBle_deviceAddress
 134              		.align	2
 135              		.type	cyBle_deviceAddress, %object
 136              		.size	cyBle_deviceAddress, 7
 137              	cyBle_deviceAddress:
 138 0064 00       		.byte	0
 139 0065 00       		.byte	0
 140 0066 00       		.byte	0
 141 0067 50       		.byte	80
 142 0068 A0       		.byte	-96
 143 0069 00       		.byte	0
 144 006a 00       		.byte	0
 145              		.global	cyBle_sflashDeviceAddress
 146 006b 00       		.align	2
 147              		.type	cyBle_sflashDeviceAddress, %object
 148              		.size	cyBle_sflashDeviceAddress, 4
 149              	cyBle_sflashDeviceAddress:
 150 006c 00F2FF0F 		.word	268431872
 151              		.global	cyBle_StackFlashptr
 152              		.section	.rodata
 153              		.align	7
 154              		.type	cyBle_StackFlashptr, %object
 155              		.size	cyBle_StackFlashptr, 365
 156              	cyBle_StackFlashptr:
 157 0000 00000000 		.space	365
 157      00000000 
 157      00000000 
 157      00000000 
 157      00000000 
 158              		.section	.text.CyBle_Init,"ax",%progbits
 159              		.align	2
 160              		.global	CyBle_Init
 161              		.code	16
 162              		.thumb_func
 163              		.type	CyBle_Init, %function
 164              	CyBle_Init:
 165              	.LFB2:
 166              		.file 1 "Generated_Source\\PSoC4\\BLE.c"
   1:Generated_Source\PSoC4/BLE.c **** /***************************************************************************//**
ARM GAS  C:\Users\ADMINI~1.SC-\AppData\Local\Temp\ccSR5MnG.s 			page 4


   2:Generated_Source\PSoC4/BLE.c **** * \file CYBLE.c
   3:Generated_Source\PSoC4/BLE.c **** * \version 2.30
   4:Generated_Source\PSoC4/BLE.c **** * 
   5:Generated_Source\PSoC4/BLE.c **** * \brief
   6:Generated_Source\PSoC4/BLE.c **** *  This file contains the source code for the Common APIs of the BLE Component.
   7:Generated_Source\PSoC4/BLE.c **** * 
   8:Generated_Source\PSoC4/BLE.c **** ********************************************************************************
   9:Generated_Source\PSoC4/BLE.c **** * \copyright
  10:Generated_Source\PSoC4/BLE.c **** * Copyright 2014-2015, Cypress Semiconductor Corporation.  All rights reserved.
  11:Generated_Source\PSoC4/BLE.c **** * You may use this file only in accordance with the license, terms, conditions,
  12:Generated_Source\PSoC4/BLE.c **** * disclaimers, and limitations in the end user license agreement accompanying
  13:Generated_Source\PSoC4/BLE.c **** * the software package with which this file was provided.
  14:Generated_Source\PSoC4/BLE.c **** *******************************************************************************/
  15:Generated_Source\PSoC4/BLE.c **** 
  16:Generated_Source\PSoC4/BLE.c **** #include "BLE_eventHandler.h"
  17:Generated_Source\PSoC4/BLE.c **** #include "BLE_HAL_PVT.h"
  18:Generated_Source\PSoC4/BLE.c **** #include <stdlib.h>
  19:Generated_Source\PSoC4/BLE.c **** 
  20:Generated_Source\PSoC4/BLE.c **** 
  21:Generated_Source\PSoC4/BLE.c **** /***************************************
  22:Generated_Source\PSoC4/BLE.c **** * Function Prototypes
  23:Generated_Source\PSoC4/BLE.c **** ***************************************/
  24:Generated_Source\PSoC4/BLE.c **** 
  25:Generated_Source\PSoC4/BLE.c **** #if(CYBLE_GATT_ROLE_SERVER)
  26:Generated_Source\PSoC4/BLE.c ****     #if(CYBLE_GAP_ROLE_PERIPHERAL)
  27:Generated_Source\PSoC4/BLE.c ****         static void CyBle_ChangeAdLocalName(const char8 name[], uint8 dest);
  28:Generated_Source\PSoC4/BLE.c ****     #endif /* (CYBLE_GAP_ROLE_PERIPHERAL) */
  29:Generated_Source\PSoC4/BLE.c **** #endif /* (CYBLE_GATT_ROLE_SERVER) */
  30:Generated_Source\PSoC4/BLE.c ****     
  31:Generated_Source\PSoC4/BLE.c **** 
  32:Generated_Source\PSoC4/BLE.c **** /***************************************
  33:Generated_Source\PSoC4/BLE.c **** * Global Variables
  34:Generated_Source\PSoC4/BLE.c **** ***************************************/
  35:Generated_Source\PSoC4/BLE.c **** 
  36:Generated_Source\PSoC4/BLE.c **** /* Indicates whether the BLE has been initialized. The variable is initialized to
  37:Generated_Source\PSoC4/BLE.c ****    0 and set to 1 the first time CyBle_Start() is called. This allows the component
  38:Generated_Source\PSoC4/BLE.c ****    to restart without reinitialization after the first call to the CyBle_Start() 
  39:Generated_Source\PSoC4/BLE.c ****    routine. If reinitialization of the component is required, the variable should 
  40:Generated_Source\PSoC4/BLE.c ****    be set to 0 before the CyBle_Start() routine is called. Alternatively, the BLE
  41:Generated_Source\PSoC4/BLE.c ****    can be reinitialized by calling the CyBle_Init() function.
  42:Generated_Source\PSoC4/BLE.c **** */
  43:Generated_Source\PSoC4/BLE.c **** uint8  cyBle_initVar = 0u;
  44:Generated_Source\PSoC4/BLE.c **** 
  45:Generated_Source\PSoC4/BLE.c **** /* Allocate RAM memory for stack. This buffer could be reused by application when 
  46:Generated_Source\PSoC4/BLE.c ****    BLE component is stopped. For export mode buffer is allocated in heap.
  47:Generated_Source\PSoC4/BLE.c **** */
  48:Generated_Source\PSoC4/BLE.c **** #if(CYBLE_SHARING_MODE_EXPORT)
  49:Generated_Source\PSoC4/BLE.c ****     
  50:Generated_Source\PSoC4/BLE.c **** uint8 *cyBle_stackMemoryRam = NULL;
  51:Generated_Source\PSoC4/BLE.c **** 
  52:Generated_Source\PSoC4/BLE.c **** #else
  53:Generated_Source\PSoC4/BLE.c **** 
  54:Generated_Source\PSoC4/BLE.c **** CYBLE_CYALIGNED_BEGIN uint8 cyBle_stackMemoryRam[CYBLE_STACK_RAM_SIZE] CYBLE_CYALIGNED_END;
  55:Generated_Source\PSoC4/BLE.c **** 
  56:Generated_Source\PSoC4/BLE.c **** #endif  /* CYBLE_SHARING_MODE_EXPORT */
  57:Generated_Source\PSoC4/BLE.c **** 
  58:Generated_Source\PSoC4/BLE.c **** #if(CYBLE_GAP_ROLE_PERIPHERAL || CYBLE_GAP_ROLE_BROADCASTER)
ARM GAS  C:\Users\ADMINI~1.SC-\AppData\Local\Temp\ccSR5MnG.s 			page 5


  59:Generated_Source\PSoC4/BLE.c **** 
  60:Generated_Source\PSoC4/BLE.c **** CYBLE_GAPP_DISC_PARAM_T cyBle_discoveryParam =
  61:Generated_Source\PSoC4/BLE.c **** {
  62:Generated_Source\PSoC4/BLE.c ****     0x0020u,    /* uint16 advertising_interval_min */
  63:Generated_Source\PSoC4/BLE.c ****     0x0050u,    /* uint16 advertising_interval_max */
  64:Generated_Source\PSoC4/BLE.c ****     CYBLE_GAPP_CONNECTABLE_UNDIRECTED_ADV, /* uint8 advertising_type */
  65:Generated_Source\PSoC4/BLE.c ****     0x00u,      /* uint8 own_addr_type */
  66:Generated_Source\PSoC4/BLE.c ****     0x00u,      /* uint8 direct_addr_type */
  67:Generated_Source\PSoC4/BLE.c ****     {0x00u, 0x00u, 0x00u, 0x50u, 0xA0u, 0x00u}, /* uint8* direct_addr */
  68:Generated_Source\PSoC4/BLE.c ****     0x07u,      /* uint8 advertising_channel_map */
  69:Generated_Source\PSoC4/BLE.c ****     0x00u,      /* uint8 advertising_filter_policy */
  70:Generated_Source\PSoC4/BLE.c **** };
  71:Generated_Source\PSoC4/BLE.c **** 
  72:Generated_Source\PSoC4/BLE.c **** CYBLE_GAPP_DISC_DATA_T cyBle_discoveryData =
  73:Generated_Source\PSoC4/BLE.c **** {
  74:Generated_Source\PSoC4/BLE.c ****     { 0x02u, 0x01u, 0x06u, 0x0Du, 0x09u, 0x54u, 0x4Bu,
  75:Generated_Source\PSoC4/BLE.c ****     0x4Cu, 0x2Du, 0x30u, 0x30u, 0x30u, 0x30u, 0x30u, 0x31u,
  76:Generated_Source\PSoC4/BLE.c ****     0x63u, 0x35u, 0x08u, 0x1Bu, 0x00u, 0x00u, 0x00u, 0x00u,
  77:Generated_Source\PSoC4/BLE.c ****     0x50u, 0xA0u, 0x00u, 0x00u, 0x00u, 0x00u, 0x00u, 0x00u }, /* uint8 advertising_data[CYBLE_MAX_A
  78:Generated_Source\PSoC4/BLE.c ****     0x1Au,      /* uint8 adv_data_length */
  79:Generated_Source\PSoC4/BLE.c **** };
  80:Generated_Source\PSoC4/BLE.c **** 
  81:Generated_Source\PSoC4/BLE.c **** CYBLE_GAPP_SCAN_RSP_DATA_T cyBle_scanRspData =
  82:Generated_Source\PSoC4/BLE.c **** {
  83:Generated_Source\PSoC4/BLE.c ****     { 0x0Du, 0x09u, 0x54u, 0x4Bu, 0x4Cu, 0x2Du, 0x30u,
  84:Generated_Source\PSoC4/BLE.c ****     0x30u, 0x30u, 0x30u, 0x30u, 0x31u, 0x63u, 0x35u, 0x08u,
  85:Generated_Source\PSoC4/BLE.c ****     0x1Bu, 0x00u, 0x00u, 0x00u, 0x00u, 0x50u, 0xA0u, 0x00u,
  86:Generated_Source\PSoC4/BLE.c ****     0x00u, 0x00u, 0x00u, 0x00u, 0x00u, 0x00u, 0x00u, 0x00u }, /* uint8 scan_rsp_data[CYBLE_MAX_SCAN
  87:Generated_Source\PSoC4/BLE.c ****     0x17u,      /* uint8 scan_rsp_data_length */
  88:Generated_Source\PSoC4/BLE.c **** };
  89:Generated_Source\PSoC4/BLE.c **** 
  90:Generated_Source\PSoC4/BLE.c **** /* This variable of type CYBLE_GAPP_DISC_MODE_INFO_T is present only when 
  91:Generated_Source\PSoC4/BLE.c ****    the BLE component is configured for Peripheral GAP role or Central and 
  92:Generated_Source\PSoC4/BLE.c ****    Peripheral GAP role. It contains the Advertisement settings and also the 
  93:Generated_Source\PSoC4/BLE.c ****    Advertisement and Scan response data parameters entered in the customizer.
  94:Generated_Source\PSoC4/BLE.c ****    This variable can be used by advanced users to change Advertisement settings,
  95:Generated_Source\PSoC4/BLE.c ****    Advertisement or Scan response data in runtime. 
  96:Generated_Source\PSoC4/BLE.c **** */
  97:Generated_Source\PSoC4/BLE.c **** CYBLE_GAPP_DISC_MODE_INFO_T cyBle_discoveryModeInfo =
  98:Generated_Source\PSoC4/BLE.c **** {
  99:Generated_Source\PSoC4/BLE.c ****     0x02u,      /* uint8 discMode */
 100:Generated_Source\PSoC4/BLE.c ****     &cyBle_discoveryParam,
 101:Generated_Source\PSoC4/BLE.c ****     &cyBle_discoveryData,
 102:Generated_Source\PSoC4/BLE.c ****     &cyBle_scanRspData,
 103:Generated_Source\PSoC4/BLE.c ****     0x000Au,    /* uint16 advTo */
 104:Generated_Source\PSoC4/BLE.c **** };
 105:Generated_Source\PSoC4/BLE.c **** 
 106:Generated_Source\PSoC4/BLE.c **** 
 107:Generated_Source\PSoC4/BLE.c **** #endif /* CYBLE_GAP_ROLE_PERIPHERAL || CYBLE_GAP_ROLE_BROADCASTER */
 108:Generated_Source\PSoC4/BLE.c **** 
 109:Generated_Source\PSoC4/BLE.c **** #if(CYBLE_GAP_ROLE_CENTRAL)
 110:Generated_Source\PSoC4/BLE.c ****     
 111:Generated_Source\PSoC4/BLE.c **** CYBLE_GAPC_CONN_PARAM_T cyBle_connectionParameters;
 112:Generated_Source\PSoC4/BLE.c **** 
 113:Generated_Source\PSoC4/BLE.c **** /* Connecting timeout is set to 30 seconds in CyBle_Init function. 
 114:Generated_Source\PSoC4/BLE.c ****    Not zero value starts timer in CyBle_GapcConnectDevice API.
 115:Generated_Source\PSoC4/BLE.c **** */
ARM GAS  C:\Users\ADMINI~1.SC-\AppData\Local\Temp\ccSR5MnG.s 			page 6


 116:Generated_Source\PSoC4/BLE.c **** uint16 cyBle_connectingTimeout;
 117:Generated_Source\PSoC4/BLE.c ****     
 118:Generated_Source\PSoC4/BLE.c **** #endif /* CYBLE_GAP_ROLE_CENTRAL */
 119:Generated_Source\PSoC4/BLE.c **** 
 120:Generated_Source\PSoC4/BLE.c **** #if(CYBLE_GAP_ROLE_CENTRAL || CYBLE_GAP_ROLE_OBSERVER)
 121:Generated_Source\PSoC4/BLE.c ****     
 122:Generated_Source\PSoC4/BLE.c **** 
 123:Generated_Source\PSoC4/BLE.c ****     
 124:Generated_Source\PSoC4/BLE.c **** #endif /* CYBLE_GAP_ROLE_CENTRAL || CYBLE_GAP_ROLE_OBSERVER */
 125:Generated_Source\PSoC4/BLE.c **** 
 126:Generated_Source\PSoC4/BLE.c **** #if((CYBLE_GAP_ROLE_PERIPHERAL || CYBLE_GAP_ROLE_CENTRAL) && (CYBLE_BONDING_REQUIREMENT == CYBLE_BO
 127:Generated_Source\PSoC4/BLE.c **** 
 128:Generated_Source\PSoC4/BLE.c **** uint8 cyBle_peerBonding;
 129:Generated_Source\PSoC4/BLE.c **** uint8 cyBle_pendingFlashWrite;
 130:Generated_Source\PSoC4/BLE.c ****     
 131:Generated_Source\PSoC4/BLE.c **** #endif  /* (CYBLE_BONDING_REQUIREMENT == CYBLE_BONDING_YES) */
 132:Generated_Source\PSoC4/BLE.c **** 
 133:Generated_Source\PSoC4/BLE.c **** CYBLE_CALLBACK_T CyBle_ApplCallback;
 134:Generated_Source\PSoC4/BLE.c **** CYBLE_GAP_BD_ADDR_T cyBle_deviceAddress = {{0x00u, 0x00u, 0x00u, 0x50u, 0xA0u, 0x00u}, 0x00u };
 135:Generated_Source\PSoC4/BLE.c **** CYBLE_GAP_BD_ADDR_T * cyBle_sflashDeviceAddress = CYBLE_SFLASH_DEVICE_ADDRESS_PTR;
 136:Generated_Source\PSoC4/BLE.c **** 
 137:Generated_Source\PSoC4/BLE.c **** #if(CYBLE_MODE_PROFILE)
 138:Generated_Source\PSoC4/BLE.c ****     #if defined(__ARMCC_VERSION)
 139:Generated_Source\PSoC4/BLE.c ****         CY_ALIGN(CYDEV_FLS_ROW_SIZE) const uint8 cyBle_StackFlashptr[CYBLE_STACK_FLASH_SIZE] = {0u}
 140:Generated_Source\PSoC4/BLE.c ****     #elif defined (__GNUC__)
 141:Generated_Source\PSoC4/BLE.c ****         const uint8 cyBle_StackFlashptr[CYBLE_STACK_FLASH_SIZE] CY_ALIGN(CYDEV_FLS_ROW_SIZE) = {0u}
 142:Generated_Source\PSoC4/BLE.c ****     #elif defined (__ICCARM__)
 143:Generated_Source\PSoC4/BLE.c ****         #pragma data_alignment=CY_FLASH_SIZEOF_ROW
 144:Generated_Source\PSoC4/BLE.c ****         const uint8 cyBle_StackFlashptr[CYBLE_STACK_FLASH_SIZE] = {0u};
 145:Generated_Source\PSoC4/BLE.c ****     #endif  /* (__ARMCC_VERSION) */
 146:Generated_Source\PSoC4/BLE.c **** #endif /* (CYBLE_MODE_PROFILE) */
 147:Generated_Source\PSoC4/BLE.c **** 
 148:Generated_Source\PSoC4/BLE.c **** 
 149:Generated_Source\PSoC4/BLE.c **** /******************************************************************************
 150:Generated_Source\PSoC4/BLE.c **** * Function Name: CyBle_Init
 151:Generated_Source\PSoC4/BLE.c **** ***************************************************************************//**
 152:Generated_Source\PSoC4/BLE.c **** *
 153:Generated_Source\PSoC4/BLE.c **** *   Initializes the component with the parameters set in the customizer.
 154:Generated_Source\PSoC4/BLE.c **** * 
 155:Generated_Source\PSoC4/BLE.c **** *  \return
 156:Generated_Source\PSoC4/BLE.c **** *   None
 157:Generated_Source\PSoC4/BLE.c **** * 
 158:Generated_Source\PSoC4/BLE.c **** ******************************************************************************/
 159:Generated_Source\PSoC4/BLE.c **** void CyBle_Init(void)
 160:Generated_Source\PSoC4/BLE.c **** {
 167              		.loc 1 160 0
 168              		.cfi_startproc
 169 0000 80B5     		push	{r7, lr}
 170              		.cfi_def_cfa_offset 8
 171              		.cfi_offset 7, -8
 172              		.cfi_offset 14, -4
 173 0002 00AF     		add	r7, sp, #0
 174              		.cfi_def_cfa_register 7
 161:Generated_Source\PSoC4/BLE.c ****     cyBle_eventHandlerFlag = 0u;
 175              		.loc 1 161 0
 176 0004 094B     		ldr	r3, .L2
 177 0006 0022     		mov	r2, #0
ARM GAS  C:\Users\ADMINI~1.SC-\AppData\Local\Temp\ccSR5MnG.s 			page 7


 178 0008 1A70     		strb	r2, [r3]
 162:Generated_Source\PSoC4/BLE.c ****     cyBle_busyStatus = CYBLE_STACK_STATE_FREE;
 179              		.loc 1 162 0
 180 000a 094B     		ldr	r3, .L2+4
 181 000c 0022     		mov	r2, #0
 182 000e 1A70     		strb	r2, [r3]
 163:Generated_Source\PSoC4/BLE.c **** 
 164:Generated_Source\PSoC4/BLE.c ****     #if(CYBLE_GAP_ROLE_PERIPHERAL || CYBLE_GAP_ROLE_BROADCASTER) 
 165:Generated_Source\PSoC4/BLE.c ****         cyBle_advertisingIntervalType = CYBLE_ADVERTISING_FAST; 
 183              		.loc 1 165 0
 184 0010 084B     		ldr	r3, .L2+8
 185 0012 0022     		mov	r2, #0
 186 0014 1A70     		strb	r2, [r3]
 166:Generated_Source\PSoC4/BLE.c ****     #endif /* (CYBLE_GAP_ROLE_PERIPHERAL || CYBLE_GAP_ROLE_BROADCASTER)  */
 167:Generated_Source\PSoC4/BLE.c ****     #if(CYBLE_GAP_ROLE_CENTRAL || CYBLE_GAP_ROLE_OBSERVER)
 168:Generated_Source\PSoC4/BLE.c ****         cyBle_scanningIntervalType = CYBLE_SCANNING_FAST; 
 169:Generated_Source\PSoC4/BLE.c ****     #endif /* (CYBLE_GAP_ROLE_CENTRAL || CYBLE_GAP_ROLE_OBSERVER) */
 170:Generated_Source\PSoC4/BLE.c ****         
 171:Generated_Source\PSoC4/BLE.c ****     /* Init default connection parameters. 
 172:Generated_Source\PSoC4/BLE.c ****        Application may change it before initiating a connection */
 173:Generated_Source\PSoC4/BLE.c ****     #if(CYBLE_GAP_ROLE_CENTRAL)
 174:Generated_Source\PSoC4/BLE.c ****         cyBle_connectionParameters.scanIntv = cyBle_discoveryInfo.scanIntv;
 175:Generated_Source\PSoC4/BLE.c ****         cyBle_connectionParameters.scanWindow = cyBle_discoveryInfo.scanWindow;
 176:Generated_Source\PSoC4/BLE.c ****         cyBle_connectionParameters.ownAddrType = cyBle_discoveryInfo.ownAddrType;
 177:Generated_Source\PSoC4/BLE.c ****         cyBle_connectionParameters.initiatorFilterPolicy = cyBle_discoveryInfo.scanFilterPolicy;
 178:Generated_Source\PSoC4/BLE.c ****         cyBle_connectionParameters.connIntvMin = CYBLE_GAPC_CONNECTION_INTERVAL_MIN;
 179:Generated_Source\PSoC4/BLE.c ****         cyBle_connectionParameters.connIntvMax = CYBLE_GAPC_CONNECTION_INTERVAL_MAX;
 180:Generated_Source\PSoC4/BLE.c ****         cyBle_connectionParameters.connLatency = CYBLE_GAPC_CONNECTION_SLAVE_LATENCY;
 181:Generated_Source\PSoC4/BLE.c ****         cyBle_connectionParameters.supervisionTO = CYBLE_GAPC_CONNECTION_TIME_OUT;
 182:Generated_Source\PSoC4/BLE.c ****         cyBle_connectionParameters.minCeLength = 0x0000u;
 183:Generated_Source\PSoC4/BLE.c ****         cyBle_connectionParameters.maxCeLength = 0xFFFFu;
 184:Generated_Source\PSoC4/BLE.c ****         
 185:Generated_Source\PSoC4/BLE.c ****         cyBle_connectingTimeout = CYBLE_GAPC_CONNECTING_TIMEOUT;
 186:Generated_Source\PSoC4/BLE.c ****     #endif /* CYBLE_GAP_ROLE_CENTRAL */
 187:Generated_Source\PSoC4/BLE.c **** 
 188:Generated_Source\PSoC4/BLE.c ****     CyBle_ServiceInit();
 187              		.loc 1 188 0
 188 0016 FFF7FEFF 		bl	CyBle_ServiceInit
 189:Generated_Source\PSoC4/BLE.c **** 
 190:Generated_Source\PSoC4/BLE.c ****     #if((CYBLE_GAP_ROLE_PERIPHERAL || CYBLE_GAP_ROLE_CENTRAL) && (CYBLE_BONDING_REQUIREMENT == CYBL
 191:Generated_Source\PSoC4/BLE.c ****         cyBle_pendingFlashWrite = 0u;
 189              		.loc 1 191 0
 190 001a 074B     		ldr	r3, .L2+12
 191 001c 0022     		mov	r2, #0
 192 001e 1A70     		strb	r2, [r3]
 192:Generated_Source\PSoC4/BLE.c ****         cyBle_peerBonding = CYBLE_GAP_BONDING_NONE;
 193              		.loc 1 192 0
 194 0020 064B     		ldr	r3, .L2+16
 195 0022 0022     		mov	r2, #0
 196 0024 1A70     		strb	r2, [r3]
 193:Generated_Source\PSoC4/BLE.c ****     #endif  /* (CYBLE_BONDING_REQUIREMENT == CYBLE_BONDING_YES) */
 194:Generated_Source\PSoC4/BLE.c **** 
 195:Generated_Source\PSoC4/BLE.c **** }
 197              		.loc 1 195 0
 198 0026 BD46     		mov	sp, r7
 199              		@ sp needed
 200 0028 80BD     		pop	{r7, pc}
ARM GAS  C:\Users\ADMINI~1.SC-\AppData\Local\Temp\ccSR5MnG.s 			page 8


 201              	.L3:
 202 002a C046     		.align	2
 203              	.L2:
 204 002c 00000000 		.word	cyBle_eventHandlerFlag
 205 0030 00000000 		.word	cyBle_busyStatus
 206 0034 00000000 		.word	cyBle_advertisingIntervalType
 207 0038 00000000 		.word	cyBle_pendingFlashWrite
 208 003c 00000000 		.word	cyBle_peerBonding
 209              		.cfi_endproc
 210              	.LFE2:
 211              		.size	CyBle_Init, .-CyBle_Init
 212              		.section	.text.CyBle_ServiceInit,"ax",%progbits
 213              		.align	2
 214              		.global	CyBle_ServiceInit
 215              		.code	16
 216              		.thumb_func
 217              		.type	CyBle_ServiceInit, %function
 218              	CyBle_ServiceInit:
 219              	.LFB3:
 196:Generated_Source\PSoC4/BLE.c **** 
 197:Generated_Source\PSoC4/BLE.c **** 
 198:Generated_Source\PSoC4/BLE.c **** /******************************************************************************
 199:Generated_Source\PSoC4/BLE.c **** * Function Name: CyBle_ServiceInit
 200:Generated_Source\PSoC4/BLE.c **** ***************************************************************************//**
 201:Generated_Source\PSoC4/BLE.c **** * 
 202:Generated_Source\PSoC4/BLE.c **** *  Initializes all included services.
 203:Generated_Source\PSoC4/BLE.c **** * 
 204:Generated_Source\PSoC4/BLE.c **** * \return
 205:Generated_Source\PSoC4/BLE.c **** *  None
 206:Generated_Source\PSoC4/BLE.c **** * 
 207:Generated_Source\PSoC4/BLE.c **** ******************************************************************************/
 208:Generated_Source\PSoC4/BLE.c **** void CyBle_ServiceInit(void)
 209:Generated_Source\PSoC4/BLE.c **** {
 220              		.loc 1 209 0
 221              		.cfi_startproc
 222 0000 80B5     		push	{r7, lr}
 223              		.cfi_def_cfa_offset 8
 224              		.cfi_offset 7, -8
 225              		.cfi_offset 14, -4
 226 0002 00AF     		add	r7, sp, #0
 227              		.cfi_def_cfa_register 7
 210:Generated_Source\PSoC4/BLE.c ****     #if(CYBLE_GATT_ROLE_CLIENT)
 211:Generated_Source\PSoC4/BLE.c ****         (void)memset(&cyBle_gapc, 0, sizeof(cyBle_gapc));
 212:Generated_Source\PSoC4/BLE.c ****         (void)memset(&cyBle_gattc, 0, sizeof(cyBle_gattc));
 213:Generated_Source\PSoC4/BLE.c ****     #endif /* CYBLE_GATT_ROLE_CLIENT */
 214:Generated_Source\PSoC4/BLE.c ****     
 215:Generated_Source\PSoC4/BLE.c **** 	#ifdef CYBLE_ANCS
 216:Generated_Source\PSoC4/BLE.c ****         CyBle_AncsInit();
 217:Generated_Source\PSoC4/BLE.c ****     #endif /* CYBLE_ANCS */
 218:Generated_Source\PSoC4/BLE.c **** 	
 219:Generated_Source\PSoC4/BLE.c ****     #ifdef CYBLE_ANS
 220:Generated_Source\PSoC4/BLE.c ****         CyBle_AnsInit();
 221:Generated_Source\PSoC4/BLE.c ****     #endif /* CYBLE_ANS */
 222:Generated_Source\PSoC4/BLE.c ****     
 223:Generated_Source\PSoC4/BLE.c ****     #ifdef CYBLE_BAS
 224:Generated_Source\PSoC4/BLE.c ****         CyBle_BasInit();
 225:Generated_Source\PSoC4/BLE.c ****     #endif /* CYBLE_BAS */
ARM GAS  C:\Users\ADMINI~1.SC-\AppData\Local\Temp\ccSR5MnG.s 			page 9


 226:Generated_Source\PSoC4/BLE.c ****     
 227:Generated_Source\PSoC4/BLE.c ****     #ifdef CYBLE_BLS
 228:Generated_Source\PSoC4/BLE.c ****         CyBle_BlsInit();
 229:Generated_Source\PSoC4/BLE.c ****     #endif /* CYBLE_BLS */
 230:Generated_Source\PSoC4/BLE.c ****     
 231:Generated_Source\PSoC4/BLE.c ****     #ifdef CYBLE_BMS
 232:Generated_Source\PSoC4/BLE.c ****         CyBle_BmsInit();
 233:Generated_Source\PSoC4/BLE.c ****     #endif /* CYBLE_BMS */
 234:Generated_Source\PSoC4/BLE.c ****     
 235:Generated_Source\PSoC4/BLE.c ****     #ifdef CYBLE_CGMS
 236:Generated_Source\PSoC4/BLE.c ****         CyBle_CgmsInit();
 237:Generated_Source\PSoC4/BLE.c ****     #endif /* CYBLE_CGMS */
 238:Generated_Source\PSoC4/BLE.c **** 
 239:Generated_Source\PSoC4/BLE.c ****     #ifdef CYBLE_CPS
 240:Generated_Source\PSoC4/BLE.c ****         CyBle_CpsInit();
 241:Generated_Source\PSoC4/BLE.c ****     #endif /* CYBLE_CPS */
 242:Generated_Source\PSoC4/BLE.c **** 
 243:Generated_Source\PSoC4/BLE.c ****     #ifdef CYBLE_CSCS
 244:Generated_Source\PSoC4/BLE.c ****         CyBle_CscsInit();
 245:Generated_Source\PSoC4/BLE.c ****     #endif /* CYBLE_CSCS */
 246:Generated_Source\PSoC4/BLE.c ****     
 247:Generated_Source\PSoC4/BLE.c ****     #ifdef CYBLE_CTS
 248:Generated_Source\PSoC4/BLE.c ****         CyBle_CtsInit();
 249:Generated_Source\PSoC4/BLE.c ****     #endif /* CYBLE_CTS */
 250:Generated_Source\PSoC4/BLE.c **** 
 251:Generated_Source\PSoC4/BLE.c ****     #ifdef CYBLE_DIS
 252:Generated_Source\PSoC4/BLE.c ****         CyBle_DisInit();
 253:Generated_Source\PSoC4/BLE.c ****     #endif /* CYBLE_DIS */
 254:Generated_Source\PSoC4/BLE.c **** 
 255:Generated_Source\PSoC4/BLE.c ****     #ifdef CYBLE_ESS
 256:Generated_Source\PSoC4/BLE.c ****         CyBle_EssInit();
 257:Generated_Source\PSoC4/BLE.c ****     #endif /* CYBLE_ESS */
 258:Generated_Source\PSoC4/BLE.c ****     
 259:Generated_Source\PSoC4/BLE.c ****     #ifdef CYBLE_GLS
 260:Generated_Source\PSoC4/BLE.c ****         CyBle_GlsInit();
 261:Generated_Source\PSoC4/BLE.c ****     #endif /* CYBLE_GLS */
 262:Generated_Source\PSoC4/BLE.c ****     
 263:Generated_Source\PSoC4/BLE.c ****     #ifdef CYBLE_CUSTOM
 264:Generated_Source\PSoC4/BLE.c ****         CyBle_CustomInit();
 228              		.loc 1 264 0
 229 0004 FFF7FEFF 		bl	CyBle_CustomInit
 265:Generated_Source\PSoC4/BLE.c ****     #endif /* CYBLE_CUSTOM */
 266:Generated_Source\PSoC4/BLE.c **** 
 267:Generated_Source\PSoC4/BLE.c ****     #ifdef CYBLE_HIDS
 268:Generated_Source\PSoC4/BLE.c ****         CyBle_HidsInit();
 269:Generated_Source\PSoC4/BLE.c ****     #endif /* CYBLE_HIDS */
 270:Generated_Source\PSoC4/BLE.c **** 
 271:Generated_Source\PSoC4/BLE.c ****     #ifdef CYBLE_HRS
 272:Generated_Source\PSoC4/BLE.c ****         CyBle_HrsInit();
 273:Generated_Source\PSoC4/BLE.c ****     #endif /* CYBLE_HRS */
 274:Generated_Source\PSoC4/BLE.c ****     
 275:Generated_Source\PSoC4/BLE.c ****     #ifdef CYBLE_HTS
 276:Generated_Source\PSoC4/BLE.c ****         CyBle_HtsInit();
 277:Generated_Source\PSoC4/BLE.c ****     #endif /* CYBLE_RSCS */
 278:Generated_Source\PSoC4/BLE.c **** 
 279:Generated_Source\PSoC4/BLE.c ****     #ifdef CYBLE_IAS
 280:Generated_Source\PSoC4/BLE.c ****         CyBle_IasInit();
ARM GAS  C:\Users\ADMINI~1.SC-\AppData\Local\Temp\ccSR5MnG.s 			page 10


 281:Generated_Source\PSoC4/BLE.c ****     #endif /* CYBLE_IAS */
 282:Generated_Source\PSoC4/BLE.c **** 
 283:Generated_Source\PSoC4/BLE.c ****     #ifdef CYBLE_LLS
 284:Generated_Source\PSoC4/BLE.c ****         CyBle_LlsInit();
 285:Generated_Source\PSoC4/BLE.c ****     #endif /* CYBLE_LLS */
 286:Generated_Source\PSoC4/BLE.c **** 
 287:Generated_Source\PSoC4/BLE.c ****     #ifdef CYBLE_RTUS
 288:Generated_Source\PSoC4/BLE.c ****         CyBle_RtusInit();
 289:Generated_Source\PSoC4/BLE.c ****     #endif /* CYBLE_RTUS */
 290:Generated_Source\PSoC4/BLE.c **** 
 291:Generated_Source\PSoC4/BLE.c ****     #ifdef CYBLE_LNS
 292:Generated_Source\PSoC4/BLE.c ****         CyBle_LnsInit();
 293:Generated_Source\PSoC4/BLE.c ****     #endif /* CYBLE_LNS */
 294:Generated_Source\PSoC4/BLE.c ****     
 295:Generated_Source\PSoC4/BLE.c ****     #ifdef CYBLE_PASS
 296:Generated_Source\PSoC4/BLE.c ****         CyBle_PassInit();
 297:Generated_Source\PSoC4/BLE.c ****     #endif /* CYBLE_PASS */
 298:Generated_Source\PSoC4/BLE.c ****     
 299:Generated_Source\PSoC4/BLE.c ****     #ifdef CYBLE_RSCS
 300:Generated_Source\PSoC4/BLE.c ****         CyBle_RscsInit();
 301:Generated_Source\PSoC4/BLE.c ****     #endif /* CYBLE_RSCS */
 302:Generated_Source\PSoC4/BLE.c **** 
 303:Generated_Source\PSoC4/BLE.c ****     #ifdef CYBLE_SCPS
 304:Generated_Source\PSoC4/BLE.c ****         CyBle_ScpsInit();
 305:Generated_Source\PSoC4/BLE.c ****     #endif /* CYBLE_SCPS */
 306:Generated_Source\PSoC4/BLE.c ****     
 307:Generated_Source\PSoC4/BLE.c ****     #ifdef CYBLE_TPS
 308:Generated_Source\PSoC4/BLE.c ****         CyBle_TpsInit();
 309:Generated_Source\PSoC4/BLE.c ****     #endif /* CYBLE_TPS */
 310:Generated_Source\PSoC4/BLE.c ****     
 311:Generated_Source\PSoC4/BLE.c ****     #ifdef CYBLE_UDS
 312:Generated_Source\PSoC4/BLE.c ****         CyBle_UdsInit();
 313:Generated_Source\PSoC4/BLE.c ****     #endif /* CYBLE_UDS */
 314:Generated_Source\PSoC4/BLE.c **** 
 315:Generated_Source\PSoC4/BLE.c ****     #ifdef CYBLE_WPTS
 316:Generated_Source\PSoC4/BLE.c ****         CyBle_WptsInit();
 317:Generated_Source\PSoC4/BLE.c ****     #endif /* CYBLE_WPTS */
 318:Generated_Source\PSoC4/BLE.c **** 
 319:Generated_Source\PSoC4/BLE.c ****     #ifdef CYBLE_WSS
 320:Generated_Source\PSoC4/BLE.c ****         CyBle_WssInit();
 321:Generated_Source\PSoC4/BLE.c ****     #endif /* CYBLE_WSS */
 322:Generated_Source\PSoC4/BLE.c **** }
 230              		.loc 1 322 0
 231 0008 BD46     		mov	sp, r7
 232              		@ sp needed
 233 000a 80BD     		pop	{r7, pc}
 234              		.cfi_endproc
 235              	.LFE3:
 236              		.size	CyBle_ServiceInit, .-CyBle_ServiceInit
 237              		.section	.rodata
 238 016d 000000   		.align	2
 239              	.LC0:
 240 0170 2400     		.short	36
 241 0172 03       		.byte	3
 242 0173 00       		.space	1
 243 0174 1800     		.short	24
 244 0176 01       		.byte	1
ARM GAS  C:\Users\ADMINI~1.SC-\AppData\Local\Temp\ccSR5MnG.s 			page 11


 245 0177 00       		.space	1
 246 0178 3000     		.short	48
 247 017a 01       		.byte	1
 248 017b 00       		.space	1
 249 017c 4800     		.short	72
 250 017e 01       		.byte	1
 251 017f 00       		.space	1
 252 0180 2400     		.short	36
 253 0182 01       		.byte	1
 254 0183 00       		.space	1
 255 0184 2400     		.short	36
 256 0186 01       		.byte	1
 257 0187 00       		.space	1
 258 0188 00000000 		.section	.text.CyBle_Start,"ax",%progbits
 258      00000000 
 258      00000000 
 258      00000000 
 258      00000000 
 259              		.align	2
 260              		.global	CyBle_Start
 261              		.code	16
 262              		.thumb_func
 263              		.type	CyBle_Start, %function
 264              	CyBle_Start:
 265              	.LFB4:
 323:Generated_Source\PSoC4/BLE.c **** 
 324:Generated_Source\PSoC4/BLE.c **** 
 325:Generated_Source\PSoC4/BLE.c **** /******************************************************************************
 326:Generated_Source\PSoC4/BLE.c **** * Function Name: CyBle_Start
 327:Generated_Source\PSoC4/BLE.c **** ***************************************************************************//**
 328:Generated_Source\PSoC4/BLE.c **** * 
 329:Generated_Source\PSoC4/BLE.c **** *  This function initializes the BLE Stack, which consists of the BLE Stack 
 330:Generated_Source\PSoC4/BLE.c **** *  Manager, BLE Controller, and BLE Host modules. It takes care of initializing
 331:Generated_Source\PSoC4/BLE.c **** *  the Profile layer, schedulers, Timer and other platform related
 332:Generated_Source\PSoC4/BLE.c **** *  resources required for the BLE component. It also registers the callback 
 333:Generated_Source\PSoC4/BLE.c **** *  function for BLE events that will be registered in the BLE stack.
 334:Generated_Source\PSoC4/BLE.c **** * 
 335:Generated_Source\PSoC4/BLE.c **** *  Note that this function does not reset the BLE Stack.
 336:Generated_Source\PSoC4/BLE.c **** * 
 337:Generated_Source\PSoC4/BLE.c **** *  For HCI-Mode of operation, this function will not initialize the BLE Host 
 338:Generated_Source\PSoC4/BLE.c **** *  module.
 339:Generated_Source\PSoC4/BLE.c **** * 
 340:Generated_Source\PSoC4/BLE.c **** *  Calling this function results in the generation of CYBLE_EVT_STACK_ON event
 341:Generated_Source\PSoC4/BLE.c **** *  on successful initialization of the BLE Stack.
 342:Generated_Source\PSoC4/BLE.c **** * 
 343:Generated_Source\PSoC4/BLE.c **** *  \param callbackFunc: Event callback function to receive events from BLE stack.
 344:Generated_Source\PSoC4/BLE.c **** *   CYBLE_CALLBACK_T is a function pointer type.
 345:Generated_Source\PSoC4/BLE.c **** * 
 346:Generated_Source\PSoC4/BLE.c **** * \return
 347:Generated_Source\PSoC4/BLE.c **** *  CYBLE_API_RESULT_T : Return value indicates if the function succeeded or 
 348:Generated_Source\PSoC4/BLE.c **** *  failed. Following are the possible error codes.
 349:Generated_Source\PSoC4/BLE.c **** * 
 350:Generated_Source\PSoC4/BLE.c **** *   <table>
 351:Generated_Source\PSoC4/BLE.c **** *  	  <tr>
 352:Generated_Source\PSoC4/BLE.c **** *       <th>Error codes</th>
 353:Generated_Source\PSoC4/BLE.c **** *       <th>Description</th>
 354:Generated_Source\PSoC4/BLE.c **** *     </tr>
ARM GAS  C:\Users\ADMINI~1.SC-\AppData\Local\Temp\ccSR5MnG.s 			page 12


 355:Generated_Source\PSoC4/BLE.c **** *     <tr>
 356:Generated_Source\PSoC4/BLE.c **** *       <td>CYBLE_ERROR_OK</td>
 357:Generated_Source\PSoC4/BLE.c **** *       <td>On successful operation.</td>
 358:Generated_Source\PSoC4/BLE.c **** *     </tr>
 359:Generated_Source\PSoC4/BLE.c **** *     <tr>
 360:Generated_Source\PSoC4/BLE.c **** *       <td>CYBLE_ERROR_INVALID_PARAMETER</td>
 361:Generated_Source\PSoC4/BLE.c **** *       <td>On passing a NULL pointer to the function when the BLE stack is not built in HCI mode. 
 362:Generated_Source\PSoC4/BLE.c **** *			CYBLE_ERROR_INVALID_PARAMETER is never returned in HCI mode.</td>
 363:Generated_Source\PSoC4/BLE.c **** *     </tr>
 364:Generated_Source\PSoC4/BLE.c **** *     <tr>
 365:Generated_Source\PSoC4/BLE.c **** *       <td>CYBLE_ERROR_REPEATED_ATTEMPTS</td>
 366:Generated_Source\PSoC4/BLE.c **** *       <td>On invoking this function more than once without calling CyBle_Shutdown() 
 367:Generated_Source\PSoC4/BLE.c **** *           function between calls to this function.</td>
 368:Generated_Source\PSoC4/BLE.c **** *     </tr>
 369:Generated_Source\PSoC4/BLE.c **** *     <tr>
 370:Generated_Source\PSoC4/BLE.c **** *       <td>CYBLE_ERROR_MEMORY_ALLOCATION_FAILED</td>
 371:Generated_Source\PSoC4/BLE.c **** *       <td>There is insufficient memory available.</td>
 372:Generated_Source\PSoC4/BLE.c **** *     </tr>
 373:Generated_Source\PSoC4/BLE.c **** *   </table>
 374:Generated_Source\PSoC4/BLE.c **** * 
 375:Generated_Source\PSoC4/BLE.c **** *  \globalvars
 376:Generated_Source\PSoC4/BLE.c **** *   The CyBle_initVar variable is used to indicate initial
 377:Generated_Source\PSoC4/BLE.c **** *   configuration of this component. The variable is initialized to zero (0u)
 378:Generated_Source\PSoC4/BLE.c **** *   and set to one (1u) the first time CyBle_Start() is called. This
 379:Generated_Source\PSoC4/BLE.c **** *   allows for component initialization without re-initialization in all
 380:Generated_Source\PSoC4/BLE.c **** *   subsequent calls to the CyBle_Start() routine.
 381:Generated_Source\PSoC4/BLE.c **** * 
 382:Generated_Source\PSoC4/BLE.c **** ******************************************************************************/
 383:Generated_Source\PSoC4/BLE.c **** CYBLE_API_RESULT_T CyBle_Start(CYBLE_CALLBACK_T callbackFunc)
 384:Generated_Source\PSoC4/BLE.c **** {
 266              		.loc 1 384 0
 267              		.cfi_startproc
 268 0000 F0B5     		push	{r4, r5, r6, r7, lr}
 269              		.cfi_def_cfa_offset 20
 270              		.cfi_offset 4, -20
 271              		.cfi_offset 5, -16
 272              		.cfi_offset 6, -12
 273              		.cfi_offset 7, -8
 274              		.cfi_offset 14, -4
 275 0002 8FB0     		sub	sp, sp, #60
 276              		.cfi_def_cfa_offset 80
 277 0004 04AF     		add	r7, sp, #16
 278              		.cfi_def_cfa 7, 64
 279 0006 7860     		str	r0, [r7, #4]
 385:Generated_Source\PSoC4/BLE.c ****     CYBLE_API_RESULT_T apiResult = CYBLE_ERROR_OK;
 280              		.loc 1 385 0
 281 0008 2623     		mov	r3, #38
 282 000a FB18     		add	r3, r7, r3
 283 000c 0022     		mov	r2, #0
 284 000e 1A80     		strh	r2, [r3]
 386:Generated_Source\PSoC4/BLE.c ****     
 387:Generated_Source\PSoC4/BLE.c ****     #if(CYBLE_MODE_PROFILE)
 388:Generated_Source\PSoC4/BLE.c ****     
 389:Generated_Source\PSoC4/BLE.c ****     CYBLE_STK_APP_DATA_BUFF_T cyBle_stackDataBuff[CYBLE_STACK_BUF_COUNT] = 
 285              		.loc 1 389 0
 286 0010 0C23     		mov	r3, #12
 287 0012 FA18     		add	r2, r7, r3
ARM GAS  C:\Users\ADMINI~1.SC-\AppData\Local\Temp\ccSR5MnG.s 			page 13


 288 0014 284B     		ldr	r3, .L11
 289 0016 111C     		mov	r1, r2
 290 0018 1A1C     		mov	r2, r3
 291 001a 1823     		mov	r3, #24
 292 001c 081C     		mov	r0, r1
 293 001e 111C     		mov	r1, r2
 294 0020 1A1C     		mov	r2, r3
 295 0022 FFF7FEFF 		bl	memcpy
 390:Generated_Source\PSoC4/BLE.c ****     {
 391:Generated_Source\PSoC4/BLE.c ****         {CYBLE_GATT_MTU_PLUS_L2CAP_MEM_EXT, CYBLE_GATT_MTU_BUF_COUNT},
 392:Generated_Source\PSoC4/BLE.c ****         {CYBLE_GATT_MAX_ATTR_LEN_PLUS_L2CAP_MEM_EXT, 1u},
 393:Generated_Source\PSoC4/BLE.c ****         {CYBLE_L2CAP_PSM_PLUS_L2CAP_MEM_EXT, CYBLE_L2CAP_PSM_COUNT},
 394:Generated_Source\PSoC4/BLE.c ****         {CYBLE_L2CAP_CBFC_PLUS_L2CAP_MEM_EXT, CYBLE_L2CAP_LOGICAL_CHANNEL_COUNT},
 395:Generated_Source\PSoC4/BLE.c ****         {CYBLE_L2CAP_MTU_PLUS_L2CAP_MEM_EXT, CYBLE_L2CAP_LOGICAL_CHANNEL_COUNT},
 396:Generated_Source\PSoC4/BLE.c ****         {CYBLE_L2CAP_MPS_PLUS_L2CAP_MEM_EXT, CYBLE_L2CAP_LOGICAL_CHANNEL_COUNT * (CYBLE_L2CAP_MTU/C
 397:Generated_Source\PSoC4/BLE.c ****     }; 
 398:Generated_Source\PSoC4/BLE.c **** 
 399:Generated_Source\PSoC4/BLE.c ****     #endif /* CYBLE_MODE_PROFILE */
 400:Generated_Source\PSoC4/BLE.c ****     
 401:Generated_Source\PSoC4/BLE.c ****     /* If not initialized then initialize all the required hardware and software */
 402:Generated_Source\PSoC4/BLE.c ****     if(cyBle_initVar == 0u)
 296              		.loc 1 402 0
 297 0026 254B     		ldr	r3, .L11+4
 298 0028 1B78     		ldrb	r3, [r3]
 299 002a 002B     		cmp	r3, #0
 300 002c 04D1     		bne	.L6
 403:Generated_Source\PSoC4/BLE.c ****     {
 404:Generated_Source\PSoC4/BLE.c ****         CyBle_Init();
 301              		.loc 1 404 0
 302 002e FFF7FEFF 		bl	CyBle_Init
 405:Generated_Source\PSoC4/BLE.c ****         cyBle_initVar = 1u;
 303              		.loc 1 405 0
 304 0032 224B     		ldr	r3, .L11+4
 305 0034 0122     		mov	r2, #1
 306 0036 1A70     		strb	r2, [r3]
 307              	.L6:
 406:Generated_Source\PSoC4/BLE.c ****     }
 407:Generated_Source\PSoC4/BLE.c ****     
 408:Generated_Source\PSoC4/BLE.c ****     if(callbackFunc != NULL)
 308              		.loc 1 408 0
 309 0038 7B68     		ldr	r3, [r7, #4]
 310 003a 002B     		cmp	r3, #0
 311 003c 30D0     		beq	.L7
 409:Generated_Source\PSoC4/BLE.c ****     {
 410:Generated_Source\PSoC4/BLE.c ****     #if(CYBLE_SHARING_MODE_EXPORT)
 411:Generated_Source\PSoC4/BLE.c ****         if(cyBle_stackMemoryRam == NULL)
 412:Generated_Source\PSoC4/BLE.c ****         {
 413:Generated_Source\PSoC4/BLE.c ****             cyBle_stackMemoryRam = (uint8 *)malloc(CYBLE_STACK_RAM_SIZE);
 414:Generated_Source\PSoC4/BLE.c ****             if(cyBle_stackMemoryRam == NULL)
 415:Generated_Source\PSoC4/BLE.c ****             {
 416:Generated_Source\PSoC4/BLE.c ****                 apiResult = CYBLE_ERROR_MEMORY_ALLOCATION_FAILED;
 417:Generated_Source\PSoC4/BLE.c ****             } 
 418:Generated_Source\PSoC4/BLE.c ****         }
 419:Generated_Source\PSoC4/BLE.c ****     #endif /* CYBLE_SHARING_MODE_EXPORT */
 420:Generated_Source\PSoC4/BLE.c ****         if(apiResult == CYBLE_ERROR_OK)
 312              		.loc 1 420 0
 313 003e 2623     		mov	r3, #38
ARM GAS  C:\Users\ADMINI~1.SC-\AppData\Local\Temp\ccSR5MnG.s 			page 14


 314 0040 FB18     		add	r3, r7, r3
 315 0042 1B88     		ldrh	r3, [r3]
 316 0044 002B     		cmp	r3, #0
 317 0046 2FD1     		bne	.L9
 421:Generated_Source\PSoC4/BLE.c ****         {
 422:Generated_Source\PSoC4/BLE.c ****             CyBle_ApplCallback = callbackFunc;
 318              		.loc 1 422 0
 319 0048 1D4B     		ldr	r3, .L11+8
 320 004a 7A68     		ldr	r2, [r7, #4]
 321 004c 1A60     		str	r2, [r3]
 423:Generated_Source\PSoC4/BLE.c ****             
 424:Generated_Source\PSoC4/BLE.c ****         #if(CYBLE_MODE_PROFILE)
 425:Generated_Source\PSoC4/BLE.c ****             apiResult = CyBle_StackInit(&CyBle_EventHandler, cyBle_stackMemoryRam, CYBLE_STACK_RAM_
 322              		.loc 1 425 0
 323 004e 2623     		mov	r3, #38
 324 0050 FC18     		add	r4, r7, r3
 325 0052 1C49     		ldr	r1, .L11+12
 326 0054 1C4A     		ldr	r2, .L11+16
 327 0056 1D4E     		ldr	r6, .L11+20
 328 0058 0C23     		mov	r3, #12
 329 005a FD18     		add	r5, r7, r3
 330 005c 0623     		mov	r3, #6
 331 005e 0093     		str	r3, [sp]
 332 0060 1B4B     		ldr	r3, .L11+24
 333 0062 0193     		str	r3, [sp, #4]
 334 0064 6E23     		mov	r3, #110
 335 0066 FF33     		add	r3, r3, #255
 336 0068 0293     		str	r3, [sp, #8]
 337 006a 081C     		mov	r0, r1
 338 006c 111C     		mov	r1, r2
 339 006e 321C     		mov	r2, r6
 340 0070 2B1C     		mov	r3, r5
 341 0072 FFF7FEFF 		bl	CyBle_StackInit
 342 0076 031C     		mov	r3, r0
 343 0078 2380     		strh	r3, [r4]
 426:Generated_Source\PSoC4/BLE.c ****                 cyBle_stackDataBuff, CYBLE_STACK_BUF_COUNT, cyBle_flashStorage.stackFlashptr, CYBLE
 427:Generated_Source\PSoC4/BLE.c ****         #else
 428:Generated_Source\PSoC4/BLE.c ****             apiResult = CyBle_StackInit(&CyBle_EventHandler, cyBle_stackMemoryRam, CYBLE_STACK_RAM_
 429:Generated_Source\PSoC4/BLE.c ****                 NULL, 0u, NULL, 0u);
 430:Generated_Source\PSoC4/BLE.c ****         #endif /* CYBLE_MODE_PROFILE */
 431:Generated_Source\PSoC4/BLE.c **** 
 432:Generated_Source\PSoC4/BLE.c ****             if(apiResult == CYBLE_ERROR_OK)
 344              		.loc 1 432 0
 345 007a 2623     		mov	r3, #38
 346 007c FB18     		add	r3, r7, r3
 347 007e 1B88     		ldrh	r3, [r3]
 348 0080 002B     		cmp	r3, #0
 349 0082 11D1     		bne	.L9
 433:Generated_Source\PSoC4/BLE.c ****             {
 434:Generated_Source\PSoC4/BLE.c ****                 CyBle_SetState(CYBLE_STATE_INITIALIZING);
 350              		.loc 1 434 0
 351 0084 134B     		ldr	r3, .L11+28
 352 0086 0122     		mov	r2, #1
 353 0088 1A70     		strb	r2, [r3]
 435:Generated_Source\PSoC4/BLE.c ****                 
 436:Generated_Source\PSoC4/BLE.c ****             #if (CYBLE_GATT_ROLE_CLIENT)
 437:Generated_Source\PSoC4/BLE.c ****                 CyBle_SetClientState(CYBLE_CLIENT_STATE_DISCONNECTED);
ARM GAS  C:\Users\ADMINI~1.SC-\AppData\Local\Temp\ccSR5MnG.s 			page 15


 438:Generated_Source\PSoC4/BLE.c ****             #endif /* CYBLE_GATT_ROLE_CLIENT */
 439:Generated_Source\PSoC4/BLE.c ****                 
 440:Generated_Source\PSoC4/BLE.c ****             #if(CYBLE_GATT_ROLE_SERVER)
 441:Generated_Source\PSoC4/BLE.c ****                 apiResult = CyBle_GattsDbRegister(cyBle_gattDB, CYBLE_GATT_DB_INDEX_COUNT, CYBLE_GA
 354              		.loc 1 441 0
 355 008a 2623     		mov	r3, #38
 356 008c FC18     		add	r4, r7, r3
 357 008e 124B     		ldr	r3, .L11+32
 358 0090 181C     		mov	r0, r3
 359 0092 1421     		mov	r1, #20
 360 0094 0C22     		mov	r2, #12
 361 0096 FFF7FEFF 		bl	CyBle_GattsDbRegister
 362 009a 031C     		mov	r3, r0
 363 009c 2380     		strh	r3, [r4]
 364 009e 03E0     		b	.L9
 365              	.L7:
 442:Generated_Source\PSoC4/BLE.c ****             #endif /* CYBLE_GATT_ROLE_SERVER */
 443:Generated_Source\PSoC4/BLE.c ****             }
 444:Generated_Source\PSoC4/BLE.c ****         }
 445:Generated_Source\PSoC4/BLE.c ****     }
 446:Generated_Source\PSoC4/BLE.c ****     else
 447:Generated_Source\PSoC4/BLE.c ****     {
 448:Generated_Source\PSoC4/BLE.c ****         apiResult = CYBLE_ERROR_INVALID_PARAMETER;
 366              		.loc 1 448 0
 367 00a0 2623     		mov	r3, #38
 368 00a2 FB18     		add	r3, r7, r3
 369 00a4 0122     		mov	r2, #1
 370 00a6 1A80     		strh	r2, [r3]
 371              	.L9:
 449:Generated_Source\PSoC4/BLE.c ****     }
 450:Generated_Source\PSoC4/BLE.c **** 
 451:Generated_Source\PSoC4/BLE.c ****     return (apiResult);
 372              		.loc 1 451 0
 373 00a8 2623     		mov	r3, #38
 374 00aa FB18     		add	r3, r7, r3
 375 00ac 1B88     		ldrh	r3, [r3]
 452:Generated_Source\PSoC4/BLE.c **** }
 376              		.loc 1 452 0
 377 00ae 181C     		mov	r0, r3
 378 00b0 BD46     		mov	sp, r7
 379 00b2 0BB0     		add	sp, sp, #44
 380              		@ sp needed
 381 00b4 F0BD     		pop	{r4, r5, r6, r7, pc}
 382              	.L12:
 383 00b6 C046     		.align	2
 384              	.L11:
 385 00b8 70010000 		.word	.LC0
 386 00bc 00000000 		.word	cyBle_initVar
 387 00c0 00000000 		.word	CyBle_ApplCallback
 388 00c4 00000000 		.word	CyBle_EventHandler
 389 00c8 00000000 		.word	cyBle_stackMemoryRam
 390 00cc C40A0000 		.word	2756
 391 00d0 00000000 		.word	cyBle_flashStorage
 392 00d4 00000000 		.word	cyBle_state
 393 00d8 00000000 		.word	cyBle_gattDB
 394              		.cfi_endproc
 395              	.LFE4:
ARM GAS  C:\Users\ADMINI~1.SC-\AppData\Local\Temp\ccSR5MnG.s 			page 16


 396              		.size	CyBle_Start, .-CyBle_Start
 397              		.section	.text.CyBle_Stop,"ax",%progbits
 398              		.align	2
 399              		.global	CyBle_Stop
 400              		.code	16
 401              		.thumb_func
 402              		.type	CyBle_Stop, %function
 403              	CyBle_Stop:
 404              	.LFB5:
 453:Generated_Source\PSoC4/BLE.c **** 
 454:Generated_Source\PSoC4/BLE.c **** 
 455:Generated_Source\PSoC4/BLE.c **** /******************************************************************************
 456:Generated_Source\PSoC4/BLE.c **** * Function Name: CyBle_Stop
 457:Generated_Source\PSoC4/BLE.c **** ***************************************************************************//**
 458:Generated_Source\PSoC4/BLE.c **** * 
 459:Generated_Source\PSoC4/BLE.c **** *  This function stops any ongoing operation in the BLE Stack and forces the 
 460:Generated_Source\PSoC4/BLE.c **** *  BLE Stack to shut down. The only function that can be called after calling
 461:Generated_Source\PSoC4/BLE.c **** *  this function is CyBle_Start(). 
 462:Generated_Source\PSoC4/BLE.c **** * 
 463:Generated_Source\PSoC4/BLE.c **** * \return
 464:Generated_Source\PSoC4/BLE.c **** *  None
 465:Generated_Source\PSoC4/BLE.c **** * 
 466:Generated_Source\PSoC4/BLE.c **** ******************************************************************************/
 467:Generated_Source\PSoC4/BLE.c **** void CyBle_Stop(void)
 468:Generated_Source\PSoC4/BLE.c **** {
 405              		.loc 1 468 0
 406              		.cfi_startproc
 407 0000 80B5     		push	{r7, lr}
 408              		.cfi_def_cfa_offset 8
 409              		.cfi_offset 7, -8
 410              		.cfi_offset 14, -4
 411 0002 00AF     		add	r7, sp, #0
 412              		.cfi_def_cfa_register 7
 469:Generated_Source\PSoC4/BLE.c ****     CyBle_Shutdown();                         /* Stop all ongoing activities */
 413              		.loc 1 469 0
 414 0004 FFF7FEFF 		bl	CyBle_Shutdown
 470:Generated_Source\PSoC4/BLE.c ****     CyBle_SetState(CYBLE_STATE_STOPPED);
 415              		.loc 1 470 0
 416 0008 024B     		ldr	r3, .L14
 417 000a 0022     		mov	r2, #0
 418 000c 1A70     		strb	r2, [r3]
 471:Generated_Source\PSoC4/BLE.c ****     #if(CYBLE_SHARING_MODE_EXPORT)
 472:Generated_Source\PSoC4/BLE.c ****         if(cyBle_stackMemoryRam != NULL)
 473:Generated_Source\PSoC4/BLE.c ****         {
 474:Generated_Source\PSoC4/BLE.c ****             free(cyBle_stackMemoryRam);
 475:Generated_Source\PSoC4/BLE.c ****         }
 476:Generated_Source\PSoC4/BLE.c ****     #endif /* CYBLE_SHARING_MODE_EXPORT */
 477:Generated_Source\PSoC4/BLE.c **** }
 419              		.loc 1 477 0
 420 000e BD46     		mov	sp, r7
 421              		@ sp needed
 422 0010 80BD     		pop	{r7, pc}
 423              	.L15:
 424 0012 C046     		.align	2
 425              	.L14:
 426 0014 00000000 		.word	cyBle_state
 427              		.cfi_endproc
ARM GAS  C:\Users\ADMINI~1.SC-\AppData\Local\Temp\ccSR5MnG.s 			page 17


 428              	.LFE5:
 429              		.size	CyBle_Stop, .-CyBle_Stop
 430              		.section	.text.CyBle_StoreBondingData,"ax",%progbits
 431              		.align	2
 432              		.global	CyBle_StoreBondingData
 433              		.code	16
 434              		.thumb_func
 435              		.type	CyBle_StoreBondingData, %function
 436              	CyBle_StoreBondingData:
 437              	.LFB6:
 478:Generated_Source\PSoC4/BLE.c **** 
 479:Generated_Source\PSoC4/BLE.c **** 
 480:Generated_Source\PSoC4/BLE.c **** #if((CYBLE_GAP_ROLE_PERIPHERAL || CYBLE_GAP_ROLE_CENTRAL) && (CYBLE_BONDING_REQUIREMENT == CYBLE_BO
 481:Generated_Source\PSoC4/BLE.c **** 
 482:Generated_Source\PSoC4/BLE.c ****     
 483:Generated_Source\PSoC4/BLE.c **** /******************************************************************************
 484:Generated_Source\PSoC4/BLE.c **** * Function Name: CyBle_StoreBondingData
 485:Generated_Source\PSoC4/BLE.c **** ***************************************************************************//**
 486:Generated_Source\PSoC4/BLE.c **** * 
 487:Generated_Source\PSoC4/BLE.c **** *  This function writes the new bonding data from RAM to the dedicated Flash 
 488:Generated_Source\PSoC4/BLE.c **** *  location as defined by the component. It performs data comparing between RAM
 489:Generated_Source\PSoC4/BLE.c **** *  and Flash before writing to Flash. If there is no change between RAM and Flash
 490:Generated_Source\PSoC4/BLE.c **** *  data, then no write is performed. It writes only one flash row in one call.
 491:Generated_Source\PSoC4/BLE.c **** *  Application should keep calling this function till API return CYBLE_ERROR_OK. 
 492:Generated_Source\PSoC4/BLE.c **** *  This function is available only when Bonding requirement is selected in
 493:Generated_Source\PSoC4/BLE.c **** *  Security settings.    
 494:Generated_Source\PSoC4/BLE.c **** * 
 495:Generated_Source\PSoC4/BLE.c **** *  \param isForceWrite:  If value is set to 0, then stack will check if flash write 
 496:Generated_Source\PSoC4/BLE.c **** *                 is permissible. 
 497:Generated_Source\PSoC4/BLE.c **** *  
 498:Generated_Source\PSoC4/BLE.c **** * \return
 499:Generated_Source\PSoC4/BLE.c **** *  Return value is of type CYBLE_API_RESULT_T.
 500:Generated_Source\PSoC4/BLE.c **** *
 501:Generated_Source\PSoC4/BLE.c **** *   Errors codes                         | Description
 502:Generated_Source\PSoC4/BLE.c **** *   ----------------------------------   | ------------------------------------
 503:Generated_Source\PSoC4/BLE.c **** *   CYBLE_ERROR_OK                       | On successful operation
 504:Generated_Source\PSoC4/BLE.c **** *   CYBLE_ERROR_FLASH_WRITE_NOT_PERMITED | Flash Write is not complete
 505:Generated_Source\PSoC4/BLE.c **** *    
 506:Generated_Source\PSoC4/BLE.c **** *  \sideeffect
 507:Generated_Source\PSoC4/BLE.c **** *   For BLE devices with 128K of Flash memory this API will automatically 
 508:Generated_Source\PSoC4/BLE.c **** *   modify the clock settings for the device.
 509:Generated_Source\PSoC4/BLE.c **** *   Writing to flash requires changes to be done to the IMO (set to 48 MHz)
 510:Generated_Source\PSoC4/BLE.c **** *   and HFCLK (source set to IMO) settings. The configuration is restored before
 511:Generated_Source\PSoC4/BLE.c **** *   returning. This will impact the operation of most of the hardware in the
 512:Generated_Source\PSoC4/BLE.c **** *   device.
 513:Generated_Source\PSoC4/BLE.c **** * 
 514:Generated_Source\PSoC4/BLE.c **** *  \globalvars
 515:Generated_Source\PSoC4/BLE.c **** *   The BLE_pendingFlashWrite variable is used to detect status
 516:Generated_Source\PSoC4/BLE.c **** *   of pending write to flash operation for stack data and CCCD.
 517:Generated_Source\PSoC4/BLE.c **** *   This API automatically clears pending bits after write operation complete.
 518:Generated_Source\PSoC4/BLE.c **** *     
 519:Generated_Source\PSoC4/BLE.c **** ******************************************************************************/
 520:Generated_Source\PSoC4/BLE.c **** CYBLE_API_RESULT_T CyBle_StoreBondingData(uint8 isForceWrite)
 521:Generated_Source\PSoC4/BLE.c **** {
 438              		.loc 1 521 0
 439              		.cfi_startproc
 440 0000 90B5     		push	{r4, r7, lr}
ARM GAS  C:\Users\ADMINI~1.SC-\AppData\Local\Temp\ccSR5MnG.s 			page 18


 441              		.cfi_def_cfa_offset 12
 442              		.cfi_offset 4, -12
 443              		.cfi_offset 7, -8
 444              		.cfi_offset 14, -4
 445 0002 85B0     		sub	sp, sp, #20
 446              		.cfi_def_cfa_offset 32
 447 0004 00AF     		add	r7, sp, #0
 448              		.cfi_def_cfa_register 7
 449 0006 021C     		mov	r2, r0
 450 0008 FB1D     		add	r3, r7, #7
 451 000a 1A70     		strb	r2, [r3]
 522:Generated_Source\PSoC4/BLE.c ****     CYBLE_API_RESULT_T apiResult = CYBLE_ERROR_OK;
 452              		.loc 1 522 0
 453 000c 0E23     		mov	r3, #14
 454 000e FB18     		add	r3, r7, r3
 455 0010 0022     		mov	r2, #0
 456 0012 1A80     		strh	r2, [r3]
 523:Generated_Source\PSoC4/BLE.c ****     
 524:Generated_Source\PSoC4/BLE.c ****     /* Store Stack data */
 525:Generated_Source\PSoC4/BLE.c ****     if((cyBle_pendingFlashWrite & CYBLE_PENDING_STACK_FLASH_WRITE_BIT) != 0u)
 457              		.loc 1 525 0
 458 0014 2E4B     		ldr	r3, .L21
 459 0016 1B78     		ldrb	r3, [r3]
 460 0018 1A1C     		mov	r2, r3
 461 001a 0123     		mov	r3, #1
 462 001c 1340     		and	r3, r2
 463 001e 1ED0     		beq	.L17
 526:Generated_Source\PSoC4/BLE.c ****     {
 527:Generated_Source\PSoC4/BLE.c ****         apiResult = CyBle_StoreStackData(isForceWrite);
 464              		.loc 1 527 0
 465 0020 0E23     		mov	r3, #14
 466 0022 FC18     		add	r4, r7, r3
 467 0024 FB1D     		add	r3, r7, #7
 468 0026 1B78     		ldrb	r3, [r3]
 469 0028 181C     		mov	r0, r3
 470 002a FFF7FEFF 		bl	CyBle_StoreStackData
 471 002e 031C     		mov	r3, r0
 472 0030 2380     		strh	r3, [r4]
 528:Generated_Source\PSoC4/BLE.c ****         if(apiResult == CYBLE_ERROR_OK)
 473              		.loc 1 528 0
 474 0032 0E23     		mov	r3, #14
 475 0034 FB18     		add	r3, r7, r3
 476 0036 1B88     		ldrh	r3, [r3]
 477 0038 002B     		cmp	r3, #0
 478 003a 10D1     		bne	.L17
 529:Generated_Source\PSoC4/BLE.c ****         {
 530:Generated_Source\PSoC4/BLE.c ****             cyBle_pendingFlashWrite &= (uint8)~CYBLE_PENDING_STACK_FLASH_WRITE_BIT;
 479              		.loc 1 530 0
 480 003c 244B     		ldr	r3, .L21
 481 003e 1B78     		ldrb	r3, [r3]
 482 0040 0122     		mov	r2, #1
 483 0042 9343     		bic	r3, r2
 484 0044 DAB2     		uxtb	r2, r3
 485 0046 224B     		ldr	r3, .L21
 486 0048 1A70     		strb	r2, [r3]
 531:Generated_Source\PSoC4/BLE.c ****             /* Change apiResult if there are more pending data to store */
 532:Generated_Source\PSoC4/BLE.c ****             if((cyBle_pendingFlashWrite & CYBLE_PENDING_CCCD_FLASH_WRITE_BIT) != 0u)
ARM GAS  C:\Users\ADMINI~1.SC-\AppData\Local\Temp\ccSR5MnG.s 			page 19


 487              		.loc 1 532 0
 488 004a 214B     		ldr	r3, .L21
 489 004c 1B78     		ldrb	r3, [r3]
 490 004e 1A1C     		mov	r2, r3
 491 0050 0223     		mov	r3, #2
 492 0052 1340     		and	r3, r2
 493 0054 03D0     		beq	.L17
 533:Generated_Source\PSoC4/BLE.c ****             {
 534:Generated_Source\PSoC4/BLE.c ****                 apiResult = CYBLE_ERROR_FLASH_WRITE_NOT_PERMITED;
 494              		.loc 1 534 0
 495 0056 0E23     		mov	r3, #14
 496 0058 FB18     		add	r3, r7, r3
 497 005a 2822     		mov	r2, #40
 498 005c 1A80     		strh	r2, [r3]
 499              	.L17:
 535:Generated_Source\PSoC4/BLE.c ****             }
 536:Generated_Source\PSoC4/BLE.c ****         }
 537:Generated_Source\PSoC4/BLE.c ****     }
 538:Generated_Source\PSoC4/BLE.c **** #if(CYBLE_GATT_DB_CCCD_COUNT != 0u)
 539:Generated_Source\PSoC4/BLE.c ****     /* Store CCCD values */
 540:Generated_Source\PSoC4/BLE.c ****     if( ((apiResult == CYBLE_ERROR_OK) || (isForceWrite != 0u)) && 
 500              		.loc 1 540 0
 501 005e 0E23     		mov	r3, #14
 502 0060 FB18     		add	r3, r7, r3
 503 0062 1B88     		ldrh	r3, [r3]
 504 0064 002B     		cmp	r3, #0
 505 0066 03D0     		beq	.L18
 506              		.loc 1 540 0 is_stmt 0 discriminator 2
 507 0068 FB1D     		add	r3, r7, #7
 508 006a 1B78     		ldrb	r3, [r3]
 509 006c 002B     		cmp	r3, #0
 510 006e 28D0     		beq	.L19
 511              	.L18:
 541:Generated_Source\PSoC4/BLE.c ****         ((cyBle_pendingFlashWrite & CYBLE_PENDING_CCCD_FLASH_WRITE_BIT) != 0u) &&
 512              		.loc 1 541 0 is_stmt 1 discriminator 3
 513 0070 174B     		ldr	r3, .L21
 514 0072 1B78     		ldrb	r3, [r3]
 515 0074 1A1C     		mov	r2, r3
 516 0076 0223     		mov	r3, #2
 517 0078 1340     		and	r3, r2
 540:Generated_Source\PSoC4/BLE.c ****         ((cyBle_pendingFlashWrite & CYBLE_PENDING_CCCD_FLASH_WRITE_BIT) != 0u) &&
 518              		.loc 1 540 0 discriminator 3
 519 007a 22D0     		beq	.L19
 542:Generated_Source\PSoC4/BLE.c ****         (cyBle_connHandle.bdHandle <= CYBLE_GAP_MAX_BONDED_DEVICE))
 520              		.loc 1 542 0
 521 007c 154B     		ldr	r3, .L21+4
 522 007e 1B78     		ldrb	r3, [r3]
 541:Generated_Source\PSoC4/BLE.c ****         ((cyBle_pendingFlashWrite & CYBLE_PENDING_CCCD_FLASH_WRITE_BIT) != 0u) &&
 523              		.loc 1 541 0
 524 0080 042B     		cmp	r3, #4
 525 0082 1ED8     		bhi	.L19
 543:Generated_Source\PSoC4/BLE.c ****     {
 544:Generated_Source\PSoC4/BLE.c ****         apiResult = CyBle_StoreAppData(cyBle_attValuesCCCD, cyBle_flashStorage.attValuesCCCDFlashMe
 526              		.loc 1 544 0
 527 0084 134B     		ldr	r3, .L21+4
 528 0086 1B78     		ldrb	r3, [r3]
 529 0088 5A33     		add	r3, r3, #90
ARM GAS  C:\Users\ADMINI~1.SC-\AppData\Local\Temp\ccSR5MnG.s 			page 20


 530 008a 9A00     		lsl	r2, r3, #2
 531 008c 124B     		ldr	r3, .L21+8
 532 008e D318     		add	r3, r2, r3
 533 0090 5A1D     		add	r2, r3, #5
 534 0092 0E23     		mov	r3, #14
 535 0094 FC18     		add	r4, r7, r3
 536 0096 1149     		ldr	r1, .L21+12
 537 0098 FB1D     		add	r3, r7, #7
 538 009a 1B78     		ldrb	r3, [r3]
 539 009c 081C     		mov	r0, r1
 540 009e 111C     		mov	r1, r2
 541 00a0 0422     		mov	r2, #4
 542 00a2 FFF7FEFF 		bl	CyBle_StoreAppData
 543 00a6 031C     		mov	r3, r0
 544 00a8 2380     		strh	r3, [r4]
 545:Generated_Source\PSoC4/BLE.c ****                                        CYBLE_GATT_DB_CCCD_COUNT, isForceWrite);
 546:Generated_Source\PSoC4/BLE.c ****         if(apiResult == CYBLE_ERROR_OK)
 545              		.loc 1 546 0
 546 00aa 0E23     		mov	r3, #14
 547 00ac FB18     		add	r3, r7, r3
 548 00ae 1B88     		ldrh	r3, [r3]
 549 00b0 002B     		cmp	r3, #0
 550 00b2 06D1     		bne	.L19
 547:Generated_Source\PSoC4/BLE.c ****         {
 548:Generated_Source\PSoC4/BLE.c ****             cyBle_pendingFlashWrite &= (uint8)~CYBLE_PENDING_CCCD_FLASH_WRITE_BIT;
 551              		.loc 1 548 0
 552 00b4 064B     		ldr	r3, .L21
 553 00b6 1B78     		ldrb	r3, [r3]
 554 00b8 0222     		mov	r2, #2
 555 00ba 9343     		bic	r3, r2
 556 00bc DAB2     		uxtb	r2, r3
 557 00be 044B     		ldr	r3, .L21
 558 00c0 1A70     		strb	r2, [r3]
 559              	.L19:
 549:Generated_Source\PSoC4/BLE.c ****         }
 550:Generated_Source\PSoC4/BLE.c ****     }
 551:Generated_Source\PSoC4/BLE.c **** #endif /* CYBLE_GATT_DB_CCCD_COUNT != 0u */
 552:Generated_Source\PSoC4/BLE.c ****     return(apiResult);
 560              		.loc 1 552 0
 561 00c2 0E23     		mov	r3, #14
 562 00c4 FB18     		add	r3, r7, r3
 563 00c6 1B88     		ldrh	r3, [r3]
 553:Generated_Source\PSoC4/BLE.c **** }
 564              		.loc 1 553 0
 565 00c8 181C     		mov	r0, r3
 566 00ca BD46     		mov	sp, r7
 567 00cc 05B0     		add	sp, sp, #20
 568              		@ sp needed
 569 00ce 90BD     		pop	{r4, r7, pc}
 570              	.L22:
 571              		.align	2
 572              	.L21:
 573 00d0 00000000 		.word	cyBle_pendingFlashWrite
 574 00d4 00000000 		.word	cyBle_connHandle
 575 00d8 00000000 		.word	cyBle_flashStorage
 576 00dc 00000000 		.word	cyBle_attValuesCCCD
 577              		.cfi_endproc
ARM GAS  C:\Users\ADMINI~1.SC-\AppData\Local\Temp\ccSR5MnG.s 			page 21


 578              	.LFE6:
 579              		.size	CyBle_StoreBondingData, .-CyBle_StoreBondingData
 580              		.section	.text.CyBle_GappStartAdvertisement,"ax",%progbits
 581              		.align	2
 582              		.global	CyBle_GappStartAdvertisement
 583              		.code	16
 584              		.thumb_func
 585              		.type	CyBle_GappStartAdvertisement, %function
 586              	CyBle_GappStartAdvertisement:
 587              	.LFB7:
 554:Generated_Source\PSoC4/BLE.c **** 
 555:Generated_Source\PSoC4/BLE.c **** 
 556:Generated_Source\PSoC4/BLE.c **** #endif /* (CYBLE_GAP_ROLE_PERIPHERAL || CYBLE_GAP_ROLE_CENTRAL) && (CYBLE_BONDING_REQUIREMENT == CY
 557:Generated_Source\PSoC4/BLE.c **** 
 558:Generated_Source\PSoC4/BLE.c **** 
 559:Generated_Source\PSoC4/BLE.c **** #if(CYBLE_GAP_ROLE_PERIPHERAL || CYBLE_GAP_ROLE_BROADCASTER)
 560:Generated_Source\PSoC4/BLE.c **** 
 561:Generated_Source\PSoC4/BLE.c ****     /******************************************************************************
 562:Generated_Source\PSoC4/BLE.c ****     *  Function Name: CyBle_GappStartAdvertisement
 563:Generated_Source\PSoC4/BLE.c ****     ***************************************************************************//**
 564:Generated_Source\PSoC4/BLE.c ****     *     
 565:Generated_Source\PSoC4/BLE.c ****     *  This function is used to start the advertisement using the advertisement data 
 566:Generated_Source\PSoC4/BLE.c ****     *  set in the component customizer's GUI. After invoking this API, the device 
 567:Generated_Source\PSoC4/BLE.c ****     *  will be available for connection by the devices configured for GAP central 
 568:Generated_Source\PSoC4/BLE.c ****     *  role. It is only included if the device is configured for GAP Peripheral or 
 569:Generated_Source\PSoC4/BLE.c ****     *  GAP Peripheral + Central role.
 570:Generated_Source\PSoC4/BLE.c ****     *  
 571:Generated_Source\PSoC4/BLE.c ****     *  On start of advertisement, GAP Peripheral receives the
 572:Generated_Source\PSoC4/BLE.c ****     *  CYBLE_EVT_GAPP_ADVERTISEMENT_START_STOP event. The following events are 
 573:Generated_Source\PSoC4/BLE.c ****     *  possible on invoking this function:
 574:Generated_Source\PSoC4/BLE.c ****     *  
 575:Generated_Source\PSoC4/BLE.c ****     *  * CYBLE_EVT_GAP_DEVICE_CONNECTED: If the device connects to remote GAP 
 576:Generated_Source\PSoC4/BLE.c ****     *                                      Central device
 577:Generated_Source\PSoC4/BLE.c ****     *  * CYBLE_EVT_TIMEOUT: If no device in GAP Central mode connects to this 
 578:Generated_Source\PSoC4/BLE.c ****     *                       device within the specified timeout limit. Stack 
 579:Generated_Source\PSoC4/BLE.c ****     *                       automatically initiate stop advertising when Slow 
 580:Generated_Source\PSoC4/BLE.c ****     *                       advertising was initiated, or starts Slow advertising
 581:Generated_Source\PSoC4/BLE.c ****     *                       after Fast advertising timeout occur.
 582:Generated_Source\PSoC4/BLE.c ****     *  * CYBLE_EVT_GAPP_ADVERTISEMENT_START_STOP: If device started or stopped
 583:Generated_Source\PSoC4/BLE.c ****     *                                               advertising. Use CyBle_GetState()
 584:Generated_Source\PSoC4/BLE.c ****     *                                               to determine the state. Sequential 
 585:Generated_Source\PSoC4/BLE.c ****     *                                               advertising could be started when
 586:Generated_Source\PSoC4/BLE.c ****     *                                               CYBLE_STATE_DISCONNECTED state is
 587:Generated_Source\PSoC4/BLE.c ****     *                                               returned.
 588:Generated_Source\PSoC4/BLE.c ****     * 
 589:Generated_Source\PSoC4/BLE.c ****     *  \param advertisingIntervalType: Fast or slow advertising interval with timings
 590:Generated_Source\PSoC4/BLE.c ****     *                                 entered in Advertising settings section of the
 591:Generated_Source\PSoC4/BLE.c ****     *                                 customizer.
 592:Generated_Source\PSoC4/BLE.c ****     *  * CYBLE_ADVERTISING_FAST   0x00u
 593:Generated_Source\PSoC4/BLE.c ****     *  * CYBLE_ADVERTISING_SLOW   0x01u
 594:Generated_Source\PSoC4/BLE.c ****     *  * CYBLE_ADVERTISING_CUSTOM 0x02u
 595:Generated_Source\PSoC4/BLE.c ****     * 
 596:Generated_Source\PSoC4/BLE.c ****     * \return
 597:Generated_Source\PSoC4/BLE.c ****     *  CYBLE_API_RESULT_T : Return value indicates if the function succeeded or
 598:Generated_Source\PSoC4/BLE.c ****     *  failed. Following are the possible error codes.
 599:Generated_Source\PSoC4/BLE.c ****     * 
 600:Generated_Source\PSoC4/BLE.c ****     *   Errors codes                      |  Description
ARM GAS  C:\Users\ADMINI~1.SC-\AppData\Local\Temp\ccSR5MnG.s 			page 22


 601:Generated_Source\PSoC4/BLE.c ****     *   --------------------------------- |  --------------------------------
 602:Generated_Source\PSoC4/BLE.c ****     *   CYBLE_ERROR_OK                    |  On successful operation.
 603:Generated_Source\PSoC4/BLE.c ****     *   CYBLE_ERROR_INVALID_PARAMETER     |  On passing an invalid parameter.
 604:Generated_Source\PSoC4/BLE.c ****     *   CYBLE_ERROR_INVALID_STATE         |  On calling this API not in Disconnected state.
 605:Generated_Source\PSoC4/BLE.c ****     *
 606:Generated_Source\PSoC4/BLE.c ****     * 
 607:Generated_Source\PSoC4/BLE.c ****     *******************************************************************************/
 608:Generated_Source\PSoC4/BLE.c ****     CYBLE_API_RESULT_T CyBle_GappStartAdvertisement(uint8 advertisingIntervalType)
 609:Generated_Source\PSoC4/BLE.c ****     {
 588              		.loc 1 609 0
 589              		.cfi_startproc
 590 0000 90B5     		push	{r4, r7, lr}
 591              		.cfi_def_cfa_offset 12
 592              		.cfi_offset 4, -12
 593              		.cfi_offset 7, -8
 594              		.cfi_offset 14, -4
 595 0002 85B0     		sub	sp, sp, #20
 596              		.cfi_def_cfa_offset 32
 597 0004 00AF     		add	r7, sp, #0
 598              		.cfi_def_cfa_register 7
 599 0006 021C     		mov	r2, r0
 600 0008 FB1D     		add	r3, r7, #7
 601 000a 1A70     		strb	r2, [r3]
 610:Generated_Source\PSoC4/BLE.c ****         CYBLE_API_RESULT_T apiResult;
 611:Generated_Source\PSoC4/BLE.c ****         
 612:Generated_Source\PSoC4/BLE.c ****         if(advertisingIntervalType > CYBLE_ADVERTISING_CUSTOM)
 602              		.loc 1 612 0
 603 000c FB1D     		add	r3, r7, #7
 604 000e 1B78     		ldrb	r3, [r3]
 605 0010 022B     		cmp	r3, #2
 606 0012 04D9     		bls	.L24
 613:Generated_Source\PSoC4/BLE.c ****         {
 614:Generated_Source\PSoC4/BLE.c ****             apiResult = CYBLE_ERROR_INVALID_PARAMETER;
 607              		.loc 1 614 0
 608 0014 0E23     		mov	r3, #14
 609 0016 FB18     		add	r3, r7, r3
 610 0018 0122     		mov	r2, #1
 611 001a 1A80     		strh	r2, [r3]
 612 001c 4BE0     		b	.L25
 613              	.L24:
 615:Generated_Source\PSoC4/BLE.c ****         }
 616:Generated_Source\PSoC4/BLE.c ****         else if((CYBLE_STATE_DISCONNECTED == CyBle_GetState()) && ((cyBle_eventHandlerFlag & CYBLE_
 614              		.loc 1 616 0
 615 001e 294B     		ldr	r3, .L31
 616 0020 1B78     		ldrb	r3, [r3]
 617 0022 042B     		cmp	r3, #4
 618 0024 42D1     		bne	.L26
 619              		.loc 1 616 0 is_stmt 0 discriminator 1
 620 0026 284B     		ldr	r3, .L31+4
 621 0028 1B78     		ldrb	r3, [r3]
 622 002a DBB2     		uxtb	r3, r3
 623 002c 1A1C     		mov	r2, r3
 624 002e 0423     		mov	r3, #4
 625 0030 1340     		and	r3, r2
 626 0032 3BD1     		bne	.L26
 617:Generated_Source\PSoC4/BLE.c ****         {   
 618:Generated_Source\PSoC4/BLE.c ****             if(advertisingIntervalType == CYBLE_ADVERTISING_FAST)
ARM GAS  C:\Users\ADMINI~1.SC-\AppData\Local\Temp\ccSR5MnG.s 			page 23


 627              		.loc 1 618 0 is_stmt 1
 628 0034 FB1D     		add	r3, r7, #7
 629 0036 1B78     		ldrb	r3, [r3]
 630 0038 002B     		cmp	r3, #0
 631 003a 0BD1     		bne	.L27
 619:Generated_Source\PSoC4/BLE.c ****             {
 620:Generated_Source\PSoC4/BLE.c ****                 cyBle_discoveryModeInfo.advTo = CYBLE_FAST_ADV_TIMEOUT;
 632              		.loc 1 620 0
 633 003c 234B     		ldr	r3, .L31+8
 634 003e 0A22     		mov	r2, #10
 635 0040 1A82     		strh	r2, [r3, #16]
 621:Generated_Source\PSoC4/BLE.c ****                 cyBle_discoveryModeInfo.advParam->advIntvMin = CYBLE_FAST_ADV_INT_MIN;
 636              		.loc 1 621 0
 637 0042 224B     		ldr	r3, .L31+8
 638 0044 5B68     		ldr	r3, [r3, #4]
 639 0046 2022     		mov	r2, #32
 640 0048 1A80     		strh	r2, [r3]
 622:Generated_Source\PSoC4/BLE.c ****                 cyBle_discoveryModeInfo.advParam->advIntvMax = CYBLE_FAST_ADV_INT_MAX;
 641              		.loc 1 622 0
 642 004a 204B     		ldr	r3, .L31+8
 643 004c 5B68     		ldr	r3, [r3, #4]
 644 004e 5022     		mov	r2, #80
 645 0050 5A80     		strh	r2, [r3, #2]
 646 0052 10E0     		b	.L28
 647              	.L27:
 623:Generated_Source\PSoC4/BLE.c ****             }
 624:Generated_Source\PSoC4/BLE.c ****             else if(advertisingIntervalType == CYBLE_ADVERTISING_SLOW)
 648              		.loc 1 624 0
 649 0054 FB1D     		add	r3, r7, #7
 650 0056 1B78     		ldrb	r3, [r3]
 651 0058 012B     		cmp	r3, #1
 652 005a 0CD1     		bne	.L28
 625:Generated_Source\PSoC4/BLE.c ****             {
 626:Generated_Source\PSoC4/BLE.c ****                 cyBle_discoveryModeInfo.advTo = CYBLE_SLOW_ADV_TIMEOUT;
 653              		.loc 1 626 0
 654 005c 1B4B     		ldr	r3, .L31+8
 655 005e 9622     		mov	r2, #150
 656 0060 1A82     		strh	r2, [r3, #16]
 627:Generated_Source\PSoC4/BLE.c ****                 cyBle_discoveryModeInfo.advParam->advIntvMin = CYBLE_SLOW_ADV_INT_MIN;
 657              		.loc 1 627 0
 658 0062 1A4B     		ldr	r3, .L31+8
 659 0064 5B68     		ldr	r3, [r3, #4]
 660 0066 C822     		mov	r2, #200
 661 0068 D200     		lsl	r2, r2, #3
 662 006a 1A80     		strh	r2, [r3]
 628:Generated_Source\PSoC4/BLE.c ****                 cyBle_discoveryModeInfo.advParam->advIntvMax = CYBLE_SLOW_ADV_INT_MAX;
 663              		.loc 1 628 0
 664 006c 174B     		ldr	r3, .L31+8
 665 006e 5B68     		ldr	r3, [r3, #4]
 666 0070 8022     		mov	r2, #128
 667 0072 D201     		lsl	r2, r2, #7
 668 0074 5A80     		strh	r2, [r3, #2]
 669              	.L28:
 629:Generated_Source\PSoC4/BLE.c ****             }       
 630:Generated_Source\PSoC4/BLE.c ****             else /* Do not update advertising intervals */
 631:Generated_Source\PSoC4/BLE.c ****             {
 632:Generated_Source\PSoC4/BLE.c ****             }
ARM GAS  C:\Users\ADMINI~1.SC-\AppData\Local\Temp\ccSR5MnG.s 			page 24


 633:Generated_Source\PSoC4/BLE.c ****             cyBle_advertisingIntervalType = advertisingIntervalType;
 670              		.loc 1 633 0
 671 0076 164B     		ldr	r3, .L31+12
 672 0078 FA1D     		add	r2, r7, #7
 673 007a 1278     		ldrb	r2, [r2]
 674 007c 1A70     		strb	r2, [r3]
 634:Generated_Source\PSoC4/BLE.c ****             apiResult = CyBle_GappEnterDiscoveryMode(&cyBle_discoveryModeInfo);
 675              		.loc 1 634 0
 676 007e 0E23     		mov	r3, #14
 677 0080 FC18     		add	r4, r7, r3
 678 0082 124B     		ldr	r3, .L31+8
 679 0084 181C     		mov	r0, r3
 680 0086 FFF7FEFF 		bl	CyBle_GappEnterDiscoveryMode
 681 008a 031C     		mov	r3, r0
 682 008c 2380     		strh	r3, [r4]
 635:Generated_Source\PSoC4/BLE.c ****         
 636:Generated_Source\PSoC4/BLE.c ****             if(CYBLE_ERROR_OK == apiResult)
 683              		.loc 1 636 0
 684 008e 0E23     		mov	r3, #14
 685 0090 FB18     		add	r3, r7, r3
 686 0092 1B88     		ldrh	r3, [r3]
 687 0094 002B     		cmp	r3, #0
 688 0096 08D1     		bne	.L29
 637:Generated_Source\PSoC4/BLE.c ****             {
 638:Generated_Source\PSoC4/BLE.c ****                 cyBle_eventHandlerFlag |= CYBLE_START_FLAG;
 689              		.loc 1 638 0
 690 0098 0B4B     		ldr	r3, .L31+4
 691 009a 1B78     		ldrb	r3, [r3]
 692 009c DBB2     		uxtb	r3, r3
 693 009e 0422     		mov	r2, #4
 694 00a0 1343     		orr	r3, r2
 695 00a2 DAB2     		uxtb	r2, r3
 696 00a4 084B     		ldr	r3, .L31+4
 697 00a6 1A70     		strb	r2, [r3]
 636:Generated_Source\PSoC4/BLE.c ****             {
 698              		.loc 1 636 0
 699 00a8 05E0     		b	.L25
 700              	.L29:
 701 00aa 04E0     		b	.L25
 702              	.L26:
 639:Generated_Source\PSoC4/BLE.c ****             }
 640:Generated_Source\PSoC4/BLE.c ****         }
 641:Generated_Source\PSoC4/BLE.c ****         else
 642:Generated_Source\PSoC4/BLE.c ****         {
 643:Generated_Source\PSoC4/BLE.c ****             apiResult = CYBLE_ERROR_INVALID_STATE;
 703              		.loc 1 643 0
 704 00ac 0E23     		mov	r3, #14
 705 00ae FB18     		add	r3, r7, r3
 706 00b0 0422     		mov	r2, #4
 707 00b2 FF32     		add	r2, r2, #255
 708 00b4 1A80     		strh	r2, [r3]
 709              	.L25:
 644:Generated_Source\PSoC4/BLE.c ****         }
 645:Generated_Source\PSoC4/BLE.c **** 
 646:Generated_Source\PSoC4/BLE.c ****         return (apiResult);
 710              		.loc 1 646 0
 711 00b6 0E23     		mov	r3, #14
ARM GAS  C:\Users\ADMINI~1.SC-\AppData\Local\Temp\ccSR5MnG.s 			page 25


 712 00b8 FB18     		add	r3, r7, r3
 713 00ba 1B88     		ldrh	r3, [r3]
 647:Generated_Source\PSoC4/BLE.c ****     }
 714              		.loc 1 647 0
 715 00bc 181C     		mov	r0, r3
 716 00be BD46     		mov	sp, r7
 717 00c0 05B0     		add	sp, sp, #20
 718              		@ sp needed
 719 00c2 90BD     		pop	{r4, r7, pc}
 720              	.L32:
 721              		.align	2
 722              	.L31:
 723 00c4 00000000 		.word	cyBle_state
 724 00c8 00000000 		.word	cyBle_eventHandlerFlag
 725 00cc 00000000 		.word	cyBle_discoveryModeInfo
 726 00d0 00000000 		.word	cyBle_advertisingIntervalType
 727              		.cfi_endproc
 728              	.LFE7:
 729              		.size	CyBle_GappStartAdvertisement, .-CyBle_GappStartAdvertisement
 730              		.section	.text.CyBle_GappStopAdvertisement,"ax",%progbits
 731              		.align	2
 732              		.global	CyBle_GappStopAdvertisement
 733              		.code	16
 734              		.thumb_func
 735              		.type	CyBle_GappStopAdvertisement, %function
 736              	CyBle_GappStopAdvertisement:
 737              	.LFB8:
 648:Generated_Source\PSoC4/BLE.c **** 
 649:Generated_Source\PSoC4/BLE.c ****     
 650:Generated_Source\PSoC4/BLE.c ****     /******************************************************************************
 651:Generated_Source\PSoC4/BLE.c ****     * Function Name: CyBle_GappStopAdvertisement
 652:Generated_Source\PSoC4/BLE.c ****     ***************************************************************************//**
 653:Generated_Source\PSoC4/BLE.c ****     * 
 654:Generated_Source\PSoC4/BLE.c ****     *   This function can be used to exit from discovery mode. After the execution 
 655:Generated_Source\PSoC4/BLE.c ****     *   of this function, there will no longer be any advertisements. On stopping 
 656:Generated_Source\PSoC4/BLE.c ****     *   advertising, GAP Peripheral receives CYBLE_EVT_GAPP_ADVERTISEMENT_START_STOP
 657:Generated_Source\PSoC4/BLE.c ****     *   event. It is expected that the application layer tracks the function call 
 658:Generated_Source\PSoC4/BLE.c ****     *   performed before occurrence of this event as this event can occur on making 
 659:Generated_Source\PSoC4/BLE.c ****     *   a call to Cy_BleGappStartAdvertisement(), CyBle_GappEnterDiscoveryMode(), 
 660:Generated_Source\PSoC4/BLE.c ****     *   or CyBle_GappStartAdvertisement() functions as well.
 661:Generated_Source\PSoC4/BLE.c ****     *   
 662:Generated_Source\PSoC4/BLE.c ****     *   The following event occurs on invoking this function:
 663:Generated_Source\PSoC4/BLE.c ****     *   * CYBLE_EVT_GAPP_ADVERTISEMENT_START_STOP
 664:Generated_Source\PSoC4/BLE.c ****     * 
 665:Generated_Source\PSoC4/BLE.c ****     *  \return
 666:Generated_Source\PSoC4/BLE.c ****     *   None
 667:Generated_Source\PSoC4/BLE.c ****     * 
 668:Generated_Source\PSoC4/BLE.c ****     *******************************************************************************/
 669:Generated_Source\PSoC4/BLE.c ****     void CyBle_GappStopAdvertisement(void)
 670:Generated_Source\PSoC4/BLE.c ****     {
 738              		.loc 1 670 0
 739              		.cfi_startproc
 740 0000 80B5     		push	{r7, lr}
 741              		.cfi_def_cfa_offset 8
 742              		.cfi_offset 7, -8
 743              		.cfi_offset 14, -4
 744 0002 00AF     		add	r7, sp, #0
ARM GAS  C:\Users\ADMINI~1.SC-\AppData\Local\Temp\ccSR5MnG.s 			page 26


 745              		.cfi_def_cfa_register 7
 671:Generated_Source\PSoC4/BLE.c ****         CyBle_GappExitDiscoveryMode();
 746              		.loc 1 671 0
 747 0004 FFF7FEFF 		bl	CyBle_GappExitDiscoveryMode
 672:Generated_Source\PSoC4/BLE.c ****         cyBle_eventHandlerFlag |= CYBLE_STOP_FLAG;
 748              		.loc 1 672 0
 749 0008 044B     		ldr	r3, .L34
 750 000a 1B78     		ldrb	r3, [r3]
 751 000c DBB2     		uxtb	r3, r3
 752 000e 0822     		mov	r2, #8
 753 0010 1343     		orr	r3, r2
 754 0012 DAB2     		uxtb	r2, r3
 755 0014 014B     		ldr	r3, .L34
 756 0016 1A70     		strb	r2, [r3]
 673:Generated_Source\PSoC4/BLE.c ****     }
 757              		.loc 1 673 0
 758 0018 BD46     		mov	sp, r7
 759              		@ sp needed
 760 001a 80BD     		pop	{r7, pc}
 761              	.L35:
 762              		.align	2
 763              	.L34:
 764 001c 00000000 		.word	cyBle_eventHandlerFlag
 765              		.cfi_endproc
 766              	.LFE8:
 767              		.size	CyBle_GappStopAdvertisement, .-CyBle_GappStopAdvertisement
 768              		.section	.text.CyBle_ChangeAdDeviceAddress,"ax",%progbits
 769              		.align	2
 770              		.global	CyBle_ChangeAdDeviceAddress
 771              		.code	16
 772              		.thumb_func
 773              		.type	CyBle_ChangeAdDeviceAddress, %function
 774              	CyBle_ChangeAdDeviceAddress:
 775              	.LFB9:
 674:Generated_Source\PSoC4/BLE.c ****     
 675:Generated_Source\PSoC4/BLE.c ****     
 676:Generated_Source\PSoC4/BLE.c ****     /******************************************************************************
 677:Generated_Source\PSoC4/BLE.c ****     * Function Name: CyBle_ChangeAdDeviceAddress
 678:Generated_Source\PSoC4/BLE.c ****     ***************************************************************************//**
 679:Generated_Source\PSoC4/BLE.c ****     * 
 680:Generated_Source\PSoC4/BLE.c ****     *  This API is used to set the Bluetooth device address into the advertisement 
 681:Generated_Source\PSoC4/BLE.c ****     *  or scan response data structure.
 682:Generated_Source\PSoC4/BLE.c ****     * 
 683:Generated_Source\PSoC4/BLE.c ****     *  \param bdAddr: Bluetooth Device address. The variable is of type CYBLE_GAP_BD_ADDR_T
 684:Generated_Source\PSoC4/BLE.c ****     *  \param dest: 0 - selects advertisement structure, not zero value selects scan 
 685:Generated_Source\PSoC4/BLE.c ****     *               response structure.
 686:Generated_Source\PSoC4/BLE.c ****     * 
 687:Generated_Source\PSoC4/BLE.c ****     * \return
 688:Generated_Source\PSoC4/BLE.c ****     *  None
 689:Generated_Source\PSoC4/BLE.c ****     *  
 690:Generated_Source\PSoC4/BLE.c ****     *******************************************************************************/
 691:Generated_Source\PSoC4/BLE.c ****     void CyBle_ChangeAdDeviceAddress(const CYBLE_GAP_BD_ADDR_T* bdAddr, uint8 dest)
 692:Generated_Source\PSoC4/BLE.c ****     {
 776              		.loc 1 692 0
 777              		.cfi_startproc
 778 0000 80B5     		push	{r7, lr}
 779              		.cfi_def_cfa_offset 8
ARM GAS  C:\Users\ADMINI~1.SC-\AppData\Local\Temp\ccSR5MnG.s 			page 27


 780              		.cfi_offset 7, -8
 781              		.cfi_offset 14, -4
 782 0002 84B0     		sub	sp, sp, #16
 783              		.cfi_def_cfa_offset 24
 784 0004 00AF     		add	r7, sp, #0
 785              		.cfi_def_cfa_register 7
 786 0006 7860     		str	r0, [r7, #4]
 787 0008 0A1C     		mov	r2, r1
 788 000a FB1C     		add	r3, r7, #3
 789 000c 1A70     		strb	r2, [r3]
 693:Generated_Source\PSoC4/BLE.c ****         uint8 i;
 694:Generated_Source\PSoC4/BLE.c ****         uint8 *destBuffer = NULL;
 790              		.loc 1 694 0
 791 000e 0023     		mov	r3, #0
 792 0010 BB60     		str	r3, [r7, #8]
 695:Generated_Source\PSoC4/BLE.c ****         
 696:Generated_Source\PSoC4/BLE.c ****         if(dest == 0u)      /* Destination - advertising structure */
 793              		.loc 1 696 0
 794 0012 FB1C     		add	r3, r7, #3
 795 0014 1B78     		ldrb	r3, [r3]
 796 0016 002B     		cmp	r3, #0
 797 0018 02D1     		bne	.L37
 697:Generated_Source\PSoC4/BLE.c ****         {
 698:Generated_Source\PSoC4/BLE.c ****             #ifdef CYBLE_ADV_PKT_INDEX_BLUETOOTH_DEVICE_ADDRESS
 699:Generated_Source\PSoC4/BLE.c ****                 destBuffer = &cyBle_discoveryData.advData[CYBLE_ADV_PKT_INDEX_BLUETOOTH_DEVICE_ADDR
 798              		.loc 1 699 0
 799 001a 164B     		ldr	r3, .L42
 800 001c BB60     		str	r3, [r7, #8]
 801 001e 01E0     		b	.L38
 802              	.L37:
 700:Generated_Source\PSoC4/BLE.c ****             #endif /* CYBLE_ADV_PKT_INDEX_BLUETOOTH_DEVICE_ADDRESS */
 701:Generated_Source\PSoC4/BLE.c ****         }
 702:Generated_Source\PSoC4/BLE.c ****         else                /* Destination - scan response structure */
 703:Generated_Source\PSoC4/BLE.c ****         {
 704:Generated_Source\PSoC4/BLE.c ****             #ifdef CYBLE_SCN_PKT_INDEX_BLUETOOTH_DEVICE_ADDRESS
 705:Generated_Source\PSoC4/BLE.c ****                 destBuffer = &cyBle_scanRspData.scanRspData[CYBLE_SCN_PKT_INDEX_BLUETOOTH_DEVICE_AD
 803              		.loc 1 705 0
 804 0020 154B     		ldr	r3, .L42+4
 805 0022 BB60     		str	r3, [r7, #8]
 806              	.L38:
 706:Generated_Source\PSoC4/BLE.c ****             #endif /* CYBLE_SCN_PKT_INDEX_BLUETOOTH_DEVICE_ADDRESS */    
 707:Generated_Source\PSoC4/BLE.c ****         }
 708:Generated_Source\PSoC4/BLE.c ****         
 709:Generated_Source\PSoC4/BLE.c ****         if(destBuffer != NULL)
 807              		.loc 1 709 0
 808 0024 BB68     		ldr	r3, [r7, #8]
 809 0026 002B     		cmp	r3, #0
 810 0028 20D0     		beq	.L36
 710:Generated_Source\PSoC4/BLE.c ****         {
 711:Generated_Source\PSoC4/BLE.c ****             /* Update Device Address type */
 712:Generated_Source\PSoC4/BLE.c ****             destBuffer[0u] = bdAddr->type;
 811              		.loc 1 712 0
 812 002a 7B68     		ldr	r3, [r7, #4]
 813 002c 9A79     		ldrb	r2, [r3, #6]
 814 002e BB68     		ldr	r3, [r7, #8]
 815 0030 1A70     		strb	r2, [r3]
 713:Generated_Source\PSoC4/BLE.c ****             
ARM GAS  C:\Users\ADMINI~1.SC-\AppData\Local\Temp\ccSR5MnG.s 			page 28


 714:Generated_Source\PSoC4/BLE.c ****             for(i = 0u; i < CYBLE_GAP_BD_ADDR_SIZE; i++)
 816              		.loc 1 714 0
 817 0032 0F23     		mov	r3, #15
 818 0034 FB18     		add	r3, r7, r3
 819 0036 0022     		mov	r2, #0
 820 0038 1A70     		strb	r2, [r3]
 821 003a 12E0     		b	.L40
 822              	.L41:
 715:Generated_Source\PSoC4/BLE.c ****             {
 716:Generated_Source\PSoC4/BLE.c ****                 destBuffer[i + 1u] = bdAddr->bdAddr[i];
 823              		.loc 1 716 0 discriminator 3
 824 003c 0F23     		mov	r3, #15
 825 003e FB18     		add	r3, r7, r3
 826 0040 1B78     		ldrb	r3, [r3]
 827 0042 0133     		add	r3, r3, #1
 828 0044 BA68     		ldr	r2, [r7, #8]
 829 0046 D318     		add	r3, r2, r3
 830 0048 0F22     		mov	r2, #15
 831 004a BA18     		add	r2, r7, r2
 832 004c 1278     		ldrb	r2, [r2]
 833 004e 7968     		ldr	r1, [r7, #4]
 834 0050 8A5C     		ldrb	r2, [r1, r2]
 835 0052 1A70     		strb	r2, [r3]
 714:Generated_Source\PSoC4/BLE.c ****             {
 836              		.loc 1 714 0 discriminator 3
 837 0054 0F23     		mov	r3, #15
 838 0056 FB18     		add	r3, r7, r3
 839 0058 1A78     		ldrb	r2, [r3]
 840 005a 0F23     		mov	r3, #15
 841 005c FB18     		add	r3, r7, r3
 842 005e 0132     		add	r2, r2, #1
 843 0060 1A70     		strb	r2, [r3]
 844              	.L40:
 714:Generated_Source\PSoC4/BLE.c ****             {
 845              		.loc 1 714 0 is_stmt 0 discriminator 1
 846 0062 0F23     		mov	r3, #15
 847 0064 FB18     		add	r3, r7, r3
 848 0066 1B78     		ldrb	r3, [r3]
 849 0068 052B     		cmp	r3, #5
 850 006a E7D9     		bls	.L41
 851              	.L36:
 717:Generated_Source\PSoC4/BLE.c ****             }
 718:Generated_Source\PSoC4/BLE.c ****         }
 719:Generated_Source\PSoC4/BLE.c ****     }
 852              		.loc 1 719 0 is_stmt 1
 853 006c BD46     		mov	sp, r7
 854 006e 04B0     		add	sp, sp, #16
 855              		@ sp needed
 856 0070 80BD     		pop	{r7, pc}
 857              	.L43:
 858 0072 C046     		.align	2
 859              	.L42:
 860 0074 13000000 		.word	cyBle_discoveryData+19
 861 0078 10000000 		.word	cyBle_scanRspData+16
 862              		.cfi_endproc
 863              	.LFE9:
 864              		.size	CyBle_ChangeAdDeviceAddress, .-CyBle_ChangeAdDeviceAddress
ARM GAS  C:\Users\ADMINI~1.SC-\AppData\Local\Temp\ccSR5MnG.s 			page 29


 865              		.section	.text.CyBle_ChangeAdLocalName,"ax",%progbits
 866              		.align	2
 867              		.code	16
 868              		.thumb_func
 869              		.type	CyBle_ChangeAdLocalName, %function
 870              	CyBle_ChangeAdLocalName:
 871              	.LFB10:
 720:Generated_Source\PSoC4/BLE.c ****   
 721:Generated_Source\PSoC4/BLE.c **** #endif /* CYBLE_GAP_ROLE_PERIPHERAL || CYBLE_GAP_ROLE_BROADCASTER */
 722:Generated_Source\PSoC4/BLE.c **** 
 723:Generated_Source\PSoC4/BLE.c **** 
 724:Generated_Source\PSoC4/BLE.c **** #if(CYBLE_GAP_ROLE_CENTRAL || CYBLE_GAP_ROLE_OBSERVER)
 725:Generated_Source\PSoC4/BLE.c **** 
 726:Generated_Source\PSoC4/BLE.c ****     /******************************************************************************
 727:Generated_Source\PSoC4/BLE.c ****     * Function Name: CyBle_GapcStartScan
 728:Generated_Source\PSoC4/BLE.c ****     ***************************************************************************//**
 729:Generated_Source\PSoC4/BLE.c ****     * 
 730:Generated_Source\PSoC4/BLE.c ****     *   This function is used for discovering GAP peripheral devices that are 
 731:Generated_Source\PSoC4/BLE.c ****     *   available for connection. It performs the scanning routine using the 
 732:Generated_Source\PSoC4/BLE.c ****     *   parameters entered in the component's customizer.
 733:Generated_Source\PSoC4/BLE.c ****     *   
 734:Generated_Source\PSoC4/BLE.c ****     *   As soon as the discovery operation starts, CYBLE_EVT_GAPC_SCAN_START_STOP 
 735:Generated_Source\PSoC4/BLE.c ****     *   event is generated. The CYBLE_EVT_GAPC_SCAN_PROGRESS_RESULT event is 
 736:Generated_Source\PSoC4/BLE.c ****     *   generated when a GAP peripheral device is located. There are three discovery
 737:Generated_Source\PSoC4/BLE.c ****     *   procedures can be selected in the customizer's GUI:
 738:Generated_Source\PSoC4/BLE.c ****     *   
 739:Generated_Source\PSoC4/BLE.c ****     *   * Observation procedure: A device performing the observer role receives only
 740:Generated_Source\PSoC4/BLE.c ****     *                            advertisement data from devices irrespective of 
 741:Generated_Source\PSoC4/BLE.c ****     *                            their discoverable mode settings. Advertisement 
 742:Generated_Source\PSoC4/BLE.c ****     *                            data received is provided by the event,      
 743:Generated_Source\PSoC4/BLE.c ****     *                            CYBLE_EVT_GAPC_SCAN_PROGRESS_RESULT. This procedure
 744:Generated_Source\PSoC4/BLE.c ****     *                            requires the scanType sub parameter to be passive
 745:Generated_Source\PSoC4/BLE.c ****     *                            scanning. 
 746:Generated_Source\PSoC4/BLE.c ****     *   
 747:Generated_Source\PSoC4/BLE.c ****     *   * Limited Discovery procedure: A device performing the limited discovery
 748:Generated_Source\PSoC4/BLE.c ****     *                                  procedure receives advertisement data and 
 749:Generated_Source\PSoC4/BLE.c ****     *                                  scan# response data from devices in the 
 750:Generated_Source\PSoC4/BLE.c ****     *                                  limited discoverable mode only. Received data
 751:Generated_Source\PSoC4/BLE.c ****     *                                  is provided by the event, 
 752:Generated_Source\PSoC4/BLE.c ****     *                                  CYBLE_EVT_GAPC_SCAN_PROGRESS_RESULT. This 
 753:Generated_Source\PSoC4/BLE.c ****     *                                  procedure requires the scanType sub-parameter 
 754:Generated_Source\PSoC4/BLE.c ****     *                                  to be active scanning.
 755:Generated_Source\PSoC4/BLE.c ****     *   
 756:Generated_Source\PSoC4/BLE.c ****     *   * General Discovery procedure: A device performing the general discovery 
 757:Generated_Source\PSoC4/BLE.c ****     *                                  procedure receives the advertisement data and
 758:Generated_Source\PSoC4/BLE.c ****     *                                  scan response data from devices in both 
 759:Generated_Source\PSoC4/BLE.c ****     *                                  limited discoverable mode and the general 
 760:Generated_Source\PSoC4/BLE.c ****     *                                  discoverable mode. Received data is provided
 761:Generated_Source\PSoC4/BLE.c ****     *                                  by the event,
 762:Generated_Source\PSoC4/BLE.c ****     *                                  CYBLE_EVT_GAPC_SCAN_PROGRESS_RESULT. This 
 763:Generated_Source\PSoC4/BLE.c ****     *                                  procedure requires the scanType sub-parameter
 764:Generated_Source\PSoC4/BLE.c ****     *                                  to be active scanning.
 765:Generated_Source\PSoC4/BLE.c ****     *   
 766:Generated_Source\PSoC4/BLE.c ****     *   Every Advertisement / Scan response packet received results in a new event, 
 767:Generated_Source\PSoC4/BLE.c ****     *   CYBLE_EVT_GAPC_SCAN_PROGRESS_RESULT.
 768:Generated_Source\PSoC4/BLE.c ****     *   If 'scanTo' sub-parameter is a non-zero value, then upon commencement of 
 769:Generated_Source\PSoC4/BLE.c ****     *   discovery procedure and elapsed time = 'scanTo', CYBLE_EVT_TIMEOUT event
ARM GAS  C:\Users\ADMINI~1.SC-\AppData\Local\Temp\ccSR5MnG.s 			page 30


 770:Generated_Source\PSoC4/BLE.c ****     *   is generated with the event parameter indicating CYBLE_GAP_SCAN_TO.
 771:Generated_Source\PSoC4/BLE.c ****     *   Possible generated events are:
 772:Generated_Source\PSoC4/BLE.c ****     *   * CYBLE_EVT_GAPC_SCAN_START_STOP: If a device started or stopped scanning. 
 773:Generated_Source\PSoC4/BLE.c ****     *                                     Use CyBle_GetState() to determine the 
 774:Generated_Source\PSoC4/BLE.c ****     *                                     state. Sequential scanning could be 
 775:Generated_Source\PSoC4/BLE.c ****     *                                     started when CYBLE_STATE_DISCONNECTED 
 776:Generated_Source\PSoC4/BLE.c ****     *                                     state is returned. 
 777:Generated_Source\PSoC4/BLE.c ****     *   * CYBLE_EVT_GAPC_SCAN_PROGRESS_RESULT 
 778:Generated_Source\PSoC4/BLE.c ****     *   * CYBLE_EVT_TIMEOUT (CYBLE_GAP_SCAN_TO)
 779:Generated_Source\PSoC4/BLE.c ****     * 
 780:Generated_Source\PSoC4/BLE.c ****     *   \param scanningIntervalType:  Fast or slow scanning interval with
 781:Generated_Source\PSoC4/BLE.c ****     *       timings entered in Scan settings section of the customizer.
 782:Generated_Source\PSoC4/BLE.c ****     * 	  * CYBLE_SCANNING_FAST   0x00u
 783:Generated_Source\PSoC4/BLE.c ****     * 	  * CYBLE_SCANNING_SLOW   0x01u
 784:Generated_Source\PSoC4/BLE.c ****     * 	  * CYBLE_SCANNING_CUSTOM 0x02u
 785:Generated_Source\PSoC4/BLE.c ****     * 
 786:Generated_Source\PSoC4/BLE.c ****     * \return
 787:Generated_Source\PSoC4/BLE.c ****     *  CYBLE_API_RESULT_T : Return value indicates if the function succeeded or
 788:Generated_Source\PSoC4/BLE.c ****     *  failed. Following are the possible error codes.
 789:Generated_Source\PSoC4/BLE.c ****     *
 790:Generated_Source\PSoC4/BLE.c ****     *   Errors codes                       | Description
 791:Generated_Source\PSoC4/BLE.c ****     *   ---------------------------------- | -----------------------------------
 792:Generated_Source\PSoC4/BLE.c ****     *   CYBLE_ERROR_OK                     | On successful operation.
 793:Generated_Source\PSoC4/BLE.c ****     *   CYBLE_ERROR_STACK_INTERNAL         | An error occurred in the BLE stack.
 794:Generated_Source\PSoC4/BLE.c ****     *   CYBLE_ERROR_INVALID_PARAMETER      | On passing an invalid parameter.
 795:Generated_Source\PSoC4/BLE.c ****     *  
 796:Generated_Source\PSoC4/BLE.c ****     *******************************************************************************/
 797:Generated_Source\PSoC4/BLE.c ****     CYBLE_API_RESULT_T CyBle_GapcStartScan(uint8 scanningIntervalType)
 798:Generated_Source\PSoC4/BLE.c ****     {
 799:Generated_Source\PSoC4/BLE.c ****         CYBLE_API_RESULT_T apiResult;
 800:Generated_Source\PSoC4/BLE.c **** 
 801:Generated_Source\PSoC4/BLE.c ****         if(scanningIntervalType > CYBLE_SCANNING_CUSTOM)
 802:Generated_Source\PSoC4/BLE.c ****         {
 803:Generated_Source\PSoC4/BLE.c ****             apiResult = CYBLE_ERROR_INVALID_PARAMETER;
 804:Generated_Source\PSoC4/BLE.c ****         }
 805:Generated_Source\PSoC4/BLE.c ****         else
 806:Generated_Source\PSoC4/BLE.c ****         {
 807:Generated_Source\PSoC4/BLE.c ****             if(scanningIntervalType == CYBLE_SCANNING_FAST)
 808:Generated_Source\PSoC4/BLE.c ****             {
 809:Generated_Source\PSoC4/BLE.c ****                 cyBle_discoveryInfo.scanTo = CYBLE_FAST_SCAN_TIMEOUT;
 810:Generated_Source\PSoC4/BLE.c ****                 cyBle_discoveryInfo.scanIntv = CYBLE_FAST_SCAN_INTERVAL;
 811:Generated_Source\PSoC4/BLE.c ****                 cyBle_discoveryInfo.scanWindow = CYBLE_FAST_SCAN_WINDOW;
 812:Generated_Source\PSoC4/BLE.c ****             }
 813:Generated_Source\PSoC4/BLE.c ****             else if(scanningIntervalType == CYBLE_SCANNING_SLOW)
 814:Generated_Source\PSoC4/BLE.c ****             {
 815:Generated_Source\PSoC4/BLE.c ****                 cyBle_discoveryInfo.scanTo = CYBLE_SLOW_SCAN_TIMEOUT;
 816:Generated_Source\PSoC4/BLE.c ****                 cyBle_discoveryInfo.scanIntv = CYBLE_SLOW_SCAN_INTERVAL;
 817:Generated_Source\PSoC4/BLE.c ****                 cyBle_discoveryInfo.scanWindow = CYBLE_SLOW_SCAN_WINDOW;
 818:Generated_Source\PSoC4/BLE.c ****             }       
 819:Generated_Source\PSoC4/BLE.c ****             else /* Do not update scanning intervals */
 820:Generated_Source\PSoC4/BLE.c ****             {
 821:Generated_Source\PSoC4/BLE.c ****             }
 822:Generated_Source\PSoC4/BLE.c ****             
 823:Generated_Source\PSoC4/BLE.c ****             cyBle_scanningIntervalType = scanningIntervalType;
 824:Generated_Source\PSoC4/BLE.c ****             apiResult = CyBle_GapcStartDiscovery(&cyBle_discoveryInfo);
 825:Generated_Source\PSoC4/BLE.c ****         
 826:Generated_Source\PSoC4/BLE.c ****             if(CYBLE_ERROR_OK == apiResult)
ARM GAS  C:\Users\ADMINI~1.SC-\AppData\Local\Temp\ccSR5MnG.s 			page 31


 827:Generated_Source\PSoC4/BLE.c ****             {
 828:Generated_Source\PSoC4/BLE.c ****                 cyBle_eventHandlerFlag |= CYBLE_START_FLAG;
 829:Generated_Source\PSoC4/BLE.c ****             }
 830:Generated_Source\PSoC4/BLE.c ****         }
 831:Generated_Source\PSoC4/BLE.c ****        
 832:Generated_Source\PSoC4/BLE.c ****         return (apiResult);
 833:Generated_Source\PSoC4/BLE.c ****     }
 834:Generated_Source\PSoC4/BLE.c ****     
 835:Generated_Source\PSoC4/BLE.c ****     
 836:Generated_Source\PSoC4/BLE.c ****     /******************************************************************************
 837:Generated_Source\PSoC4/BLE.c ****     * Function Name: CyBle_GapcStopScan
 838:Generated_Source\PSoC4/BLE.c ****     ***************************************************************************//**
 839:Generated_Source\PSoC4/BLE.c ****     * 
 840:Generated_Source\PSoC4/BLE.c ****     *   This function used to stop the discovery of devices. On stopping discovery
 841:Generated_Source\PSoC4/BLE.c ****     *   operation, CYBLE_EVT_GAPC_SCAN_START_STOP event is generated. Application
 842:Generated_Source\PSoC4/BLE.c ****     *   layer needs to keep track of the function call made before receiving this
 843:Generated_Source\PSoC4/BLE.c ****     *   event to associate this event with either the start or stop discovery
 844:Generated_Source\PSoC4/BLE.c ****     *   function.
 845:Generated_Source\PSoC4/BLE.c ****     * 
 846:Generated_Source\PSoC4/BLE.c ****     *   Possible events generated are:
 847:Generated_Source\PSoC4/BLE.c ****     *    * CYBLE_EVT_GAPC_SCAN_START_STOP
 848:Generated_Source\PSoC4/BLE.c ****     * 
 849:Generated_Source\PSoC4/BLE.c ****     *  \return
 850:Generated_Source\PSoC4/BLE.c ****     *   None
 851:Generated_Source\PSoC4/BLE.c ****     * 
 852:Generated_Source\PSoC4/BLE.c ****     *******************************************************************************/
 853:Generated_Source\PSoC4/BLE.c ****     void CyBle_GapcStopScan(void)
 854:Generated_Source\PSoC4/BLE.c ****     {
 855:Generated_Source\PSoC4/BLE.c ****         CyBle_GapcStopDiscovery();
 856:Generated_Source\PSoC4/BLE.c ****         
 857:Generated_Source\PSoC4/BLE.c ****         cyBle_eventHandlerFlag |= CYBLE_STOP_FLAG;
 858:Generated_Source\PSoC4/BLE.c ****     }
 859:Generated_Source\PSoC4/BLE.c **** 
 860:Generated_Source\PSoC4/BLE.c ****     
 861:Generated_Source\PSoC4/BLE.c **** #endif /* CYBLE_GAP_ROLE_CENTRAL || CYBLE_GAP_ROLE_OBSERVER */
 862:Generated_Source\PSoC4/BLE.c **** 
 863:Generated_Source\PSoC4/BLE.c **** 
 864:Generated_Source\PSoC4/BLE.c **** #if(CYBLE_GAP_ROLE_CENTRAL)
 865:Generated_Source\PSoC4/BLE.c **** 
 866:Generated_Source\PSoC4/BLE.c ****     /******************************************************************************
 867:Generated_Source\PSoC4/BLE.c ****     * Function Name: CyBle_GapcConnectDevice
 868:Generated_Source\PSoC4/BLE.c ****     ***************************************************************************//**
 869:Generated_Source\PSoC4/BLE.c ****     * 
 870:Generated_Source\PSoC4/BLE.c ****     *  This function is used to send a connection request to the remote device with
 871:Generated_Source\PSoC4/BLE.c ****     *  the connection parameters set in the component customizer. This function needs
 872:Generated_Source\PSoC4/BLE.c ****     *  to be called only once after the target device is discovered by 
 873:Generated_Source\PSoC4/BLE.c ****     *  CyBle_GapcStartScan() and further scanning has stopped. Scanning is 
 874:Generated_Source\PSoC4/BLE.c ****     *  successfully stopped on invoking CyBle_GapcStopScan() and then receiving the
 875:Generated_Source\PSoC4/BLE.c ****     *  event CYBLE_EVT_GAPC_SCAN_START_STOP with sub-parameter 'success' = 0x01u.
 876:Generated_Source\PSoC4/BLE.c ****     *  
 877:Generated_Source\PSoC4/BLE.c ****     *  On successful connection, the following events are generated at the GAP 
 878:Generated_Source\PSoC4/BLE.c ****     *  Central device (as well as the GAP Peripheral device), in the following order.
 879:Generated_Source\PSoC4/BLE.c ****     *  * CYBLE_EVT_GATT_CONNECT_IND
 880:Generated_Source\PSoC4/BLE.c ****     *  * CYBLE_EVT_GAP_DEVICE_CONNECTED
 881:Generated_Source\PSoC4/BLE.c ****     *  
 882:Generated_Source\PSoC4/BLE.c ****     *  A procedure is considered to have timed out if a connection response packet is 
 883:Generated_Source\PSoC4/BLE.c ****     *  not received within time set by cyBle_connectingTimeout global variable
ARM GAS  C:\Users\ADMINI~1.SC-\AppData\Local\Temp\ccSR5MnG.s 			page 32


 884:Generated_Source\PSoC4/BLE.c ****     *  (30 seconds by default). CYBLE_EVT_TIMEOUT event with CYBLE_GENERIC_TO parameter
 885:Generated_Source\PSoC4/BLE.c ****     *  will indicate about connection procedure timeout. Connection will automatically
 886:Generated_Source\PSoC4/BLE.c ****     *  be canceled and state will be changed to CYBLE_STATE_DISCONNECTED.
 887:Generated_Source\PSoC4/BLE.c ****     * 
 888:Generated_Source\PSoC4/BLE.c ****     *  \param address: The device address of the remote device to connect to. 
 889:Generated_Source\PSoC4/BLE.c ****     *  \param timeout: Timeout for which timer to be started in seconds.
 890:Generated_Source\PSoC4/BLE.c ****     *  
 891:Generated_Source\PSoC4/BLE.c ****     * \return
 892:Generated_Source\PSoC4/BLE.c ****     *  CYBLE_API_RESULT_T : Return value indicates if the function succeeded or 
 893:Generated_Source\PSoC4/BLE.c ****     *  failed. Following are the possible error codes.
 894:Generated_Source\PSoC4/BLE.c ****     *
 895:Generated_Source\PSoC4/BLE.c ****     *   Errors codes                       | Description
 896:Generated_Source\PSoC4/BLE.c ****     *   ------------                       | -----------
 897:Generated_Source\PSoC4/BLE.c ****     *   CYBLE_ERROR_OK                     | On successful operation.
 898:Generated_Source\PSoC4/BLE.c ****     *   CYBLE_ERROR_STACK_INTERNAL         | On error occurred in the BLE stack.
 899:Generated_Source\PSoC4/BLE.c ****     *   CYBLE_ERROR_INVALID_PARAMETER      | On passing an invalid parameter.
 900:Generated_Source\PSoC4/BLE.c ****     *   CYBLE_ERROR_INVALID_STATE          | On calling this API not in Disconnected state.
 901:Generated_Source\PSoC4/BLE.c ****     *  
 902:Generated_Source\PSoC4/BLE.c ****     ******************************************************************************/
 903:Generated_Source\PSoC4/BLE.c ****     CYBLE_API_RESULT_T CyBle_GapcConnectDevice(const CYBLE_GAP_BD_ADDR_T * address)
 904:Generated_Source\PSoC4/BLE.c ****     {
 905:Generated_Source\PSoC4/BLE.c ****         CYBLE_API_RESULT_T apiResult;
 906:Generated_Source\PSoC4/BLE.c ****         uint8 i;
 907:Generated_Source\PSoC4/BLE.c **** 
 908:Generated_Source\PSoC4/BLE.c ****         if(CYBLE_STATE_DISCONNECTED != CyBle_GetState())
 909:Generated_Source\PSoC4/BLE.c ****         {
 910:Generated_Source\PSoC4/BLE.c ****             apiResult = CYBLE_ERROR_INVALID_STATE;
 911:Generated_Source\PSoC4/BLE.c ****         }
 912:Generated_Source\PSoC4/BLE.c ****         else if(address == NULL)
 913:Generated_Source\PSoC4/BLE.c ****         {
 914:Generated_Source\PSoC4/BLE.c ****             apiResult = CYBLE_ERROR_INVALID_PARAMETER;
 915:Generated_Source\PSoC4/BLE.c ****         }
 916:Generated_Source\PSoC4/BLE.c ****         else
 917:Generated_Source\PSoC4/BLE.c ****         {
 918:Generated_Source\PSoC4/BLE.c ****             for(i = 0u; i < CYBLE_GAP_BD_ADDR_SIZE; i++)
 919:Generated_Source\PSoC4/BLE.c ****             {
 920:Generated_Source\PSoC4/BLE.c ****                 cyBle_connectionParameters.peerBdAddr[i] = address->bdAddr[i];
 921:Generated_Source\PSoC4/BLE.c ****             }
 922:Generated_Source\PSoC4/BLE.c ****             cyBle_connectionParameters.peerAddrType = address -> type;
 923:Generated_Source\PSoC4/BLE.c ****             apiResult = CyBle_GapcInitConnection(&cyBle_connectionParameters);
 924:Generated_Source\PSoC4/BLE.c ****             
 925:Generated_Source\PSoC4/BLE.c ****             if(CYBLE_ERROR_OK == apiResult)
 926:Generated_Source\PSoC4/BLE.c ****             {
 927:Generated_Source\PSoC4/BLE.c ****                 CyBle_SetState(CYBLE_STATE_CONNECTING);
 928:Generated_Source\PSoC4/BLE.c ****                 if(cyBle_connectingTimeout != 0u)
 929:Generated_Source\PSoC4/BLE.c ****                 {
 930:Generated_Source\PSoC4/BLE.c ****                     (void)CyBle_StartTimer(cyBle_connectingTimeout);
 931:Generated_Source\PSoC4/BLE.c ****                 }
 932:Generated_Source\PSoC4/BLE.c ****             }
 933:Generated_Source\PSoC4/BLE.c ****         }
 934:Generated_Source\PSoC4/BLE.c ****         return (apiResult);
 935:Generated_Source\PSoC4/BLE.c ****     }
 936:Generated_Source\PSoC4/BLE.c ****     
 937:Generated_Source\PSoC4/BLE.c **** 
 938:Generated_Source\PSoC4/BLE.c ****     /******************************************************************************
 939:Generated_Source\PSoC4/BLE.c ****     * Function Name: CyBle_GapcCancelDeviceConnection
 940:Generated_Source\PSoC4/BLE.c ****     ***************************************************************************//**
ARM GAS  C:\Users\ADMINI~1.SC-\AppData\Local\Temp\ccSR5MnG.s 			page 33


 941:Generated_Source\PSoC4/BLE.c ****     * 
 942:Generated_Source\PSoC4/BLE.c ****     *  This function cancels a previously initiated connection with the remote 
 943:Generated_Source\PSoC4/BLE.c ****     *  device. It is a blocking function. No event is generated on calling this 
 944:Generated_Source\PSoC4/BLE.c ****     *  function. If the devices are already connected then this function should not
 945:Generated_Source\PSoC4/BLE.c ****     *  be used. If you intend to disconnect from an existing connection, the function
 946:Generated_Source\PSoC4/BLE.c ****     *  CyBle_GapDisconnect() should be used.
 947:Generated_Source\PSoC4/BLE.c ****     * 
 948:Generated_Source\PSoC4/BLE.c ****     * \return
 949:Generated_Source\PSoC4/BLE.c ****     *  CYBLE_API_RESULT_T : Return value indicates if the function succeeded or 
 950:Generated_Source\PSoC4/BLE.c ****     *  failed. Following are the possible error codes.
 951:Generated_Source\PSoC4/BLE.c ****     *
 952:Generated_Source\PSoC4/BLE.c ****     *   Errors codes                       | Description
 953:Generated_Source\PSoC4/BLE.c ****     *   ---------------------------------- | --------------------------------------
 954:Generated_Source\PSoC4/BLE.c ****     *   CYBLE_ERROR_OK                     | On successful operation.
 955:Generated_Source\PSoC4/BLE.c ****     *   CYBLE_ERROR_STACK_INTERNAL         | An error occurred in the BLE stack.
 956:Generated_Source\PSoC4/BLE.c ****     *   CYBLE_ERROR_INVALID_OPERATION      | Device is already connected.
 957:Generated_Source\PSoC4/BLE.c ****     *  
 958:Generated_Source\PSoC4/BLE.c ****     *******************************************************************************/
 959:Generated_Source\PSoC4/BLE.c ****     CYBLE_API_RESULT_T CyBle_GapcCancelDeviceConnection(void)
 960:Generated_Source\PSoC4/BLE.c ****     {
 961:Generated_Source\PSoC4/BLE.c ****         CYBLE_API_RESULT_T apiResult;
 962:Generated_Source\PSoC4/BLE.c ****         
 963:Generated_Source\PSoC4/BLE.c ****         apiResult = CyBle_GapcCancelConnection();
 964:Generated_Source\PSoC4/BLE.c ****             
 965:Generated_Source\PSoC4/BLE.c ****         if(cyBle_connectingTimeout != 0u)
 966:Generated_Source\PSoC4/BLE.c ****         {
 967:Generated_Source\PSoC4/BLE.c ****             (void)CyBle_StopTimer();
 968:Generated_Source\PSoC4/BLE.c ****         }
 969:Generated_Source\PSoC4/BLE.c **** 
 970:Generated_Source\PSoC4/BLE.c ****         if(CYBLE_ERROR_OK == apiResult)
 971:Generated_Source\PSoC4/BLE.c ****         {
 972:Generated_Source\PSoC4/BLE.c ****             CyBle_SetState(CYBLE_STATE_DISCONNECTED);
 973:Generated_Source\PSoC4/BLE.c ****         }
 974:Generated_Source\PSoC4/BLE.c ****         return (apiResult);
 975:Generated_Source\PSoC4/BLE.c ****     }    
 976:Generated_Source\PSoC4/BLE.c **** 
 977:Generated_Source\PSoC4/BLE.c ****     
 978:Generated_Source\PSoC4/BLE.c **** #endif /* CYBLE_GAP_ROLE_CENTRAL */
 979:Generated_Source\PSoC4/BLE.c **** 
 980:Generated_Source\PSoC4/BLE.c **** 
 981:Generated_Source\PSoC4/BLE.c **** #if(CYBLE_GATT_ROLE_SERVER)
 982:Generated_Source\PSoC4/BLE.c **** 
 983:Generated_Source\PSoC4/BLE.c **** #if(CYBLE_GAP_ROLE_PERIPHERAL)
 984:Generated_Source\PSoC4/BLE.c **** 
 985:Generated_Source\PSoC4/BLE.c ****         /******************************************************************************
 986:Generated_Source\PSoC4/BLE.c ****         * Function Name: CyBle_ChangeAdLocalName
 987:Generated_Source\PSoC4/BLE.c ****         ***************************************************************************//**
 988:Generated_Source\PSoC4/BLE.c ****         *  This API is used to set the local device name in the advertisement or scan 
 989:Generated_Source\PSoC4/BLE.c ****         *  response data structure.
 990:Generated_Source\PSoC4/BLE.c ****         * 
 991:Generated_Source\PSoC4/BLE.c ****         *  \param name: The local device name string to be set in advertisement data 
 992:Generated_Source\PSoC4/BLE.c ****         *            structure.
 993:Generated_Source\PSoC4/BLE.c ****         *  \param dest: 0 - advertisement structure, not zero value selects scan response
 994:Generated_Source\PSoC4/BLE.c ****         *              structure.
 995:Generated_Source\PSoC4/BLE.c ****         * 
 996:Generated_Source\PSoC4/BLE.c ****         * \return
 997:Generated_Source\PSoC4/BLE.c ****         *  None
ARM GAS  C:\Users\ADMINI~1.SC-\AppData\Local\Temp\ccSR5MnG.s 			page 34


 998:Generated_Source\PSoC4/BLE.c ****         *  
 999:Generated_Source\PSoC4/BLE.c ****         *******************************************************************************/
1000:Generated_Source\PSoC4/BLE.c ****         static void CyBle_ChangeAdLocalName(const char8 name[], uint8 dest)
1001:Generated_Source\PSoC4/BLE.c ****         {
 872              		.loc 1 1001 0
 873              		.cfi_startproc
 874 0000 80B5     		push	{r7, lr}
 875              		.cfi_def_cfa_offset 8
 876              		.cfi_offset 7, -8
 877              		.cfi_offset 14, -4
 878 0002 86B0     		sub	sp, sp, #24
 879              		.cfi_def_cfa_offset 32
 880 0004 00AF     		add	r7, sp, #0
 881              		.cfi_def_cfa_register 7
 882 0006 7860     		str	r0, [r7, #4]
 883 0008 0A1C     		mov	r2, r1
 884 000a FB1C     		add	r3, r7, #3
 885 000c 1A70     		strb	r2, [r3]
1002:Generated_Source\PSoC4/BLE.c ****             uint8 i;
1003:Generated_Source\PSoC4/BLE.c ****             uint8 flag = 0u;
 886              		.loc 1 1003 0
 887 000e 1623     		mov	r3, #22
 888 0010 FB18     		add	r3, r7, r3
 889 0012 0022     		mov	r2, #0
 890 0014 1A70     		strb	r2, [r3]
1004:Generated_Source\PSoC4/BLE.c ****             uint8 adLength = 0u;
 891              		.loc 1 1004 0
 892 0016 1523     		mov	r3, #21
 893 0018 FB18     		add	r3, r7, r3
 894 001a 0022     		mov	r2, #0
 895 001c 1A70     		strb	r2, [r3]
1005:Generated_Source\PSoC4/BLE.c ****             uint8 byteCounter = 0u;
 896              		.loc 1 1005 0
 897 001e 1423     		mov	r3, #20
 898 0020 FB18     		add	r3, r7, r3
 899 0022 0022     		mov	r2, #0
 900 0024 1A70     		strb	r2, [r3]
1006:Generated_Source\PSoC4/BLE.c ****             uint8 *destBuffer;
1007:Generated_Source\PSoC4/BLE.c ****             uint8 maxLength;
1008:Generated_Source\PSoC4/BLE.c ****             
1009:Generated_Source\PSoC4/BLE.c ****             if(dest == 0u)      /* Destination - advertising structure */
 901              		.loc 1 1009 0
 902 0026 FB1C     		add	r3, r7, #3
 903 0028 1B78     		ldrb	r3, [r3]
 904 002a 002B     		cmp	r3, #0
 905 002c 07D1     		bne	.L45
1010:Generated_Source\PSoC4/BLE.c ****             {
1011:Generated_Source\PSoC4/BLE.c ****                 destBuffer = cyBle_discoveryData.advData;
 906              		.loc 1 1011 0
 907 002e 5B4B     		ldr	r3, .L60
 908 0030 3B61     		str	r3, [r7, #16]
1012:Generated_Source\PSoC4/BLE.c ****                 maxLength = cyBle_discoveryData.advDataLen;
 909              		.loc 1 1012 0
 910 0032 0F23     		mov	r3, #15
 911 0034 FB18     		add	r3, r7, r3
 912 0036 594A     		ldr	r2, .L60
 913 0038 D27F     		ldrb	r2, [r2, #31]
ARM GAS  C:\Users\ADMINI~1.SC-\AppData\Local\Temp\ccSR5MnG.s 			page 35


 914 003a 1A70     		strb	r2, [r3]
 915 003c 06E0     		b	.L46
 916              	.L45:
1013:Generated_Source\PSoC4/BLE.c ****             }
1014:Generated_Source\PSoC4/BLE.c ****             else                /* Destination - scan response structure */
1015:Generated_Source\PSoC4/BLE.c ****             {
1016:Generated_Source\PSoC4/BLE.c ****                 destBuffer = cyBle_scanRspData.scanRspData;
 917              		.loc 1 1016 0
 918 003e 584B     		ldr	r3, .L60+4
 919 0040 3B61     		str	r3, [r7, #16]
1017:Generated_Source\PSoC4/BLE.c ****                 maxLength = cyBle_scanRspData.scanRspDataLen;
 920              		.loc 1 1017 0
 921 0042 0F23     		mov	r3, #15
 922 0044 FB18     		add	r3, r7, r3
 923 0046 564A     		ldr	r2, .L60+4
 924 0048 D27F     		ldrb	r2, [r2, #31]
 925 004a 1A70     		strb	r2, [r3]
 926              	.L46:
1018:Generated_Source\PSoC4/BLE.c ****             }
1019:Generated_Source\PSoC4/BLE.c ****             
1020:Generated_Source\PSoC4/BLE.c ****             while((byteCounter < maxLength) && (0u == flag))
 927              		.loc 1 1020 0
 928 004c 35E0     		b	.L47
 929              	.L53:
1021:Generated_Source\PSoC4/BLE.c ****             {
1022:Generated_Source\PSoC4/BLE.c ****                 adLength = destBuffer[byteCounter];
 930              		.loc 1 1022 0
 931 004e 1423     		mov	r3, #20
 932 0050 FB18     		add	r3, r7, r3
 933 0052 1B78     		ldrb	r3, [r3]
 934 0054 3A69     		ldr	r2, [r7, #16]
 935 0056 D218     		add	r2, r2, r3
 936 0058 1523     		mov	r3, #21
 937 005a FB18     		add	r3, r7, r3
 938 005c 1278     		ldrb	r2, [r2]
 939 005e 1A70     		strb	r2, [r3]
1023:Generated_Source\PSoC4/BLE.c ****                 
1024:Generated_Source\PSoC4/BLE.c ****                 if(0u != adLength)
 940              		.loc 1 1024 0
 941 0060 1523     		mov	r3, #21
 942 0062 FB18     		add	r3, r7, r3
 943 0064 1B78     		ldrb	r3, [r3]
 944 0066 002B     		cmp	r3, #0
 945 0068 26D0     		beq	.L48
1025:Generated_Source\PSoC4/BLE.c ****                 {
1026:Generated_Source\PSoC4/BLE.c ****                     /* Increment byte counter so it can point to AD type */
1027:Generated_Source\PSoC4/BLE.c ****                     byteCounter++;
 946              		.loc 1 1027 0
 947 006a 1423     		mov	r3, #20
 948 006c FB18     		add	r3, r7, r3
 949 006e 1A78     		ldrb	r2, [r3]
 950 0070 1423     		mov	r3, #20
 951 0072 FB18     		add	r3, r7, r3
 952 0074 0132     		add	r2, r2, #1
 953 0076 1A70     		strb	r2, [r3]
1028:Generated_Source\PSoC4/BLE.c ****                     
1029:Generated_Source\PSoC4/BLE.c ****                     if((CYBLE_SHORT_LOCAL_NAME == destBuffer[byteCounter]) || 
ARM GAS  C:\Users\ADMINI~1.SC-\AppData\Local\Temp\ccSR5MnG.s 			page 36


 954              		.loc 1 1029 0
 955 0078 1423     		mov	r3, #20
 956 007a FB18     		add	r3, r7, r3
 957 007c 1B78     		ldrb	r3, [r3]
 958 007e 3A69     		ldr	r2, [r7, #16]
 959 0080 D318     		add	r3, r2, r3
 960 0082 1B78     		ldrb	r3, [r3]
 961 0084 082B     		cmp	r3, #8
 962 0086 07D0     		beq	.L49
1030:Generated_Source\PSoC4/BLE.c ****                        (CYBLE_COMPLETE_LOCAL_NAME == destBuffer[byteCounter]))
 963              		.loc 1 1030 0 discriminator 1
 964 0088 1423     		mov	r3, #20
 965 008a FB18     		add	r3, r7, r3
 966 008c 1B78     		ldrb	r3, [r3]
 967 008e 3A69     		ldr	r2, [r7, #16]
 968 0090 D318     		add	r3, r2, r3
 969 0092 1B78     		ldrb	r3, [r3]
1029:Generated_Source\PSoC4/BLE.c ****                        (CYBLE_COMPLETE_LOCAL_NAME == destBuffer[byteCounter]))
 970              		.loc 1 1029 0 discriminator 1
 971 0094 092B     		cmp	r3, #9
 972 0096 04D1     		bne	.L50
 973              	.L49:
1031:Generated_Source\PSoC4/BLE.c ****                     {
1032:Generated_Source\PSoC4/BLE.c ****                         /* Start of the Local Name AD type was fount. Set flag and exit the loop. *
1033:Generated_Source\PSoC4/BLE.c ****                         flag = 1u;
 974              		.loc 1 1033 0
 975 0098 1623     		mov	r3, #22
 976 009a FB18     		add	r3, r7, r3
 977 009c 0122     		mov	r2, #1
 978 009e 1A70     		strb	r2, [r3]
 979 00a0 09E0     		b	.L51
 980              	.L50:
1034:Generated_Source\PSoC4/BLE.c ****                     }
1035:Generated_Source\PSoC4/BLE.c ****                     else
1036:Generated_Source\PSoC4/BLE.c ****                     {
1037:Generated_Source\PSoC4/BLE.c ****                         byteCounter += adLength;
 981              		.loc 1 1037 0
 982 00a2 1423     		mov	r3, #20
 983 00a4 FB18     		add	r3, r7, r3
 984 00a6 1422     		mov	r2, #20
 985 00a8 B918     		add	r1, r7, r2
 986 00aa 1522     		mov	r2, #21
 987 00ac BA18     		add	r2, r7, r2
 988 00ae 0978     		ldrb	r1, [r1]
 989 00b0 1278     		ldrb	r2, [r2]
 990 00b2 8A18     		add	r2, r1, r2
 991 00b4 1A70     		strb	r2, [r3]
 992              	.L51:
 993 00b6 00E0     		b	.L47
 994              	.L48:
1038:Generated_Source\PSoC4/BLE.c ****                     }
1039:Generated_Source\PSoC4/BLE.c ****                 }
1040:Generated_Source\PSoC4/BLE.c ****                 else
1041:Generated_Source\PSoC4/BLE.c ****                 {
1042:Generated_Source\PSoC4/BLE.c ****                     /* The end of advertisement data structure was encountered though exit the loop
1043:Generated_Source\PSoC4/BLE.c ****                     break;
 995              		.loc 1 1043 0
ARM GAS  C:\Users\ADMINI~1.SC-\AppData\Local\Temp\ccSR5MnG.s 			page 37


 996 00b8 0CE0     		b	.L52
 997              	.L47:
1020:Generated_Source\PSoC4/BLE.c ****             {
 998              		.loc 1 1020 0
 999 00ba 1423     		mov	r3, #20
 1000 00bc FA18     		add	r2, r7, r3
 1001 00be 0F23     		mov	r3, #15
 1002 00c0 FB18     		add	r3, r7, r3
 1003 00c2 1278     		ldrb	r2, [r2]
 1004 00c4 1B78     		ldrb	r3, [r3]
 1005 00c6 9A42     		cmp	r2, r3
 1006 00c8 04D2     		bcs	.L52
1020:Generated_Source\PSoC4/BLE.c ****             {
 1007              		.loc 1 1020 0 is_stmt 0 discriminator 1
 1008 00ca 1623     		mov	r3, #22
 1009 00cc FB18     		add	r3, r7, r3
 1010 00ce 1B78     		ldrb	r3, [r3]
 1011 00d0 002B     		cmp	r3, #0
 1012 00d2 BCD0     		beq	.L53
 1013              	.L52:
1044:Generated_Source\PSoC4/BLE.c ****                 }
1045:Generated_Source\PSoC4/BLE.c ****             }
1046:Generated_Source\PSoC4/BLE.c ****             
1047:Generated_Source\PSoC4/BLE.c ****             if(0u != flag)
 1014              		.loc 1 1047 0 is_stmt 1
 1015 00d4 1623     		mov	r3, #22
 1016 00d6 FB18     		add	r3, r7, r3
 1017 00d8 1B78     		ldrb	r3, [r3]
 1018 00da 002B     		cmp	r3, #0
 1019 00dc 5BD0     		beq	.L44
1048:Generated_Source\PSoC4/BLE.c ****             {
1049:Generated_Source\PSoC4/BLE.c ****                 /* Reuse "adLength" to hold location of the last character of local name in 
1050:Generated_Source\PSoC4/BLE.c ****                    AD structure. */
1051:Generated_Source\PSoC4/BLE.c ****                 adLength += byteCounter;
 1020              		.loc 1 1051 0
 1021 00de 1523     		mov	r3, #21
 1022 00e0 FB18     		add	r3, r7, r3
 1023 00e2 1522     		mov	r2, #21
 1024 00e4 B918     		add	r1, r7, r2
 1025 00e6 1422     		mov	r2, #20
 1026 00e8 BA18     		add	r2, r7, r2
 1027 00ea 0978     		ldrb	r1, [r1]
 1028 00ec 1278     		ldrb	r2, [r2]
 1029 00ee 8A18     		add	r2, r1, r2
 1030 00f0 1A70     		strb	r2, [r3]
1052:Generated_Source\PSoC4/BLE.c ****                 
1053:Generated_Source\PSoC4/BLE.c ****                 /* Increment byte counter to point to start of the local Name string */
1054:Generated_Source\PSoC4/BLE.c ****                 byteCounter++;
 1031              		.loc 1 1054 0
 1032 00f2 1423     		mov	r3, #20
 1033 00f4 FB18     		add	r3, r7, r3
 1034 00f6 1A78     		ldrb	r2, [r3]
 1035 00f8 1423     		mov	r3, #20
 1036 00fa FB18     		add	r3, r7, r3
 1037 00fc 0132     		add	r2, r2, #1
 1038 00fe 1A70     		strb	r2, [r3]
1055:Generated_Source\PSoC4/BLE.c ****                 
ARM GAS  C:\Users\ADMINI~1.SC-\AppData\Local\Temp\ccSR5MnG.s 			page 38


1056:Generated_Source\PSoC4/BLE.c ****                 for(i = byteCounter; ((i < (adLength)) && (CYBLE_NULL_CHARCTER != name[i - byteCoun
 1039              		.loc 1 1056 0
 1040 0100 1723     		mov	r3, #23
 1041 0102 FB18     		add	r3, r7, r3
 1042 0104 1422     		mov	r2, #20
 1043 0106 BA18     		add	r2, r7, r2
 1044 0108 1278     		ldrb	r2, [r2]
 1045 010a 1A70     		strb	r2, [r3]
 1046 010c 17E0     		b	.L55
 1047              	.L57:
1057:Generated_Source\PSoC4/BLE.c ****                 {
1058:Generated_Source\PSoC4/BLE.c ****                     destBuffer[i] = (uint8)name[i - byteCounter];
 1048              		.loc 1 1058 0 discriminator 4
 1049 010e 1723     		mov	r3, #23
 1050 0110 FB18     		add	r3, r7, r3
 1051 0112 1B78     		ldrb	r3, [r3]
 1052 0114 3A69     		ldr	r2, [r7, #16]
 1053 0116 D318     		add	r3, r2, r3
 1054 0118 1722     		mov	r2, #23
 1055 011a BA18     		add	r2, r7, r2
 1056 011c 1178     		ldrb	r1, [r2]
 1057 011e 1422     		mov	r2, #20
 1058 0120 BA18     		add	r2, r7, r2
 1059 0122 1278     		ldrb	r2, [r2]
 1060 0124 8A1A     		sub	r2, r1, r2
 1061 0126 111C     		mov	r1, r2
 1062 0128 7A68     		ldr	r2, [r7, #4]
 1063 012a 5218     		add	r2, r2, r1
 1064 012c 1278     		ldrb	r2, [r2]
 1065 012e 1A70     		strb	r2, [r3]
1056:Generated_Source\PSoC4/BLE.c ****                 {
 1066              		.loc 1 1056 0 discriminator 4
 1067 0130 1723     		mov	r3, #23
 1068 0132 FB18     		add	r3, r7, r3
 1069 0134 1A78     		ldrb	r2, [r3]
 1070 0136 1723     		mov	r3, #23
 1071 0138 FB18     		add	r3, r7, r3
 1072 013a 0132     		add	r2, r2, #1
 1073 013c 1A70     		strb	r2, [r3]
 1074              	.L55:
1056:Generated_Source\PSoC4/BLE.c ****                 {
 1075              		.loc 1 1056 0 is_stmt 0 discriminator 1
 1076 013e 1723     		mov	r3, #23
 1077 0140 FA18     		add	r2, r7, r3
 1078 0142 1523     		mov	r3, #21
 1079 0144 FB18     		add	r3, r7, r3
 1080 0146 1278     		ldrb	r2, [r2]
 1081 0148 1B78     		ldrb	r3, [r3]
 1082 014a 9A42     		cmp	r2, r3
 1083 014c 0CD2     		bcs	.L56
1056:Generated_Source\PSoC4/BLE.c ****                 {
 1084              		.loc 1 1056 0 discriminator 3
 1085 014e 1723     		mov	r3, #23
 1086 0150 FB18     		add	r3, r7, r3
 1087 0152 1A78     		ldrb	r2, [r3]
 1088 0154 1423     		mov	r3, #20
 1089 0156 FB18     		add	r3, r7, r3
ARM GAS  C:\Users\ADMINI~1.SC-\AppData\Local\Temp\ccSR5MnG.s 			page 39


 1090 0158 1B78     		ldrb	r3, [r3]
 1091 015a D31A     		sub	r3, r2, r3
 1092 015c 1A1C     		mov	r2, r3
 1093 015e 7B68     		ldr	r3, [r7, #4]
 1094 0160 9B18     		add	r3, r3, r2
 1095 0162 1B78     		ldrb	r3, [r3]
 1096 0164 002B     		cmp	r3, #0
 1097 0166 D2D1     		bne	.L57
 1098              	.L56:
1059:Generated_Source\PSoC4/BLE.c ****                 }
1060:Generated_Source\PSoC4/BLE.c ****                 
1061:Generated_Source\PSoC4/BLE.c ****                 /* This loop handles the case when new local name is shorted than old one.
1062:Generated_Source\PSoC4/BLE.c ****                    In this case all remaining characters should be null characters. */
1063:Generated_Source\PSoC4/BLE.c ****                 while(adLength > i)
 1099              		.loc 1 1063 0 is_stmt 1
 1100 0168 0DE0     		b	.L58
 1101              	.L59:
1064:Generated_Source\PSoC4/BLE.c ****                 {
1065:Generated_Source\PSoC4/BLE.c ****                     /* Terminate string */
1066:Generated_Source\PSoC4/BLE.c ****                     destBuffer[i] = (uint8)CYBLE_NULL_CHARCTER;
 1102              		.loc 1 1066 0
 1103 016a 1723     		mov	r3, #23
 1104 016c FB18     		add	r3, r7, r3
 1105 016e 1B78     		ldrb	r3, [r3]
 1106 0170 3A69     		ldr	r2, [r7, #16]
 1107 0172 D318     		add	r3, r2, r3
 1108 0174 0022     		mov	r2, #0
 1109 0176 1A70     		strb	r2, [r3]
1067:Generated_Source\PSoC4/BLE.c ****                     i++;
 1110              		.loc 1 1067 0
 1111 0178 1723     		mov	r3, #23
 1112 017a FB18     		add	r3, r7, r3
 1113 017c 1A78     		ldrb	r2, [r3]
 1114 017e 1723     		mov	r3, #23
 1115 0180 FB18     		add	r3, r7, r3
 1116 0182 0132     		add	r2, r2, #1
 1117 0184 1A70     		strb	r2, [r3]
 1118              	.L58:
1063:Generated_Source\PSoC4/BLE.c ****                 {
 1119              		.loc 1 1063 0
 1120 0186 1523     		mov	r3, #21
 1121 0188 FA18     		add	r2, r7, r3
 1122 018a 1723     		mov	r3, #23
 1123 018c FB18     		add	r3, r7, r3
 1124 018e 1278     		ldrb	r2, [r2]
 1125 0190 1B78     		ldrb	r3, [r3]
 1126 0192 9A42     		cmp	r2, r3
 1127 0194 E9D8     		bhi	.L59
 1128              	.L44:
1068:Generated_Source\PSoC4/BLE.c ****                 }
1069:Generated_Source\PSoC4/BLE.c ****             }
1070:Generated_Source\PSoC4/BLE.c ****         }
 1129              		.loc 1 1070 0
 1130 0196 BD46     		mov	sp, r7
 1131 0198 06B0     		add	sp, sp, #24
 1132              		@ sp needed
 1133 019a 80BD     		pop	{r7, pc}
ARM GAS  C:\Users\ADMINI~1.SC-\AppData\Local\Temp\ccSR5MnG.s 			page 40


 1134              	.L61:
 1135              		.align	2
 1136              	.L60:
 1137 019c 00000000 		.word	cyBle_discoveryData
 1138 01a0 00000000 		.word	cyBle_scanRspData
 1139              		.cfi_endproc
 1140              	.LFE10:
 1141              		.size	CyBle_ChangeAdLocalName, .-CyBle_ChangeAdLocalName
 1142              		.section	.text.CyBle_GapSetLocalName,"ax",%progbits
 1143              		.align	2
 1144              		.global	CyBle_GapSetLocalName
 1145              		.code	16
 1146              		.thumb_func
 1147              		.type	CyBle_GapSetLocalName, %function
 1148              	CyBle_GapSetLocalName:
 1149              	.LFB11:
1071:Generated_Source\PSoC4/BLE.c ****         
1072:Generated_Source\PSoC4/BLE.c **** #endif /* (CYBLE_GAP_ROLE_PERIPHERAL) */  
1073:Generated_Source\PSoC4/BLE.c ****     
1074:Generated_Source\PSoC4/BLE.c ****     
1075:Generated_Source\PSoC4/BLE.c ****     /******************************************************************************
1076:Generated_Source\PSoC4/BLE.c ****     * Function Name: CyBle_GapSetLocalName
1077:Generated_Source\PSoC4/BLE.c ****     ***************************************************************************//**
1078:Generated_Source\PSoC4/BLE.c ****     *  This API is used to set the local device name - a Characteristic of the 
1079:Generated_Source\PSoC4/BLE.c ****     *  GAP Service. If the characteristic length entered in the component customizer
1080:Generated_Source\PSoC4/BLE.c ****     *  is shorter than the string specified by the "name" parameter, the local device
1081:Generated_Source\PSoC4/BLE.c ****     *  name will be cut to the length specified in the customizer.
1082:Generated_Source\PSoC4/BLE.c ****     * 
1083:Generated_Source\PSoC4/BLE.c ****     *  \param name: The local device name string. The name string to be written as
1084:Generated_Source\PSoC4/BLE.c ****     *              the local device name. It represents a UTF-8 encoded User
1085:Generated_Source\PSoC4/BLE.c ****     *              Friendly Descriptive Name for the device. The length of the local
1086:Generated_Source\PSoC4/BLE.c ****     *              device string is entered into the component customizer and it can
1087:Generated_Source\PSoC4/BLE.c ****     *              be set to a value from 0 to 248 bytes. If the name contained in
1088:Generated_Source\PSoC4/BLE.c ****     *              the parameter is shorter than the length from the customizer, the
1089:Generated_Source\PSoC4/BLE.c ****     *              end of the name is indicated by a NULL octet (0x00).
1090:Generated_Source\PSoC4/BLE.c ****     * 
1091:Generated_Source\PSoC4/BLE.c ****     * \return
1092:Generated_Source\PSoC4/BLE.c ****     *  CYBLE_API_RESULT_T : Return value indicates if the function succeeded or 
1093:Generated_Source\PSoC4/BLE.c ****     *  failed. Following are the possible error codes.
1094:Generated_Source\PSoC4/BLE.c ****     *
1095:Generated_Source\PSoC4/BLE.c ****     *   Errors codes                       | Description
1096:Generated_Source\PSoC4/BLE.c ****     *   ------------                       | -----------
1097:Generated_Source\PSoC4/BLE.c ****     *   CYBLE_ERROR_OK                     | Function completed successfully.
1098:Generated_Source\PSoC4/BLE.c ****     *   CYBLE_ERROR_INVALID_PARAMETER      | On specifying NULL as input parameter
1099:Generated_Source\PSoC4/BLE.c ****     *  
1100:Generated_Source\PSoC4/BLE.c ****     *******************************************************************************/
1101:Generated_Source\PSoC4/BLE.c ****     CYBLE_API_RESULT_T CyBle_GapSetLocalName(const char8 name[])
1102:Generated_Source\PSoC4/BLE.c ****     {
 1150              		.loc 1 1102 0
 1151              		.cfi_startproc
 1152 0000 80B5     		push	{r7, lr}
 1153              		.cfi_def_cfa_offset 8
 1154              		.cfi_offset 7, -8
 1155              		.cfi_offset 14, -4
 1156 0002 86B0     		sub	sp, sp, #24
 1157              		.cfi_def_cfa_offset 32
 1158 0004 00AF     		add	r7, sp, #0
ARM GAS  C:\Users\ADMINI~1.SC-\AppData\Local\Temp\ccSR5MnG.s 			page 41


 1159              		.cfi_def_cfa_register 7
 1160 0006 7860     		str	r0, [r7, #4]
1103:Generated_Source\PSoC4/BLE.c ****         CYBLE_API_RESULT_T apiResult = CYBLE_ERROR_OK;
 1161              		.loc 1 1103 0
 1162 0008 1623     		mov	r3, #22
 1163 000a FB18     		add	r3, r7, r3
 1164 000c 0022     		mov	r2, #0
 1165 000e 1A80     		strh	r2, [r3]
1104:Generated_Source\PSoC4/BLE.c ****         uint8 i;
1105:Generated_Source\PSoC4/BLE.c ****         char8 *ptr;
1106:Generated_Source\PSoC4/BLE.c ****         uint8 charLen;
1107:Generated_Source\PSoC4/BLE.c **** 
1108:Generated_Source\PSoC4/BLE.c ****         if(NULL != name)
 1166              		.loc 1 1108 0
 1167 0010 7B68     		ldr	r3, [r7, #4]
 1168 0012 002B     		cmp	r3, #0
 1169 0014 4AD0     		beq	.L63
1109:Generated_Source\PSoC4/BLE.c ****         {
1110:Generated_Source\PSoC4/BLE.c ****             /* Get the pointer to the Device Name characteristic  */
1111:Generated_Source\PSoC4/BLE.c ****             ptr = (char8 *) CYBLE_GATT_DB_ATTR_GET_ATTR_GEN_PTR(CYBLE_GAP_DEVICE_NAME_INDEX + 1u);
 1170              		.loc 1 1111 0
 1171 0016 2B4B     		ldr	r3, .L70
 1172 0018 9B6B     		ldr	r3, [r3, #56]
 1173 001a 5B68     		ldr	r3, [r3, #4]
 1174 001c 3B61     		str	r3, [r7, #16]
1112:Generated_Source\PSoC4/BLE.c **** 
1113:Generated_Source\PSoC4/BLE.c ****             /* First need to get the maximum length of the characteristic data in the GATT
1114:Generated_Source\PSoC4/BLE.c ****                 database to make sure there is enough place for the data. The length
1115:Generated_Source\PSoC4/BLE.c ****                 can't be longer than 248, so only the LSB of 16 bit of length is to
1116:Generated_Source\PSoC4/BLE.c ****                 be used. */
1117:Generated_Source\PSoC4/BLE.c ****             charLen = (uint8)CYBLE_GATT_DB_ATTR_GET_ATTR_GEN_MAX_LEN(CYBLE_GAP_DEVICE_NAME_INDEX + 
 1175              		.loc 1 1117 0
 1176 001e 294B     		ldr	r3, .L70
 1177 0020 9A8E     		ldrh	r2, [r3, #52]
 1178 0022 0F23     		mov	r3, #15
 1179 0024 FB18     		add	r3, r7, r3
 1180 0026 1A70     		strb	r2, [r3]
1118:Generated_Source\PSoC4/BLE.c **** 
1119:Generated_Source\PSoC4/BLE.c ****             /* Copy name into characteristic */
1120:Generated_Source\PSoC4/BLE.c ****             for(i = 0u; ((i < charLen) && (CYBLE_NULL_CHARCTER != name[i])); i++)
 1181              		.loc 1 1120 0
 1182 0028 1523     		mov	r3, #21
 1183 002a FB18     		add	r3, r7, r3
 1184 002c 0022     		mov	r2, #0
 1185 002e 1A70     		strb	r2, [r3]
 1186 0030 12E0     		b	.L64
 1187              	.L66:
1121:Generated_Source\PSoC4/BLE.c ****             {
1122:Generated_Source\PSoC4/BLE.c ****                 ptr[i] = name[i];
 1188              		.loc 1 1122 0 discriminator 4
 1189 0032 1523     		mov	r3, #21
 1190 0034 FB18     		add	r3, r7, r3
 1191 0036 1B78     		ldrb	r3, [r3]
 1192 0038 3A69     		ldr	r2, [r7, #16]
 1193 003a D318     		add	r3, r2, r3
 1194 003c 1522     		mov	r2, #21
 1195 003e BA18     		add	r2, r7, r2
ARM GAS  C:\Users\ADMINI~1.SC-\AppData\Local\Temp\ccSR5MnG.s 			page 42


 1196 0040 1278     		ldrb	r2, [r2]
 1197 0042 7968     		ldr	r1, [r7, #4]
 1198 0044 8A18     		add	r2, r1, r2
 1199 0046 1278     		ldrb	r2, [r2]
 1200 0048 1A70     		strb	r2, [r3]
1120:Generated_Source\PSoC4/BLE.c ****             {
 1201              		.loc 1 1120 0 discriminator 4
 1202 004a 1523     		mov	r3, #21
 1203 004c FB18     		add	r3, r7, r3
 1204 004e 1A78     		ldrb	r2, [r3]
 1205 0050 1523     		mov	r3, #21
 1206 0052 FB18     		add	r3, r7, r3
 1207 0054 0132     		add	r2, r2, #1
 1208 0056 1A70     		strb	r2, [r3]
 1209              	.L64:
1120:Generated_Source\PSoC4/BLE.c ****             {
 1210              		.loc 1 1120 0 is_stmt 0 discriminator 1
 1211 0058 1523     		mov	r3, #21
 1212 005a FA18     		add	r2, r7, r3
 1213 005c 0F23     		mov	r3, #15
 1214 005e FB18     		add	r3, r7, r3
 1215 0060 1278     		ldrb	r2, [r2]
 1216 0062 1B78     		ldrb	r3, [r3]
 1217 0064 9A42     		cmp	r2, r3
 1218 0066 07D2     		bcs	.L65
1120:Generated_Source\PSoC4/BLE.c ****             {
 1219              		.loc 1 1120 0 discriminator 3
 1220 0068 1523     		mov	r3, #21
 1221 006a FB18     		add	r3, r7, r3
 1222 006c 1B78     		ldrb	r3, [r3]
 1223 006e 7A68     		ldr	r2, [r7, #4]
 1224 0070 D318     		add	r3, r2, r3
 1225 0072 1B78     		ldrb	r3, [r3]
 1226 0074 002B     		cmp	r3, #0
 1227 0076 DCD1     		bne	.L66
 1228              	.L65:
1123:Generated_Source\PSoC4/BLE.c ****             }
1124:Generated_Source\PSoC4/BLE.c **** 
1125:Generated_Source\PSoC4/BLE.c ****             if(i < charLen)
 1229              		.loc 1 1125 0 is_stmt 1
 1230 0078 1523     		mov	r3, #21
 1231 007a FA18     		add	r2, r7, r3
 1232 007c 0F23     		mov	r3, #15
 1233 007e FB18     		add	r3, r7, r3
 1234 0080 1278     		ldrb	r2, [r2]
 1235 0082 1B78     		ldrb	r3, [r3]
 1236 0084 9A42     		cmp	r2, r3
 1237 0086 06D2     		bcs	.L67
1126:Generated_Source\PSoC4/BLE.c ****             {
1127:Generated_Source\PSoC4/BLE.c ****                 /* Terminate string */
1128:Generated_Source\PSoC4/BLE.c ****                 ptr[i] = CYBLE_NULL_CHARCTER;
 1238              		.loc 1 1128 0
 1239 0088 1523     		mov	r3, #21
 1240 008a FB18     		add	r3, r7, r3
 1241 008c 1B78     		ldrb	r3, [r3]
 1242 008e 3A69     		ldr	r2, [r7, #16]
 1243 0090 D318     		add	r3, r2, r3
ARM GAS  C:\Users\ADMINI~1.SC-\AppData\Local\Temp\ccSR5MnG.s 			page 43


 1244 0092 0022     		mov	r2, #0
 1245 0094 1A70     		strb	r2, [r3]
 1246              	.L67:
1129:Generated_Source\PSoC4/BLE.c ****             }
1130:Generated_Source\PSoC4/BLE.c ****             
1131:Generated_Source\PSoC4/BLE.c ****             /* Set new actual length */
1132:Generated_Source\PSoC4/BLE.c ****             
1133:Generated_Source\PSoC4/BLE.c ****             /* Update device name in advertising and scan response structure */
1134:Generated_Source\PSoC4/BLE.c ****             #if(CYBLE_GAP_ROLE_PERIPHERAL)
1135:Generated_Source\PSoC4/BLE.c ****                 CyBle_ChangeAdLocalName(name, 0u);
 1247              		.loc 1 1135 0
 1248 0096 7B68     		ldr	r3, [r7, #4]
 1249 0098 181C     		mov	r0, r3
 1250 009a 0021     		mov	r1, #0
 1251 009c FFF7FEFF 		bl	CyBle_ChangeAdLocalName
1136:Generated_Source\PSoC4/BLE.c ****                 CyBle_ChangeAdLocalName(name, 1u);
 1252              		.loc 1 1136 0
 1253 00a0 7B68     		ldr	r3, [r7, #4]
 1254 00a2 181C     		mov	r0, r3
 1255 00a4 0121     		mov	r1, #1
 1256 00a6 FFF7FEFF 		bl	CyBle_ChangeAdLocalName
 1257 00aa 03E0     		b	.L68
 1258              	.L63:
1137:Generated_Source\PSoC4/BLE.c ****             #endif /* (CYBLE_GAP_ROLE_PERIPHERAL) */
1138:Generated_Source\PSoC4/BLE.c ****         }
1139:Generated_Source\PSoC4/BLE.c ****         else
1140:Generated_Source\PSoC4/BLE.c ****         {
1141:Generated_Source\PSoC4/BLE.c ****             apiResult = CYBLE_ERROR_INVALID_PARAMETER;
 1259              		.loc 1 1141 0
 1260 00ac 1623     		mov	r3, #22
 1261 00ae FB18     		add	r3, r7, r3
 1262 00b0 0122     		mov	r2, #1
 1263 00b2 1A80     		strh	r2, [r3]
 1264              	.L68:
1142:Generated_Source\PSoC4/BLE.c ****         }
1143:Generated_Source\PSoC4/BLE.c ****         
1144:Generated_Source\PSoC4/BLE.c ****         return(apiResult);
 1265              		.loc 1 1144 0
 1266 00b4 1623     		mov	r3, #22
 1267 00b6 FB18     		add	r3, r7, r3
 1268 00b8 1B88     		ldrh	r3, [r3]
1145:Generated_Source\PSoC4/BLE.c ****     }
 1269              		.loc 1 1145 0
 1270 00ba 181C     		mov	r0, r3
 1271 00bc BD46     		mov	sp, r7
 1272 00be 06B0     		add	sp, sp, #24
 1273              		@ sp needed
 1274 00c0 80BD     		pop	{r7, pc}
 1275              	.L71:
 1276 00c2 C046     		.align	2
 1277              	.L70:
 1278 00c4 00000000 		.word	cyBle_gattDB
 1279              		.cfi_endproc
 1280              	.LFE11:
 1281              		.size	CyBle_GapSetLocalName, .-CyBle_GapSetLocalName
 1282              		.section	.text.CyBle_GapGetLocalName,"ax",%progbits
 1283              		.align	2
ARM GAS  C:\Users\ADMINI~1.SC-\AppData\Local\Temp\ccSR5MnG.s 			page 44


 1284              		.global	CyBle_GapGetLocalName
 1285              		.code	16
 1286              		.thumb_func
 1287              		.type	CyBle_GapGetLocalName, %function
 1288              	CyBle_GapGetLocalName:
 1289              	.LFB12:
1146:Generated_Source\PSoC4/BLE.c **** 
1147:Generated_Source\PSoC4/BLE.c **** 
1148:Generated_Source\PSoC4/BLE.c ****     /******************************************************************************
1149:Generated_Source\PSoC4/BLE.c ****     * Function Name: CyBle_GapGetLocalName
1150:Generated_Source\PSoC4/BLE.c ****     ***************************************************************************//**
1151:Generated_Source\PSoC4/BLE.c ****     *  
1152:Generated_Source\PSoC4/BLE.c ****     *  This API is used to read the local device name - a Characteristic of the 
1153:Generated_Source\PSoC4/BLE.c ****     *  GAP Service.
1154:Generated_Source\PSoC4/BLE.c ****     * 
1155:Generated_Source\PSoC4/BLE.c ****     * \param name: The local device name string. Used to read the local name to the
1156:Generated_Source\PSoC4/BLE.c ****     *             given string array. It represents a UTF-8 encoded User Friendly 
1157:Generated_Source\PSoC4/BLE.c ****     *             Descriptive Name for the device. The length of the local device
1158:Generated_Source\PSoC4/BLE.c ****     *             string is entered into the component customizer and it can be set
1159:Generated_Source\PSoC4/BLE.c ****     *             to a value from 0 to 248 bytes. If the name contained in the
1160:Generated_Source\PSoC4/BLE.c ****     *             parameter is shorter than the length from the customizer, the end
1161:Generated_Source\PSoC4/BLE.c ****     *             of the name is indicated by a NULL octet (0x00).
1162:Generated_Source\PSoC4/BLE.c ****     * 
1163:Generated_Source\PSoC4/BLE.c ****     * \return
1164:Generated_Source\PSoC4/BLE.c ****     *  CYBLE_API_RESULT_T : Return value indicates if the function succeeded or 
1165:Generated_Source\PSoC4/BLE.c ****     *  failed. Following are the possible error codes.
1166:Generated_Source\PSoC4/BLE.c ****     *
1167:Generated_Source\PSoC4/BLE.c ****     *   Errors codes                       | Description
1168:Generated_Source\PSoC4/BLE.c ****     *   ------------                       | -----------
1169:Generated_Source\PSoC4/BLE.c ****     *   CYBLE_ERROR_OK                     | Function completed successfully.
1170:Generated_Source\PSoC4/BLE.c ****     *   CYBLE_ERROR_INVALID_PARAMETER      | On specifying NULL as input parameter
1171:Generated_Source\PSoC4/BLE.c ****     *
1172:Generated_Source\PSoC4/BLE.c ****     *******************************************************************************/
1173:Generated_Source\PSoC4/BLE.c ****     CYBLE_API_RESULT_T CyBle_GapGetLocalName(char8 name[])
1174:Generated_Source\PSoC4/BLE.c ****     {
 1290              		.loc 1 1174 0
 1291              		.cfi_startproc
 1292 0000 80B5     		push	{r7, lr}
 1293              		.cfi_def_cfa_offset 8
 1294              		.cfi_offset 7, -8
 1295              		.cfi_offset 14, -4
 1296 0002 86B0     		sub	sp, sp, #24
 1297              		.cfi_def_cfa_offset 32
 1298 0004 00AF     		add	r7, sp, #0
 1299              		.cfi_def_cfa_register 7
 1300 0006 7860     		str	r0, [r7, #4]
1175:Generated_Source\PSoC4/BLE.c ****         CYBLE_API_RESULT_T apiResult = CYBLE_ERROR_OK;
 1301              		.loc 1 1175 0
 1302 0008 1623     		mov	r3, #22
 1303 000a FB18     		add	r3, r7, r3
 1304 000c 0022     		mov	r2, #0
 1305 000e 1A80     		strh	r2, [r3]
1176:Generated_Source\PSoC4/BLE.c ****         uint8 charLen;
1177:Generated_Source\PSoC4/BLE.c ****         uint8 i;
1178:Generated_Source\PSoC4/BLE.c ****         char8 *ptr;
1179:Generated_Source\PSoC4/BLE.c **** 
1180:Generated_Source\PSoC4/BLE.c ****         if(NULL != name)
ARM GAS  C:\Users\ADMINI~1.SC-\AppData\Local\Temp\ccSR5MnG.s 			page 45


 1306              		.loc 1 1180 0
 1307 0010 7B68     		ldr	r3, [r7, #4]
 1308 0012 002B     		cmp	r3, #0
 1309 0014 39D0     		beq	.L73
1181:Generated_Source\PSoC4/BLE.c ****         {
1182:Generated_Source\PSoC4/BLE.c ****             /* Get the pointer to the Device Name characteristic  */
1183:Generated_Source\PSoC4/BLE.c ****             ptr = (char8 *) CYBLE_GATT_DB_ATTR_GET_ATTR_GEN_PTR(CYBLE_GAP_DEVICE_NAME_INDEX + 1u);
 1310              		.loc 1 1183 0
 1311 0016 224B     		ldr	r3, .L79
 1312 0018 9B6B     		ldr	r3, [r3, #56]
 1313 001a 5B68     		ldr	r3, [r3, #4]
 1314 001c 3B61     		str	r3, [r7, #16]
1184:Generated_Source\PSoC4/BLE.c **** 
1185:Generated_Source\PSoC4/BLE.c ****             /* First need to get the length of the characteristic data in the GATT
1186:Generated_Source\PSoC4/BLE.c ****                 database to make sure there is enough place for the data. The length
1187:Generated_Source\PSoC4/BLE.c ****                 can't be longer than 248, so only the LSB of 16 bit of length is to
1188:Generated_Source\PSoC4/BLE.c ****                 be used. */
1189:Generated_Source\PSoC4/BLE.c ****             charLen = (uint8)CYBLE_GATT_DB_ATTR_GET_ATTR_GEN_LEN(CYBLE_GAP_DEVICE_NAME_INDEX + 1u);
 1315              		.loc 1 1189 0
 1316 001e 204B     		ldr	r3, .L79
 1317 0020 9B6B     		ldr	r3, [r3, #56]
 1318 0022 1A88     		ldrh	r2, [r3]
 1319 0024 0F23     		mov	r3, #15
 1320 0026 FB18     		add	r3, r7, r3
 1321 0028 1A70     		strb	r2, [r3]
1190:Generated_Source\PSoC4/BLE.c **** 
1191:Generated_Source\PSoC4/BLE.c ****             /* Copy name from characteristic */
1192:Generated_Source\PSoC4/BLE.c ****             for(i = 0u; ((i < charLen) && (CYBLE_NULL_CHARCTER != ptr[i])); i++)
 1322              		.loc 1 1192 0
 1323 002a 1523     		mov	r3, #21
 1324 002c FB18     		add	r3, r7, r3
 1325 002e 0022     		mov	r2, #0
 1326 0030 1A70     		strb	r2, [r3]
 1327 0032 12E0     		b	.L74
 1328              	.L76:
1193:Generated_Source\PSoC4/BLE.c ****             {
1194:Generated_Source\PSoC4/BLE.c ****                 name[i] = ptr[i];
 1329              		.loc 1 1194 0 discriminator 4
 1330 0034 1523     		mov	r3, #21
 1331 0036 FB18     		add	r3, r7, r3
 1332 0038 1B78     		ldrb	r3, [r3]
 1333 003a 7A68     		ldr	r2, [r7, #4]
 1334 003c D318     		add	r3, r2, r3
 1335 003e 1522     		mov	r2, #21
 1336 0040 BA18     		add	r2, r7, r2
 1337 0042 1278     		ldrb	r2, [r2]
 1338 0044 3969     		ldr	r1, [r7, #16]
 1339 0046 8A18     		add	r2, r1, r2
 1340 0048 1278     		ldrb	r2, [r2]
 1341 004a 1A70     		strb	r2, [r3]
1192:Generated_Source\PSoC4/BLE.c ****             {
 1342              		.loc 1 1192 0 discriminator 4
 1343 004c 1523     		mov	r3, #21
 1344 004e FB18     		add	r3, r7, r3
 1345 0050 1A78     		ldrb	r2, [r3]
 1346 0052 1523     		mov	r3, #21
 1347 0054 FB18     		add	r3, r7, r3
ARM GAS  C:\Users\ADMINI~1.SC-\AppData\Local\Temp\ccSR5MnG.s 			page 46


 1348 0056 0132     		add	r2, r2, #1
 1349 0058 1A70     		strb	r2, [r3]
 1350              	.L74:
1192:Generated_Source\PSoC4/BLE.c ****             {
 1351              		.loc 1 1192 0 is_stmt 0 discriminator 1
 1352 005a 1523     		mov	r3, #21
 1353 005c FA18     		add	r2, r7, r3
 1354 005e 0F23     		mov	r3, #15
 1355 0060 FB18     		add	r3, r7, r3
 1356 0062 1278     		ldrb	r2, [r2]
 1357 0064 1B78     		ldrb	r3, [r3]
 1358 0066 9A42     		cmp	r2, r3
 1359 0068 07D2     		bcs	.L75
1192:Generated_Source\PSoC4/BLE.c ****             {
 1360              		.loc 1 1192 0 discriminator 3
 1361 006a 1523     		mov	r3, #21
 1362 006c FB18     		add	r3, r7, r3
 1363 006e 1B78     		ldrb	r3, [r3]
 1364 0070 3A69     		ldr	r2, [r7, #16]
 1365 0072 D318     		add	r3, r2, r3
 1366 0074 1B78     		ldrb	r3, [r3]
 1367 0076 002B     		cmp	r3, #0
 1368 0078 DCD1     		bne	.L76
 1369              	.L75:
1195:Generated_Source\PSoC4/BLE.c ****             }
1196:Generated_Source\PSoC4/BLE.c **** 
1197:Generated_Source\PSoC4/BLE.c ****             /* Terminate string */
1198:Generated_Source\PSoC4/BLE.c ****             name[i] = CYBLE_NULL_CHARCTER;
 1370              		.loc 1 1198 0 is_stmt 1
 1371 007a 1523     		mov	r3, #21
 1372 007c FB18     		add	r3, r7, r3
 1373 007e 1B78     		ldrb	r3, [r3]
 1374 0080 7A68     		ldr	r2, [r7, #4]
 1375 0082 D318     		add	r3, r2, r3
 1376 0084 0022     		mov	r2, #0
 1377 0086 1A70     		strb	r2, [r3]
 1378 0088 03E0     		b	.L77
 1379              	.L73:
1199:Generated_Source\PSoC4/BLE.c ****         }
1200:Generated_Source\PSoC4/BLE.c ****         else
1201:Generated_Source\PSoC4/BLE.c ****         {
1202:Generated_Source\PSoC4/BLE.c ****             apiResult = CYBLE_ERROR_INVALID_PARAMETER;
 1380              		.loc 1 1202 0
 1381 008a 1623     		mov	r3, #22
 1382 008c FB18     		add	r3, r7, r3
 1383 008e 0122     		mov	r2, #1
 1384 0090 1A80     		strh	r2, [r3]
 1385              	.L77:
1203:Generated_Source\PSoC4/BLE.c ****         }
1204:Generated_Source\PSoC4/BLE.c ****         
1205:Generated_Source\PSoC4/BLE.c ****         return(apiResult);
 1386              		.loc 1 1205 0
 1387 0092 1623     		mov	r3, #22
 1388 0094 FB18     		add	r3, r7, r3
 1389 0096 1B88     		ldrh	r3, [r3]
1206:Generated_Source\PSoC4/BLE.c ****     }
 1390              		.loc 1 1206 0
ARM GAS  C:\Users\ADMINI~1.SC-\AppData\Local\Temp\ccSR5MnG.s 			page 47


 1391 0098 181C     		mov	r0, r3
 1392 009a BD46     		mov	sp, r7
 1393 009c 06B0     		add	sp, sp, #24
 1394              		@ sp needed
 1395 009e 80BD     		pop	{r7, pc}
 1396              	.L80:
 1397              		.align	2
 1398              	.L79:
 1399 00a0 00000000 		.word	cyBle_gattDB
 1400              		.cfi_endproc
 1401              	.LFE12:
 1402              		.size	CyBle_GapGetLocalName, .-CyBle_GapGetLocalName
 1403              		.section	.text.CyBle_Get16ByPtr,"ax",%progbits
 1404              		.align	2
 1405              		.global	CyBle_Get16ByPtr
 1406              		.code	16
 1407              		.thumb_func
 1408              		.type	CyBle_Get16ByPtr, %function
 1409              	CyBle_Get16ByPtr:
 1410              	.LFB13:
1207:Generated_Source\PSoC4/BLE.c **** 
1208:Generated_Source\PSoC4/BLE.c **** #endif /* (CYBLE_GATT_ROLE_SERVER) */
1209:Generated_Source\PSoC4/BLE.c **** 
1210:Generated_Source\PSoC4/BLE.c **** 
1211:Generated_Source\PSoC4/BLE.c **** /******************************************************************************
1212:Generated_Source\PSoC4/BLE.c **** * Function Name: CyBle_Get16ByPtr
1213:Generated_Source\PSoC4/BLE.c **** ***************************************************************************//**
1214:Generated_Source\PSoC4/BLE.c **** * 
1215:Generated_Source\PSoC4/BLE.c **** *  Returns the two-bytes value by using a pointer to the LSB.
1216:Generated_Source\PSoC4/BLE.c **** * 
1217:Generated_Source\PSoC4/BLE.c **** *  \param ptr: Pointer to the LSB of two-bytes data (little endian).
1218:Generated_Source\PSoC4/BLE.c **** * 
1219:Generated_Source\PSoC4/BLE.c **** *  \return
1220:Generated_Source\PSoC4/BLE.c **** *  uint16: Two-bytes data.
1221:Generated_Source\PSoC4/BLE.c **** * 
1222:Generated_Source\PSoC4/BLE.c **** ******************************************************************************/
1223:Generated_Source\PSoC4/BLE.c **** uint16 CyBle_Get16ByPtr(const uint8 ptr[])
1224:Generated_Source\PSoC4/BLE.c **** {
 1411              		.loc 1 1224 0
 1412              		.cfi_startproc
 1413 0000 80B5     		push	{r7, lr}
 1414              		.cfi_def_cfa_offset 8
 1415              		.cfi_offset 7, -8
 1416              		.cfi_offset 14, -4
 1417 0002 82B0     		sub	sp, sp, #8
 1418              		.cfi_def_cfa_offset 16
 1419 0004 00AF     		add	r7, sp, #0
 1420              		.cfi_def_cfa_register 7
 1421 0006 7860     		str	r0, [r7, #4]
1225:Generated_Source\PSoC4/BLE.c ****     return ((uint16) ptr[0u] | ((uint16) (((uint16) ptr[1u]) << 8u)));
 1422              		.loc 1 1225 0
 1423 0008 7B68     		ldr	r3, [r7, #4]
 1424 000a 1B78     		ldrb	r3, [r3]
 1425 000c 9AB2     		uxth	r2, r3
 1426 000e 7B68     		ldr	r3, [r7, #4]
 1427 0010 0133     		add	r3, r3, #1
 1428 0012 1B78     		ldrb	r3, [r3]
ARM GAS  C:\Users\ADMINI~1.SC-\AppData\Local\Temp\ccSR5MnG.s 			page 48


 1429 0014 9BB2     		uxth	r3, r3
 1430 0016 1B02     		lsl	r3, r3, #8
 1431 0018 9BB2     		uxth	r3, r3
 1432 001a 1343     		orr	r3, r2
 1433 001c 9BB2     		uxth	r3, r3
1226:Generated_Source\PSoC4/BLE.c **** }
 1434              		.loc 1 1226 0
 1435 001e 181C     		mov	r0, r3
 1436 0020 BD46     		mov	sp, r7
 1437 0022 02B0     		add	sp, sp, #8
 1438              		@ sp needed
 1439 0024 80BD     		pop	{r7, pc}
 1440              		.cfi_endproc
 1441              	.LFE13:
 1442              		.size	CyBle_Get16ByPtr, .-CyBle_Get16ByPtr
 1443 0026 C046     		.section	.text.CyBle_Set16ByPtr,"ax",%progbits
 1444              		.align	2
 1445              		.global	CyBle_Set16ByPtr
 1446              		.code	16
 1447              		.thumb_func
 1448              		.type	CyBle_Set16ByPtr, %function
 1449              	CyBle_Set16ByPtr:
 1450              	.LFB14:
1227:Generated_Source\PSoC4/BLE.c **** 
1228:Generated_Source\PSoC4/BLE.c **** 
1229:Generated_Source\PSoC4/BLE.c **** /******************************************************************************
1230:Generated_Source\PSoC4/BLE.c **** * Function Name: CyBle_Set16ByPtr
1231:Generated_Source\PSoC4/BLE.c **** ***************************************************************************//**
1232:Generated_Source\PSoC4/BLE.c **** * 
1233:Generated_Source\PSoC4/BLE.c **** *  Sets the two-bytes value by using a pointer to the LSB.
1234:Generated_Source\PSoC4/BLE.c **** * 
1235:Generated_Source\PSoC4/BLE.c **** *  \param ptr:    Pointer to the LSB of two-bytes data (little endian).
1236:Generated_Source\PSoC4/BLE.c **** *  \param value:  Two-bytes data to be written.
1237:Generated_Source\PSoC4/BLE.c **** * 
1238:Generated_Source\PSoC4/BLE.c **** *  \return
1239:Generated_Source\PSoC4/BLE.c **** *  None
1240:Generated_Source\PSoC4/BLE.c **** * 
1241:Generated_Source\PSoC4/BLE.c **** ******************************************************************************/
1242:Generated_Source\PSoC4/BLE.c **** void CyBle_Set16ByPtr(uint8 ptr[], uint16 value)
1243:Generated_Source\PSoC4/BLE.c **** {
 1451              		.loc 1 1243 0
 1452              		.cfi_startproc
 1453 0000 80B5     		push	{r7, lr}
 1454              		.cfi_def_cfa_offset 8
 1455              		.cfi_offset 7, -8
 1456              		.cfi_offset 14, -4
 1457 0002 82B0     		sub	sp, sp, #8
 1458              		.cfi_def_cfa_offset 16
 1459 0004 00AF     		add	r7, sp, #0
 1460              		.cfi_def_cfa_register 7
 1461 0006 7860     		str	r0, [r7, #4]
 1462 0008 0A1C     		mov	r2, r1
 1463 000a BB1C     		add	r3, r7, #2
 1464 000c 1A80     		strh	r2, [r3]
1244:Generated_Source\PSoC4/BLE.c ****     ptr[0u] = (uint8) value;
 1465              		.loc 1 1244 0
 1466 000e BB1C     		add	r3, r7, #2
ARM GAS  C:\Users\ADMINI~1.SC-\AppData\Local\Temp\ccSR5MnG.s 			page 49


 1467 0010 1B88     		ldrh	r3, [r3]
 1468 0012 DAB2     		uxtb	r2, r3
 1469 0014 7B68     		ldr	r3, [r7, #4]
 1470 0016 1A70     		strb	r2, [r3]
1245:Generated_Source\PSoC4/BLE.c ****     ptr[1u] = (uint8) (value >> 8u);
 1471              		.loc 1 1245 0
 1472 0018 7B68     		ldr	r3, [r7, #4]
 1473 001a 0133     		add	r3, r3, #1
 1474 001c BA1C     		add	r2, r7, #2
 1475 001e 1288     		ldrh	r2, [r2]
 1476 0020 120A     		lsr	r2, r2, #8
 1477 0022 92B2     		uxth	r2, r2
 1478 0024 D2B2     		uxtb	r2, r2
 1479 0026 1A70     		strb	r2, [r3]
1246:Generated_Source\PSoC4/BLE.c **** }
 1480              		.loc 1 1246 0
 1481 0028 BD46     		mov	sp, r7
 1482 002a 02B0     		add	sp, sp, #8
 1483              		@ sp needed
 1484 002c 80BD     		pop	{r7, pc}
 1485              		.cfi_endproc
 1486              	.LFE14:
 1487              		.size	CyBle_Set16ByPtr, .-CyBle_Set16ByPtr
 1488 002e C046     		.text
 1489              	.Letext0:
 1490              		.file 2 "Generated_Source\\PSoC4\\cytypes.h"
 1491              		.file 3 "Generated_Source\\PSoC4\\BLE_Stack.h"
 1492              		.file 4 "Generated_Source\\PSoC4\\BLE_StackGap.h"
 1493              		.file 5 "Generated_Source\\PSoC4\\BLE_StackGatt.h"
 1494              		.file 6 "Generated_Source\\PSoC4\\BLE_StackGattDb.h"
 1495              		.file 7 "Generated_Source\\PSoC4\\BLE.h"
 1496              		.file 8 "Generated_Source\\PSoC4\\BLE_gatt.h"
 1497              		.file 9 "Generated_Source\\PSoC4\\BLE_eventHandler.h"