ARM GAS  C:\Users\ADMINI~1.SC-\AppData\Local\Temp\ccGAQuWL.s 			page 1


   1              		.cpu cortex-m0
   2              		.fpu softvfp
   3              		.eabi_attribute 20, 1
   4              		.eabi_attribute 21, 1
   5              		.eabi_attribute 23, 3
   6              		.eabi_attribute 24, 1
   7              		.eabi_attribute 25, 1
   8              		.eabi_attribute 26, 1
   9              		.eabi_attribute 30, 6
  10              		.eabi_attribute 34, 0
  11              		.eabi_attribute 18, 4
  12              		.code	16
  13              		.file	"BLE.c"
  14              		.text
  15              	.Ltext0:
  16              		.cfi_sections	.debug_frame
  17              		.global	cyBle_initVar
  18              		.bss
  19              		.type	cyBle_initVar, %object
  20              		.size	cyBle_initVar, 1
  21              	cyBle_initVar:
  22 0000 00       		.space	1
  23              		.comm	cyBle_stackMemoryRam,2756,8
  24              		.global	cyBle_discoveryParam
  25              		.data
  26              		.align	2
  27              		.type	cyBle_discoveryParam, %object
  28              		.size	cyBle_discoveryParam, 16
  29              	cyBle_discoveryParam:
  30 0000 2000     		.short	32
  31 0002 5000     		.short	80
  32 0004 00       		.byte	0
  33 0005 00       		.byte	0
  34 0006 00       		.byte	0
  35 0007 00       		.byte	0
  36 0008 00       		.byte	0
  37 0009 00       		.byte	0
  38 000a 50       		.byte	80
  39 000b A0       		.byte	-96
  40 000c 00       		.byte	0
  41 000d 07       		.byte	7
  42 000e 00       		.byte	0
  43 000f 00       		.space	1
  44              		.global	cyBle_discoveryData
  45              		.align	2
  46              		.type	cyBle_discoveryData, %object
  47              		.size	cyBle_discoveryData, 32
  48              	cyBle_discoveryData:
  49 0010 02       		.byte	2
  50 0011 01       		.byte	1
  51 0012 06       		.byte	6
  52 0013 0D       		.byte	13
  53 0014 09       		.byte	9
  54 0015 54       		.byte	84
  55 0016 4B       		.byte	75
  56 0017 4C       		.byte	76
  57 0018 2D       		.byte	45
ARM GAS  C:\Users\ADMINI~1.SC-\AppData\Local\Temp\ccGAQuWL.s 			page 2


  58 0019 30       		.byte	48
  59 001a 30       		.byte	48
  60 001b 30       		.byte	48
  61 001c 30       		.byte	48
  62 001d 30       		.byte	48
  63 001e 31       		.byte	49
  64 001f 63       		.byte	99
  65 0020 35       		.byte	53
  66 0021 08       		.byte	8
  67 0022 1B       		.byte	27
  68 0023 00       		.byte	0
  69 0024 00       		.byte	0
  70 0025 00       		.byte	0
  71 0026 00       		.byte	0
  72 0027 50       		.byte	80
  73 0028 A0       		.byte	-96
  74 0029 00       		.byte	0
  75 002a 00       		.byte	0
  76 002b 00       		.byte	0
  77 002c 00       		.byte	0
  78 002d 00       		.byte	0
  79 002e 00       		.byte	0
  80 002f 1A       		.byte	26
  81              		.global	cyBle_scanRspData
  82              		.align	2
  83              		.type	cyBle_scanRspData, %object
  84              		.size	cyBle_scanRspData, 32
  85              	cyBle_scanRspData:
  86 0030 0D       		.byte	13
  87 0031 09       		.byte	9
  88 0032 54       		.byte	84
  89 0033 4B       		.byte	75
  90 0034 4C       		.byte	76
  91 0035 2D       		.byte	45
  92 0036 30       		.byte	48
  93 0037 30       		.byte	48
  94 0038 30       		.byte	48
  95 0039 30       		.byte	48
  96 003a 30       		.byte	48
  97 003b 31       		.byte	49
  98 003c 63       		.byte	99
  99 003d 35       		.byte	53
 100 003e 08       		.byte	8
 101 003f 1B       		.byte	27
 102 0040 00       		.byte	0
 103 0041 00       		.byte	0
 104 0042 00       		.byte	0
 105 0043 00       		.byte	0
 106 0044 50       		.byte	80
 107 0045 A0       		.byte	-96
 108 0046 00       		.byte	0
 109 0047 00       		.byte	0
 110 0048 00       		.byte	0
 111 0049 00       		.byte	0
 112 004a 00       		.byte	0
 113 004b 00       		.byte	0
 114 004c 00       		.byte	0
ARM GAS  C:\Users\ADMINI~1.SC-\AppData\Local\Temp\ccGAQuWL.s 			page 3


 115 004d 00       		.byte	0
 116 004e 00       		.byte	0
 117 004f 17       		.byte	23
 118              		.global	cyBle_discoveryModeInfo
 119              		.align	2
 120              		.type	cyBle_discoveryModeInfo, %object
 121              		.size	cyBle_discoveryModeInfo, 20
 122              	cyBle_discoveryModeInfo:
 123 0050 02       		.byte	2
 124 0051 000000   		.space	3
 125 0054 00000000 		.word	cyBle_discoveryParam
 126 0058 00000000 		.word	cyBle_discoveryData
 127 005c 00000000 		.word	cyBle_scanRspData
 128 0060 0A00     		.short	10
 129 0062 0000     		.space	2
 130              		.comm	cyBle_peerBonding,1,1
 131              		.comm	cyBle_pendingFlashWrite,1,1
 132              		.comm	CyBle_ApplCallback,4,4
 133              		.global	cyBle_deviceAddress
 134              		.align	2
 135              		.type	cyBle_deviceAddress, %object
 136              		.size	cyBle_deviceAddress, 7
 137              	cyBle_deviceAddress:
 138 0064 00       		.byte	0
 139 0065 00       		.byte	0
 140 0066 00       		.byte	0
 141 0067 50       		.byte	80
 142 0068 A0       		.byte	-96
 143 0069 00       		.byte	0
 144 006a 00       		.byte	0
 145              		.global	cyBle_sflashDeviceAddress
 146 006b 00       		.align	2
 147              		.type	cyBle_sflashDeviceAddress, %object
 148              		.size	cyBle_sflashDeviceAddress, 4
 149              	cyBle_sflashDeviceAddress:
 150 006c 00F2FF0F 		.word	268431872
 151              		.global	cyBle_StackFlashptr
 152              		.section	.rodata
 153              		.align	7
 154              		.type	cyBle_StackFlashptr, %object
 155              		.size	cyBle_StackFlashptr, 365
 156              	cyBle_StackFlashptr:
 157 0000 00000000 		.space	365
 157      00000000 
 157      00000000 
 157      00000000 
 157      00000000 
 158              		.section	.text.CyBle_Init,"ax",%progbits
 159              		.align	2
 160              		.global	CyBle_Init
 161              		.code	16
 162              		.thumb_func
 163              		.type	CyBle_Init, %function
 164              	CyBle_Init:
 165              	.LFB2:
 166              		.file 1 "Generated_Source\\PSoC4\\BLE.c"
   1:Generated_Source\PSoC4/BLE.c **** /***************************************************************************//**
ARM GAS  C:\Users\ADMINI~1.SC-\AppData\Local\Temp\ccGAQuWL.s 			page 4


   2:Generated_Source\PSoC4/BLE.c **** * \file CYBLE.c
   3:Generated_Source\PSoC4/BLE.c **** * \version 2.30
   4:Generated_Source\PSoC4/BLE.c **** * 
   5:Generated_Source\PSoC4/BLE.c **** * \brief
   6:Generated_Source\PSoC4/BLE.c **** *  This file contains the source code for the Common APIs of the BLE Component.
   7:Generated_Source\PSoC4/BLE.c **** * 
   8:Generated_Source\PSoC4/BLE.c **** ********************************************************************************
   9:Generated_Source\PSoC4/BLE.c **** * \copyright
  10:Generated_Source\PSoC4/BLE.c **** * Copyright 2014-2015, Cypress Semiconductor Corporation.  All rights reserved.
  11:Generated_Source\PSoC4/BLE.c **** * You may use this file only in accordance with the license, terms, conditions,
  12:Generated_Source\PSoC4/BLE.c **** * disclaimers, and limitations in the end user license agreement accompanying
  13:Generated_Source\PSoC4/BLE.c **** * the software package with which this file was provided.
  14:Generated_Source\PSoC4/BLE.c **** *******************************************************************************/
  15:Generated_Source\PSoC4/BLE.c **** 
  16:Generated_Source\PSoC4/BLE.c **** #include "BLE_eventHandler.h"
  17:Generated_Source\PSoC4/BLE.c **** #include "BLE_HAL_PVT.h"
  18:Generated_Source\PSoC4/BLE.c **** #include <stdlib.h>
  19:Generated_Source\PSoC4/BLE.c **** 
  20:Generated_Source\PSoC4/BLE.c **** 
  21:Generated_Source\PSoC4/BLE.c **** /***************************************
  22:Generated_Source\PSoC4/BLE.c **** * Function Prototypes
  23:Generated_Source\PSoC4/BLE.c **** ***************************************/
  24:Generated_Source\PSoC4/BLE.c **** 
  25:Generated_Source\PSoC4/BLE.c **** #if(CYBLE_GATT_ROLE_SERVER)
  26:Generated_Source\PSoC4/BLE.c ****     #if(CYBLE_GAP_ROLE_PERIPHERAL)
  27:Generated_Source\PSoC4/BLE.c ****         static void CyBle_ChangeAdLocalName(const char8 name[], uint8 dest);
  28:Generated_Source\PSoC4/BLE.c ****     #endif /* (CYBLE_GAP_ROLE_PERIPHERAL) */
  29:Generated_Source\PSoC4/BLE.c **** #endif /* (CYBLE_GATT_ROLE_SERVER) */
  30:Generated_Source\PSoC4/BLE.c ****     
  31:Generated_Source\PSoC4/BLE.c **** 
  32:Generated_Source\PSoC4/BLE.c **** /***************************************
  33:Generated_Source\PSoC4/BLE.c **** * Global Variables
  34:Generated_Source\PSoC4/BLE.c **** ***************************************/
  35:Generated_Source\PSoC4/BLE.c **** 
  36:Generated_Source\PSoC4/BLE.c **** /* Indicates whether the BLE has been initialized. The variable is initialized to
  37:Generated_Source\PSoC4/BLE.c ****    0 and set to 1 the first time CyBle_Start() is called. This allows the component
  38:Generated_Source\PSoC4/BLE.c ****    to restart without reinitialization after the first call to the CyBle_Start() 
  39:Generated_Source\PSoC4/BLE.c ****    routine. If reinitialization of the component is required, the variable should 
  40:Generated_Source\PSoC4/BLE.c ****    be set to 0 before the CyBle_Start() routine is called. Alternatively, the BLE
  41:Generated_Source\PSoC4/BLE.c ****    can be reinitialized by calling the CyBle_Init() function.
  42:Generated_Source\PSoC4/BLE.c **** */
  43:Generated_Source\PSoC4/BLE.c **** uint8  cyBle_initVar = 0u;
  44:Generated_Source\PSoC4/BLE.c **** 
  45:Generated_Source\PSoC4/BLE.c **** /* Allocate RAM memory for stack. This buffer could be reused by application when 
  46:Generated_Source\PSoC4/BLE.c ****    BLE component is stopped. For export mode buffer is allocated in heap.
  47:Generated_Source\PSoC4/BLE.c **** */
  48:Generated_Source\PSoC4/BLE.c **** #if(CYBLE_SHARING_MODE_EXPORT)
  49:Generated_Source\PSoC4/BLE.c ****     
  50:Generated_Source\PSoC4/BLE.c **** uint8 *cyBle_stackMemoryRam = NULL;
  51:Generated_Source\PSoC4/BLE.c **** 
  52:Generated_Source\PSoC4/BLE.c **** #else
  53:Generated_Source\PSoC4/BLE.c **** 
  54:Generated_Source\PSoC4/BLE.c **** CYBLE_CYALIGNED_BEGIN uint8 cyBle_stackMemoryRam[CYBLE_STACK_RAM_SIZE] CYBLE_CYALIGNED_END;
  55:Generated_Source\PSoC4/BLE.c **** 
  56:Generated_Source\PSoC4/BLE.c **** #endif  /* CYBLE_SHARING_MODE_EXPORT */
  57:Generated_Source\PSoC4/BLE.c **** 
  58:Generated_Source\PSoC4/BLE.c **** #if(CYBLE_GAP_ROLE_PERIPHERAL || CYBLE_GAP_ROLE_BROADCASTER)
ARM GAS  C:\Users\ADMINI~1.SC-\AppData\Local\Temp\ccGAQuWL.s 			page 5


  59:Generated_Source\PSoC4/BLE.c **** 
  60:Generated_Source\PSoC4/BLE.c **** CYBLE_GAPP_DISC_PARAM_T cyBle_discoveryParam =
  61:Generated_Source\PSoC4/BLE.c **** {
  62:Generated_Source\PSoC4/BLE.c ****     0x0020u,    /* uint16 advertising_interval_min */
  63:Generated_Source\PSoC4/BLE.c ****     0x0050u,    /* uint16 advertising_interval_max */
  64:Generated_Source\PSoC4/BLE.c ****     CYBLE_GAPP_CONNECTABLE_UNDIRECTED_ADV, /* uint8 advertising_type */
  65:Generated_Source\PSoC4/BLE.c ****     0x00u,      /* uint8 own_addr_type */
  66:Generated_Source\PSoC4/BLE.c ****     0x00u,      /* uint8 direct_addr_type */
  67:Generated_Source\PSoC4/BLE.c ****     {0x00u, 0x00u, 0x00u, 0x50u, 0xA0u, 0x00u}, /* uint8* direct_addr */
  68:Generated_Source\PSoC4/BLE.c ****     0x07u,      /* uint8 advertising_channel_map */
  69:Generated_Source\PSoC4/BLE.c ****     0x00u,      /* uint8 advertising_filter_policy */
  70:Generated_Source\PSoC4/BLE.c **** };
  71:Generated_Source\PSoC4/BLE.c **** 
  72:Generated_Source\PSoC4/BLE.c **** CYBLE_GAPP_DISC_DATA_T cyBle_discoveryData =
  73:Generated_Source\PSoC4/BLE.c **** {
  74:Generated_Source\PSoC4/BLE.c ****     { 0x02u, 0x01u, 0x06u, 0x0Du, 0x09u, 0x54u, 0x4Bu,
  75:Generated_Source\PSoC4/BLE.c ****     0x4Cu, 0x2Du, 0x30u, 0x30u, 0x30u, 0x30u, 0x30u, 0x31u,
  76:Generated_Source\PSoC4/BLE.c ****     0x63u, 0x35u, 0x08u, 0x1Bu, 0x00u, 0x00u, 0x00u, 0x00u,
  77:Generated_Source\PSoC4/BLE.c ****     0x50u, 0xA0u, 0x00u, 0x00u, 0x00u, 0x00u, 0x00u, 0x00u }, /* uint8 advertising_data[CYBLE_MAX_A
  78:Generated_Source\PSoC4/BLE.c ****     0x1Au,      /* uint8 adv_data_length */
  79:Generated_Source\PSoC4/BLE.c **** };
  80:Generated_Source\PSoC4/BLE.c **** 
  81:Generated_Source\PSoC4/BLE.c **** CYBLE_GAPP_SCAN_RSP_DATA_T cyBle_scanRspData =
  82:Generated_Source\PSoC4/BLE.c **** {
  83:Generated_Source\PSoC4/BLE.c ****     { 0x0Du, 0x09u, 0x54u, 0x4Bu, 0x4Cu, 0x2Du, 0x30u,
  84:Generated_Source\PSoC4/BLE.c ****     0x30u, 0x30u, 0x30u, 0x30u, 0x31u, 0x63u, 0x35u, 0x08u,
  85:Generated_Source\PSoC4/BLE.c ****     0x1Bu, 0x00u, 0x00u, 0x00u, 0x00u, 0x50u, 0xA0u, 0x00u,
  86:Generated_Source\PSoC4/BLE.c ****     0x00u, 0x00u, 0x00u, 0x00u, 0x00u, 0x00u, 0x00u, 0x00u }, /* uint8 scan_rsp_data[CYBLE_MAX_SCAN
  87:Generated_Source\PSoC4/BLE.c ****     0x17u,      /* uint8 scan_rsp_data_length */
  88:Generated_Source\PSoC4/BLE.c **** };
  89:Generated_Source\PSoC4/BLE.c **** 
  90:Generated_Source\PSoC4/BLE.c **** /* This variable of type CYBLE_GAPP_DISC_MODE_INFO_T is present only when 
  91:Generated_Source\PSoC4/BLE.c ****    the BLE component is configured for Peripheral GAP role or Central and 
  92:Generated_Source\PSoC4/BLE.c ****    Peripheral GAP role. It contains the Advertisement settings and also the 
  93:Generated_Source\PSoC4/BLE.c ****    Advertisement and Scan response data parameters entered in the customizer.
  94:Generated_Source\PSoC4/BLE.c ****    This variable can be used by advanced users to change Advertisement settings,
  95:Generated_Source\PSoC4/BLE.c ****    Advertisement or Scan response data in runtime. 
  96:Generated_Source\PSoC4/BLE.c **** */
  97:Generated_Source\PSoC4/BLE.c **** CYBLE_GAPP_DISC_MODE_INFO_T cyBle_discoveryModeInfo =
  98:Generated_Source\PSoC4/BLE.c **** {
  99:Generated_Source\PSoC4/BLE.c ****     0x02u,      /* uint8 discMode */
 100:Generated_Source\PSoC4/BLE.c ****     &cyBle_discoveryParam,
 101:Generated_Source\PSoC4/BLE.c ****     &cyBle_discoveryData,
 102:Generated_Source\PSoC4/BLE.c ****     &cyBle_scanRspData,
 103:Generated_Source\PSoC4/BLE.c ****     0x000Au,    /* uint16 advTo */
 104:Generated_Source\PSoC4/BLE.c **** };
 105:Generated_Source\PSoC4/BLE.c **** 
 106:Generated_Source\PSoC4/BLE.c **** 
 107:Generated_Source\PSoC4/BLE.c **** #endif /* CYBLE_GAP_ROLE_PERIPHERAL || CYBLE_GAP_ROLE_BROADCASTER */
 108:Generated_Source\PSoC4/BLE.c **** 
 109:Generated_Source\PSoC4/BLE.c **** #if(CYBLE_GAP_ROLE_CENTRAL)
 110:Generated_Source\PSoC4/BLE.c ****     
 111:Generated_Source\PSoC4/BLE.c **** CYBLE_GAPC_CONN_PARAM_T cyBle_connectionParameters;
 112:Generated_Source\PSoC4/BLE.c **** 
 113:Generated_Source\PSoC4/BLE.c **** /* Connecting timeout is set to 30 seconds in CyBle_Init function. 
 114:Generated_Source\PSoC4/BLE.c ****    Not zero value starts timer in CyBle_GapcConnectDevice API.
 115:Generated_Source\PSoC4/BLE.c **** */
ARM GAS  C:\Users\ADMINI~1.SC-\AppData\Local\Temp\ccGAQuWL.s 			page 6


 116:Generated_Source\PSoC4/BLE.c **** uint16 cyBle_connectingTimeout;
 117:Generated_Source\PSoC4/BLE.c ****     
 118:Generated_Source\PSoC4/BLE.c **** #endif /* CYBLE_GAP_ROLE_CENTRAL */
 119:Generated_Source\PSoC4/BLE.c **** 
 120:Generated_Source\PSoC4/BLE.c **** #if(CYBLE_GAP_ROLE_CENTRAL || CYBLE_GAP_ROLE_OBSERVER)
 121:Generated_Source\PSoC4/BLE.c ****     
 122:Generated_Source\PSoC4/BLE.c **** 
 123:Generated_Source\PSoC4/BLE.c ****     
 124:Generated_Source\PSoC4/BLE.c **** #endif /* CYBLE_GAP_ROLE_CENTRAL || CYBLE_GAP_ROLE_OBSERVER */
 125:Generated_Source\PSoC4/BLE.c **** 
 126:Generated_Source\PSoC4/BLE.c **** #if((CYBLE_GAP_ROLE_PERIPHERAL || CYBLE_GAP_ROLE_CENTRAL) && (CYBLE_BONDING_REQUIREMENT == CYBLE_BO
 127:Generated_Source\PSoC4/BLE.c **** 
 128:Generated_Source\PSoC4/BLE.c **** uint8 cyBle_peerBonding;
 129:Generated_Source\PSoC4/BLE.c **** uint8 cyBle_pendingFlashWrite;
 130:Generated_Source\PSoC4/BLE.c ****     
 131:Generated_Source\PSoC4/BLE.c **** #endif  /* (CYBLE_BONDING_REQUIREMENT == CYBLE_BONDING_YES) */
 132:Generated_Source\PSoC4/BLE.c **** 
 133:Generated_Source\PSoC4/BLE.c **** CYBLE_CALLBACK_T CyBle_ApplCallback;
 134:Generated_Source\PSoC4/BLE.c **** CYBLE_GAP_BD_ADDR_T cyBle_deviceAddress = {{0x00u, 0x00u, 0x00u, 0x50u, 0xA0u, 0x00u}, 0x00u };
 135:Generated_Source\PSoC4/BLE.c **** CYBLE_GAP_BD_ADDR_T * cyBle_sflashDeviceAddress = CYBLE_SFLASH_DEVICE_ADDRESS_PTR;
 136:Generated_Source\PSoC4/BLE.c **** 
 137:Generated_Source\PSoC4/BLE.c **** #if(CYBLE_MODE_PROFILE)
 138:Generated_Source\PSoC4/BLE.c ****     #if defined(__ARMCC_VERSION)
 139:Generated_Source\PSoC4/BLE.c ****         CY_ALIGN(CYDEV_FLS_ROW_SIZE) const uint8 cyBle_StackFlashptr[CYBLE_STACK_FLASH_SIZE] = {0u}
 140:Generated_Source\PSoC4/BLE.c ****     #elif defined (__GNUC__)
 141:Generated_Source\PSoC4/BLE.c ****         const uint8 cyBle_StackFlashptr[CYBLE_STACK_FLASH_SIZE] CY_ALIGN(CYDEV_FLS_ROW_SIZE) = {0u}
 142:Generated_Source\PSoC4/BLE.c ****     #elif defined (__ICCARM__)
 143:Generated_Source\PSoC4/BLE.c ****         #pragma data_alignment=CY_FLASH_SIZEOF_ROW
 144:Generated_Source\PSoC4/BLE.c ****         const uint8 cyBle_StackFlashptr[CYBLE_STACK_FLASH_SIZE] = {0u};
 145:Generated_Source\PSoC4/BLE.c ****     #endif  /* (__ARMCC_VERSION) */
 146:Generated_Source\PSoC4/BLE.c **** #endif /* (CYBLE_MODE_PROFILE) */
 147:Generated_Source\PSoC4/BLE.c **** 
 148:Generated_Source\PSoC4/BLE.c **** 
 149:Generated_Source\PSoC4/BLE.c **** /******************************************************************************
 150:Generated_Source\PSoC4/BLE.c **** * Function Name: CyBle_Init
 151:Generated_Source\PSoC4/BLE.c **** ***************************************************************************//**
 152:Generated_Source\PSoC4/BLE.c **** *
 153:Generated_Source\PSoC4/BLE.c **** *   Initializes the component with the parameters set in the customizer.
 154:Generated_Source\PSoC4/BLE.c **** * 
 155:Generated_Source\PSoC4/BLE.c **** *  \return
 156:Generated_Source\PSoC4/BLE.c **** *   None
 157:Generated_Source\PSoC4/BLE.c **** * 
 158:Generated_Source\PSoC4/BLE.c **** ******************************************************************************/
 159:Generated_Source\PSoC4/BLE.c **** void CyBle_Init(void)
 160:Generated_Source\PSoC4/BLE.c **** {
 167              		.loc 1 160 0
 168              		.cfi_startproc
 169 0000 80B5     		push	{r7, lr}
 170              		.cfi_def_cfa_offset 8
 171              		.cfi_offset 7, -8
 172              		.cfi_offset 14, -4
 173 0002 00AF     		add	r7, sp, #0
 174              		.cfi_def_cfa_register 7
 161:Generated_Source\PSoC4/BLE.c ****     cyBle_eventHandlerFlag = 0u;
 175              		.loc 1 161 0
 176 0004 094B     		ldr	r3, .L2
 177 0006 0022     		mov	r2, #0
ARM GAS  C:\Users\ADMINI~1.SC-\AppData\Local\Temp\ccGAQuWL.s 			page 7


 178 0008 1A70     		strb	r2, [r3]
 162:Generated_Source\PSoC4/BLE.c ****     cyBle_busyStatus = CYBLE_STACK_STATE_FREE;
 179              		.loc 1 162 0
 180 000a 094B     		ldr	r3, .L2+4
 181 000c 0022     		mov	r2, #0
 182 000e 1A70     		strb	r2, [r3]
 163:Generated_Source\PSoC4/BLE.c **** 
 164:Generated_Source\PSoC4/BLE.c ****     #if(CYBLE_GAP_ROLE_PERIPHERAL || CYBLE_GAP_ROLE_BROADCASTER) 
 165:Generated_Source\PSoC4/BLE.c ****         cyBle_advertisingIntervalType = CYBLE_ADVERTISING_FAST; 
 183              		.loc 1 165 0
 184 0010 084B     		ldr	r3, .L2+8
 185 0012 0022     		mov	r2, #0
 186 0014 1A70     		strb	r2, [r3]
 166:Generated_Source\PSoC4/BLE.c ****     #endif /* (CYBLE_GAP_ROLE_PERIPHERAL || CYBLE_GAP_ROLE_BROADCASTER)  */
 167:Generated_Source\PSoC4/BLE.c ****     #if(CYBLE_GAP_ROLE_CENTRAL || CYBLE_GAP_ROLE_OBSERVER)
 168:Generated_Source\PSoC4/BLE.c ****         cyBle_scanningIntervalType = CYBLE_SCANNING_FAST; 
 169:Generated_Source\PSoC4/BLE.c ****     #endif /* (CYBLE_GAP_ROLE_CENTRAL || CYBLE_GAP_ROLE_OBSERVER) */
 170:Generated_Source\PSoC4/BLE.c ****         
 171:Generated_Source\PSoC4/BLE.c ****     /* Init default connection parameters. 
 172:Generated_Source\PSoC4/BLE.c ****        Application may change it before initiating a connection */
 173:Generated_Source\PSoC4/BLE.c ****     #if(CYBLE_GAP_ROLE_CENTRAL)
 174:Generated_Source\PSoC4/BLE.c ****         cyBle_connectionParameters.scanIntv = cyBle_discoveryInfo.scanIntv;
 175:Generated_Source\PSoC4/BLE.c ****         cyBle_connectionParameters.scanWindow = cyBle_discoveryInfo.scanWindow;
 176:Generated_Source\PSoC4/BLE.c ****         cyBle_connectionParameters.ownAddrType = cyBle_discoveryInfo.ownAddrType;
 177:Generated_Source\PSoC4/BLE.c ****         cyBle_connectionParameters.initiatorFilterPolicy = cyBle_discoveryInfo.scanFilterPolicy;
 178:Generated_Source\PSoC4/BLE.c ****         cyBle_connectionParameters.connIntvMin = CYBLE_GAPC_CONNECTION_INTERVAL_MIN;
 179:Generated_Source\PSoC4/BLE.c ****         cyBle_connectionParameters.connIntvMax = CYBLE_GAPC_CONNECTION_INTERVAL_MAX;
 180:Generated_Source\PSoC4/BLE.c ****         cyBle_connectionParameters.connLatency = CYBLE_GAPC_CONNECTION_SLAVE_LATENCY;
 181:Generated_Source\PSoC4/BLE.c ****         cyBle_connectionParameters.supervisionTO = CYBLE_GAPC_CONNECTION_TIME_OUT;
 182:Generated_Source\PSoC4/BLE.c ****         cyBle_connectionParameters.minCeLength = 0x0000u;
 183:Generated_Source\PSoC4/BLE.c ****         cyBle_connectionParameters.maxCeLength = 0xFFFFu;
 184:Generated_Source\PSoC4/BLE.c ****         
 185:Generated_Source\PSoC4/BLE.c ****         cyBle_connectingTimeout = CYBLE_GAPC_CONNECTING_TIMEOUT;
 186:Generated_Source\PSoC4/BLE.c ****     #endif /* CYBLE_GAP_ROLE_CENTRAL */
 187:Generated_Source\PSoC4/BLE.c **** 
 188:Generated_Source\PSoC4/BLE.c ****     CyBle_ServiceInit();
 187              		.loc 1 188 0
 188 0016 FFF7FEFF 		bl	CyBle_ServiceInit
 189:Generated_Source\PSoC4/BLE.c **** 
 190:Generated_Source\PSoC4/BLE.c ****     #if((CYBLE_GAP_ROLE_PERIPHERAL || CYBLE_GAP_ROLE_CENTRAL) && (CYBLE_BONDING_REQUIREMENT == CYBL
 191:Generated_Source\PSoC4/BLE.c ****         cyBle_pendingFlashWrite = 0u;
 189              		.loc 1 191 0
 190 001a 074B     		ldr	r3, .L2+12
 191 001c 0022     		mov	r2, #0
 192 001e 1A70     		strb	r2, [r3]
 192:Generated_Source\PSoC4/BLE.c ****         cyBle_peerBonding = CYBLE_GAP_BONDING_NONE;
 193              		.loc 1 192 0
 194 0020 064B     		ldr	r3, .L2+16
 195 0022 0022     		mov	r2, #0
 196 0024 1A70     		strb	r2, [r3]
 193:Generated_Source\PSoC4/BLE.c ****     #endif  /* (CYBLE_BONDING_REQUIREMENT == CYBLE_BONDING_YES) */
 194:Generated_Source\PSoC4/BLE.c **** 
 195:Generated_Source\PSoC4/BLE.c **** }
 197              		.loc 1 195 0
 198 0026 BD46     		mov	sp, r7
 199              		@ sp needed
 200 0028 80BD     		pop	{r7, pc}
ARM GAS  C:\Users\ADMINI~1.SC-\AppData\Local\Temp\ccGAQuWL.s 			page 8


 201              	.L3:
 202 002a C046     		.align	2
 203              	.L2:
 204 002c 00000000 		.word	cyBle_eventHandlerFlag
 205 0030 00000000 		.word	cyBle_busyStatus
 206 0034 00000000 		.word	cyBle_advertisingIntervalType
 207 0038 00000000 		.word	cyBle_pendingFlashWrite
 208 003c 00000000 		.word	cyBle_peerBonding
 209              		.cfi_endproc
 210              	.LFE2:
 211              		.size	CyBle_Init, .-CyBle_Init
 212              		.section	.text.CyBle_ServiceInit,"ax",%progbits
 213              		.align	2
 214              		.global	CyBle_ServiceInit
 215              		.code	16
 216              		.thumb_func
 217              		.type	CyBle_ServiceInit, %function
 218              	CyBle_ServiceInit:
 219              	.LFB3:
 196:Generated_Source\PSoC4/BLE.c **** 
 197:Generated_Source\PSoC4/BLE.c **** 
 198:Generated_Source\PSoC4/BLE.c **** /******************************************************************************
 199:Generated_Source\PSoC4/BLE.c **** * Function Name: CyBle_ServiceInit
 200:Generated_Source\PSoC4/BLE.c **** ***************************************************************************//**
 201:Generated_Source\PSoC4/BLE.c **** * 
 202:Generated_Source\PSoC4/BLE.c **** *  Initializes all included services.
 203:Generated_Source\PSoC4/BLE.c **** * 
 204:Generated_Source\PSoC4/BLE.c **** * \return
 205:Generated_Source\PSoC4/BLE.c **** *  None
 206:Generated_Source\PSoC4/BLE.c **** * 
 207:Generated_Source\PSoC4/BLE.c **** ******************************************************************************/
 208:Generated_Source\PSoC4/BLE.c **** void CyBle_ServiceInit(void)
 209:Generated_Source\PSoC4/BLE.c **** {
 220              		.loc 1 209 0
 221              		.cfi_startproc
 222 0000 80B5     		push	{r7, lr}
 223              		.cfi_def_cfa_offset 8
 224              		.cfi_offset 7, -8
 225              		.cfi_offset 14, -4
 226 0002 00AF     		add	r7, sp, #0
 227              		.cfi_def_cfa_register 7
 210:Generated_Source\PSoC4/BLE.c ****     #if(CYBLE_GATT_ROLE_CLIENT)
 211:Generated_Source\PSoC4/BLE.c ****         (void)memset(&cyBle_gapc, 0, sizeof(cyBle_gapc));
 212:Generated_Source\PSoC4/BLE.c ****         (void)memset(&cyBle_gattc, 0, sizeof(cyBle_gattc));
 213:Generated_Source\PSoC4/BLE.c ****     #endif /* CYBLE_GATT_ROLE_CLIENT */
 214:Generated_Source\PSoC4/BLE.c ****     
 215:Generated_Source\PSoC4/BLE.c **** 	#ifdef CYBLE_ANCS
 216:Generated_Source\PSoC4/BLE.c ****         CyBle_AncsInit();
 217:Generated_Source\PSoC4/BLE.c ****     #endif /* CYBLE_ANCS */
 218:Generated_Source\PSoC4/BLE.c **** 	
 219:Generated_Source\PSoC4/BLE.c ****     #ifdef CYBLE_ANS
 220:Generated_Source\PSoC4/BLE.c ****         CyBle_AnsInit();
 221:Generated_Source\PSoC4/BLE.c ****     #endif /* CYBLE_ANS */
 222:Generated_Source\PSoC4/BLE.c ****     
 223:Generated_Source\PSoC4/BLE.c ****     #ifdef CYBLE_BAS
 224:Generated_Source\PSoC4/BLE.c ****         CyBle_BasInit();
 225:Generated_Source\PSoC4/BLE.c ****     #endif /* CYBLE_BAS */
ARM GAS  C:\Users\ADMINI~1.SC-\AppData\Local\Temp\ccGAQuWL.s 			page 9


 226:Generated_Source\PSoC4/BLE.c ****     
 227:Generated_Source\PSoC4/BLE.c ****     #ifdef CYBLE_BLS
 228:Generated_Source\PSoC4/BLE.c ****         CyBle_BlsInit();
 229:Generated_Source\PSoC4/BLE.c ****     #endif /* CYBLE_BLS */
 230:Generated_Source\PSoC4/BLE.c ****     
 231:Generated_Source\PSoC4/BLE.c ****     #ifdef CYBLE_BMS
 232:Generated_Source\PSoC4/BLE.c ****         CyBle_BmsInit();
 233:Generated_Source\PSoC4/BLE.c ****     #endif /* CYBLE_BMS */
 234:Generated_Source\PSoC4/BLE.c ****     
 235:Generated_Source\PSoC4/BLE.c ****     #ifdef CYBLE_CGMS
 236:Generated_Source\PSoC4/BLE.c ****         CyBle_CgmsInit();
 237:Generated_Source\PSoC4/BLE.c ****     #endif /* CYBLE_CGMS */
 238:Generated_Source\PSoC4/BLE.c **** 
 239:Generated_Source\PSoC4/BLE.c ****     #ifdef CYBLE_CPS
 240:Generated_Source\PSoC4/BLE.c ****         CyBle_CpsInit();
 241:Generated_Source\PSoC4/BLE.c ****     #endif /* CYBLE_CPS */
 242:Generated_Source\PSoC4/BLE.c **** 
 243:Generated_Source\PSoC4/BLE.c ****     #ifdef CYBLE_CSCS
 244:Generated_Source\PSoC4/BLE.c ****         CyBle_CscsInit();
 245:Generated_Source\PSoC4/BLE.c ****     #endif /* CYBLE_CSCS */
 246:Generated_Source\PSoC4/BLE.c ****     
 247:Generated_Source\PSoC4/BLE.c ****     #ifdef CYBLE_CTS
 248:Generated_Source\PSoC4/BLE.c ****         CyBle_CtsInit();
 249:Generated_Source\PSoC4/BLE.c ****     #endif /* CYBLE_CTS */
 250:Generated_Source\PSoC4/BLE.c **** 
 251:Generated_Source\PSoC4/BLE.c ****     #ifdef CYBLE_DIS
 252:Generated_Source\PSoC4/BLE.c ****         CyBle_DisInit();
 253:Generated_Source\PSoC4/BLE.c ****     #endif /* CYBLE_DIS */
 254:Generated_Source\PSoC4/BLE.c **** 
 255:Generated_Source\PSoC4/BLE.c ****     #ifdef CYBLE_ESS
 256:Generated_Source\PSoC4/BLE.c ****         CyBle_EssInit();
 257:Generated_Source\PSoC4/BLE.c ****     #endif /* CYBLE_ESS */
 258:Generated_Source\PSoC4/BLE.c ****     
 259:Generated_Source\PSoC4/BLE.c ****     #ifdef CYBLE_GLS
 260:Generated_Source\PSoC4/BLE.c ****         CyBle_GlsInit();
 261:Generated_Source\PSoC4/BLE.c ****     #endif /* CYBLE_GLS */
 262:Generated_Source\PSoC4/BLE.c ****     
 263:Generated_Source\PSoC4/BLE.c ****     #ifdef CYBLE_CUSTOM
 264:Generated_Source\PSoC4/BLE.c ****         CyBle_CustomInit();
 228              		.loc 1 264 0
 229 0004 FFF7FEFF 		bl	CyBle_CustomInit
 265:Generated_Source\PSoC4/BLE.c ****     #endif /* CYBLE_CUSTOM */
 266:Generated_Source\PSoC4/BLE.c **** 
 267:Generated_Source\PSoC4/BLE.c ****     #ifdef CYBLE_HIDS
 268:Generated_Source\PSoC4/BLE.c ****         CyBle_HidsInit();
 269:Generated_Source\PSoC4/BLE.c ****     #endif /* CYBLE_HIDS */
 270:Generated_Source\PSoC4/BLE.c **** 
 271:Generated_Source\PSoC4/BLE.c ****     #ifdef CYBLE_HRS
 272:Generated_Source\PSoC4/BLE.c ****         CyBle_HrsInit();
 273:Generated_Source\PSoC4/BLE.c ****     #endif /* CYBLE_HRS */
 274:Generated_Source\PSoC4/BLE.c ****     
 275:Generated_Source\PSoC4/BLE.c ****     #ifdef CYBLE_HTS
 276:Generated_Source\PSoC4/BLE.c ****         CyBle_HtsInit();
 277:Generated_Source\PSoC4/BLE.c ****     #endif /* CYBLE_RSCS */
 278:Generated_Source\PSoC4/BLE.c **** 
 279:Generated_Source\PSoC4/BLE.c ****     #ifdef CYBLE_IAS
 280:Generated_Source\PSoC4/BLE.c ****         CyBle_IasInit();
ARM GAS  C:\Users\ADMINI~1.SC-\AppData\Local\Temp\ccGAQuWL.s 			page 10


 281:Generated_Source\PSoC4/BLE.c ****     #endif /* CYBLE_IAS */
 282:Generated_Source\PSoC4/BLE.c **** 
 283:Generated_Source\PSoC4/BLE.c ****     #ifdef CYBLE_LLS
 284:Generated_Source\PSoC4/BLE.c ****         CyBle_LlsInit();
 285:Generated_Source\PSoC4/BLE.c ****     #endif /* CYBLE_LLS */
 286:Generated_Source\PSoC4/BLE.c **** 
 287:Generated_Source\PSoC4/BLE.c ****     #ifdef CYBLE_RTUS
 288:Generated_Source\PSoC4/BLE.c ****         CyBle_RtusInit();
 289:Generated_Source\PSoC4/BLE.c ****     #endif /* CYBLE_RTUS */
 290:Generated_Source\PSoC4/BLE.c **** 
 291:Generated_Source\PSoC4/BLE.c ****     #ifdef CYBLE_LNS
 292:Generated_Source\PSoC4/BLE.c ****         CyBle_LnsInit();
 293:Generated_Source\PSoC4/BLE.c ****     #endif /* CYBLE_LNS */
 294:Generated_Source\PSoC4/BLE.c ****     
 295:Generated_Source\PSoC4/BLE.c ****     #ifdef CYBLE_PASS
 296:Generated_Source\PSoC4/BLE.c ****         CyBle_PassInit();
 297:Generated_Source\PSoC4/BLE.c ****     #endif /* CYBLE_PASS */
 298:Generated_Source\PSoC4/BLE.c ****     
 299:Generated_Source\PSoC4/BLE.c ****     #ifdef CYBLE_RSCS
 300:Generated_Source\PSoC4/BLE.c ****         CyBle_RscsInit();
 301:Generated_Source\PSoC4/BLE.c ****     #endif /* CYBLE_RSCS */
 302:Generated_Source\PSoC4/BLE.c **** 
 303:Generated_Source\PSoC4/BLE.c ****     #ifdef CYBLE_SCPS
 304:Generated_Source\PSoC4/BLE.c ****         CyBle_ScpsInit();
 305:Generated_Source\PSoC4/BLE.c ****     #endif /* CYBLE_SCPS */
 306:Generated_Source\PSoC4/BLE.c ****     
 307:Generated_Source\PSoC4/BLE.c ****     #ifdef CYBLE_TPS
 308:Generated_Source\PSoC4/BLE.c ****         CyBle_TpsInit();
 309:Generated_Source\PSoC4/BLE.c ****     #endif /* CYBLE_TPS */
 310:Generated_Source\PSoC4/BLE.c ****     
 311:Generated_Source\PSoC4/BLE.c ****     #ifdef CYBLE_UDS
 312:Generated_Source\PSoC4/BLE.c ****         CyBle_UdsInit();
 313:Generated_Source\PSoC4/BLE.c ****     #endif /* CYBLE_UDS */
 314:Generated_Source\PSoC4/BLE.c **** 
 315:Generated_Source\PSoC4/BLE.c ****     #ifdef CYBLE_WPTS
 316:Generated_Source\PSoC4/BLE.c ****         CyBle_WptsInit();
 317:Generated_Source\PSoC4/BLE.c ****     #endif /* CYBLE_WPTS */
 318:Generated_Source\PSoC4/BLE.c **** 
 319:Generated_Source\PSoC4/BLE.c ****     #ifdef CYBLE_WSS
 320:Generated_Source\PSoC4/BLE.c ****         CyBle_WssInit();
 321:Generated_Source\PSoC4/BLE.c ****     #endif /* CYBLE_WSS */
 322:Generated_Source\PSoC4/BLE.c **** }
 230              		.loc 1 322 0
 231 0008 BD46     		mov	sp, r7
 232              		@ sp needed
 233 000a 80BD     		pop	{r7, pc}
 234              		.cfi_endproc
 235              	.LFE3:
 236              		.size	CyBle_ServiceInit, .-CyBle_ServiceInit
 237              		.section	.rodata
 238 016d 000000   		.align	2
 239              	.LC0:
 240 0170 2400     		.short	36
 241 0172 03       		.byte	3
 242 0173 00       		.space	1
 243 0174 1800     		.short	24
 244 0176 01       		.byte	1
ARM GAS  C:\Users\ADMINI~1.SC-\AppData\Local\Temp\ccGAQuWL.s 			page 11


 245 0177 00       		.space	1
 246 0178 3000     		.short	48
 247 017a 01       		.byte	1
 248 017b 00       		.space	1
 249 017c 4800     		.short	72
 250 017e 01       		.byte	1
 251 017f 00       		.space	1
 252 0180 2400     		.short	36
 253 0182 01       		.byte	1
 254 0183 00       		.space	1
 255 0184 2400     		.short	36
 256 0186 01       		.byte	1
 257 0187 00       		.space	1
 258 0188 00000000 		.section	.text.CyBle_Start,"ax",%progbits
 258      00000000 
 258      00000000 
 258      00000000 
 258      00000000 
 259              		.align	2
 260              		.global	CyBle_Start
 261              		.code	16
 262              		.thumb_func
 263              		.type	CyBle_Start, %function
 264              	CyBle_Start:
 265              	.LFB4:
 323:Generated_Source\PSoC4/BLE.c **** 
 324:Generated_Source\PSoC4/BLE.c **** 
 325:Generated_Source\PSoC4/BLE.c **** /******************************************************************************
 326:Generated_Source\PSoC4/BLE.c **** * Function Name: CyBle_Start
 327:Generated_Source\PSoC4/BLE.c **** ***************************************************************************//**
 328:Generated_Source\PSoC4/BLE.c **** * 
 329:Generated_Source\PSoC4/BLE.c **** *  This function initializes the BLE Stack, which consists of the BLE Stack 
 330:Generated_Source\PSoC4/BLE.c **** *  Manager, BLE Controller, and BLE Host modules. It takes care of initializing
 331:Generated_Source\PSoC4/BLE.c **** *  the Profile layer, schedulers, Timer and other platform related
 332:Generated_Source\PSoC4/BLE.c **** *  resources required for the BLE component. It also registers the callback 
 333:Generated_Source\PSoC4/BLE.c **** *  function for BLE events that will be registered in the BLE stack.
 334:Generated_Source\PSoC4/BLE.c **** * 
 335:Generated_Source\PSoC4/BLE.c **** *  Note that this function does not reset the BLE Stack.
 336:Generated_Source\PSoC4/BLE.c **** * 
 337:Generated_Source\PSoC4/BLE.c **** *  For HCI-Mode of operation, this function will not initialize the BLE Host 
 338:Generated_Source\PSoC4/BLE.c **** *  module.
 339:Generated_Source\PSoC4/BLE.c **** * 
 340:Generated_Source\PSoC4/BLE.c **** *  Calling this function results in the generation of CYBLE_EVT_STACK_ON event
 341:Generated_Source\PSoC4/BLE.c **** *  on successful initialization of the BLE Stack.
 342:Generated_Source\PSoC4/BLE.c **** * 
 343:Generated_Source\PSoC4/BLE.c **** *  \param callbackFunc: Event callback function to receive events from BLE stack.
 344:Generated_Source\PSoC4/BLE.c **** *   CYBLE_CALLBACK_T is a function pointer type.
 345:Generated_Source\PSoC4/BLE.c **** * 
 346:Generated_Source\PSoC4/BLE.c **** * \return
 347:Generated_Source\PSoC4/BLE.c **** *  CYBLE_API_RESULT_T : Return value indicates if the function succeeded or 
 348:Generated_Source\PSoC4/BLE.c **** *  failed. Following are the possible error codes.
 349:Generated_Source\PSoC4/BLE.c **** * 
 350:Generated_Source\PSoC4/BLE.c **** *   <table>
 351:Generated_Source\PSoC4/BLE.c **** *  	  <tr>
 352:Generated_Source\PSoC4/BLE.c **** *       <th>Error codes</th>
 353:Generated_Source\PSoC4/BLE.c **** *       <th>Description</th>
 354:Generated_Source\PSoC4/BLE.c **** *     </tr>
ARM GAS  C:\Users\ADMINI~1.SC-\AppData\Local\Temp\ccGAQuWL.s 			page 12


 355:Generated_Source\PSoC4/BLE.c **** *     <tr>
 356:Generated_Source\PSoC4/BLE.c **** *       <td>CYBLE_ERROR_OK</td>
 357:Generated_Source\PSoC4/BLE.c **** *       <td>On successful operation.</td>
 358:Generated_Source\PSoC4/BLE.c **** *     </tr>
 359:Generated_Source\PSoC4/BLE.c **** *     <tr>
 360:Generated_Source\PSoC4/BLE.c **** *       <td>CYBLE_ERROR_INVALID_PARAMETER</td>
 361:Generated_Source\PSoC4/BLE.c **** *       <td>On passing a NULL pointer to the function when the BLE stack is not built in HCI mode. 
 362:Generated_Source\PSoC4/BLE.c **** *			CYBLE_ERROR_INVALID_PARAMETER is never returned in HCI mode.</td>
 363:Generated_Source\PSoC4/BLE.c **** *     </tr>
 364:Generated_Source\PSoC4/BLE.c **** *     <tr>
 365:Generated_Source\PSoC4/BLE.c **** *       <td>CYBLE_ERROR_REPEATED_ATTEMPTS</td>
 366:Generated_Source\PSoC4/BLE.c **** *       <td>On invoking this function more than once without calling CyBle_Shutdown() 
 367:Generated_Source\PSoC4/BLE.c **** *           function between calls to this function.</td>
 368:Generated_Source\PSoC4/BLE.c **** *     </tr>
 369:Generated_Source\PSoC4/BLE.c **** *     <tr>
 370:Generated_Source\PSoC4/BLE.c **** *       <td>CYBLE_ERROR_MEMORY_ALLOCATION_FAILED</td>
 371:Generated_Source\PSoC4/BLE.c **** *       <td>There is insufficient memory available.</td>
 372:Generated_Source\PSoC4/BLE.c **** *     </tr>
 373:Generated_Source\PSoC4/BLE.c **** *   </table>
 374:Generated_Source\PSoC4/BLE.c **** * 
 375:Generated_Source\PSoC4/BLE.c **** *  \globalvars
 376:Generated_Source\PSoC4/BLE.c **** *   The CyBle_initVar variable is used to indicate initial
 377:Generated_Source\PSoC4/BLE.c **** *   configuration of this component. The variable is initialized to zero (0u)
 378:Generated_Source\PSoC4/BLE.c **** *   and set to one (1u) the first time CyBle_Start() is called. This
 379:Generated_Source\PSoC4/BLE.c **** *   allows for component initialization without re-initialization in all
 380:Generated_Source\PSoC4/BLE.c **** *   subsequent calls to the CyBle_Start() routine.
 381:Generated_Source\PSoC4/BLE.c **** * 
 382:Generated_Source\PSoC4/BLE.c **** ******************************************************************************/
 383:Generated_Source\PSoC4/BLE.c **** CYBLE_API_RESULT_T CyBle_Start(CYBLE_CALLBACK_T callbackFunc)
 384:Generated_Source\PSoC4/BLE.c **** {
 266              		.loc 1 384 0
 267              		.cfi_startproc
 268 0000 F0B5     		push	{r4, r5, r6, r7, lr}
 269              		.cfi_def_cfa_offset 20
 270              		.cfi_offset 4, -20
 271              		.cfi_offset 5, -16
 272              		.cfi_offset 6, -12
 273              		.cfi_offset 7, -8
 274              		.cfi_offset 14, -4
 275 0002 8FB0     		sub	sp, sp, #60
 276              		.cfi_def_cfa_offset 80
 277 0004 04AF     		add	r7, sp, #16
 278              		.cfi_def_cfa 7, 64
 279 0006 7860     		str	r0, [r7, #4]
 385:Generated_Source\PSoC4/BLE.c ****     CYBLE_API_RESULT_T apiResult = CYBLE_ERROR_OK;
 280              		.loc 1 385 0
 281 0008 2623     		mov	r3, #38
 282 000a FB18     		add	r3, r7, r3
 283 000c 0022     		mov	r2, #0
 284 000e 1A80     		strh	r2, [r3]
 386:Generated_Source\PSoC4/BLE.c ****     
 387:Generated_Source\PSoC4/BLE.c ****     #if(CYBLE_MODE_PROFILE)
 388:Generated_Source\PSoC4/BLE.c ****     
 389:Generated_Source\PSoC4/BLE.c ****     CYBLE_STK_APP_DATA_BUFF_T cyBle_stackDataBuff[CYBLE_STACK_BUF_COUNT] = 
 285              		.loc 1 389 0
 286 0010 0C23     		mov	r3, #12
 287 0012 FA18     		add	r2, r7, r3
ARM GAS  C:\Users\ADMINI~1.SC-\AppData\Local\Temp\ccGAQuWL.s 			page 13


 288 0014 284B     		ldr	r3, .L11
 289 0016 111C     		mov	r1, r2
 290 0018 1A1C     		mov	r2, r3
 291 001a 1823     		mov	r3, #24
 292 001c 081C     		mov	r0, r1
 293 001e 111C     		mov	r1, r2
 294 0020 1A1C     		mov	r2, r3
 295 0022 FFF7FEFF 		bl	memcpy
 390:Generated_Source\PSoC4/BLE.c ****     {
 391:Generated_Source\PSoC4/BLE.c ****         {CYBLE_GATT_MTU_PLUS_L2CAP_MEM_EXT, CYBLE_GATT_MTU_BUF_COUNT},
 392:Generated_Source\PSoC4/BLE.c ****         {CYBLE_GATT_MAX_ATTR_LEN_PLUS_L2CAP_MEM_EXT, 1u},
 393:Generated_Source\PSoC4/BLE.c ****         {CYBLE_L2CAP_PSM_PLUS_L2CAP_MEM_EXT, CYBLE_L2CAP_PSM_COUNT},
 394:Generated_Source\PSoC4/BLE.c ****         {CYBLE_L2CAP_CBFC_PLUS_L2CAP_MEM_EXT, CYBLE_L2CAP_LOGICAL_CHANNEL_COUNT},
 395:Generated_Source\PSoC4/BLE.c ****         {CYBLE_L2CAP_MTU_PLUS_L2CAP_MEM_EXT, CYBLE_L2CAP_LOGICAL_CHANNEL_COUNT},
 396:Generated_Source\PSoC4/BLE.c ****         {CYBLE_L2CAP_MPS_PLUS_L2CAP_MEM_EXT, CYBLE_L2CAP_LOGICAL_CHANNEL_COUNT * (CYBLE_L2CAP_MTU/C
 397:Generated_Source\PSoC4/BLE.c ****     }; 
 398:Generated_Source\PSoC4/BLE.c **** 
 399:Generated_Source\PSoC4/BLE.c ****     #endif /* CYBLE_MODE_PROFILE */
 400:Generated_Source\PSoC4/BLE.c ****     
 401:Generated_Source\PSoC4/BLE.c ****     /* If not initialized then initialize all the required hardware and software */
 402:Generated_Source\PSoC4/BLE.c ****     if(cyBle_initVar == 0u)
 296              		.loc 1 402 0
 297 0026 254B     		ldr	r3, .L11+4
 298 0028 1B78     		ldrb	r3, [r3]
 299 002a 002B     		cmp	r3, #0
 300 002c 04D1     		bne	.L6
 403:Generated_Source\PSoC4/BLE.c ****     {
 404:Generated_Source\PSoC4/BLE.c ****         CyBle_Init();
 301              		.loc 1 404 0
 302 002e FFF7FEFF 		bl	CyBle_Init
 405:Generated_Source\PSoC4/BLE.c ****         cyBle_initVar = 1u;
 303              		.loc 1 405 0
 304 0032 224B     		ldr	r3, .L11+4
 305 0034 0122     		mov	r2, #1
 306 0036 1A70     		strb	r2, [r3]
 307              	.L6:
 406:Generated_Source\PSoC4/BLE.c ****     }
 407:Generated_Source\PSoC4/BLE.c ****     
 408:Generated_Source\PSoC4/BLE.c ****     if(callbackFunc != NULL)
 308              		.loc 1 408 0
 309 0038 7B68     		ldr	r3, [r7, #4]
 310 003a 002B     		cmp	r3, #0
 311 003c 30D0     		beq	.L7
 409:Generated_Source\PSoC4/BLE.c ****     {
 410:Generated_Source\PSoC4/BLE.c ****     #if(CYBLE_SHARING_MODE_EXPORT)
 411:Generated_Source\PSoC4/BLE.c ****         if(cyBle_stackMemoryRam == NULL)
 412:Generated_Source\PSoC4/BLE.c ****         {
 413:Generated_Source\PSoC4/BLE.c ****             cyBle_stackMemoryRam = (uint8 *)malloc(CYBLE_STACK_RAM_SIZE);
 414:Generated_Source\PSoC4/BLE.c ****             if(cyBle_stackMemoryRam == NULL)
 415:Generated_Source\PSoC4/BLE.c ****             {
 416:Generated_Source\PSoC4/BLE.c ****                 apiResult = CYBLE_ERROR_MEMORY_ALLOCATION_FAILED;
 417:Generated_Source\PSoC4/BLE.c ****             } 
 418:Generated_Source\PSoC4/BLE.c ****         }
 419:Generated_Source\PSoC4/BLE.c ****     #endif /* CYBLE_SHARING_MODE_EXPORT */
 420:Generated_Source\PSoC4/BLE.c ****         if(apiResult == CYBLE_ERROR_OK)
 312              		.loc 1 420 0
 313 003e 2623     		mov	r3, #38
ARM GAS  C:\Users\ADMINI~1.SC-\AppData\Local\Temp\ccGAQuWL.s 			page 14


 314 0040 FB18     		add	r3, r7, r3
 315 0042 1B88     		ldrh	r3, [r3]
 316 0044 002B     		cmp	r3, #0
 317 0046 2FD1     		bne	.L9
 421:Generated_Source\PSoC4/BLE.c ****         {
 422:Generated_Source\PSoC4/BLE.c ****             CyBle_ApplCallback = callbackFunc;
 318              		.loc 1 422 0
 319 0048 1D4B     		ldr	r3, .L11+8
 320 004a 7A68     		ldr	r2, [r7, #4]
 321 004c 1A60     		str	r2, [r3]
 423:Generated_Source\PSoC4/BLE.c ****             
 424:Generated_Source\PSoC4/BLE.c ****         #if(CYBLE_MODE_PROFILE)
 425:Generated_Source\PSoC4/BLE.c ****             apiResult = CyBle_StackInit(&CyBle_EventHandler, cyBle_stackMemoryRam, CYBLE_STACK_RAM_
 322              		.loc 1 425 0
 323 004e 2623     		mov	r3, #38
 324 0050 FC18     		add	r4, r7, r3
 325 0052 1C49     		ldr	r1, .L11+12
 326 0054 1C4A     		ldr	r2, .L11+16
 327 0056 1D4E     		ldr	r6, .L11+20
 328 0058 0C23     		mov	r3, #12
 329 005a FD18     		add	r5, r7, r3
 330 005c 0623     		mov	r3, #6
 331 005e 0093     		str	r3, [sp]
 332 0060 1B4B     		ldr	r3, .L11+24
 333 0062 0193     		str	r3, [sp, #4]
 334 0064 6E23     		mov	r3, #110
 335 0066 FF33     		add	r3, r3, #255
 336 0068 0293     		str	r3, [sp, #8]
 337 006a 081C     		mov	r0, r1
 338 006c 111C     		mov	r1, r2
 339 006e 321C     		mov	r2, r6
 340 0070 2B1C     		mov	r3, r5
 341 0072 FFF7FEFF 		bl	CyBle_StackInit
 342 0076 031C     		mov	r3, r0
 343 0078 2380     		strh	r3, [r4]
 426:Generated_Source\PSoC4/BLE.c ****                 cyBle_stackDataBuff, CYBLE_STACK_BUF_COUNT, cyBle_flashStorage.stackFlashptr, CYBLE
 427:Generated_Source\PSoC4/BLE.c ****         #else
 428:Generated_Source\PSoC4/BLE.c ****             apiResult = CyBle_StackInit(&CyBle_EventHandler, cyBle_stackMemoryRam, CYBLE_STACK_RAM_
 429:Generated_Source\PSoC4/BLE.c ****                 NULL, 0u, NULL, 0u);
 430:Generated_Source\PSoC4/BLE.c ****         #endif /* CYBLE_MODE_PROFILE */
 431:Generated_Source\PSoC4/BLE.c **** 
 432:Generated_Source\PSoC4/BLE.c ****             if(apiResult == CYBLE_ERROR_OK)
 344              		.loc 1 432 0
 345 007a 2623     		mov	r3, #38
 346 007c FB18     		add	r3, r7, r3
 347 007e 1B88     		ldrh	r3, [r3]
 348 0080 002B     		cmp	r3, #0
 349 0082 11D1     		bne	.L9
 433:Generated_Source\PSoC4/BLE.c ****             {
 434:Generated_Source\PSoC4/BLE.c ****                 CyBle_SetState(CYBLE_STATE_INITIALIZING);
 350              		.loc 1 434 0
 351 0084 134B     		ldr	r3, .L11+28
 352 0086 0122     		mov	r2, #1
 353 0088 1A70     		strb	r2, [r3]
 435:Generated_Source\PSoC4/BLE.c ****                 
 436:Generated_Source\PSoC4/BLE.c ****             #if (CYBLE_GATT_ROLE_CLIENT)
 437:Generated_Source\PSoC4/BLE.c ****                 CyBle_SetClientState(CYBLE_CLIENT_STATE_DISCONNECTED);
ARM GAS  C:\Users\ADMINI~1.SC-\AppData\Local\Temp\ccGAQuWL.s 			page 15


 438:Generated_Source\PSoC4/BLE.c ****             #endif /* CYBLE_GATT_ROLE_CLIENT */
 439:Generated_Source\PSoC4/BLE.c ****                 
 440:Generated_Source\PSoC4/BLE.c ****             #if(CYBLE_GATT_ROLE_SERVER)
 441:Generated_Source\PSoC4/BLE.c ****                 apiResult = CyBle_GattsDbRegister(cyBle_gattDB, CYBLE_GATT_DB_INDEX_COUNT, CYBLE_GA
 354              		.loc 1 441 0
 355 008a 2623     		mov	r3, #38
 356 008c FC18     		add	r4, r7, r3
 357 008e 124B     		ldr	r3, .L11+32
 358 0090 181C     		mov	r0, r3
 359 0092 1421     		mov	r1, #20
 360 0094 0C22     		mov	r2, #12
 361 0096 FFF7FEFF 		bl	CyBle_GattsDbRegister
 362 009a 031C     		mov	r3, r0
 363 009c 2380     		strh	r3, [r4]
 364 009e 03E0     		b	.L9
 365              	.L7:
 442:Generated_Source\PSoC4/BLE.c ****             #endif /* CYBLE_GATT_ROLE_SERVER */
 443:Generated_Source\PSoC4/BLE.c ****             }
 444:Generated_Source\PSoC4/BLE.c ****         }
 445:Generated_Source\PSoC4/BLE.c ****     }
 446:Generated_Source\PSoC4/BLE.c ****     else
 447:Generated_Source\PSoC4/BLE.c ****     {
 448:Generated_Source\PSoC4/BLE.c ****         apiResult = CYBLE_ERROR_INVALID_PARAMETER;
 366              		.loc 1 448 0
 367 00a0 2623     		mov	r3, #38
 368 00a2 FB18     		add	r3, r7, r3
 369 00a4 0122     		mov	r2, #1
 370 00a6 1A80     		strh	r2, [r3]
 371              	.L9:
 449:Generated_Source\PSoC4/BLE.c ****     }
 450:Generated_Source\PSoC4/BLE.c **** 
 451:Generated_Source\PSoC4/BLE.c ****     return (apiResult);
 372              		.loc 1 451 0
 373 00a8 2623     		mov	r3, #38
 374 00aa FB18     		add	r3, r7, r3
 375 00ac 1B88     		ldrh	r3, [r3]
 452:Generated_Source\PSoC4/BLE.c **** }
 376              		.loc 1 452 0
 377 00ae 181C     		mov	r0, r3
 378 00b0 BD46     		mov	sp, r7
 379 00b2 0BB0     		add	sp, sp, #44
 380              		@ sp needed
 381 00b4 F0BD     		pop	{r4, r5, r6, r7, pc}
 382              	.L12:
 383 00b6 C046     		.align	2
 384              	.L11:
 385 00b8 70010000 		.word	.LC0
 386 00bc 00000000 		.word	cyBle_initVar
 387 00c0 00000000 		.word	CyBle_ApplCallback
 388 00c4 00000000 		.word	CyBle_EventHandler
 389 00c8 00000000 		.word	cyBle_stackMemoryRam
 390 00cc C40A0000 		.word	2756
 391 00d0 00000000 		.word	cyBle_flashStorage
 392 00d4 00000000 		.word	cyBle_state
 393 00d8 00000000 		.word	cyBle_gattDB
 394              		.cfi_endproc
 395              	.LFE4:
ARM GAS  C:\Users\ADMINI~1.SC-\AppData\Local\Temp\ccGAQuWL.s 			page 16


 396              		.size	CyBle_Start, .-CyBle_Start
 397              		.section	.text.CyBle_Stop,"ax",%progbits
 398              		.align	2
 399              		.global	CyBle_Stop
 400              		.code	16
 401              		.thumb_func
 402              		.type	CyBle_Stop, %function
 403              	CyBle_Stop:
 404              	.LFB5:
 453:Generated_Source\PSoC4/BLE.c **** 
 454:Generated_Source\PSoC4/BLE.c **** 
 455:Generated_Source\PSoC4/BLE.c **** /******************************************************************************
 456:Generated_Source\PSoC4/BLE.c **** * Function Name: CyBle_Stop
 457:Generated_Source\PSoC4/BLE.c **** ***************************************************************************//**
 458:Generated_Source\PSoC4/BLE.c **** * 
 459:Generated_Source\PSoC4/BLE.c **** *  This function stops any ongoing operation in the BLE Stack and forces the 
 460:Generated_Source\PSoC4/BLE.c **** *  BLE Stack to shut down. The only function that can be called after calling
 461:Generated_Source\PSoC4/BLE.c **** *  this function is CyBle_Start(). 
 462:Generated_Source\PSoC4/BLE.c **** * 
 463:Generated_Source\PSoC4/BLE.c **** * \return
 464:Generated_Source\PSoC4/BLE.c **** *  None
 465:Generated_Source\PSoC4/BLE.c **** * 
 466:Generated_Source\PSoC4/BLE.c **** ******************************************************************************/
 467:Generated_Source\PSoC4/BLE.c **** void CyBle_Stop(void)
 468:Generated_Source\PSoC4/BLE.c **** {
 405              		.loc 1 468 0
 406              		.cfi_startproc
 407 0000 80B5     		push	{r7, lr}
 408              		.cfi_def_cfa_offset 8
 409              		.cfi_offset 7, -8
 410              		.cfi_offset 14, -4
 411 0002 00AF     		add	r7, sp, #0
 412              		.cfi_def_cfa_register 7
 469:Generated_Source\PSoC4/BLE.c ****     CyBle_Shutdown();                         /* Stop all ongoing activities */
 413              		.loc 1 469 0
 414 0004 FFF7FEFF 		bl	CyBle_Shutdown
 470:Generated_Source\PSoC4/BLE.c ****     CyBle_SetState(CYBLE_STATE_STOPPED);
 415              		.loc 1 470 0
 416 0008 024B     		ldr	r3, .L14
 417 000a 0022     		mov	r2, #0
 418 000c 1A70     		strb	r2, [r3]
 471:Generated_Source\PSoC4/BLE.c ****     #if(CYBLE_SHARING_MODE_EXPORT)
 472:Generated_Source\PSoC4/BLE.c ****         if(cyBle_stackMemoryRam != NULL)
 473:Generated_Source\PSoC4/BLE.c ****         {
 474:Generated_Source\PSoC4/BLE.c ****             free(cyBle_stackMemoryRam);
 475:Generated_Source\PSoC4/BLE.c ****         }
 476:Generated_Source\PSoC4/BLE.c ****     #endif /* CYBLE_SHARING_MODE_EXPORT */
 477:Generated_Source\PSoC4/BLE.c **** }
 419              		.loc 1 477 0
 420 000e BD46     		mov	sp, r7
 421              		@ sp needed
 422 0010 80BD     		pop	{r7, pc}
 423              	.L15:
 424 0012 C046     		.align	2
 425              	.L14:
 426 0014 00000000 		.word	cyBle_state
 427              		.cfi_endproc
ARM GAS  C:\Users\ADMINI~1.SC-\AppData\Local\Temp\ccGAQuWL.s 			page 17


 428              	.LFE5:
 429              		.size	CyBle_Stop, .-CyBle_Stop
 430              		.section	.text.CyBle_StoreBondingData,"ax",%progbits
 431              		.align	2
 432              		.global	CyBle_StoreBondingData
 433              		.code	16
 434              		.thumb_func
 435              		.type	CyBle_StoreBondingData, %function
 436              	CyBle_StoreBondingData:
 437              	.LFB6:
 478:Generated_Source\PSoC4/BLE.c **** 
 479:Generated_Source\PSoC4/BLE.c **** 
 480:Generated_Source\PSoC4/BLE.c **** #if((CYBLE_GAP_ROLE_PERIPHERAL || CYBLE_GAP_ROLE_CENTRAL) && (CYBLE_BONDING_REQUIREMENT == CYBLE_BO
 481:Generated_Source\PSoC4/BLE.c **** 
 482:Generated_Source\PSoC4/BLE.c ****     
 483:Generated_Source\PSoC4/BLE.c **** /******************************************************************************
 484:Generated_Source\PSoC4/BLE.c **** * Function Name: CyBle_StoreBondingData
 485:Generated_Source\PSoC4/BLE.c **** ***************************************************************************//**
 486:Generated_Source\PSoC4/BLE.c **** * 
 487:Generated_Source\PSoC4/BLE.c **** *  This function writes the new bonding data from RAM to the dedicated Flash 
 488:Generated_Source\PSoC4/BLE.c **** *  location as defined by the component. It performs data comparing between RAM
 489:Generated_Source\PSoC4/BLE.c **** *  and Flash before writing to Flash. If there is no change between RAM and Flash
 490:Generated_Source\PSoC4/BLE.c **** *  data, then no write is performed. It writes only one flash row in one call.
 491:Generated_Source\PSoC4/BLE.c **** *  Application should keep calling this function till API return CYBLE_ERROR_OK. 
 492:Generated_Source\PSoC4/BLE.c **** *  This function is available only when Bonding requirement is selected in
 493:Generated_Source\PSoC4/BLE.c **** *  Security settings.    
 494:Generated_Source\PSoC4/BLE.c **** * 
 495:Generated_Source\PSoC4/BLE.c **** *  \param isForceWrite:  If value is set to 0, then stack will check if flash write 
 496:Generated_Source\PSoC4/BLE.c **** *                 is permissible. 
 497:Generated_Source\PSoC4/BLE.c **** *  
 498:Generated_Source\PSoC4/BLE.c **** * \return
 499:Generated_Source\PSoC4/BLE.c **** *  Return value is of type CYBLE_API_RESULT_T.
 500:Generated_Source\PSoC4/BLE.c **** *
 501:Generated_Source\PSoC4/BLE.c **** *   Errors codes                         | Description
 502:Generated_Source\PSoC4/BLE.c **** *   ----------------------------------   | ------------------------------------
 503:Generated_Source\PSoC4/BLE.c **** *   CYBLE_ERROR_OK                       | On successful operation
 504:Generated_Source\PSoC4/BLE.c **** *   CYBLE_ERROR_FLASH_WRITE_NOT_PERMITED | Flash Write is not complete
 505:Generated_Source\PSoC4/BLE.c **** *    
 506:Generated_Source\PSoC4/BLE.c **** *  \sideeffect
 507:Generated_Source\PSoC4/BLE.c **** *   For BLE devices with 128K of Flash memory this API will automatically 
 508:Generated_Source\PSoC4/BLE.c **** *   modify the clock settings for the device.
 509:Generated_Source\PSoC4/BLE.c **** *   Writing to flash requires changes to be done to the IMO (set to 48 MHz)
 510:Generated_Source\PSoC4/BLE.c **** *   and HFCLK (source set to IMO) settings. The configuration is restored before
 511:Generated_Source\PSoC4/BLE.c **** *   returning. This will impact the operation of most of the hardware in the
 512:Generated_Source\PSoC4/BLE.c **** *   device.
 513:Generated_Source\PSoC4/BLE.c **** * 
 514:Generated_Source\PSoC4/BLE.c **** *  \globalvars
 515:Generated_Source\PSoC4/BLE.c **** *   The BLE_pendingFlashWrite variable is used to detect status
 516:Generated_Source\PSoC4/BLE.c **** *   of pending write to flash operation for stack data and CCCD.
 517:Generated_Source\PSoC4/BLE.c **** *   This API automatically clears pending bits after write operation complete.
 518:Generated_Source\PSoC4/BLE.c **** *     
 519:Generated_Source\PSoC4/BLE.c **** ******************************************************************************/
 520:Generated_Source\PSoC4/BLE.c **** CYBLE_API_RESULT_T CyBle_StoreBondingData(uint8 isForceWrite)
 521:Generated_Source\PSoC4/BLE.c **** {
 438              		.loc 1 521 0
 439              		.cfi_startproc
 440 0000 90B5     		push	{r4, r7, lr}
ARM GAS  C:\Users\ADMINI~1.SC-\AppData\Local\Temp\ccGAQuWL.s 			page 18


 441              		.cfi_def_cfa_offset 12
 442              		.cfi_offset 4, -12
 443              		.cfi_offset 7, -8
 444              		.cfi_offset 14, -4
 445 0002 85B0     		sub	sp, sp, #20
 446              		.cfi_def_cfa_offset 32
 447 0004 00AF     		add	r7, sp, #0
 448              		.cfi_def_cfa_register 7
 449 0006 021C     		mov	r2, r0
 450 0008 FB1D     		add	r3, r7, #7
 451 000a 1A70     		strb	r2, [r3]
 522:Generated_Source\PSoC4/BLE.c ****     CYBLE_API_RESULT_T apiResult = CYBLE_ERROR_OK;
 452              		.loc 1 522 0
 453 000c 0E23     		mov	r3, #14
 454 000e FB18     		add	r3, r7, r3
 455 0010 0022     		mov	r2, #0
 456 0012 1A80     		strh	r2, [r3]
 523:Generated_Source\PSoC4/BLE.c ****     
 524:Generated_Source\PSoC4/BLE.c ****     /* Store Stack data */
 525:Generated_Source\PSoC4/BLE.c ****     if((cyBle_pendingFlashWrite & CYBLE_PENDING_STACK_FLASH_WRITE_BIT) != 0u)
 457              		.loc 1 525 0
 458 0014 314B     		ldr	r3, .L21
 459 0016 1B78     		ldrb	r3, [r3]
 460 0018 1A1C     		mov	r2, r3
 461 001a 0123     		mov	r3, #1
 462 001c 1340     		and	r3, r2
 463 001e 1ED0     		beq	.L17
 526:Generated_Source\PSoC4/BLE.c ****     {
 527:Generated_Source\PSoC4/BLE.c ****         apiResult = CyBle_StoreStackData(isForceWrite);
 464              		.loc 1 527 0
 465 0020 0E23     		mov	r3, #14
 466 0022 FC18     		add	r4, r7, r3
 467 0024 FB1D     		add	r3, r7, #7
 468 0026 1B78     		ldrb	r3, [r3]
 469 0028 181C     		mov	r0, r3
 470 002a FFF7FEFF 		bl	CyBle_StoreStackData
 471 002e 031C     		mov	r3, r0
 472 0030 2380     		strh	r3, [r4]
 528:Generated_Source\PSoC4/BLE.c ****         if(apiResult == CYBLE_ERROR_OK)
 473              		.loc 1 528 0
 474 0032 0E23     		mov	r3, #14
 475 0034 FB18     		add	r3, r7, r3
 476 0036 1B88     		ldrh	r3, [r3]
 477 0038 002B     		cmp	r3, #0
 478 003a 10D1     		bne	.L17
 529:Generated_Source\PSoC4/BLE.c ****         {
 530:Generated_Source\PSoC4/BLE.c ****             cyBle_pendingFlashWrite &= (uint8)~CYBLE_PENDING_STACK_FLASH_WRITE_BIT;
 479              		.loc 1 530 0
 480 003c 274B     		ldr	r3, .L21
 481 003e 1B78     		ldrb	r3, [r3]
 482 0040 0122     		mov	r2, #1
 483 0042 9343     		bic	r3, r2
 484 0044 DAB2     		uxtb	r2, r3
 485 0046 254B     		ldr	r3, .L21
 486 0048 1A70     		strb	r2, [r3]
 531:Generated_Source\PSoC4/BLE.c ****             /* Change apiResult if there are more pending data to store */
 532:Generated_Source\PSoC4/BLE.c ****             if((cyBle_pendingFlashWrite & CYBLE_PENDING_CCCD_FLASH_WRITE_BIT) != 0u)
ARM GAS  C:\Users\ADMINI~1.SC-\AppData\Local\Temp\ccGAQuWL.s 			page 19


 487              		.loc 1 532 0
 488 004a 244B     		ldr	r3, .L21
 489 004c 1B78     		ldrb	r3, [r3]
 490 004e 1A1C     		mov	r2, r3
 491 0050 0223     		mov	r3, #2
 492 0052 1340     		and	r3, r2
 493 0054 03D0     		beq	.L17
 533:Generated_Source\PSoC4/BLE.c ****             {
 534:Generated_Source\PSoC4/BLE.c ****                 apiResult = CYBLE_ERROR_FLASH_WRITE_NOT_PERMITED;
 494              		.loc 1 534 0
 495 0056 0E23     		mov	r3, #14
 496 0058 FB18     		add	r3, r7, r3
 497 005a 2822     		mov	r2, #40
 498 005c 1A80     		strh	r2, [r3]
 499              	.L17:
 535:Generated_Source\PSoC4/BLE.c ****             }
 536:Generated_Source\PSoC4/BLE.c ****         }
 537:Generated_Source\PSoC4/BLE.c ****     }
 538:Generated_Source\PSoC4/BLE.c **** #if(CYBLE_GATT_DB_CCCD_COUNT != 0u)
 539:Generated_Source\PSoC4/BLE.c ****     /* Store CCCD values */
 540:Generated_Source\PSoC4/BLE.c ****     if( ((apiResult == CYBLE_ERROR_OK) || (isForceWrite != 0u)) && 
 500              		.loc 1 540 0
 501 005e 0E23     		mov	r3, #14
 502 0060 FB18     		add	r3, r7, r3
 503 0062 1B88     		ldrh	r3, [r3]
 504 0064 002B     		cmp	r3, #0
 505 0066 03D0     		beq	.L18
 506              		.loc 1 540 0 is_stmt 0 discriminator 2
 507 0068 FB1D     		add	r3, r7, #7
 508 006a 1B78     		ldrb	r3, [r3]
 509 006c 002B     		cmp	r3, #0
 510 006e 2ED0     		beq	.L19
 511              	.L18:
 541:Generated_Source\PSoC4/BLE.c ****         ((cyBle_pendingFlashWrite & CYBLE_PENDING_CCCD_FLASH_WRITE_BIT) != 0u) &&
 512              		.loc 1 541 0 is_stmt 1 discriminator 3
 513 0070 1A4B     		ldr	r3, .L21
 514 0072 1B78     		ldrb	r3, [r3]
 515 0074 1A1C     		mov	r2, r3
 516 0076 0223     		mov	r3, #2
 517 0078 1340     		and	r3, r2
 540:Generated_Source\PSoC4/BLE.c ****         ((cyBle_pendingFlashWrite & CYBLE_PENDING_CCCD_FLASH_WRITE_BIT) != 0u) &&
 518              		.loc 1 540 0 discriminator 3
 519 007a 28D0     		beq	.L19
 542:Generated_Source\PSoC4/BLE.c ****         (cyBle_connHandle.bdHandle <= CYBLE_GAP_MAX_BONDED_DEVICE))
 520              		.loc 1 542 0
 521 007c 184B     		ldr	r3, .L21+4
 522 007e 1B78     		ldrb	r3, [r3]
 541:Generated_Source\PSoC4/BLE.c ****         ((cyBle_pendingFlashWrite & CYBLE_PENDING_CCCD_FLASH_WRITE_BIT) != 0u) &&
 523              		.loc 1 541 0
 524 0080 042B     		cmp	r3, #4
 525 0082 24D8     		bhi	.L19
 543:Generated_Source\PSoC4/BLE.c ****     {
 544:Generated_Source\PSoC4/BLE.c ****         apiResult = CyBle_StoreAppData(cyBle_attValuesCCCD, cyBle_flashStorage.attValuesCCCDFlashMe
 526              		.loc 1 544 0
 527 0084 164B     		ldr	r3, .L21+4
 528 0086 1B78     		ldrb	r3, [r3]
 529 0088 1A1C     		mov	r2, r3
ARM GAS  C:\Users\ADMINI~1.SC-\AppData\Local\Temp\ccGAQuWL.s 			page 20


 530 008a 131C     		mov	r3, r2
 531 008c 5B00     		lsl	r3, r3, #1
 532 008e 9B18     		add	r3, r3, r2
 533 0090 5B00     		lsl	r3, r3, #1
 534 0092 6933     		add	r3, r3, #105
 535 0094 FF33     		add	r3, r3, #255
 536 0096 1A1C     		mov	r2, r3
 537 0098 124B     		ldr	r3, .L21+8
 538 009a D318     		add	r3, r2, r3
 539 009c 5A1D     		add	r2, r3, #5
 540 009e 0E23     		mov	r3, #14
 541 00a0 FC18     		add	r4, r7, r3
 542 00a2 1149     		ldr	r1, .L21+12
 543 00a4 FB1D     		add	r3, r7, #7
 544 00a6 1B78     		ldrb	r3, [r3]
 545 00a8 081C     		mov	r0, r1
 546 00aa 111C     		mov	r1, r2
 547 00ac 0622     		mov	r2, #6
 548 00ae FFF7FEFF 		bl	CyBle_StoreAppData
 549 00b2 031C     		mov	r3, r0
 550 00b4 2380     		strh	r3, [r4]
 545:Generated_Source\PSoC4/BLE.c ****                                        CYBLE_GATT_DB_CCCD_COUNT, isForceWrite);
 546:Generated_Source\PSoC4/BLE.c ****         if(apiResult == CYBLE_ERROR_OK)
 551              		.loc 1 546 0
 552 00b6 0E23     		mov	r3, #14
 553 00b8 FB18     		add	r3, r7, r3
 554 00ba 1B88     		ldrh	r3, [r3]
 555 00bc 002B     		cmp	r3, #0
 556 00be 06D1     		bne	.L19
 547:Generated_Source\PSoC4/BLE.c ****         {
 548:Generated_Source\PSoC4/BLE.c ****             cyBle_pendingFlashWrite &= (uint8)~CYBLE_PENDING_CCCD_FLASH_WRITE_BIT;
 557              		.loc 1 548 0
 558 00c0 064B     		ldr	r3, .L21
 559 00c2 1B78     		ldrb	r3, [r3]
 560 00c4 0222     		mov	r2, #2
 561 00c6 9343     		bic	r3, r2
 562 00c8 DAB2     		uxtb	r2, r3
 563 00ca 044B     		ldr	r3, .L21
 564 00cc 1A70     		strb	r2, [r3]
 565              	.L19:
 549:Generated_Source\PSoC4/BLE.c ****         }
 550:Generated_Source\PSoC4/BLE.c ****     }
 551:Generated_Source\PSoC4/BLE.c **** #endif /* CYBLE_GATT_DB_CCCD_COUNT != 0u */
 552:Generated_Source\PSoC4/BLE.c ****     return(apiResult);
 566              		.loc 1 552 0
 567 00ce 0E23     		mov	r3, #14
 568 00d0 FB18     		add	r3, r7, r3
 569 00d2 1B88     		ldrh	r3, [r3]
 553:Generated_Source\PSoC4/BLE.c **** }
 570              		.loc 1 553 0
 571 00d4 181C     		mov	r0, r3
 572 00d6 BD46     		mov	sp, r7
 573 00d8 05B0     		add	sp, sp, #20
 574              		@ sp needed
 575 00da 90BD     		pop	{r4, r7, pc}
 576              	.L22:
 577              		.align	2
ARM GAS  C:\Users\ADMINI~1.SC-\AppData\Local\Temp\ccGAQuWL.s 			page 21


 578              	.L21:
 579 00dc 00000000 		.word	cyBle_pendingFlashWrite
 580 00e0 00000000 		.word	cyBle_connHandle
 581 00e4 00000000 		.word	cyBle_flashStorage
 582 00e8 00000000 		.word	cyBle_attValuesCCCD
 583              		.cfi_endproc
 584              	.LFE6:
 585              		.size	CyBle_StoreBondingData, .-CyBle_StoreBondingData
 586              		.section	.text.CyBle_GappStartAdvertisement,"ax",%progbits
 587              		.align	2
 588              		.global	CyBle_GappStartAdvertisement
 589              		.code	16
 590              		.thumb_func
 591              		.type	CyBle_GappStartAdvertisement, %function
 592              	CyBle_GappStartAdvertisement:
 593              	.LFB7:
 554:Generated_Source\PSoC4/BLE.c **** 
 555:Generated_Source\PSoC4/BLE.c **** 
 556:Generated_Source\PSoC4/BLE.c **** #endif /* (CYBLE_GAP_ROLE_PERIPHERAL || CYBLE_GAP_ROLE_CENTRAL) && (CYBLE_BONDING_REQUIREMENT == CY
 557:Generated_Source\PSoC4/BLE.c **** 
 558:Generated_Source\PSoC4/BLE.c **** 
 559:Generated_Source\PSoC4/BLE.c **** #if(CYBLE_GAP_ROLE_PERIPHERAL || CYBLE_GAP_ROLE_BROADCASTER)
 560:Generated_Source\PSoC4/BLE.c **** 
 561:Generated_Source\PSoC4/BLE.c ****     /******************************************************************************
 562:Generated_Source\PSoC4/BLE.c ****     *  Function Name: CyBle_GappStartAdvertisement
 563:Generated_Source\PSoC4/BLE.c ****     ***************************************************************************//**
 564:Generated_Source\PSoC4/BLE.c ****     *     
 565:Generated_Source\PSoC4/BLE.c ****     *  This function is used to start the advertisement using the advertisement data 
 566:Generated_Source\PSoC4/BLE.c ****     *  set in the component customizer's GUI. After invoking this API, the device 
 567:Generated_Source\PSoC4/BLE.c ****     *  will be available for connection by the devices configured for GAP central 
 568:Generated_Source\PSoC4/BLE.c ****     *  role. It is only included if the device is configured for GAP Peripheral or 
 569:Generated_Source\PSoC4/BLE.c ****     *  GAP Peripheral + Central role.
 570:Generated_Source\PSoC4/BLE.c ****     *  
 571:Generated_Source\PSoC4/BLE.c ****     *  On start of advertisement, GAP Peripheral receives the
 572:Generated_Source\PSoC4/BLE.c ****     *  CYBLE_EVT_GAPP_ADVERTISEMENT_START_STOP event. The following events are 
 573:Generated_Source\PSoC4/BLE.c ****     *  possible on invoking this function:
 574:Generated_Source\PSoC4/BLE.c ****     *  
 575:Generated_Source\PSoC4/BLE.c ****     *  * CYBLE_EVT_GAP_DEVICE_CONNECTED: If the device connects to remote GAP 
 576:Generated_Source\PSoC4/BLE.c ****     *                                      Central device
 577:Generated_Source\PSoC4/BLE.c ****     *  * CYBLE_EVT_TIMEOUT: If no device in GAP Central mode connects to this 
 578:Generated_Source\PSoC4/BLE.c ****     *                       device within the specified timeout limit. Stack 
 579:Generated_Source\PSoC4/BLE.c ****     *                       automatically initiate stop advertising when Slow 
 580:Generated_Source\PSoC4/BLE.c ****     *                       advertising was initiated, or starts Slow advertising
 581:Generated_Source\PSoC4/BLE.c ****     *                       after Fast advertising timeout occur.
 582:Generated_Source\PSoC4/BLE.c ****     *  * CYBLE_EVT_GAPP_ADVERTISEMENT_START_STOP: If device started or stopped
 583:Generated_Source\PSoC4/BLE.c ****     *                                               advertising. Use CyBle_GetState()
 584:Generated_Source\PSoC4/BLE.c ****     *                                               to determine the state. Sequential 
 585:Generated_Source\PSoC4/BLE.c ****     *                                               advertising could be started when
 586:Generated_Source\PSoC4/BLE.c ****     *                                               CYBLE_STATE_DISCONNECTED state is
 587:Generated_Source\PSoC4/BLE.c ****     *                                               returned.
 588:Generated_Source\PSoC4/BLE.c ****     * 
 589:Generated_Source\PSoC4/BLE.c ****     *  \param advertisingIntervalType: Fast or slow advertising interval with timings
 590:Generated_Source\PSoC4/BLE.c ****     *                                 entered in Advertising settings section of the
 591:Generated_Source\PSoC4/BLE.c ****     *                                 customizer.
 592:Generated_Source\PSoC4/BLE.c ****     *  * CYBLE_ADVERTISING_FAST   0x00u
 593:Generated_Source\PSoC4/BLE.c ****     *  * CYBLE_ADVERTISING_SLOW   0x01u
 594:Generated_Source\PSoC4/BLE.c ****     *  * CYBLE_ADVERTISING_CUSTOM 0x02u
ARM GAS  C:\Users\ADMINI~1.SC-\AppData\Local\Temp\ccGAQuWL.s 			page 22


 595:Generated_Source\PSoC4/BLE.c ****     * 
 596:Generated_Source\PSoC4/BLE.c ****     * \return
 597:Generated_Source\PSoC4/BLE.c ****     *  CYBLE_API_RESULT_T : Return value indicates if the function succeeded or
 598:Generated_Source\PSoC4/BLE.c ****     *  failed. Following are the possible error codes.
 599:Generated_Source\PSoC4/BLE.c ****     * 
 600:Generated_Source\PSoC4/BLE.c ****     *   Errors codes                      |  Description
 601:Generated_Source\PSoC4/BLE.c ****     *   --------------------------------- |  --------------------------------
 602:Generated_Source\PSoC4/BLE.c ****     *   CYBLE_ERROR_OK                    |  On successful operation.
 603:Generated_Source\PSoC4/BLE.c ****     *   CYBLE_ERROR_INVALID_PARAMETER     |  On passing an invalid parameter.
 604:Generated_Source\PSoC4/BLE.c ****     *   CYBLE_ERROR_INVALID_STATE         |  On calling this API not in Disconnected state.
 605:Generated_Source\PSoC4/BLE.c ****     *
 606:Generated_Source\PSoC4/BLE.c ****     * 
 607:Generated_Source\PSoC4/BLE.c ****     *******************************************************************************/
 608:Generated_Source\PSoC4/BLE.c ****     CYBLE_API_RESULT_T CyBle_GappStartAdvertisement(uint8 advertisingIntervalType)
 609:Generated_Source\PSoC4/BLE.c ****     {
 594              		.loc 1 609 0
 595              		.cfi_startproc
 596 0000 90B5     		push	{r4, r7, lr}
 597              		.cfi_def_cfa_offset 12
 598              		.cfi_offset 4, -12
 599              		.cfi_offset 7, -8
 600              		.cfi_offset 14, -4
 601 0002 85B0     		sub	sp, sp, #20
 602              		.cfi_def_cfa_offset 32
 603 0004 00AF     		add	r7, sp, #0
 604              		.cfi_def_cfa_register 7
 605 0006 021C     		mov	r2, r0
 606 0008 FB1D     		add	r3, r7, #7
 607 000a 1A70     		strb	r2, [r3]
 610:Generated_Source\PSoC4/BLE.c ****         CYBLE_API_RESULT_T apiResult;
 611:Generated_Source\PSoC4/BLE.c ****         
 612:Generated_Source\PSoC4/BLE.c ****         if(advertisingIntervalType > CYBLE_ADVERTISING_CUSTOM)
 608              		.loc 1 612 0
 609 000c FB1D     		add	r3, r7, #7
 610 000e 1B78     		ldrb	r3, [r3]
 611 0010 022B     		cmp	r3, #2
 612 0012 04D9     		bls	.L24
 613:Generated_Source\PSoC4/BLE.c ****         {
 614:Generated_Source\PSoC4/BLE.c ****             apiResult = CYBLE_ERROR_INVALID_PARAMETER;
 613              		.loc 1 614 0
 614 0014 0E23     		mov	r3, #14
 615 0016 FB18     		add	r3, r7, r3
 616 0018 0122     		mov	r2, #1
 617 001a 1A80     		strh	r2, [r3]
 618 001c 4BE0     		b	.L25
 619              	.L24:
 615:Generated_Source\PSoC4/BLE.c ****         }
 616:Generated_Source\PSoC4/BLE.c ****         else if((CYBLE_STATE_DISCONNECTED == CyBle_GetState()) && ((cyBle_eventHandlerFlag & CYBLE_
 620              		.loc 1 616 0
 621 001e 294B     		ldr	r3, .L31
 622 0020 1B78     		ldrb	r3, [r3]
 623 0022 042B     		cmp	r3, #4
 624 0024 42D1     		bne	.L26
 625              		.loc 1 616 0 is_stmt 0 discriminator 1
 626 0026 284B     		ldr	r3, .L31+4
 627 0028 1B78     		ldrb	r3, [r3]
 628 002a DBB2     		uxtb	r3, r3
ARM GAS  C:\Users\ADMINI~1.SC-\AppData\Local\Temp\ccGAQuWL.s 			page 23


 629 002c 1A1C     		mov	r2, r3
 630 002e 0423     		mov	r3, #4
 631 0030 1340     		and	r3, r2
 632 0032 3BD1     		bne	.L26
 617:Generated_Source\PSoC4/BLE.c ****         {   
 618:Generated_Source\PSoC4/BLE.c ****             if(advertisingIntervalType == CYBLE_ADVERTISING_FAST)
 633              		.loc 1 618 0 is_stmt 1
 634 0034 FB1D     		add	r3, r7, #7
 635 0036 1B78     		ldrb	r3, [r3]
 636 0038 002B     		cmp	r3, #0
 637 003a 0BD1     		bne	.L27
 619:Generated_Source\PSoC4/BLE.c ****             {
 620:Generated_Source\PSoC4/BLE.c ****                 cyBle_discoveryModeInfo.advTo = CYBLE_FAST_ADV_TIMEOUT;
 638              		.loc 1 620 0
 639 003c 234B     		ldr	r3, .L31+8
 640 003e 0A22     		mov	r2, #10
 641 0040 1A82     		strh	r2, [r3, #16]
 621:Generated_Source\PSoC4/BLE.c ****                 cyBle_discoveryModeInfo.advParam->advIntvMin = CYBLE_FAST_ADV_INT_MIN;
 642              		.loc 1 621 0
 643 0042 224B     		ldr	r3, .L31+8
 644 0044 5B68     		ldr	r3, [r3, #4]
 645 0046 2022     		mov	r2, #32
 646 0048 1A80     		strh	r2, [r3]
 622:Generated_Source\PSoC4/BLE.c ****                 cyBle_discoveryModeInfo.advParam->advIntvMax = CYBLE_FAST_ADV_INT_MAX;
 647              		.loc 1 622 0
 648 004a 204B     		ldr	r3, .L31+8
 649 004c 5B68     		ldr	r3, [r3, #4]
 650 004e 5022     		mov	r2, #80
 651 0050 5A80     		strh	r2, [r3, #2]
 652 0052 10E0     		b	.L28
 653              	.L27:
 623:Generated_Source\PSoC4/BLE.c ****             }
 624:Generated_Source\PSoC4/BLE.c ****             else if(advertisingIntervalType == CYBLE_ADVERTISING_SLOW)
 654              		.loc 1 624 0
 655 0054 FB1D     		add	r3, r7, #7
 656 0056 1B78     		ldrb	r3, [r3]
 657 0058 012B     		cmp	r3, #1
 658 005a 0CD1     		bne	.L28
 625:Generated_Source\PSoC4/BLE.c ****             {
 626:Generated_Source\PSoC4/BLE.c ****                 cyBle_discoveryModeInfo.advTo = CYBLE_SLOW_ADV_TIMEOUT;
 659              		.loc 1 626 0
 660 005c 1B4B     		ldr	r3, .L31+8
 661 005e 9622     		mov	r2, #150
 662 0060 1A82     		strh	r2, [r3, #16]
 627:Generated_Source\PSoC4/BLE.c ****                 cyBle_discoveryModeInfo.advParam->advIntvMin = CYBLE_SLOW_ADV_INT_MIN;
 663              		.loc 1 627 0
 664 0062 1A4B     		ldr	r3, .L31+8
 665 0064 5B68     		ldr	r3, [r3, #4]
 666 0066 C822     		mov	r2, #200
 667 0068 D200     		lsl	r2, r2, #3
 668 006a 1A80     		strh	r2, [r3]
 628:Generated_Source\PSoC4/BLE.c ****                 cyBle_discoveryModeInfo.advParam->advIntvMax = CYBLE_SLOW_ADV_INT_MAX;
 669              		.loc 1 628 0
 670 006c 174B     		ldr	r3, .L31+8
 671 006e 5B68     		ldr	r3, [r3, #4]
 672 0070 8022     		mov	r2, #128
 673 0072 D201     		lsl	r2, r2, #7
ARM GAS  C:\Users\ADMINI~1.SC-\AppData\Local\Temp\ccGAQuWL.s 			page 24


 674 0074 5A80     		strh	r2, [r3, #2]
 675              	.L28:
 629:Generated_Source\PSoC4/BLE.c ****             }       
 630:Generated_Source\PSoC4/BLE.c ****             else /* Do not update advertising intervals */
 631:Generated_Source\PSoC4/BLE.c ****             {
 632:Generated_Source\PSoC4/BLE.c ****             }
 633:Generated_Source\PSoC4/BLE.c ****             cyBle_advertisingIntervalType = advertisingIntervalType;
 676              		.loc 1 633 0
 677 0076 164B     		ldr	r3, .L31+12
 678 0078 FA1D     		add	r2, r7, #7
 679 007a 1278     		ldrb	r2, [r2]
 680 007c 1A70     		strb	r2, [r3]
 634:Generated_Source\PSoC4/BLE.c ****             apiResult = CyBle_GappEnterDiscoveryMode(&cyBle_discoveryModeInfo);
 681              		.loc 1 634 0
 682 007e 0E23     		mov	r3, #14
 683 0080 FC18     		add	r4, r7, r3
 684 0082 124B     		ldr	r3, .L31+8
 685 0084 181C     		mov	r0, r3
 686 0086 FFF7FEFF 		bl	CyBle_GappEnterDiscoveryMode
 687 008a 031C     		mov	r3, r0
 688 008c 2380     		strh	r3, [r4]
 635:Generated_Source\PSoC4/BLE.c ****         
 636:Generated_Source\PSoC4/BLE.c ****             if(CYBLE_ERROR_OK == apiResult)
 689              		.loc 1 636 0
 690 008e 0E23     		mov	r3, #14
 691 0090 FB18     		add	r3, r7, r3
 692 0092 1B88     		ldrh	r3, [r3]
 693 0094 002B     		cmp	r3, #0
 694 0096 08D1     		bne	.L29
 637:Generated_Source\PSoC4/BLE.c ****             {
 638:Generated_Source\PSoC4/BLE.c ****                 cyBle_eventHandlerFlag |= CYBLE_START_FLAG;
 695              		.loc 1 638 0
 696 0098 0B4B     		ldr	r3, .L31+4
 697 009a 1B78     		ldrb	r3, [r3]
 698 009c DBB2     		uxtb	r3, r3
 699 009e 0422     		mov	r2, #4
 700 00a0 1343     		orr	r3, r2
 701 00a2 DAB2     		uxtb	r2, r3
 702 00a4 084B     		ldr	r3, .L31+4
 703 00a6 1A70     		strb	r2, [r3]
 636:Generated_Source\PSoC4/BLE.c ****             {
 704              		.loc 1 636 0
 705 00a8 05E0     		b	.L25
 706              	.L29:
 707 00aa 04E0     		b	.L25
 708              	.L26:
 639:Generated_Source\PSoC4/BLE.c ****             }
 640:Generated_Source\PSoC4/BLE.c ****         }
 641:Generated_Source\PSoC4/BLE.c ****         else
 642:Generated_Source\PSoC4/BLE.c ****         {
 643:Generated_Source\PSoC4/BLE.c ****             apiResult = CYBLE_ERROR_INVALID_STATE;
 709              		.loc 1 643 0
 710 00ac 0E23     		mov	r3, #14
 711 00ae FB18     		add	r3, r7, r3
 712 00b0 0422     		mov	r2, #4
 713 00b2 FF32     		add	r2, r2, #255
 714 00b4 1A80     		strh	r2, [r3]
ARM GAS  C:\Users\ADMINI~1.SC-\AppData\Local\Temp\ccGAQuWL.s 			page 25


 715              	.L25:
 644:Generated_Source\PSoC4/BLE.c ****         }
 645:Generated_Source\PSoC4/BLE.c **** 
 646:Generated_Source\PSoC4/BLE.c ****         return (apiResult);
 716              		.loc 1 646 0
 717 00b6 0E23     		mov	r3, #14
 718 00b8 FB18     		add	r3, r7, r3
 719 00ba 1B88     		ldrh	r3, [r3]
 647:Generated_Source\PSoC4/BLE.c ****     }
 720              		.loc 1 647 0
 721 00bc 181C     		mov	r0, r3
 722 00be BD46     		mov	sp, r7
 723 00c0 05B0     		add	sp, sp, #20
 724              		@ sp needed
 725 00c2 90BD     		pop	{r4, r7, pc}
 726              	.L32:
 727              		.align	2
 728              	.L31:
 729 00c4 00000000 		.word	cyBle_state
 730 00c8 00000000 		.word	cyBle_eventHandlerFlag
 731 00cc 00000000 		.word	cyBle_discoveryModeInfo
 732 00d0 00000000 		.word	cyBle_advertisingIntervalType
 733              		.cfi_endproc
 734              	.LFE7:
 735              		.size	CyBle_GappStartAdvertisement, .-CyBle_GappStartAdvertisement
 736              		.section	.text.CyBle_GappStopAdvertisement,"ax",%progbits
 737              		.align	2
 738              		.global	CyBle_GappStopAdvertisement
 739              		.code	16
 740              		.thumb_func
 741              		.type	CyBle_GappStopAdvertisement, %function
 742              	CyBle_GappStopAdvertisement:
 743              	.LFB8:
 648:Generated_Source\PSoC4/BLE.c **** 
 649:Generated_Source\PSoC4/BLE.c ****     
 650:Generated_Source\PSoC4/BLE.c ****     /******************************************************************************
 651:Generated_Source\PSoC4/BLE.c ****     * Function Name: CyBle_GappStopAdvertisement
 652:Generated_Source\PSoC4/BLE.c ****     ***************************************************************************//**
 653:Generated_Source\PSoC4/BLE.c ****     * 
 654:Generated_Source\PSoC4/BLE.c ****     *   This function can be used to exit from discovery mode. After the execution 
 655:Generated_Source\PSoC4/BLE.c ****     *   of this function, there will no longer be any advertisements. On stopping 
 656:Generated_Source\PSoC4/BLE.c ****     *   advertising, GAP Peripheral receives CYBLE_EVT_GAPP_ADVERTISEMENT_START_STOP
 657:Generated_Source\PSoC4/BLE.c ****     *   event. It is expected that the application layer tracks the function call 
 658:Generated_Source\PSoC4/BLE.c ****     *   performed before occurrence of this event as this event can occur on making 
 659:Generated_Source\PSoC4/BLE.c ****     *   a call to Cy_BleGappStartAdvertisement(), CyBle_GappEnterDiscoveryMode(), 
 660:Generated_Source\PSoC4/BLE.c ****     *   or CyBle_GappStartAdvertisement() functions as well.
 661:Generated_Source\PSoC4/BLE.c ****     *   
 662:Generated_Source\PSoC4/BLE.c ****     *   The following event occurs on invoking this function:
 663:Generated_Source\PSoC4/BLE.c ****     *   * CYBLE_EVT_GAPP_ADVERTISEMENT_START_STOP
 664:Generated_Source\PSoC4/BLE.c ****     * 
 665:Generated_Source\PSoC4/BLE.c ****     *  \return
 666:Generated_Source\PSoC4/BLE.c ****     *   None
 667:Generated_Source\PSoC4/BLE.c ****     * 
 668:Generated_Source\PSoC4/BLE.c ****     *******************************************************************************/
 669:Generated_Source\PSoC4/BLE.c ****     void CyBle_GappStopAdvertisement(void)
 670:Generated_Source\PSoC4/BLE.c ****     {
 744              		.loc 1 670 0
ARM GAS  C:\Users\ADMINI~1.SC-\AppData\Local\Temp\ccGAQuWL.s 			page 26


 745              		.cfi_startproc
 746 0000 80B5     		push	{r7, lr}
 747              		.cfi_def_cfa_offset 8
 748              		.cfi_offset 7, -8
 749              		.cfi_offset 14, -4
 750 0002 00AF     		add	r7, sp, #0
 751              		.cfi_def_cfa_register 7
 671:Generated_Source\PSoC4/BLE.c ****         CyBle_GappExitDiscoveryMode();
 752              		.loc 1 671 0
 753 0004 FFF7FEFF 		bl	CyBle_GappExitDiscoveryMode
 672:Generated_Source\PSoC4/BLE.c ****         cyBle_eventHandlerFlag |= CYBLE_STOP_FLAG;
 754              		.loc 1 672 0
 755 0008 044B     		ldr	r3, .L34
 756 000a 1B78     		ldrb	r3, [r3]
 757 000c DBB2     		uxtb	r3, r3
 758 000e 0822     		mov	r2, #8
 759 0010 1343     		orr	r3, r2
 760 0012 DAB2     		uxtb	r2, r3
 761 0014 014B     		ldr	r3, .L34
 762 0016 1A70     		strb	r2, [r3]
 673:Generated_Source\PSoC4/BLE.c ****     }
 763              		.loc 1 673 0
 764 0018 BD46     		mov	sp, r7
 765              		@ sp needed
 766 001a 80BD     		pop	{r7, pc}
 767              	.L35:
 768              		.align	2
 769              	.L34:
 770 001c 00000000 		.word	cyBle_eventHandlerFlag
 771              		.cfi_endproc
 772              	.LFE8:
 773              		.size	CyBle_GappStopAdvertisement, .-CyBle_GappStopAdvertisement
 774              		.section	.text.CyBle_ChangeAdDeviceAddress,"ax",%progbits
 775              		.align	2
 776              		.global	CyBle_ChangeAdDeviceAddress
 777              		.code	16
 778              		.thumb_func
 779              		.type	CyBle_ChangeAdDeviceAddress, %function
 780              	CyBle_ChangeAdDeviceAddress:
 781              	.LFB9:
 674:Generated_Source\PSoC4/BLE.c ****     
 675:Generated_Source\PSoC4/BLE.c ****     
 676:Generated_Source\PSoC4/BLE.c ****     /******************************************************************************
 677:Generated_Source\PSoC4/BLE.c ****     * Function Name: CyBle_ChangeAdDeviceAddress
 678:Generated_Source\PSoC4/BLE.c ****     ***************************************************************************//**
 679:Generated_Source\PSoC4/BLE.c ****     * 
 680:Generated_Source\PSoC4/BLE.c ****     *  This API is used to set the Bluetooth device address into the advertisement 
 681:Generated_Source\PSoC4/BLE.c ****     *  or scan response data structure.
 682:Generated_Source\PSoC4/BLE.c ****     * 
 683:Generated_Source\PSoC4/BLE.c ****     *  \param bdAddr: Bluetooth Device address. The variable is of type CYBLE_GAP_BD_ADDR_T
 684:Generated_Source\PSoC4/BLE.c ****     *  \param dest: 0 - selects advertisement structure, not zero value selects scan 
 685:Generated_Source\PSoC4/BLE.c ****     *               response structure.
 686:Generated_Source\PSoC4/BLE.c ****     * 
 687:Generated_Source\PSoC4/BLE.c ****     * \return
 688:Generated_Source\PSoC4/BLE.c ****     *  None
 689:Generated_Source\PSoC4/BLE.c ****     *  
 690:Generated_Source\PSoC4/BLE.c ****     *******************************************************************************/
ARM GAS  C:\Users\ADMINI~1.SC-\AppData\Local\Temp\ccGAQuWL.s 			page 27


 691:Generated_Source\PSoC4/BLE.c ****     void CyBle_ChangeAdDeviceAddress(const CYBLE_GAP_BD_ADDR_T* bdAddr, uint8 dest)
 692:Generated_Source\PSoC4/BLE.c ****     {
 782              		.loc 1 692 0
 783              		.cfi_startproc
 784 0000 80B5     		push	{r7, lr}
 785              		.cfi_def_cfa_offset 8
 786              		.cfi_offset 7, -8
 787              		.cfi_offset 14, -4
 788 0002 84B0     		sub	sp, sp, #16
 789              		.cfi_def_cfa_offset 24
 790 0004 00AF     		add	r7, sp, #0
 791              		.cfi_def_cfa_register 7
 792 0006 7860     		str	r0, [r7, #4]
 793 0008 0A1C     		mov	r2, r1
 794 000a FB1C     		add	r3, r7, #3
 795 000c 1A70     		strb	r2, [r3]
 693:Generated_Source\PSoC4/BLE.c ****         uint8 i;
 694:Generated_Source\PSoC4/BLE.c ****         uint8 *destBuffer = NULL;
 796              		.loc 1 694 0
 797 000e 0023     		mov	r3, #0
 798 0010 BB60     		str	r3, [r7, #8]
 695:Generated_Source\PSoC4/BLE.c ****         
 696:Generated_Source\PSoC4/BLE.c ****         if(dest == 0u)      /* Destination - advertising structure */
 799              		.loc 1 696 0
 800 0012 FB1C     		add	r3, r7, #3
 801 0014 1B78     		ldrb	r3, [r3]
 802 0016 002B     		cmp	r3, #0
 803 0018 02D1     		bne	.L37
 697:Generated_Source\PSoC4/BLE.c ****         {
 698:Generated_Source\PSoC4/BLE.c ****             #ifdef CYBLE_ADV_PKT_INDEX_BLUETOOTH_DEVICE_ADDRESS
 699:Generated_Source\PSoC4/BLE.c ****                 destBuffer = &cyBle_discoveryData.advData[CYBLE_ADV_PKT_INDEX_BLUETOOTH_DEVICE_ADDR
 804              		.loc 1 699 0
 805 001a 164B     		ldr	r3, .L42
 806 001c BB60     		str	r3, [r7, #8]
 807 001e 01E0     		b	.L38
 808              	.L37:
 700:Generated_Source\PSoC4/BLE.c ****             #endif /* CYBLE_ADV_PKT_INDEX_BLUETOOTH_DEVICE_ADDRESS */
 701:Generated_Source\PSoC4/BLE.c ****         }
 702:Generated_Source\PSoC4/BLE.c ****         else                /* Destination - scan response structure */
 703:Generated_Source\PSoC4/BLE.c ****         {
 704:Generated_Source\PSoC4/BLE.c ****             #ifdef CYBLE_SCN_PKT_INDEX_BLUETOOTH_DEVICE_ADDRESS
 705:Generated_Source\PSoC4/BLE.c ****                 destBuffer = &cyBle_scanRspData.scanRspData[CYBLE_SCN_PKT_INDEX_BLUETOOTH_DEVICE_AD
 809              		.loc 1 705 0
 810 0020 154B     		ldr	r3, .L42+4
 811 0022 BB60     		str	r3, [r7, #8]
 812              	.L38:
 706:Generated_Source\PSoC4/BLE.c ****             #endif /* CYBLE_SCN_PKT_INDEX_BLUETOOTH_DEVICE_ADDRESS */    
 707:Generated_Source\PSoC4/BLE.c ****         }
 708:Generated_Source\PSoC4/BLE.c ****         
 709:Generated_Source\PSoC4/BLE.c ****         if(destBuffer != NULL)
 813              		.loc 1 709 0
 814 0024 BB68     		ldr	r3, [r7, #8]
 815 0026 002B     		cmp	r3, #0
 816 0028 20D0     		beq	.L36
 710:Generated_Source\PSoC4/BLE.c ****         {
 711:Generated_Source\PSoC4/BLE.c ****             /* Update Device Address type */
 712:Generated_Source\PSoC4/BLE.c ****             destBuffer[0u] = bdAddr->type;
ARM GAS  C:\Users\ADMINI~1.SC-\AppData\Local\Temp\ccGAQuWL.s 			page 28


 817              		.loc 1 712 0
 818 002a 7B68     		ldr	r3, [r7, #4]
 819 002c 9A79     		ldrb	r2, [r3, #6]
 820 002e BB68     		ldr	r3, [r7, #8]
 821 0030 1A70     		strb	r2, [r3]
 713:Generated_Source\PSoC4/BLE.c ****             
 714:Generated_Source\PSoC4/BLE.c ****             for(i = 0u; i < CYBLE_GAP_BD_ADDR_SIZE; i++)
 822              		.loc 1 714 0
 823 0032 0F23     		mov	r3, #15
 824 0034 FB18     		add	r3, r7, r3
 825 0036 0022     		mov	r2, #0
 826 0038 1A70     		strb	r2, [r3]
 827 003a 12E0     		b	.L40
 828              	.L41:
 715:Generated_Source\PSoC4/BLE.c ****             {
 716:Generated_Source\PSoC4/BLE.c ****                 destBuffer[i + 1u] = bdAddr->bdAddr[i];
 829              		.loc 1 716 0 discriminator 3
 830 003c 0F23     		mov	r3, #15
 831 003e FB18     		add	r3, r7, r3
 832 0040 1B78     		ldrb	r3, [r3]
 833 0042 0133     		add	r3, r3, #1
 834 0044 BA68     		ldr	r2, [r7, #8]
 835 0046 D318     		add	r3, r2, r3
 836 0048 0F22     		mov	r2, #15
 837 004a BA18     		add	r2, r7, r2
 838 004c 1278     		ldrb	r2, [r2]
 839 004e 7968     		ldr	r1, [r7, #4]
 840 0050 8A5C     		ldrb	r2, [r1, r2]
 841 0052 1A70     		strb	r2, [r3]
 714:Generated_Source\PSoC4/BLE.c ****             {
 842              		.loc 1 714 0 discriminator 3
 843 0054 0F23     		mov	r3, #15
 844 0056 FB18     		add	r3, r7, r3
 845 0058 1A78     		ldrb	r2, [r3]
 846 005a 0F23     		mov	r3, #15
 847 005c FB18     		add	r3, r7, r3
 848 005e 0132     		add	r2, r2, #1
 849 0060 1A70     		strb	r2, [r3]
 850              	.L40:
 714:Generated_Source\PSoC4/BLE.c ****             {
 851              		.loc 1 714 0 is_stmt 0 discriminator 1
 852 0062 0F23     		mov	r3, #15
 853 0064 FB18     		add	r3, r7, r3
 854 0066 1B78     		ldrb	r3, [r3]
 855 0068 052B     		cmp	r3, #5
 856 006a E7D9     		bls	.L41
 857              	.L36:
 717:Generated_Source\PSoC4/BLE.c ****             }
 718:Generated_Source\PSoC4/BLE.c ****         }
 719:Generated_Source\PSoC4/BLE.c ****     }
 858              		.loc 1 719 0 is_stmt 1
 859 006c BD46     		mov	sp, r7
 860 006e 04B0     		add	sp, sp, #16
 861              		@ sp needed
 862 0070 80BD     		pop	{r7, pc}
 863              	.L43:
 864 0072 C046     		.align	2
ARM GAS  C:\Users\ADMINI~1.SC-\AppData\Local\Temp\ccGAQuWL.s 			page 29


 865              	.L42:
 866 0074 13000000 		.word	cyBle_discoveryData+19
 867 0078 10000000 		.word	cyBle_scanRspData+16
 868              		.cfi_endproc
 869              	.LFE9:
 870              		.size	CyBle_ChangeAdDeviceAddress, .-CyBle_ChangeAdDeviceAddress
 871              		.section	.text.CyBle_ChangeAdLocalName,"ax",%progbits
 872              		.align	2
 873              		.code	16
 874              		.thumb_func
 875              		.type	CyBle_ChangeAdLocalName, %function
 876              	CyBle_ChangeAdLocalName:
 877              	.LFB10:
 720:Generated_Source\PSoC4/BLE.c ****   
 721:Generated_Source\PSoC4/BLE.c **** #endif /* CYBLE_GAP_ROLE_PERIPHERAL || CYBLE_GAP_ROLE_BROADCASTER */
 722:Generated_Source\PSoC4/BLE.c **** 
 723:Generated_Source\PSoC4/BLE.c **** 
 724:Generated_Source\PSoC4/BLE.c **** #if(CYBLE_GAP_ROLE_CENTRAL || CYBLE_GAP_ROLE_OBSERVER)
 725:Generated_Source\PSoC4/BLE.c **** 
 726:Generated_Source\PSoC4/BLE.c ****     /******************************************************************************
 727:Generated_Source\PSoC4/BLE.c ****     * Function Name: CyBle_GapcStartScan
 728:Generated_Source\PSoC4/BLE.c ****     ***************************************************************************//**
 729:Generated_Source\PSoC4/BLE.c ****     * 
 730:Generated_Source\PSoC4/BLE.c ****     *   This function is used for discovering GAP peripheral devices that are 
 731:Generated_Source\PSoC4/BLE.c ****     *   available for connection. It performs the scanning routine using the 
 732:Generated_Source\PSoC4/BLE.c ****     *   parameters entered in the component's customizer.
 733:Generated_Source\PSoC4/BLE.c ****     *   
 734:Generated_Source\PSoC4/BLE.c ****     *   As soon as the discovery operation starts, CYBLE_EVT_GAPC_SCAN_START_STOP 
 735:Generated_Source\PSoC4/BLE.c ****     *   event is generated. The CYBLE_EVT_GAPC_SCAN_PROGRESS_RESULT event is 
 736:Generated_Source\PSoC4/BLE.c ****     *   generated when a GAP peripheral device is located. There are three discovery
 737:Generated_Source\PSoC4/BLE.c ****     *   procedures can be selected in the customizer's GUI:
 738:Generated_Source\PSoC4/BLE.c ****     *   
 739:Generated_Source\PSoC4/BLE.c ****     *   * Observation procedure: A device performing the observer role receives only
 740:Generated_Source\PSoC4/BLE.c ****     *                            advertisement data from devices irrespective of 
 741:Generated_Source\PSoC4/BLE.c ****     *                            their discoverable mode settings. Advertisement 
 742:Generated_Source\PSoC4/BLE.c ****     *                            data received is provided by the event,      
 743:Generated_Source\PSoC4/BLE.c ****     *                            CYBLE_EVT_GAPC_SCAN_PROGRESS_RESULT. This procedure
 744:Generated_Source\PSoC4/BLE.c ****     *                            requires the scanType sub parameter to be passive
 745:Generated_Source\PSoC4/BLE.c ****     *                            scanning. 
 746:Generated_Source\PSoC4/BLE.c ****     *   
 747:Generated_Source\PSoC4/BLE.c ****     *   * Limited Discovery procedure: A device performing the limited discovery
 748:Generated_Source\PSoC4/BLE.c ****     *                                  procedure receives advertisement data and 
 749:Generated_Source\PSoC4/BLE.c ****     *                                  scan# response data from devices in the 
 750:Generated_Source\PSoC4/BLE.c ****     *                                  limited discoverable mode only. Received data
 751:Generated_Source\PSoC4/BLE.c ****     *                                  is provided by the event, 
 752:Generated_Source\PSoC4/BLE.c ****     *                                  CYBLE_EVT_GAPC_SCAN_PROGRESS_RESULT. This 
 753:Generated_Source\PSoC4/BLE.c ****     *                                  procedure requires the scanType sub-parameter 
 754:Generated_Source\PSoC4/BLE.c ****     *                                  to be active scanning.
 755:Generated_Source\PSoC4/BLE.c ****     *   
 756:Generated_Source\PSoC4/BLE.c ****     *   * General Discovery procedure: A device performing the general discovery 
 757:Generated_Source\PSoC4/BLE.c ****     *                                  procedure receives the advertisement data and
 758:Generated_Source\PSoC4/BLE.c ****     *                                  scan response data from devices in both 
 759:Generated_Source\PSoC4/BLE.c ****     *                                  limited discoverable mode and the general 
 760:Generated_Source\PSoC4/BLE.c ****     *                                  discoverable mode. Received data is provided
 761:Generated_Source\PSoC4/BLE.c ****     *                                  by the event,
 762:Generated_Source\PSoC4/BLE.c ****     *                                  CYBLE_EVT_GAPC_SCAN_PROGRESS_RESULT. This 
 763:Generated_Source\PSoC4/BLE.c ****     *                                  procedure requires the scanType sub-parameter
ARM GAS  C:\Users\ADMINI~1.SC-\AppData\Local\Temp\ccGAQuWL.s 			page 30


 764:Generated_Source\PSoC4/BLE.c ****     *                                  to be active scanning.
 765:Generated_Source\PSoC4/BLE.c ****     *   
 766:Generated_Source\PSoC4/BLE.c ****     *   Every Advertisement / Scan response packet received results in a new event, 
 767:Generated_Source\PSoC4/BLE.c ****     *   CYBLE_EVT_GAPC_SCAN_PROGRESS_RESULT.
 768:Generated_Source\PSoC4/BLE.c ****     *   If 'scanTo' sub-parameter is a non-zero value, then upon commencement of 
 769:Generated_Source\PSoC4/BLE.c ****     *   discovery procedure and elapsed time = 'scanTo', CYBLE_EVT_TIMEOUT event
 770:Generated_Source\PSoC4/BLE.c ****     *   is generated with the event parameter indicating CYBLE_GAP_SCAN_TO.
 771:Generated_Source\PSoC4/BLE.c ****     *   Possible generated events are:
 772:Generated_Source\PSoC4/BLE.c ****     *   * CYBLE_EVT_GAPC_SCAN_START_STOP: If a device started or stopped scanning. 
 773:Generated_Source\PSoC4/BLE.c ****     *                                     Use CyBle_GetState() to determine the 
 774:Generated_Source\PSoC4/BLE.c ****     *                                     state. Sequential scanning could be 
 775:Generated_Source\PSoC4/BLE.c ****     *                                     started when CYBLE_STATE_DISCONNECTED 
 776:Generated_Source\PSoC4/BLE.c ****     *                                     state is returned. 
 777:Generated_Source\PSoC4/BLE.c ****     *   * CYBLE_EVT_GAPC_SCAN_PROGRESS_RESULT 
 778:Generated_Source\PSoC4/BLE.c ****     *   * CYBLE_EVT_TIMEOUT (CYBLE_GAP_SCAN_TO)
 779:Generated_Source\PSoC4/BLE.c ****     * 
 780:Generated_Source\PSoC4/BLE.c ****     *   \param scanningIntervalType:  Fast or slow scanning interval with
 781:Generated_Source\PSoC4/BLE.c ****     *       timings entered in Scan settings section of the customizer.
 782:Generated_Source\PSoC4/BLE.c ****     * 	  * CYBLE_SCANNING_FAST   0x00u
 783:Generated_Source\PSoC4/BLE.c ****     * 	  * CYBLE_SCANNING_SLOW   0x01u
 784:Generated_Source\PSoC4/BLE.c ****     * 	  * CYBLE_SCANNING_CUSTOM 0x02u
 785:Generated_Source\PSoC4/BLE.c ****     * 
 786:Generated_Source\PSoC4/BLE.c ****     * \return
 787:Generated_Source\PSoC4/BLE.c ****     *  CYBLE_API_RESULT_T : Return value indicates if the function succeeded or
 788:Generated_Source\PSoC4/BLE.c ****     *  failed. Following are the possible error codes.
 789:Generated_Source\PSoC4/BLE.c ****     *
 790:Generated_Source\PSoC4/BLE.c ****     *   Errors codes                       | Description
 791:Generated_Source\PSoC4/BLE.c ****     *   ---------------------------------- | -----------------------------------
 792:Generated_Source\PSoC4/BLE.c ****     *   CYBLE_ERROR_OK                     | On successful operation.
 793:Generated_Source\PSoC4/BLE.c ****     *   CYBLE_ERROR_STACK_INTERNAL         | An error occurred in the BLE stack.
 794:Generated_Source\PSoC4/BLE.c ****     *   CYBLE_ERROR_INVALID_PARAMETER      | On passing an invalid parameter.
 795:Generated_Source\PSoC4/BLE.c ****     *  
 796:Generated_Source\PSoC4/BLE.c ****     *******************************************************************************/
 797:Generated_Source\PSoC4/BLE.c ****     CYBLE_API_RESULT_T CyBle_GapcStartScan(uint8 scanningIntervalType)
 798:Generated_Source\PSoC4/BLE.c ****     {
 799:Generated_Source\PSoC4/BLE.c ****         CYBLE_API_RESULT_T apiResult;
 800:Generated_Source\PSoC4/BLE.c **** 
 801:Generated_Source\PSoC4/BLE.c ****         if(scanningIntervalType > CYBLE_SCANNING_CUSTOM)
 802:Generated_Source\PSoC4/BLE.c ****         {
 803:Generated_Source\PSoC4/BLE.c ****             apiResult = CYBLE_ERROR_INVALID_PARAMETER;
 804:Generated_Source\PSoC4/BLE.c ****         }
 805:Generated_Source\PSoC4/BLE.c ****         else
 806:Generated_Source\PSoC4/BLE.c ****         {
 807:Generated_Source\PSoC4/BLE.c ****             if(scanningIntervalType == CYBLE_SCANNING_FAST)
 808:Generated_Source\PSoC4/BLE.c ****             {
 809:Generated_Source\PSoC4/BLE.c ****                 cyBle_discoveryInfo.scanTo = CYBLE_FAST_SCAN_TIMEOUT;
 810:Generated_Source\PSoC4/BLE.c ****                 cyBle_discoveryInfo.scanIntv = CYBLE_FAST_SCAN_INTERVAL;
 811:Generated_Source\PSoC4/BLE.c ****                 cyBle_discoveryInfo.scanWindow = CYBLE_FAST_SCAN_WINDOW;
 812:Generated_Source\PSoC4/BLE.c ****             }
 813:Generated_Source\PSoC4/BLE.c ****             else if(scanningIntervalType == CYBLE_SCANNING_SLOW)
 814:Generated_Source\PSoC4/BLE.c ****             {
 815:Generated_Source\PSoC4/BLE.c ****                 cyBle_discoveryInfo.scanTo = CYBLE_SLOW_SCAN_TIMEOUT;
 816:Generated_Source\PSoC4/BLE.c ****                 cyBle_discoveryInfo.scanIntv = CYBLE_SLOW_SCAN_INTERVAL;
 817:Generated_Source\PSoC4/BLE.c ****                 cyBle_discoveryInfo.scanWindow = CYBLE_SLOW_SCAN_WINDOW;
 818:Generated_Source\PSoC4/BLE.c ****             }       
 819:Generated_Source\PSoC4/BLE.c ****             else /* Do not update scanning intervals */
 820:Generated_Source\PSoC4/BLE.c ****             {
ARM GAS  C:\Users\ADMINI~1.SC-\AppData\Local\Temp\ccGAQuWL.s 			page 31


 821:Generated_Source\PSoC4/BLE.c ****             }
 822:Generated_Source\PSoC4/BLE.c ****             
 823:Generated_Source\PSoC4/BLE.c ****             cyBle_scanningIntervalType = scanningIntervalType;
 824:Generated_Source\PSoC4/BLE.c ****             apiResult = CyBle_GapcStartDiscovery(&cyBle_discoveryInfo);
 825:Generated_Source\PSoC4/BLE.c ****         
 826:Generated_Source\PSoC4/BLE.c ****             if(CYBLE_ERROR_OK == apiResult)
 827:Generated_Source\PSoC4/BLE.c ****             {
 828:Generated_Source\PSoC4/BLE.c ****                 cyBle_eventHandlerFlag |= CYBLE_START_FLAG;
 829:Generated_Source\PSoC4/BLE.c ****             }
 830:Generated_Source\PSoC4/BLE.c ****         }
 831:Generated_Source\PSoC4/BLE.c ****        
 832:Generated_Source\PSoC4/BLE.c ****         return (apiResult);
 833:Generated_Source\PSoC4/BLE.c ****     }
 834:Generated_Source\PSoC4/BLE.c ****     
 835:Generated_Source\PSoC4/BLE.c ****     
 836:Generated_Source\PSoC4/BLE.c ****     /******************************************************************************
 837:Generated_Source\PSoC4/BLE.c ****     * Function Name: CyBle_GapcStopScan
 838:Generated_Source\PSoC4/BLE.c ****     ***************************************************************************//**
 839:Generated_Source\PSoC4/BLE.c ****     * 
 840:Generated_Source\PSoC4/BLE.c ****     *   This function used to stop the discovery of devices. On stopping discovery
 841:Generated_Source\PSoC4/BLE.c ****     *   operation, CYBLE_EVT_GAPC_SCAN_START_STOP event is generated. Application
 842:Generated_Source\PSoC4/BLE.c ****     *   layer needs to keep track of the function call made before receiving this
 843:Generated_Source\PSoC4/BLE.c ****     *   event to associate this event with either the start or stop discovery
 844:Generated_Source\PSoC4/BLE.c ****     *   function.
 845:Generated_Source\PSoC4/BLE.c ****     * 
 846:Generated_Source\PSoC4/BLE.c ****     *   Possible events generated are:
 847:Generated_Source\PSoC4/BLE.c ****     *    * CYBLE_EVT_GAPC_SCAN_START_STOP
 848:Generated_Source\PSoC4/BLE.c ****     * 
 849:Generated_Source\PSoC4/BLE.c ****     *  \return
 850:Generated_Source\PSoC4/BLE.c ****     *   None
 851:Generated_Source\PSoC4/BLE.c ****     * 
 852:Generated_Source\PSoC4/BLE.c ****     *******************************************************************************/
 853:Generated_Source\PSoC4/BLE.c ****     void CyBle_GapcStopScan(void)
 854:Generated_Source\PSoC4/BLE.c ****     {
 855:Generated_Source\PSoC4/BLE.c ****         CyBle_GapcStopDiscovery();
 856:Generated_Source\PSoC4/BLE.c ****         
 857:Generated_Source\PSoC4/BLE.c ****         cyBle_eventHandlerFlag |= CYBLE_STOP_FLAG;
 858:Generated_Source\PSoC4/BLE.c ****     }
 859:Generated_Source\PSoC4/BLE.c **** 
 860:Generated_Source\PSoC4/BLE.c ****     
 861:Generated_Source\PSoC4/BLE.c **** #endif /* CYBLE_GAP_ROLE_CENTRAL || CYBLE_GAP_ROLE_OBSERVER */
 862:Generated_Source\PSoC4/BLE.c **** 
 863:Generated_Source\PSoC4/BLE.c **** 
 864:Generated_Source\PSoC4/BLE.c **** #if(CYBLE_GAP_ROLE_CENTRAL)
 865:Generated_Source\PSoC4/BLE.c **** 
 866:Generated_Source\PSoC4/BLE.c ****     /******************************************************************************
 867:Generated_Source\PSoC4/BLE.c ****     * Function Name: CyBle_GapcConnectDevice
 868:Generated_Source\PSoC4/BLE.c ****     ***************************************************************************//**
 869:Generated_Source\PSoC4/BLE.c ****     * 
 870:Generated_Source\PSoC4/BLE.c ****     *  This function is used to send a connection request to the remote device with
 871:Generated_Source\PSoC4/BLE.c ****     *  the connection parameters set in the component customizer. This function needs
 872:Generated_Source\PSoC4/BLE.c ****     *  to be called only once after the target device is discovered by 
 873:Generated_Source\PSoC4/BLE.c ****     *  CyBle_GapcStartScan() and further scanning has stopped. Scanning is 
 874:Generated_Source\PSoC4/BLE.c ****     *  successfully stopped on invoking CyBle_GapcStopScan() and then receiving the
 875:Generated_Source\PSoC4/BLE.c ****     *  event CYBLE_EVT_GAPC_SCAN_START_STOP with sub-parameter 'success' = 0x01u.
 876:Generated_Source\PSoC4/BLE.c ****     *  
 877:Generated_Source\PSoC4/BLE.c ****     *  On successful connection, the following events are generated at the GAP 
ARM GAS  C:\Users\ADMINI~1.SC-\AppData\Local\Temp\ccGAQuWL.s 			page 32


 878:Generated_Source\PSoC4/BLE.c ****     *  Central device (as well as the GAP Peripheral device), in the following order.
 879:Generated_Source\PSoC4/BLE.c ****     *  * CYBLE_EVT_GATT_CONNECT_IND
 880:Generated_Source\PSoC4/BLE.c ****     *  * CYBLE_EVT_GAP_DEVICE_CONNECTED
 881:Generated_Source\PSoC4/BLE.c ****     *  
 882:Generated_Source\PSoC4/BLE.c ****     *  A procedure is considered to have timed out if a connection response packet is 
 883:Generated_Source\PSoC4/BLE.c ****     *  not received within time set by cyBle_connectingTimeout global variable
 884:Generated_Source\PSoC4/BLE.c ****     *  (30 seconds by default). CYBLE_EVT_TIMEOUT event with CYBLE_GENERIC_TO parameter
 885:Generated_Source\PSoC4/BLE.c ****     *  will indicate about connection procedure timeout. Connection will automatically
 886:Generated_Source\PSoC4/BLE.c ****     *  be canceled and state will be changed to CYBLE_STATE_DISCONNECTED.
 887:Generated_Source\PSoC4/BLE.c ****     * 
 888:Generated_Source\PSoC4/BLE.c ****     *  \param address: The device address of the remote device to connect to. 
 889:Generated_Source\PSoC4/BLE.c ****     *  \param timeout: Timeout for which timer to be started in seconds.
 890:Generated_Source\PSoC4/BLE.c ****     *  
 891:Generated_Source\PSoC4/BLE.c ****     * \return
 892:Generated_Source\PSoC4/BLE.c ****     *  CYBLE_API_RESULT_T : Return value indicates if the function succeeded or 
 893:Generated_Source\PSoC4/BLE.c ****     *  failed. Following are the possible error codes.
 894:Generated_Source\PSoC4/BLE.c ****     *
 895:Generated_Source\PSoC4/BLE.c ****     *   Errors codes                       | Description
 896:Generated_Source\PSoC4/BLE.c ****     *   ------------                       | -----------
 897:Generated_Source\PSoC4/BLE.c ****     *   CYBLE_ERROR_OK                     | On successful operation.
 898:Generated_Source\PSoC4/BLE.c ****     *   CYBLE_ERROR_STACK_INTERNAL         | On error occurred in the BLE stack.
 899:Generated_Source\PSoC4/BLE.c ****     *   CYBLE_ERROR_INVALID_PARAMETER      | On passing an invalid parameter.
 900:Generated_Source\PSoC4/BLE.c ****     *   CYBLE_ERROR_INVALID_STATE          | On calling this API not in Disconnected state.
 901:Generated_Source\PSoC4/BLE.c ****     *  
 902:Generated_Source\PSoC4/BLE.c ****     ******************************************************************************/
 903:Generated_Source\PSoC4/BLE.c ****     CYBLE_API_RESULT_T CyBle_GapcConnectDevice(const CYBLE_GAP_BD_ADDR_T * address)
 904:Generated_Source\PSoC4/BLE.c ****     {
 905:Generated_Source\PSoC4/BLE.c ****         CYBLE_API_RESULT_T apiResult;
 906:Generated_Source\PSoC4/BLE.c ****         uint8 i;
 907:Generated_Source\PSoC4/BLE.c **** 
 908:Generated_Source\PSoC4/BLE.c ****         if(CYBLE_STATE_DISCONNECTED != CyBle_GetState())
 909:Generated_Source\PSoC4/BLE.c ****         {
 910:Generated_Source\PSoC4/BLE.c ****             apiResult = CYBLE_ERROR_INVALID_STATE;
 911:Generated_Source\PSoC4/BLE.c ****         }
 912:Generated_Source\PSoC4/BLE.c ****         else if(address == NULL)
 913:Generated_Source\PSoC4/BLE.c ****         {
 914:Generated_Source\PSoC4/BLE.c ****             apiResult = CYBLE_ERROR_INVALID_PARAMETER;
 915:Generated_Source\PSoC4/BLE.c ****         }
 916:Generated_Source\PSoC4/BLE.c ****         else
 917:Generated_Source\PSoC4/BLE.c ****         {
 918:Generated_Source\PSoC4/BLE.c ****             for(i = 0u; i < CYBLE_GAP_BD_ADDR_SIZE; i++)
 919:Generated_Source\PSoC4/BLE.c ****             {
 920:Generated_Source\PSoC4/BLE.c ****                 cyBle_connectionParameters.peerBdAddr[i] = address->bdAddr[i];
 921:Generated_Source\PSoC4/BLE.c ****             }
 922:Generated_Source\PSoC4/BLE.c ****             cyBle_connectionParameters.peerAddrType = address -> type;
 923:Generated_Source\PSoC4/BLE.c ****             apiResult = CyBle_GapcInitConnection(&cyBle_connectionParameters);
 924:Generated_Source\PSoC4/BLE.c ****             
 925:Generated_Source\PSoC4/BLE.c ****             if(CYBLE_ERROR_OK == apiResult)
 926:Generated_Source\PSoC4/BLE.c ****             {
 927:Generated_Source\PSoC4/BLE.c ****                 CyBle_SetState(CYBLE_STATE_CONNECTING);
 928:Generated_Source\PSoC4/BLE.c ****                 if(cyBle_connectingTimeout != 0u)
 929:Generated_Source\PSoC4/BLE.c ****                 {
 930:Generated_Source\PSoC4/BLE.c ****                     (void)CyBle_StartTimer(cyBle_connectingTimeout);
 931:Generated_Source\PSoC4/BLE.c ****                 }
 932:Generated_Source\PSoC4/BLE.c ****             }
 933:Generated_Source\PSoC4/BLE.c ****         }
 934:Generated_Source\PSoC4/BLE.c ****         return (apiResult);
ARM GAS  C:\Users\ADMINI~1.SC-\AppData\Local\Temp\ccGAQuWL.s 			page 33


 935:Generated_Source\PSoC4/BLE.c ****     }
 936:Generated_Source\PSoC4/BLE.c ****     
 937:Generated_Source\PSoC4/BLE.c **** 
 938:Generated_Source\PSoC4/BLE.c ****     /******************************************************************************
 939:Generated_Source\PSoC4/BLE.c ****     * Function Name: CyBle_GapcCancelDeviceConnection
 940:Generated_Source\PSoC4/BLE.c ****     ***************************************************************************//**
 941:Generated_Source\PSoC4/BLE.c ****     * 
 942:Generated_Source\PSoC4/BLE.c ****     *  This function cancels a previously initiated connection with the remote 
 943:Generated_Source\PSoC4/BLE.c ****     *  device. It is a blocking function. No event is generated on calling this 
 944:Generated_Source\PSoC4/BLE.c ****     *  function. If the devices are already connected then this function should not
 945:Generated_Source\PSoC4/BLE.c ****     *  be used. If you intend to disconnect from an existing connection, the function
 946:Generated_Source\PSoC4/BLE.c ****     *  CyBle_GapDisconnect() should be used.
 947:Generated_Source\PSoC4/BLE.c ****     * 
 948:Generated_Source\PSoC4/BLE.c ****     * \return
 949:Generated_Source\PSoC4/BLE.c ****     *  CYBLE_API_RESULT_T : Return value indicates if the function succeeded or 
 950:Generated_Source\PSoC4/BLE.c ****     *  failed. Following are the possible error codes.
 951:Generated_Source\PSoC4/BLE.c ****     *
 952:Generated_Source\PSoC4/BLE.c ****     *   Errors codes                       | Description
 953:Generated_Source\PSoC4/BLE.c ****     *   ---------------------------------- | --------------------------------------
 954:Generated_Source\PSoC4/BLE.c ****     *   CYBLE_ERROR_OK                     | On successful operation.
 955:Generated_Source\PSoC4/BLE.c ****     *   CYBLE_ERROR_STACK_INTERNAL         | An error occurred in the BLE stack.
 956:Generated_Source\PSoC4/BLE.c ****     *   CYBLE_ERROR_INVALID_OPERATION      | Device is already connected.
 957:Generated_Source\PSoC4/BLE.c ****     *  
 958:Generated_Source\PSoC4/BLE.c ****     *******************************************************************************/
 959:Generated_Source\PSoC4/BLE.c ****     CYBLE_API_RESULT_T CyBle_GapcCancelDeviceConnection(void)
 960:Generated_Source\PSoC4/BLE.c ****     {
 961:Generated_Source\PSoC4/BLE.c ****         CYBLE_API_RESULT_T apiResult;
 962:Generated_Source\PSoC4/BLE.c ****         
 963:Generated_Source\PSoC4/BLE.c ****         apiResult = CyBle_GapcCancelConnection();
 964:Generated_Source\PSoC4/BLE.c ****             
 965:Generated_Source\PSoC4/BLE.c ****         if(cyBle_connectingTimeout != 0u)
 966:Generated_Source\PSoC4/BLE.c ****         {
 967:Generated_Source\PSoC4/BLE.c ****             (void)CyBle_StopTimer();
 968:Generated_Source\PSoC4/BLE.c ****         }
 969:Generated_Source\PSoC4/BLE.c **** 
 970:Generated_Source\PSoC4/BLE.c ****         if(CYBLE_ERROR_OK == apiResult)
 971:Generated_Source\PSoC4/BLE.c ****         {
 972:Generated_Source\PSoC4/BLE.c ****             CyBle_SetState(CYBLE_STATE_DISCONNECTED);
 973:Generated_Source\PSoC4/BLE.c ****         }
 974:Generated_Source\PSoC4/BLE.c ****         return (apiResult);
 975:Generated_Source\PSoC4/BLE.c ****     }    
 976:Generated_Source\PSoC4/BLE.c **** 
 977:Generated_Source\PSoC4/BLE.c ****     
 978:Generated_Source\PSoC4/BLE.c **** #endif /* CYBLE_GAP_ROLE_CENTRAL */
 979:Generated_Source\PSoC4/BLE.c **** 
 980:Generated_Source\PSoC4/BLE.c **** 
 981:Generated_Source\PSoC4/BLE.c **** #if(CYBLE_GATT_ROLE_SERVER)
 982:Generated_Source\PSoC4/BLE.c **** 
 983:Generated_Source\PSoC4/BLE.c **** #if(CYBLE_GAP_ROLE_PERIPHERAL)
 984:Generated_Source\PSoC4/BLE.c **** 
 985:Generated_Source\PSoC4/BLE.c ****         /******************************************************************************
 986:Generated_Source\PSoC4/BLE.c ****         * Function Name: CyBle_ChangeAdLocalName
 987:Generated_Source\PSoC4/BLE.c ****         ***************************************************************************//**
 988:Generated_Source\PSoC4/BLE.c ****         *  This API is used to set the local device name in the advertisement or scan 
 989:Generated_Source\PSoC4/BLE.c ****         *  response data structure.
 990:Generated_Source\PSoC4/BLE.c ****         * 
 991:Generated_Source\PSoC4/BLE.c ****         *  \param name: The local device name string to be set in advertisement data 
ARM GAS  C:\Users\ADMINI~1.SC-\AppData\Local\Temp\ccGAQuWL.s 			page 34


 992:Generated_Source\PSoC4/BLE.c ****         *            structure.
 993:Generated_Source\PSoC4/BLE.c ****         *  \param dest: 0 - advertisement structure, not zero value selects scan response
 994:Generated_Source\PSoC4/BLE.c ****         *              structure.
 995:Generated_Source\PSoC4/BLE.c ****         * 
 996:Generated_Source\PSoC4/BLE.c ****         * \return
 997:Generated_Source\PSoC4/BLE.c ****         *  None
 998:Generated_Source\PSoC4/BLE.c ****         *  
 999:Generated_Source\PSoC4/BLE.c ****         *******************************************************************************/
1000:Generated_Source\PSoC4/BLE.c ****         static void CyBle_ChangeAdLocalName(const char8 name[], uint8 dest)
1001:Generated_Source\PSoC4/BLE.c ****         {
 878              		.loc 1 1001 0
 879              		.cfi_startproc
 880 0000 80B5     		push	{r7, lr}
 881              		.cfi_def_cfa_offset 8
 882              		.cfi_offset 7, -8
 883              		.cfi_offset 14, -4
 884 0002 86B0     		sub	sp, sp, #24
 885              		.cfi_def_cfa_offset 32
 886 0004 00AF     		add	r7, sp, #0
 887              		.cfi_def_cfa_register 7
 888 0006 7860     		str	r0, [r7, #4]
 889 0008 0A1C     		mov	r2, r1
 890 000a FB1C     		add	r3, r7, #3
 891 000c 1A70     		strb	r2, [r3]
1002:Generated_Source\PSoC4/BLE.c ****             uint8 i;
1003:Generated_Source\PSoC4/BLE.c ****             uint8 flag = 0u;
 892              		.loc 1 1003 0
 893 000e 1623     		mov	r3, #22
 894 0010 FB18     		add	r3, r7, r3
 895 0012 0022     		mov	r2, #0
 896 0014 1A70     		strb	r2, [r3]
1004:Generated_Source\PSoC4/BLE.c ****             uint8 adLength = 0u;
 897              		.loc 1 1004 0
 898 0016 1523     		mov	r3, #21
 899 0018 FB18     		add	r3, r7, r3
 900 001a 0022     		mov	r2, #0
 901 001c 1A70     		strb	r2, [r3]
1005:Generated_Source\PSoC4/BLE.c ****             uint8 byteCounter = 0u;
 902              		.loc 1 1005 0
 903 001e 1423     		mov	r3, #20
 904 0020 FB18     		add	r3, r7, r3
 905 0022 0022     		mov	r2, #0
 906 0024 1A70     		strb	r2, [r3]
1006:Generated_Source\PSoC4/BLE.c ****             uint8 *destBuffer;
1007:Generated_Source\PSoC4/BLE.c ****             uint8 maxLength;
1008:Generated_Source\PSoC4/BLE.c ****             
1009:Generated_Source\PSoC4/BLE.c ****             if(dest == 0u)      /* Destination - advertising structure */
 907              		.loc 1 1009 0
 908 0026 FB1C     		add	r3, r7, #3
 909 0028 1B78     		ldrb	r3, [r3]
 910 002a 002B     		cmp	r3, #0
 911 002c 07D1     		bne	.L45
1010:Generated_Source\PSoC4/BLE.c ****             {
1011:Generated_Source\PSoC4/BLE.c ****                 destBuffer = cyBle_discoveryData.advData;
 912              		.loc 1 1011 0
 913 002e 5B4B     		ldr	r3, .L60
 914 0030 3B61     		str	r3, [r7, #16]
ARM GAS  C:\Users\ADMINI~1.SC-\AppData\Local\Temp\ccGAQuWL.s 			page 35


1012:Generated_Source\PSoC4/BLE.c ****                 maxLength = cyBle_discoveryData.advDataLen;
 915              		.loc 1 1012 0
 916 0032 0F23     		mov	r3, #15
 917 0034 FB18     		add	r3, r7, r3
 918 0036 594A     		ldr	r2, .L60
 919 0038 D27F     		ldrb	r2, [r2, #31]
 920 003a 1A70     		strb	r2, [r3]
 921 003c 06E0     		b	.L46
 922              	.L45:
1013:Generated_Source\PSoC4/BLE.c ****             }
1014:Generated_Source\PSoC4/BLE.c ****             else                /* Destination - scan response structure */
1015:Generated_Source\PSoC4/BLE.c ****             {
1016:Generated_Source\PSoC4/BLE.c ****                 destBuffer = cyBle_scanRspData.scanRspData;
 923              		.loc 1 1016 0
 924 003e 584B     		ldr	r3, .L60+4
 925 0040 3B61     		str	r3, [r7, #16]
1017:Generated_Source\PSoC4/BLE.c ****                 maxLength = cyBle_scanRspData.scanRspDataLen;
 926              		.loc 1 1017 0
 927 0042 0F23     		mov	r3, #15
 928 0044 FB18     		add	r3, r7, r3
 929 0046 564A     		ldr	r2, .L60+4
 930 0048 D27F     		ldrb	r2, [r2, #31]
 931 004a 1A70     		strb	r2, [r3]
 932              	.L46:
1018:Generated_Source\PSoC4/BLE.c ****             }
1019:Generated_Source\PSoC4/BLE.c ****             
1020:Generated_Source\PSoC4/BLE.c ****             while((byteCounter < maxLength) && (0u == flag))
 933              		.loc 1 1020 0
 934 004c 35E0     		b	.L47
 935              	.L53:
1021:Generated_Source\PSoC4/BLE.c ****             {
1022:Generated_Source\PSoC4/BLE.c ****                 adLength = destBuffer[byteCounter];
 936              		.loc 1 1022 0
 937 004e 1423     		mov	r3, #20
 938 0050 FB18     		add	r3, r7, r3
 939 0052 1B78     		ldrb	r3, [r3]
 940 0054 3A69     		ldr	r2, [r7, #16]
 941 0056 D218     		add	r2, r2, r3
 942 0058 1523     		mov	r3, #21
 943 005a FB18     		add	r3, r7, r3
 944 005c 1278     		ldrb	r2, [r2]
 945 005e 1A70     		strb	r2, [r3]
1023:Generated_Source\PSoC4/BLE.c ****                 
1024:Generated_Source\PSoC4/BLE.c ****                 if(0u != adLength)
 946              		.loc 1 1024 0
 947 0060 1523     		mov	r3, #21
 948 0062 FB18     		add	r3, r7, r3
 949 0064 1B78     		ldrb	r3, [r3]
 950 0066 002B     		cmp	r3, #0
 951 0068 26D0     		beq	.L48
1025:Generated_Source\PSoC4/BLE.c ****                 {
1026:Generated_Source\PSoC4/BLE.c ****                     /* Increment byte counter so it can point to AD type */
1027:Generated_Source\PSoC4/BLE.c ****                     byteCounter++;
 952              		.loc 1 1027 0
 953 006a 1423     		mov	r3, #20
 954 006c FB18     		add	r3, r7, r3
 955 006e 1A78     		ldrb	r2, [r3]
ARM GAS  C:\Users\ADMINI~1.SC-\AppData\Local\Temp\ccGAQuWL.s 			page 36


 956 0070 1423     		mov	r3, #20
 957 0072 FB18     		add	r3, r7, r3
 958 0074 0132     		add	r2, r2, #1
 959 0076 1A70     		strb	r2, [r3]
1028:Generated_Source\PSoC4/BLE.c ****                     
1029:Generated_Source\PSoC4/BLE.c ****                     if((CYBLE_SHORT_LOCAL_NAME == destBuffer[byteCounter]) || 
 960              		.loc 1 1029 0
 961 0078 1423     		mov	r3, #20
 962 007a FB18     		add	r3, r7, r3
 963 007c 1B78     		ldrb	r3, [r3]
 964 007e 3A69     		ldr	r2, [r7, #16]
 965 0080 D318     		add	r3, r2, r3
 966 0082 1B78     		ldrb	r3, [r3]
 967 0084 082B     		cmp	r3, #8
 968 0086 07D0     		beq	.L49
1030:Generated_Source\PSoC4/BLE.c ****                        (CYBLE_COMPLETE_LOCAL_NAME == destBuffer[byteCounter]))
 969              		.loc 1 1030 0 discriminator 1
 970 0088 1423     		mov	r3, #20
 971 008a FB18     		add	r3, r7, r3
 972 008c 1B78     		ldrb	r3, [r3]
 973 008e 3A69     		ldr	r2, [r7, #16]
 974 0090 D318     		add	r3, r2, r3
 975 0092 1B78     		ldrb	r3, [r3]
1029:Generated_Source\PSoC4/BLE.c ****                        (CYBLE_COMPLETE_LOCAL_NAME == destBuffer[byteCounter]))
 976              		.loc 1 1029 0 discriminator 1
 977 0094 092B     		cmp	r3, #9
 978 0096 04D1     		bne	.L50
 979              	.L49:
1031:Generated_Source\PSoC4/BLE.c ****                     {
1032:Generated_Source\PSoC4/BLE.c ****                         /* Start of the Local Name AD type was fount. Set flag and exit the loop. *
1033:Generated_Source\PSoC4/BLE.c ****                         flag = 1u;
 980              		.loc 1 1033 0
 981 0098 1623     		mov	r3, #22
 982 009a FB18     		add	r3, r7, r3
 983 009c 0122     		mov	r2, #1
 984 009e 1A70     		strb	r2, [r3]
 985 00a0 09E0     		b	.L51
 986              	.L50:
1034:Generated_Source\PSoC4/BLE.c ****                     }
1035:Generated_Source\PSoC4/BLE.c ****                     else
1036:Generated_Source\PSoC4/BLE.c ****                     {
1037:Generated_Source\PSoC4/BLE.c ****                         byteCounter += adLength;
 987              		.loc 1 1037 0
 988 00a2 1423     		mov	r3, #20
 989 00a4 FB18     		add	r3, r7, r3
 990 00a6 1422     		mov	r2, #20
 991 00a8 B918     		add	r1, r7, r2
 992 00aa 1522     		mov	r2, #21
 993 00ac BA18     		add	r2, r7, r2
 994 00ae 0978     		ldrb	r1, [r1]
 995 00b0 1278     		ldrb	r2, [r2]
 996 00b2 8A18     		add	r2, r1, r2
 997 00b4 1A70     		strb	r2, [r3]
 998              	.L51:
 999 00b6 00E0     		b	.L47
 1000              	.L48:
1038:Generated_Source\PSoC4/BLE.c ****                     }
ARM GAS  C:\Users\ADMINI~1.SC-\AppData\Local\Temp\ccGAQuWL.s 			page 37


1039:Generated_Source\PSoC4/BLE.c ****                 }
1040:Generated_Source\PSoC4/BLE.c ****                 else
1041:Generated_Source\PSoC4/BLE.c ****                 {
1042:Generated_Source\PSoC4/BLE.c ****                     /* The end of advertisement data structure was encountered though exit the loop
1043:Generated_Source\PSoC4/BLE.c ****                     break;
 1001              		.loc 1 1043 0
 1002 00b8 0CE0     		b	.L52
 1003              	.L47:
1020:Generated_Source\PSoC4/BLE.c ****             {
 1004              		.loc 1 1020 0
 1005 00ba 1423     		mov	r3, #20
 1006 00bc FA18     		add	r2, r7, r3
 1007 00be 0F23     		mov	r3, #15
 1008 00c0 FB18     		add	r3, r7, r3
 1009 00c2 1278     		ldrb	r2, [r2]
 1010 00c4 1B78     		ldrb	r3, [r3]
 1011 00c6 9A42     		cmp	r2, r3
 1012 00c8 04D2     		bcs	.L52
1020:Generated_Source\PSoC4/BLE.c ****             {
 1013              		.loc 1 1020 0 is_stmt 0 discriminator 1
 1014 00ca 1623     		mov	r3, #22
 1015 00cc FB18     		add	r3, r7, r3
 1016 00ce 1B78     		ldrb	r3, [r3]
 1017 00d0 002B     		cmp	r3, #0
 1018 00d2 BCD0     		beq	.L53
 1019              	.L52:
1044:Generated_Source\PSoC4/BLE.c ****                 }
1045:Generated_Source\PSoC4/BLE.c ****             }
1046:Generated_Source\PSoC4/BLE.c ****             
1047:Generated_Source\PSoC4/BLE.c ****             if(0u != flag)
 1020              		.loc 1 1047 0 is_stmt 1
 1021 00d4 1623     		mov	r3, #22
 1022 00d6 FB18     		add	r3, r7, r3
 1023 00d8 1B78     		ldrb	r3, [r3]
 1024 00da 002B     		cmp	r3, #0
 1025 00dc 5BD0     		beq	.L44
1048:Generated_Source\PSoC4/BLE.c ****             {
1049:Generated_Source\PSoC4/BLE.c ****                 /* Reuse "adLength" to hold location of the last character of local name in 
1050:Generated_Source\PSoC4/BLE.c ****                    AD structure. */
1051:Generated_Source\PSoC4/BLE.c ****                 adLength += byteCounter;
 1026              		.loc 1 1051 0
 1027 00de 1523     		mov	r3, #21
 1028 00e0 FB18     		add	r3, r7, r3
 1029 00e2 1522     		mov	r2, #21
 1030 00e4 B918     		add	r1, r7, r2
 1031 00e6 1422     		mov	r2, #20
 1032 00e8 BA18     		add	r2, r7, r2
 1033 00ea 0978     		ldrb	r1, [r1]
 1034 00ec 1278     		ldrb	r2, [r2]
 1035 00ee 8A18     		add	r2, r1, r2
 1036 00f0 1A70     		strb	r2, [r3]
1052:Generated_Source\PSoC4/BLE.c ****                 
1053:Generated_Source\PSoC4/BLE.c ****                 /* Increment byte counter to point to start of the local Name string */
1054:Generated_Source\PSoC4/BLE.c ****                 byteCounter++;
 1037              		.loc 1 1054 0
 1038 00f2 1423     		mov	r3, #20
 1039 00f4 FB18     		add	r3, r7, r3
ARM GAS  C:\Users\ADMINI~1.SC-\AppData\Local\Temp\ccGAQuWL.s 			page 38


 1040 00f6 1A78     		ldrb	r2, [r3]
 1041 00f8 1423     		mov	r3, #20
 1042 00fa FB18     		add	r3, r7, r3
 1043 00fc 0132     		add	r2, r2, #1
 1044 00fe 1A70     		strb	r2, [r3]
1055:Generated_Source\PSoC4/BLE.c ****                 
1056:Generated_Source\PSoC4/BLE.c ****                 for(i = byteCounter; ((i < (adLength)) && (CYBLE_NULL_CHARCTER != name[i - byteCoun
 1045              		.loc 1 1056 0
 1046 0100 1723     		mov	r3, #23
 1047 0102 FB18     		add	r3, r7, r3
 1048 0104 1422     		mov	r2, #20
 1049 0106 BA18     		add	r2, r7, r2
 1050 0108 1278     		ldrb	r2, [r2]
 1051 010a 1A70     		strb	r2, [r3]
 1052 010c 17E0     		b	.L55
 1053              	.L57:
1057:Generated_Source\PSoC4/BLE.c ****                 {
1058:Generated_Source\PSoC4/BLE.c ****                     destBuffer[i] = (uint8)name[i - byteCounter];
 1054              		.loc 1 1058 0 discriminator 4
 1055 010e 1723     		mov	r3, #23
 1056 0110 FB18     		add	r3, r7, r3
 1057 0112 1B78     		ldrb	r3, [r3]
 1058 0114 3A69     		ldr	r2, [r7, #16]
 1059 0116 D318     		add	r3, r2, r3
 1060 0118 1722     		mov	r2, #23
 1061 011a BA18     		add	r2, r7, r2
 1062 011c 1178     		ldrb	r1, [r2]
 1063 011e 1422     		mov	r2, #20
 1064 0120 BA18     		add	r2, r7, r2
 1065 0122 1278     		ldrb	r2, [r2]
 1066 0124 8A1A     		sub	r2, r1, r2
 1067 0126 111C     		mov	r1, r2
 1068 0128 7A68     		ldr	r2, [r7, #4]
 1069 012a 5218     		add	r2, r2, r1
 1070 012c 1278     		ldrb	r2, [r2]
 1071 012e 1A70     		strb	r2, [r3]
1056:Generated_Source\PSoC4/BLE.c ****                 {
 1072              		.loc 1 1056 0 discriminator 4
 1073 0130 1723     		mov	r3, #23
 1074 0132 FB18     		add	r3, r7, r3
 1075 0134 1A78     		ldrb	r2, [r3]
 1076 0136 1723     		mov	r3, #23
 1077 0138 FB18     		add	r3, r7, r3
 1078 013a 0132     		add	r2, r2, #1
 1079 013c 1A70     		strb	r2, [r3]
 1080              	.L55:
1056:Generated_Source\PSoC4/BLE.c ****                 {
 1081              		.loc 1 1056 0 is_stmt 0 discriminator 1
 1082 013e 1723     		mov	r3, #23
 1083 0140 FA18     		add	r2, r7, r3
 1084 0142 1523     		mov	r3, #21
 1085 0144 FB18     		add	r3, r7, r3
 1086 0146 1278     		ldrb	r2, [r2]
 1087 0148 1B78     		ldrb	r3, [r3]
 1088 014a 9A42     		cmp	r2, r3
 1089 014c 0CD2     		bcs	.L56
1056:Generated_Source\PSoC4/BLE.c ****                 {
ARM GAS  C:\Users\ADMINI~1.SC-\AppData\Local\Temp\ccGAQuWL.s 			page 39


 1090              		.loc 1 1056 0 discriminator 3
 1091 014e 1723     		mov	r3, #23
 1092 0150 FB18     		add	r3, r7, r3
 1093 0152 1A78     		ldrb	r2, [r3]
 1094 0154 1423     		mov	r3, #20
 1095 0156 FB18     		add	r3, r7, r3
 1096 0158 1B78     		ldrb	r3, [r3]
 1097 015a D31A     		sub	r3, r2, r3
 1098 015c 1A1C     		mov	r2, r3
 1099 015e 7B68     		ldr	r3, [r7, #4]
 1100 0160 9B18     		add	r3, r3, r2
 1101 0162 1B78     		ldrb	r3, [r3]
 1102 0164 002B     		cmp	r3, #0
 1103 0166 D2D1     		bne	.L57
 1104              	.L56:
1059:Generated_Source\PSoC4/BLE.c ****                 }
1060:Generated_Source\PSoC4/BLE.c ****                 
1061:Generated_Source\PSoC4/BLE.c ****                 /* This loop handles the case when new local name is shorted than old one.
1062:Generated_Source\PSoC4/BLE.c ****                    In this case all remaining characters should be null characters. */
1063:Generated_Source\PSoC4/BLE.c ****                 while(adLength > i)
 1105              		.loc 1 1063 0 is_stmt 1
 1106 0168 0DE0     		b	.L58
 1107              	.L59:
1064:Generated_Source\PSoC4/BLE.c ****                 {
1065:Generated_Source\PSoC4/BLE.c ****                     /* Terminate string */
1066:Generated_Source\PSoC4/BLE.c ****                     destBuffer[i] = (uint8)CYBLE_NULL_CHARCTER;
 1108              		.loc 1 1066 0
 1109 016a 1723     		mov	r3, #23
 1110 016c FB18     		add	r3, r7, r3
 1111 016e 1B78     		ldrb	r3, [r3]
 1112 0170 3A69     		ldr	r2, [r7, #16]
 1113 0172 D318     		add	r3, r2, r3
 1114 0174 0022     		mov	r2, #0
 1115 0176 1A70     		strb	r2, [r3]
1067:Generated_Source\PSoC4/BLE.c ****                     i++;
 1116              		.loc 1 1067 0
 1117 0178 1723     		mov	r3, #23
 1118 017a FB18     		add	r3, r7, r3
 1119 017c 1A78     		ldrb	r2, [r3]
 1120 017e 1723     		mov	r3, #23
 1121 0180 FB18     		add	r3, r7, r3
 1122 0182 0132     		add	r2, r2, #1
 1123 0184 1A70     		strb	r2, [r3]
 1124              	.L58:
1063:Generated_Source\PSoC4/BLE.c ****                 {
 1125              		.loc 1 1063 0
 1126 0186 1523     		mov	r3, #21
 1127 0188 FA18     		add	r2, r7, r3
 1128 018a 1723     		mov	r3, #23
 1129 018c FB18     		add	r3, r7, r3
 1130 018e 1278     		ldrb	r2, [r2]
 1131 0190 1B78     		ldrb	r3, [r3]
 1132 0192 9A42     		cmp	r2, r3
 1133 0194 E9D8     		bhi	.L59
 1134              	.L44:
1068:Generated_Source\PSoC4/BLE.c ****                 }
1069:Generated_Source\PSoC4/BLE.c ****             }
ARM GAS  C:\Users\ADMINI~1.SC-\AppData\Local\Temp\ccGAQuWL.s 			page 40


1070:Generated_Source\PSoC4/BLE.c ****         }
 1135              		.loc 1 1070 0
 1136 0196 BD46     		mov	sp, r7
 1137 0198 06B0     		add	sp, sp, #24
 1138              		@ sp needed
 1139 019a 80BD     		pop	{r7, pc}
 1140              	.L61:
 1141              		.align	2
 1142              	.L60:
 1143 019c 00000000 		.word	cyBle_discoveryData
 1144 01a0 00000000 		.word	cyBle_scanRspData
 1145              		.cfi_endproc
 1146              	.LFE10:
 1147              		.size	CyBle_ChangeAdLocalName, .-CyBle_ChangeAdLocalName
 1148              		.section	.text.CyBle_GapSetLocalName,"ax",%progbits
 1149              		.align	2
 1150              		.global	CyBle_GapSetLocalName
 1151              		.code	16
 1152              		.thumb_func
 1153              		.type	CyBle_GapSetLocalName, %function
 1154              	CyBle_GapSetLocalName:
 1155              	.LFB11:
1071:Generated_Source\PSoC4/BLE.c ****         
1072:Generated_Source\PSoC4/BLE.c **** #endif /* (CYBLE_GAP_ROLE_PERIPHERAL) */  
1073:Generated_Source\PSoC4/BLE.c ****     
1074:Generated_Source\PSoC4/BLE.c ****     
1075:Generated_Source\PSoC4/BLE.c ****     /******************************************************************************
1076:Generated_Source\PSoC4/BLE.c ****     * Function Name: CyBle_GapSetLocalName
1077:Generated_Source\PSoC4/BLE.c ****     ***************************************************************************//**
1078:Generated_Source\PSoC4/BLE.c ****     *  This API is used to set the local device name - a Characteristic of the 
1079:Generated_Source\PSoC4/BLE.c ****     *  GAP Service. If the characteristic length entered in the component customizer
1080:Generated_Source\PSoC4/BLE.c ****     *  is shorter than the string specified by the "name" parameter, the local device
1081:Generated_Source\PSoC4/BLE.c ****     *  name will be cut to the length specified in the customizer.
1082:Generated_Source\PSoC4/BLE.c ****     * 
1083:Generated_Source\PSoC4/BLE.c ****     *  \param name: The local device name string. The name string to be written as
1084:Generated_Source\PSoC4/BLE.c ****     *              the local device name. It represents a UTF-8 encoded User
1085:Generated_Source\PSoC4/BLE.c ****     *              Friendly Descriptive Name for the device. The length of the local
1086:Generated_Source\PSoC4/BLE.c ****     *              device string is entered into the component customizer and it can
1087:Generated_Source\PSoC4/BLE.c ****     *              be set to a value from 0 to 248 bytes. If the name contained in
1088:Generated_Source\PSoC4/BLE.c ****     *              the parameter is shorter than the length from the customizer, the
1089:Generated_Source\PSoC4/BLE.c ****     *              end of the name is indicated by a NULL octet (0x00).
1090:Generated_Source\PSoC4/BLE.c ****     * 
1091:Generated_Source\PSoC4/BLE.c ****     * \return
1092:Generated_Source\PSoC4/BLE.c ****     *  CYBLE_API_RESULT_T : Return value indicates if the function succeeded or 
1093:Generated_Source\PSoC4/BLE.c ****     *  failed. Following are the possible error codes.
1094:Generated_Source\PSoC4/BLE.c ****     *
1095:Generated_Source\PSoC4/BLE.c ****     *   Errors codes                       | Description
1096:Generated_Source\PSoC4/BLE.c ****     *   ------------                       | -----------
1097:Generated_Source\PSoC4/BLE.c ****     *   CYBLE_ERROR_OK                     | Function completed successfully.
1098:Generated_Source\PSoC4/BLE.c ****     *   CYBLE_ERROR_INVALID_PARAMETER      | On specifying NULL as input parameter
1099:Generated_Source\PSoC4/BLE.c ****     *  
1100:Generated_Source\PSoC4/BLE.c ****     *******************************************************************************/
1101:Generated_Source\PSoC4/BLE.c ****     CYBLE_API_RESULT_T CyBle_GapSetLocalName(const char8 name[])
1102:Generated_Source\PSoC4/BLE.c ****     {
 1156              		.loc 1 1102 0
 1157              		.cfi_startproc
 1158 0000 80B5     		push	{r7, lr}
ARM GAS  C:\Users\ADMINI~1.SC-\AppData\Local\Temp\ccGAQuWL.s 			page 41


 1159              		.cfi_def_cfa_offset 8
 1160              		.cfi_offset 7, -8
 1161              		.cfi_offset 14, -4
 1162 0002 86B0     		sub	sp, sp, #24
 1163              		.cfi_def_cfa_offset 32
 1164 0004 00AF     		add	r7, sp, #0
 1165              		.cfi_def_cfa_register 7
 1166 0006 7860     		str	r0, [r7, #4]
1103:Generated_Source\PSoC4/BLE.c ****         CYBLE_API_RESULT_T apiResult = CYBLE_ERROR_OK;
 1167              		.loc 1 1103 0
 1168 0008 1623     		mov	r3, #22
 1169 000a FB18     		add	r3, r7, r3
 1170 000c 0022     		mov	r2, #0
 1171 000e 1A80     		strh	r2, [r3]
1104:Generated_Source\PSoC4/BLE.c ****         uint8 i;
1105:Generated_Source\PSoC4/BLE.c ****         char8 *ptr;
1106:Generated_Source\PSoC4/BLE.c ****         uint8 charLen;
1107:Generated_Source\PSoC4/BLE.c **** 
1108:Generated_Source\PSoC4/BLE.c ****         if(NULL != name)
 1172              		.loc 1 1108 0
 1173 0010 7B68     		ldr	r3, [r7, #4]
 1174 0012 002B     		cmp	r3, #0
 1175 0014 4AD0     		beq	.L63
1109:Generated_Source\PSoC4/BLE.c ****         {
1110:Generated_Source\PSoC4/BLE.c ****             /* Get the pointer to the Device Name characteristic  */
1111:Generated_Source\PSoC4/BLE.c ****             ptr = (char8 *) CYBLE_GATT_DB_ATTR_GET_ATTR_GEN_PTR(CYBLE_GAP_DEVICE_NAME_INDEX + 1u);
 1176              		.loc 1 1111 0
 1177 0016 2B4B     		ldr	r3, .L70
 1178 0018 9B6B     		ldr	r3, [r3, #56]
 1179 001a 5B68     		ldr	r3, [r3, #4]
 1180 001c 3B61     		str	r3, [r7, #16]
1112:Generated_Source\PSoC4/BLE.c **** 
1113:Generated_Source\PSoC4/BLE.c ****             /* First need to get the maximum length of the characteristic data in the GATT
1114:Generated_Source\PSoC4/BLE.c ****                 database to make sure there is enough place for the data. The length
1115:Generated_Source\PSoC4/BLE.c ****                 can't be longer than 248, so only the LSB of 16 bit of length is to
1116:Generated_Source\PSoC4/BLE.c ****                 be used. */
1117:Generated_Source\PSoC4/BLE.c ****             charLen = (uint8)CYBLE_GATT_DB_ATTR_GET_ATTR_GEN_MAX_LEN(CYBLE_GAP_DEVICE_NAME_INDEX + 
 1181              		.loc 1 1117 0
 1182 001e 294B     		ldr	r3, .L70
 1183 0020 9A8E     		ldrh	r2, [r3, #52]
 1184 0022 0F23     		mov	r3, #15
 1185 0024 FB18     		add	r3, r7, r3
 1186 0026 1A70     		strb	r2, [r3]
1118:Generated_Source\PSoC4/BLE.c **** 
1119:Generated_Source\PSoC4/BLE.c ****             /* Copy name into characteristic */
1120:Generated_Source\PSoC4/BLE.c ****             for(i = 0u; ((i < charLen) && (CYBLE_NULL_CHARCTER != name[i])); i++)
 1187              		.loc 1 1120 0
 1188 0028 1523     		mov	r3, #21
 1189 002a FB18     		add	r3, r7, r3
 1190 002c 0022     		mov	r2, #0
 1191 002e 1A70     		strb	r2, [r3]
 1192 0030 12E0     		b	.L64
 1193              	.L66:
1121:Generated_Source\PSoC4/BLE.c ****             {
1122:Generated_Source\PSoC4/BLE.c ****                 ptr[i] = name[i];
 1194              		.loc 1 1122 0 discriminator 4
 1195 0032 1523     		mov	r3, #21
ARM GAS  C:\Users\ADMINI~1.SC-\AppData\Local\Temp\ccGAQuWL.s 			page 42


 1196 0034 FB18     		add	r3, r7, r3
 1197 0036 1B78     		ldrb	r3, [r3]
 1198 0038 3A69     		ldr	r2, [r7, #16]
 1199 003a D318     		add	r3, r2, r3
 1200 003c 1522     		mov	r2, #21
 1201 003e BA18     		add	r2, r7, r2
 1202 0040 1278     		ldrb	r2, [r2]
 1203 0042 7968     		ldr	r1, [r7, #4]
 1204 0044 8A18     		add	r2, r1, r2
 1205 0046 1278     		ldrb	r2, [r2]
 1206 0048 1A70     		strb	r2, [r3]
1120:Generated_Source\PSoC4/BLE.c ****             {
 1207              		.loc 1 1120 0 discriminator 4
 1208 004a 1523     		mov	r3, #21
 1209 004c FB18     		add	r3, r7, r3
 1210 004e 1A78     		ldrb	r2, [r3]
 1211 0050 1523     		mov	r3, #21
 1212 0052 FB18     		add	r3, r7, r3
 1213 0054 0132     		add	r2, r2, #1
 1214 0056 1A70     		strb	r2, [r3]
 1215              	.L64:
1120:Generated_Source\PSoC4/BLE.c ****             {
 1216              		.loc 1 1120 0 is_stmt 0 discriminator 1
 1217 0058 1523     		mov	r3, #21
 1218 005a FA18     		add	r2, r7, r3
 1219 005c 0F23     		mov	r3, #15
 1220 005e FB18     		add	r3, r7, r3
 1221 0060 1278     		ldrb	r2, [r2]
 1222 0062 1B78     		ldrb	r3, [r3]
 1223 0064 9A42     		cmp	r2, r3
 1224 0066 07D2     		bcs	.L65
1120:Generated_Source\PSoC4/BLE.c ****             {
 1225              		.loc 1 1120 0 discriminator 3
 1226 0068 1523     		mov	r3, #21
 1227 006a FB18     		add	r3, r7, r3
 1228 006c 1B78     		ldrb	r3, [r3]
 1229 006e 7A68     		ldr	r2, [r7, #4]
 1230 0070 D318     		add	r3, r2, r3
 1231 0072 1B78     		ldrb	r3, [r3]
 1232 0074 002B     		cmp	r3, #0
 1233 0076 DCD1     		bne	.L66
 1234              	.L65:
1123:Generated_Source\PSoC4/BLE.c ****             }
1124:Generated_Source\PSoC4/BLE.c **** 
1125:Generated_Source\PSoC4/BLE.c ****             if(i < charLen)
 1235              		.loc 1 1125 0 is_stmt 1
 1236 0078 1523     		mov	r3, #21
 1237 007a FA18     		add	r2, r7, r3
 1238 007c 0F23     		mov	r3, #15
 1239 007e FB18     		add	r3, r7, r3
 1240 0080 1278     		ldrb	r2, [r2]
 1241 0082 1B78     		ldrb	r3, [r3]
 1242 0084 9A42     		cmp	r2, r3
 1243 0086 06D2     		bcs	.L67
1126:Generated_Source\PSoC4/BLE.c ****             {
1127:Generated_Source\PSoC4/BLE.c ****                 /* Terminate string */
1128:Generated_Source\PSoC4/BLE.c ****                 ptr[i] = CYBLE_NULL_CHARCTER;
ARM GAS  C:\Users\ADMINI~1.SC-\AppData\Local\Temp\ccGAQuWL.s 			page 43


 1244              		.loc 1 1128 0
 1245 0088 1523     		mov	r3, #21
 1246 008a FB18     		add	r3, r7, r3
 1247 008c 1B78     		ldrb	r3, [r3]
 1248 008e 3A69     		ldr	r2, [r7, #16]
 1249 0090 D318     		add	r3, r2, r3
 1250 0092 0022     		mov	r2, #0
 1251 0094 1A70     		strb	r2, [r3]
 1252              	.L67:
1129:Generated_Source\PSoC4/BLE.c ****             }
1130:Generated_Source\PSoC4/BLE.c ****             
1131:Generated_Source\PSoC4/BLE.c ****             /* Set new actual length */
1132:Generated_Source\PSoC4/BLE.c ****             
1133:Generated_Source\PSoC4/BLE.c ****             /* Update device name in advertising and scan response structure */
1134:Generated_Source\PSoC4/BLE.c ****             #if(CYBLE_GAP_ROLE_PERIPHERAL)
1135:Generated_Source\PSoC4/BLE.c ****                 CyBle_ChangeAdLocalName(name, 0u);
 1253              		.loc 1 1135 0
 1254 0096 7B68     		ldr	r3, [r7, #4]
 1255 0098 181C     		mov	r0, r3
 1256 009a 0021     		mov	r1, #0
 1257 009c FFF7FEFF 		bl	CyBle_ChangeAdLocalName
1136:Generated_Source\PSoC4/BLE.c ****                 CyBle_ChangeAdLocalName(name, 1u);
 1258              		.loc 1 1136 0
 1259 00a0 7B68     		ldr	r3, [r7, #4]
 1260 00a2 181C     		mov	r0, r3
 1261 00a4 0121     		mov	r1, #1
 1262 00a6 FFF7FEFF 		bl	CyBle_ChangeAdLocalName
 1263 00aa 03E0     		b	.L68
 1264              	.L63:
1137:Generated_Source\PSoC4/BLE.c ****             #endif /* (CYBLE_GAP_ROLE_PERIPHERAL) */
1138:Generated_Source\PSoC4/BLE.c ****         }
1139:Generated_Source\PSoC4/BLE.c ****         else
1140:Generated_Source\PSoC4/BLE.c ****         {
1141:Generated_Source\PSoC4/BLE.c ****             apiResult = CYBLE_ERROR_INVALID_PARAMETER;
 1265              		.loc 1 1141 0
 1266 00ac 1623     		mov	r3, #22
 1267 00ae FB18     		add	r3, r7, r3
 1268 00b0 0122     		mov	r2, #1
 1269 00b2 1A80     		strh	r2, [r3]
 1270              	.L68:
1142:Generated_Source\PSoC4/BLE.c ****         }
1143:Generated_Source\PSoC4/BLE.c ****         
1144:Generated_Source\PSoC4/BLE.c ****         return(apiResult);
 1271              		.loc 1 1144 0
 1272 00b4 1623     		mov	r3, #22
 1273 00b6 FB18     		add	r3, r7, r3
 1274 00b8 1B88     		ldrh	r3, [r3]
1145:Generated_Source\PSoC4/BLE.c ****     }
 1275              		.loc 1 1145 0
 1276 00ba 181C     		mov	r0, r3
 1277 00bc BD46     		mov	sp, r7
 1278 00be 06B0     		add	sp, sp, #24
 1279              		@ sp needed
 1280 00c0 80BD     		pop	{r7, pc}
 1281              	.L71:
 1282 00c2 C046     		.align	2
 1283              	.L70:
ARM GAS  C:\Users\ADMINI~1.SC-\AppData\Local\Temp\ccGAQuWL.s 			page 44


 1284 00c4 00000000 		.word	cyBle_gattDB
 1285              		.cfi_endproc
 1286              	.LFE11:
 1287              		.size	CyBle_GapSetLocalName, .-CyBle_GapSetLocalName
 1288              		.section	.text.CyBle_GapGetLocalName,"ax",%progbits
 1289              		.align	2
 1290              		.global	CyBle_GapGetLocalName
 1291              		.code	16
 1292              		.thumb_func
 1293              		.type	CyBle_GapGetLocalName, %function
 1294              	CyBle_GapGetLocalName:
 1295              	.LFB12:
1146:Generated_Source\PSoC4/BLE.c **** 
1147:Generated_Source\PSoC4/BLE.c **** 
1148:Generated_Source\PSoC4/BLE.c ****     /******************************************************************************
1149:Generated_Source\PSoC4/BLE.c ****     * Function Name: CyBle_GapGetLocalName
1150:Generated_Source\PSoC4/BLE.c ****     ***************************************************************************//**
1151:Generated_Source\PSoC4/BLE.c ****     *  
1152:Generated_Source\PSoC4/BLE.c ****     *  This API is used to read the local device name - a Characteristic of the 
1153:Generated_Source\PSoC4/BLE.c ****     *  GAP Service.
1154:Generated_Source\PSoC4/BLE.c ****     * 
1155:Generated_Source\PSoC4/BLE.c ****     * \param name: The local device name string. Used to read the local name to the
1156:Generated_Source\PSoC4/BLE.c ****     *             given string array. It represents a UTF-8 encoded User Friendly 
1157:Generated_Source\PSoC4/BLE.c ****     *             Descriptive Name for the device. The length of the local device
1158:Generated_Source\PSoC4/BLE.c ****     *             string is entered into the component customizer and it can be set
1159:Generated_Source\PSoC4/BLE.c ****     *             to a value from 0 to 248 bytes. If the name contained in the
1160:Generated_Source\PSoC4/BLE.c ****     *             parameter is shorter than the length from the customizer, the end
1161:Generated_Source\PSoC4/BLE.c ****     *             of the name is indicated by a NULL octet (0x00).
1162:Generated_Source\PSoC4/BLE.c ****     * 
1163:Generated_Source\PSoC4/BLE.c ****     * \return
1164:Generated_Source\PSoC4/BLE.c ****     *  CYBLE_API_RESULT_T : Return value indicates if the function succeeded or 
1165:Generated_Source\PSoC4/BLE.c ****     *  failed. Following are the possible error codes.
1166:Generated_Source\PSoC4/BLE.c ****     *
1167:Generated_Source\PSoC4/BLE.c ****     *   Errors codes                       | Description
1168:Generated_Source\PSoC4/BLE.c ****     *   ------------                       | -----------
1169:Generated_Source\PSoC4/BLE.c ****     *   CYBLE_ERROR_OK                     | Function completed successfully.
1170:Generated_Source\PSoC4/BLE.c ****     *   CYBLE_ERROR_INVALID_PARAMETER      | On specifying NULL as input parameter
1171:Generated_Source\PSoC4/BLE.c ****     *
1172:Generated_Source\PSoC4/BLE.c ****     *******************************************************************************/
1173:Generated_Source\PSoC4/BLE.c ****     CYBLE_API_RESULT_T CyBle_GapGetLocalName(char8 name[])
1174:Generated_Source\PSoC4/BLE.c ****     {
 1296              		.loc 1 1174 0
 1297              		.cfi_startproc
 1298 0000 80B5     		push	{r7, lr}
 1299              		.cfi_def_cfa_offset 8
 1300              		.cfi_offset 7, -8
 1301              		.cfi_offset 14, -4
 1302 0002 86B0     		sub	sp, sp, #24
 1303              		.cfi_def_cfa_offset 32
 1304 0004 00AF     		add	r7, sp, #0
 1305              		.cfi_def_cfa_register 7
 1306 0006 7860     		str	r0, [r7, #4]
1175:Generated_Source\PSoC4/BLE.c ****         CYBLE_API_RESULT_T apiResult = CYBLE_ERROR_OK;
 1307              		.loc 1 1175 0
 1308 0008 1623     		mov	r3, #22
 1309 000a FB18     		add	r3, r7, r3
 1310 000c 0022     		mov	r2, #0
ARM GAS  C:\Users\ADMINI~1.SC-\AppData\Local\Temp\ccGAQuWL.s 			page 45


 1311 000e 1A80     		strh	r2, [r3]
1176:Generated_Source\PSoC4/BLE.c ****         uint8 charLen;
1177:Generated_Source\PSoC4/BLE.c ****         uint8 i;
1178:Generated_Source\PSoC4/BLE.c ****         char8 *ptr;
1179:Generated_Source\PSoC4/BLE.c **** 
1180:Generated_Source\PSoC4/BLE.c ****         if(NULL != name)
 1312              		.loc 1 1180 0
 1313 0010 7B68     		ldr	r3, [r7, #4]
 1314 0012 002B     		cmp	r3, #0
 1315 0014 39D0     		beq	.L73
1181:Generated_Source\PSoC4/BLE.c ****         {
1182:Generated_Source\PSoC4/BLE.c ****             /* Get the pointer to the Device Name characteristic  */
1183:Generated_Source\PSoC4/BLE.c ****             ptr = (char8 *) CYBLE_GATT_DB_ATTR_GET_ATTR_GEN_PTR(CYBLE_GAP_DEVICE_NAME_INDEX + 1u);
 1316              		.loc 1 1183 0
 1317 0016 224B     		ldr	r3, .L79
 1318 0018 9B6B     		ldr	r3, [r3, #56]
 1319 001a 5B68     		ldr	r3, [r3, #4]
 1320 001c 3B61     		str	r3, [r7, #16]
1184:Generated_Source\PSoC4/BLE.c **** 
1185:Generated_Source\PSoC4/BLE.c ****             /* First need to get the length of the characteristic data in the GATT
1186:Generated_Source\PSoC4/BLE.c ****                 database to make sure there is enough place for the data. The length
1187:Generated_Source\PSoC4/BLE.c ****                 can't be longer than 248, so only the LSB of 16 bit of length is to
1188:Generated_Source\PSoC4/BLE.c ****                 be used. */
1189:Generated_Source\PSoC4/BLE.c ****             charLen = (uint8)CYBLE_GATT_DB_ATTR_GET_ATTR_GEN_LEN(CYBLE_GAP_DEVICE_NAME_INDEX + 1u);
 1321              		.loc 1 1189 0
 1322 001e 204B     		ldr	r3, .L79
 1323 0020 9B6B     		ldr	r3, [r3, #56]
 1324 0022 1A88     		ldrh	r2, [r3]
 1325 0024 0F23     		mov	r3, #15
 1326 0026 FB18     		add	r3, r7, r3
 1327 0028 1A70     		strb	r2, [r3]
1190:Generated_Source\PSoC4/BLE.c **** 
1191:Generated_Source\PSoC4/BLE.c ****             /* Copy name from characteristic */
1192:Generated_Source\PSoC4/BLE.c ****             for(i = 0u; ((i < charLen) && (CYBLE_NULL_CHARCTER != ptr[i])); i++)
 1328              		.loc 1 1192 0
 1329 002a 1523     		mov	r3, #21
 1330 002c FB18     		add	r3, r7, r3
 1331 002e 0022     		mov	r2, #0
 1332 0030 1A70     		strb	r2, [r3]
 1333 0032 12E0     		b	.L74
 1334              	.L76:
1193:Generated_Source\PSoC4/BLE.c ****             {
1194:Generated_Source\PSoC4/BLE.c ****                 name[i] = ptr[i];
 1335              		.loc 1 1194 0 discriminator 4
 1336 0034 1523     		mov	r3, #21
 1337 0036 FB18     		add	r3, r7, r3
 1338 0038 1B78     		ldrb	r3, [r3]
 1339 003a 7A68     		ldr	r2, [r7, #4]
 1340 003c D318     		add	r3, r2, r3
 1341 003e 1522     		mov	r2, #21
 1342 0040 BA18     		add	r2, r7, r2
 1343 0042 1278     		ldrb	r2, [r2]
 1344 0044 3969     		ldr	r1, [r7, #16]
 1345 0046 8A18     		add	r2, r1, r2
 1346 0048 1278     		ldrb	r2, [r2]
 1347 004a 1A70     		strb	r2, [r3]
1192:Generated_Source\PSoC4/BLE.c ****             {
ARM GAS  C:\Users\ADMINI~1.SC-\AppData\Local\Temp\ccGAQuWL.s 			page 46


 1348              		.loc 1 1192 0 discriminator 4
 1349 004c 1523     		mov	r3, #21
 1350 004e FB18     		add	r3, r7, r3
 1351 0050 1A78     		ldrb	r2, [r3]
 1352 0052 1523     		mov	r3, #21
 1353 0054 FB18     		add	r3, r7, r3
 1354 0056 0132     		add	r2, r2, #1
 1355 0058 1A70     		strb	r2, [r3]
 1356              	.L74:
1192:Generated_Source\PSoC4/BLE.c ****             {
 1357              		.loc 1 1192 0 is_stmt 0 discriminator 1
 1358 005a 1523     		mov	r3, #21
 1359 005c FA18     		add	r2, r7, r3
 1360 005e 0F23     		mov	r3, #15
 1361 0060 FB18     		add	r3, r7, r3
 1362 0062 1278     		ldrb	r2, [r2]
 1363 0064 1B78     		ldrb	r3, [r3]
 1364 0066 9A42     		cmp	r2, r3
 1365 0068 07D2     		bcs	.L75
1192:Generated_Source\PSoC4/BLE.c ****             {
 1366              		.loc 1 1192 0 discriminator 3
 1367 006a 1523     		mov	r3, #21
 1368 006c FB18     		add	r3, r7, r3
 1369 006e 1B78     		ldrb	r3, [r3]
 1370 0070 3A69     		ldr	r2, [r7, #16]
 1371 0072 D318     		add	r3, r2, r3
 1372 0074 1B78     		ldrb	r3, [r3]
 1373 0076 002B     		cmp	r3, #0
 1374 0078 DCD1     		bne	.L76
 1375              	.L75:
1195:Generated_Source\PSoC4/BLE.c ****             }
1196:Generated_Source\PSoC4/BLE.c **** 
1197:Generated_Source\PSoC4/BLE.c ****             /* Terminate string */
1198:Generated_Source\PSoC4/BLE.c ****             name[i] = CYBLE_NULL_CHARCTER;
 1376              		.loc 1 1198 0 is_stmt 1
 1377 007a 1523     		mov	r3, #21
 1378 007c FB18     		add	r3, r7, r3
 1379 007e 1B78     		ldrb	r3, [r3]
 1380 0080 7A68     		ldr	r2, [r7, #4]
 1381 0082 D318     		add	r3, r2, r3
 1382 0084 0022     		mov	r2, #0
 1383 0086 1A70     		strb	r2, [r3]
 1384 0088 03E0     		b	.L77
 1385              	.L73:
1199:Generated_Source\PSoC4/BLE.c ****         }
1200:Generated_Source\PSoC4/BLE.c ****         else
1201:Generated_Source\PSoC4/BLE.c ****         {
1202:Generated_Source\PSoC4/BLE.c ****             apiResult = CYBLE_ERROR_INVALID_PARAMETER;
 1386              		.loc 1 1202 0
 1387 008a 1623     		mov	r3, #22
 1388 008c FB18     		add	r3, r7, r3
 1389 008e 0122     		mov	r2, #1
 1390 0090 1A80     		strh	r2, [r3]
 1391              	.L77:
1203:Generated_Source\PSoC4/BLE.c ****         }
1204:Generated_Source\PSoC4/BLE.c ****         
1205:Generated_Source\PSoC4/BLE.c ****         return(apiResult);
ARM GAS  C:\Users\ADMINI~1.SC-\AppData\Local\Temp\ccGAQuWL.s 			page 47


 1392              		.loc 1 1205 0
 1393 0092 1623     		mov	r3, #22
 1394 0094 FB18     		add	r3, r7, r3
 1395 0096 1B88     		ldrh	r3, [r3]
1206:Generated_Source\PSoC4/BLE.c ****     }
 1396              		.loc 1 1206 0
 1397 0098 181C     		mov	r0, r3
 1398 009a BD46     		mov	sp, r7
 1399 009c 06B0     		add	sp, sp, #24
 1400              		@ sp needed
 1401 009e 80BD     		pop	{r7, pc}
 1402              	.L80:
 1403              		.align	2
 1404              	.L79:
 1405 00a0 00000000 		.word	cyBle_gattDB
 1406              		.cfi_endproc
 1407              	.LFE12:
 1408              		.size	CyBle_GapGetLocalName, .-CyBle_GapGetLocalName
 1409              		.section	.text.CyBle_Get16ByPtr,"ax",%progbits
 1410              		.align	2
 1411              		.global	CyBle_Get16ByPtr
 1412              		.code	16
 1413              		.thumb_func
 1414              		.type	CyBle_Get16ByPtr, %function
 1415              	CyBle_Get16ByPtr:
 1416              	.LFB13:
1207:Generated_Source\PSoC4/BLE.c **** 
1208:Generated_Source\PSoC4/BLE.c **** #endif /* (CYBLE_GATT_ROLE_SERVER) */
1209:Generated_Source\PSoC4/BLE.c **** 
1210:Generated_Source\PSoC4/BLE.c **** 
1211:Generated_Source\PSoC4/BLE.c **** /******************************************************************************
1212:Generated_Source\PSoC4/BLE.c **** * Function Name: CyBle_Get16ByPtr
1213:Generated_Source\PSoC4/BLE.c **** ***************************************************************************//**
1214:Generated_Source\PSoC4/BLE.c **** * 
1215:Generated_Source\PSoC4/BLE.c **** *  Returns the two-bytes value by using a pointer to the LSB.
1216:Generated_Source\PSoC4/BLE.c **** * 
1217:Generated_Source\PSoC4/BLE.c **** *  \param ptr: Pointer to the LSB of two-bytes data (little endian).
1218:Generated_Source\PSoC4/BLE.c **** * 
1219:Generated_Source\PSoC4/BLE.c **** *  \return
1220:Generated_Source\PSoC4/BLE.c **** *  uint16: Two-bytes data.
1221:Generated_Source\PSoC4/BLE.c **** * 
1222:Generated_Source\PSoC4/BLE.c **** ******************************************************************************/
1223:Generated_Source\PSoC4/BLE.c **** uint16 CyBle_Get16ByPtr(const uint8 ptr[])
1224:Generated_Source\PSoC4/BLE.c **** {
 1417              		.loc 1 1224 0
 1418              		.cfi_startproc
 1419 0000 80B5     		push	{r7, lr}
 1420              		.cfi_def_cfa_offset 8
 1421              		.cfi_offset 7, -8
 1422              		.cfi_offset 14, -4
 1423 0002 82B0     		sub	sp, sp, #8
 1424              		.cfi_def_cfa_offset 16
 1425 0004 00AF     		add	r7, sp, #0
 1426              		.cfi_def_cfa_register 7
 1427 0006 7860     		str	r0, [r7, #4]
1225:Generated_Source\PSoC4/BLE.c ****     return ((uint16) ptr[0u] | ((uint16) (((uint16) ptr[1u]) << 8u)));
 1428              		.loc 1 1225 0
ARM GAS  C:\Users\ADMINI~1.SC-\AppData\Local\Temp\ccGAQuWL.s 			page 48


 1429 0008 7B68     		ldr	r3, [r7, #4]
 1430 000a 1B78     		ldrb	r3, [r3]
 1431 000c 9AB2     		uxth	r2, r3
 1432 000e 7B68     		ldr	r3, [r7, #4]
 1433 0010 0133     		add	r3, r3, #1
 1434 0012 1B78     		ldrb	r3, [r3]
 1435 0014 9BB2     		uxth	r3, r3
 1436 0016 1B02     		lsl	r3, r3, #8
 1437 0018 9BB2     		uxth	r3, r3
 1438 001a 1343     		orr	r3, r2
 1439 001c 9BB2     		uxth	r3, r3
1226:Generated_Source\PSoC4/BLE.c **** }
 1440              		.loc 1 1226 0
 1441 001e 181C     		mov	r0, r3
 1442 0020 BD46     		mov	sp, r7
 1443 0022 02B0     		add	sp, sp, #8
 1444              		@ sp needed
 1445 0024 80BD     		pop	{r7, pc}
 1446              		.cfi_endproc
 1447              	.LFE13:
 1448              		.size	CyBle_Get16ByPtr, .-CyBle_Get16ByPtr
 1449 0026 C046     		.section	.text.CyBle_Set16ByPtr,"ax",%progbits
 1450              		.align	2
 1451              		.global	CyBle_Set16ByPtr
 1452              		.code	16
 1453              		.thumb_func
 1454              		.type	CyBle_Set16ByPtr, %function
 1455              	CyBle_Set16ByPtr:
 1456              	.LFB14:
1227:Generated_Source\PSoC4/BLE.c **** 
1228:Generated_Source\PSoC4/BLE.c **** 
1229:Generated_Source\PSoC4/BLE.c **** /******************************************************************************
1230:Generated_Source\PSoC4/BLE.c **** * Function Name: CyBle_Set16ByPtr
1231:Generated_Source\PSoC4/BLE.c **** ***************************************************************************//**
1232:Generated_Source\PSoC4/BLE.c **** * 
1233:Generated_Source\PSoC4/BLE.c **** *  Sets the two-bytes value by using a pointer to the LSB.
1234:Generated_Source\PSoC4/BLE.c **** * 
1235:Generated_Source\PSoC4/BLE.c **** *  \param ptr:    Pointer to the LSB of two-bytes data (little endian).
1236:Generated_Source\PSoC4/BLE.c **** *  \param value:  Two-bytes data to be written.
1237:Generated_Source\PSoC4/BLE.c **** * 
1238:Generated_Source\PSoC4/BLE.c **** *  \return
1239:Generated_Source\PSoC4/BLE.c **** *  None
1240:Generated_Source\PSoC4/BLE.c **** * 
1241:Generated_Source\PSoC4/BLE.c **** ******************************************************************************/
1242:Generated_Source\PSoC4/BLE.c **** void CyBle_Set16ByPtr(uint8 ptr[], uint16 value)
1243:Generated_Source\PSoC4/BLE.c **** {
 1457              		.loc 1 1243 0
 1458              		.cfi_startproc
 1459 0000 80B5     		push	{r7, lr}
 1460              		.cfi_def_cfa_offset 8
 1461              		.cfi_offset 7, -8
 1462              		.cfi_offset 14, -4
 1463 0002 82B0     		sub	sp, sp, #8
 1464              		.cfi_def_cfa_offset 16
 1465 0004 00AF     		add	r7, sp, #0
 1466              		.cfi_def_cfa_register 7
 1467 0006 7860     		str	r0, [r7, #4]
ARM GAS  C:\Users\ADMINI~1.SC-\AppData\Local\Temp\ccGAQuWL.s 			page 49


 1468 0008 0A1C     		mov	r2, r1
 1469 000a BB1C     		add	r3, r7, #2
 1470 000c 1A80     		strh	r2, [r3]
1244:Generated_Source\PSoC4/BLE.c ****     ptr[0u] = (uint8) value;
 1471              		.loc 1 1244 0
 1472 000e BB1C     		add	r3, r7, #2
 1473 0010 1B88     		ldrh	r3, [r3]
 1474 0012 DAB2     		uxtb	r2, r3
 1475 0014 7B68     		ldr	r3, [r7, #4]
 1476 0016 1A70     		strb	r2, [r3]
1245:Generated_Source\PSoC4/BLE.c ****     ptr[1u] = (uint8) (value >> 8u);
 1477              		.loc 1 1245 0
 1478 0018 7B68     		ldr	r3, [r7, #4]
 1479 001a 0133     		add	r3, r3, #1
 1480 001c BA1C     		add	r2, r7, #2
 1481 001e 1288     		ldrh	r2, [r2]
 1482 0020 120A     		lsr	r2, r2, #8
 1483 0022 92B2     		uxth	r2, r2
 1484 0024 D2B2     		uxtb	r2, r2
 1485 0026 1A70     		strb	r2, [r3]
1246:Generated_Source\PSoC4/BLE.c **** }
 1486              		.loc 1 1246 0
 1487 0028 BD46     		mov	sp, r7
 1488 002a 02B0     		add	sp, sp, #8
 1489              		@ sp needed
 1490 002c 80BD     		pop	{r7, pc}
 1491              		.cfi_endproc
 1492              	.LFE14:
 1493              		.size	CyBle_Set16ByPtr, .-CyBle_Set16ByPtr
 1494 002e C046     		.text
 1495              	.Letext0:
 1496              		.file 2 "Generated_Source\\PSoC4\\cytypes.h"
 1497              		.file 3 "Generated_Source\\PSoC4\\BLE_Stack.h"
 1498              		.file 4 "Generated_Source\\PSoC4\\BLE_StackGap.h"
 1499              		.file 5 "Generated_Source\\PSoC4\\BLE_StackGatt.h"
 1500              		.file 6 "Generated_Source\\PSoC4\\BLE_StackGattDb.h"
 1501              		.file 7 "Generated_Source\\PSoC4\\BLE.h"
 1502              		.file 8 "Generated_Source\\PSoC4\\BLE_gatt.h"
 1503              		.file 9 "Generated_Source\\PSoC4\\BLE_eventHandler.h"
 1504              		.section	.debug_info,"",%progbits
 1505              	.Ldebug_info0:
 1506 0000 690B0000 		.4byte	0xb69
 1507 0004 0400     		.2byte	0x4
 1508 0006 00000000 		.4byte	.Ldebug_abbrev0
 1509 000a 04       		.byte	0x4
 1510 000b 01       		.uleb128 0x1
 1511 000c 96110000 		.4byte	.LASF210
 1512 0010 01       		.byte	0x1
 1513 0011 DC120000 		.4byte	.LASF211
 1514 0015 680B0000 		.4byte	.LASF212
 1515 0019 00000000 		.4byte	.Ldebug_ranges0+0
 1516 001d 00000000 		.4byte	0
 1517 0021 00000000 		.4byte	.Ldebug_line0
 1518 0025 02       		.uleb128 0x2
 1519 0026 01       		.byte	0x1
 1520 0027 06       		.byte	0x6
 1521 0028 A8030000 		.4byte	.LASF0
ARM GAS  C:\Users\ADMINI~1.SC-\AppData\Local\Temp\ccGAQuWL.s 			page 50


 1522 002c 02       		.uleb128 0x2
 1523 002d 01       		.byte	0x1
 1524 002e 08       		.byte	0x8
 1525 002f B80C0000 		.4byte	.LASF1
 1526 0033 02       		.uleb128 0x2
 1527 0034 02       		.byte	0x2
 1528 0035 05       		.byte	0x5
 1529 0036 020D0000 		.4byte	.LASF2
 1530 003a 02       		.uleb128 0x2
 1531 003b 02       		.byte	0x2
 1532 003c 07       		.byte	0x7
 1533 003d AF0F0000 		.4byte	.LASF3
 1534 0041 02       		.uleb128 0x2
 1535 0042 04       		.byte	0x4
 1536 0043 05       		.byte	0x5
 1537 0044 E5010000 		.4byte	.LASF4
 1538 0048 02       		.uleb128 0x2
 1539 0049 04       		.byte	0x4
 1540 004a 07       		.byte	0x7
 1541 004b 6D070000 		.4byte	.LASF5
 1542 004f 02       		.uleb128 0x2
 1543 0050 08       		.byte	0x8
 1544 0051 05       		.byte	0x5
 1545 0052 9A030000 		.4byte	.LASF6
 1546 0056 02       		.uleb128 0x2
 1547 0057 08       		.byte	0x8
 1548 0058 07       		.byte	0x7
 1549 0059 C0060000 		.4byte	.LASF7
 1550 005d 03       		.uleb128 0x3
 1551 005e 04       		.byte	0x4
 1552 005f 05       		.byte	0x5
 1553 0060 696E7400 		.ascii	"int\000"
 1554 0064 02       		.uleb128 0x2
 1555 0065 04       		.byte	0x4
 1556 0066 07       		.byte	0x7
 1557 0067 D70E0000 		.4byte	.LASF8
 1558 006b 04       		.uleb128 0x4
 1559 006c 44050000 		.4byte	.LASF9
 1560 0070 02       		.byte	0x2
 1561 0071 C2       		.byte	0xc2
 1562 0072 2C000000 		.4byte	0x2c
 1563 0076 04       		.uleb128 0x4
 1564 0077 C60C0000 		.4byte	.LASF10
 1565 007b 02       		.byte	0x2
 1566 007c C3       		.byte	0xc3
 1567 007d 3A000000 		.4byte	0x3a
 1568 0081 04       		.uleb128 0x4
 1569 0082 1A060000 		.4byte	.LASF11
 1570 0086 02       		.byte	0x2
 1571 0087 C4       		.byte	0xc4
 1572 0088 48000000 		.4byte	0x48
 1573 008c 02       		.uleb128 0x2
 1574 008d 04       		.byte	0x4
 1575 008e 04       		.byte	0x4
 1576 008f 0C0C0000 		.4byte	.LASF12
 1577 0093 02       		.uleb128 0x2
 1578 0094 08       		.byte	0x8
ARM GAS  C:\Users\ADMINI~1.SC-\AppData\Local\Temp\ccGAQuWL.s 			page 51


 1579 0095 04       		.byte	0x4
 1580 0096 9B050000 		.4byte	.LASF13
 1581 009a 04       		.uleb128 0x4
 1582 009b 3D0F0000 		.4byte	.LASF14
 1583 009f 02       		.byte	0x2
 1584 00a0 D3       		.byte	0xd3
 1585 00a1 A5000000 		.4byte	0xa5
 1586 00a5 02       		.uleb128 0x2
 1587 00a6 01       		.byte	0x1
 1588 00a7 08       		.byte	0x8
 1589 00a8 6F0E0000 		.4byte	.LASF15
 1590 00ac 05       		.uleb128 0x5
 1591 00ad 6B000000 		.4byte	0x6b
 1592 00b1 02       		.uleb128 0x2
 1593 00b2 04       		.byte	0x4
 1594 00b3 07       		.byte	0x7
 1595 00b4 620A0000 		.4byte	.LASF16
 1596 00b8 06       		.uleb128 0x6
 1597 00b9 04       		.byte	0x4
 1598 00ba 07       		.uleb128 0x7
 1599 00bb 01       		.byte	0x1
 1600 00bc 03       		.byte	0x3
 1601 00bd A4       		.byte	0xa4
 1602 00be 3F020000 		.4byte	0x23f
 1603 00c2 08       		.uleb128 0x8
 1604 00c3 43080000 		.4byte	.LASF17
 1605 00c7 00       		.sleb128 0
 1606 00c8 08       		.uleb128 0x8
 1607 00c9 B4030000 		.4byte	.LASF18
 1608 00cd 01       		.sleb128 1
 1609 00ce 08       		.uleb128 0x8
 1610 00cf D3010000 		.4byte	.LASF19
 1611 00d3 02       		.sleb128 2
 1612 00d4 08       		.uleb128 0x8
 1613 00d5 960F0000 		.4byte	.LASF20
 1614 00d9 03       		.sleb128 3
 1615 00da 08       		.uleb128 0x8
 1616 00db 66020000 		.4byte	.LASF21
 1617 00df 04       		.sleb128 4
 1618 00e0 08       		.uleb128 0x8
 1619 00e1 23000000 		.4byte	.LASF22
 1620 00e5 05       		.sleb128 5
 1621 00e6 08       		.uleb128 0x8
 1622 00e7 C0090000 		.4byte	.LASF23
 1623 00eb 20       		.sleb128 32
 1624 00ec 08       		.uleb128 0x8
 1625 00ed 27040000 		.4byte	.LASF24
 1626 00f1 21       		.sleb128 33
 1627 00f2 08       		.uleb128 0x8
 1628 00f3 86080000 		.4byte	.LASF25
 1629 00f7 22       		.sleb128 34
 1630 00f8 08       		.uleb128 0x8
 1631 00f9 55090000 		.4byte	.LASF26
 1632 00fd 23       		.sleb128 35
 1633 00fe 08       		.uleb128 0x8
 1634 00ff E50A0000 		.4byte	.LASF27
 1635 0103 24       		.sleb128 36
ARM GAS  C:\Users\ADMINI~1.SC-\AppData\Local\Temp\ccGAQuWL.s 			page 52


 1636 0104 08       		.uleb128 0x8
 1637 0105 900A0000 		.4byte	.LASF28
 1638 0109 25       		.sleb128 37
 1639 010a 08       		.uleb128 0x8
 1640 010b DB040000 		.4byte	.LASF29
 1641 010f 26       		.sleb128 38
 1642 0110 08       		.uleb128 0x8
 1643 0111 AA080000 		.4byte	.LASF30
 1644 0115 27       		.sleb128 39
 1645 0116 08       		.uleb128 0x8
 1646 0117 9D0E0000 		.4byte	.LASF31
 1647 011b 28       		.sleb128 40
 1648 011c 08       		.uleb128 0x8
 1649 011d 28030000 		.4byte	.LASF32
 1650 0121 29       		.sleb128 41
 1651 0122 08       		.uleb128 0x8
 1652 0123 C2000000 		.4byte	.LASF33
 1653 0127 2A       		.sleb128 42
 1654 0128 08       		.uleb128 0x8
 1655 0129 83020000 		.4byte	.LASF34
 1656 012d 2B       		.sleb128 43
 1657 012e 08       		.uleb128 0x8
 1658 012f 60120000 		.4byte	.LASF35
 1659 0133 2C       		.sleb128 44
 1660 0134 08       		.uleb128 0x8
 1661 0135 49060000 		.4byte	.LASF36
 1662 0139 C000     		.sleb128 64
 1663 013b 08       		.uleb128 0x8
 1664 013c 7B090000 		.4byte	.LASF37
 1665 0140 C100     		.sleb128 65
 1666 0142 08       		.uleb128 0x8
 1667 0143 FF120000 		.4byte	.LASF38
 1668 0147 C200     		.sleb128 66
 1669 0149 08       		.uleb128 0x8
 1670 014a 26050000 		.4byte	.LASF39
 1671 014e C300     		.sleb128 67
 1672 0150 08       		.uleb128 0x8
 1673 0151 99070000 		.4byte	.LASF40
 1674 0155 C400     		.sleb128 68
 1675 0157 08       		.uleb128 0x8
 1676 0158 E50B0000 		.4byte	.LASF41
 1677 015c C500     		.sleb128 69
 1678 015e 08       		.uleb128 0x8
 1679 015f 290A0000 		.4byte	.LASF42
 1680 0163 C600     		.sleb128 70
 1681 0165 08       		.uleb128 0x8
 1682 0166 5A080000 		.4byte	.LASF43
 1683 016a C700     		.sleb128 71
 1684 016c 08       		.uleb128 0x8
 1685 016d 24120000 		.4byte	.LASF44
 1686 0171 C800     		.sleb128 72
 1687 0173 08       		.uleb128 0x8
 1688 0174 49040000 		.4byte	.LASF45
 1689 0178 C900     		.sleb128 73
 1690 017a 08       		.uleb128 0x8
 1691 017b C6100000 		.4byte	.LASF46
 1692 017f CA00     		.sleb128 74
ARM GAS  C:\Users\ADMINI~1.SC-\AppData\Local\Temp\ccGAQuWL.s 			page 53


 1693 0181 08       		.uleb128 0x8
 1694 0182 46010000 		.4byte	.LASF47
 1695 0186 CB00     		.sleb128 75
 1696 0188 08       		.uleb128 0x8
 1697 0189 7F070000 		.4byte	.LASF48
 1698 018d CC00     		.sleb128 76
 1699 018f 08       		.uleb128 0x8
 1700 0190 BB0A0000 		.4byte	.LASF49
 1701 0194 CD00     		.sleb128 77
 1702 0196 08       		.uleb128 0x8
 1703 0197 8C040000 		.4byte	.LASF50
 1704 019b CE00     		.sleb128 78
 1705 019d 08       		.uleb128 0x8
 1706 019e 870D0000 		.4byte	.LASF51
 1707 01a2 CF00     		.sleb128 79
 1708 01a4 08       		.uleb128 0x8
 1709 01a5 65010000 		.4byte	.LASF52
 1710 01a9 D000     		.sleb128 80
 1711 01ab 08       		.uleb128 0x8
 1712 01ac 5D050000 		.4byte	.LASF53
 1713 01b0 D100     		.sleb128 81
 1714 01b2 08       		.uleb128 0x8
 1715 01b3 290B0000 		.4byte	.LASF54
 1716 01b7 D200     		.sleb128 82
 1717 01b9 08       		.uleb128 0x8
 1718 01ba 0C0D0000 		.4byte	.LASF55
 1719 01be D300     		.sleb128 83
 1720 01c0 08       		.uleb128 0x8
 1721 01c1 0F0E0000 		.4byte	.LASF56
 1722 01c5 D400     		.sleb128 84
 1723 01c7 08       		.uleb128 0x8
 1724 01c8 B7070000 		.4byte	.LASF57
 1725 01cc D500     		.sleb128 85
 1726 01ce 08       		.uleb128 0x8
 1727 01cf DD060000 		.4byte	.LASF58
 1728 01d3 D600     		.sleb128 86
 1729 01d5 08       		.uleb128 0x8
 1730 01d6 F10E0000 		.4byte	.LASF59
 1731 01da D700     		.sleb128 87
 1732 01dc 08       		.uleb128 0x8
 1733 01dd 63060000 		.4byte	.LASF60
 1734 01e1 F000     		.sleb128 112
 1735 01e3 08       		.uleb128 0x8
 1736 01e4 B6120000 		.4byte	.LASF61
 1737 01e8 F100     		.sleb128 113
 1738 01ea 08       		.uleb128 0x8
 1739 01eb A4090000 		.4byte	.LASF62
 1740 01ef F200     		.sleb128 114
 1741 01f1 08       		.uleb128 0x8
 1742 01f2 0B0A0000 		.4byte	.LASF63
 1743 01f6 F300     		.sleb128 115
 1744 01f8 08       		.uleb128 0x8
 1745 01f9 B40B0000 		.4byte	.LASF64
 1746 01fd F400     		.sleb128 116
 1747 01ff 08       		.uleb128 0x8
 1748 0200 A2050000 		.4byte	.LASF65
 1749 0204 F500     		.sleb128 117
ARM GAS  C:\Users\ADMINI~1.SC-\AppData\Local\Temp\ccGAQuWL.s 			page 54


 1750 0206 08       		.uleb128 0x8
 1751 0207 F9000000 		.4byte	.LASF66
 1752 020b F600     		.sleb128 118
 1753 020d 08       		.uleb128 0x8
 1754 020e 53000000 		.4byte	.LASF67
 1755 0212 F700     		.sleb128 119
 1756 0214 08       		.uleb128 0x8
 1757 0215 00000000 		.4byte	.LASF68
 1758 0219 F800     		.sleb128 120
 1759 021b 08       		.uleb128 0x8
 1760 021c 5F030000 		.4byte	.LASF69
 1761 0220 F900     		.sleb128 121
 1762 0222 08       		.uleb128 0x8
 1763 0223 89060000 		.4byte	.LASF70
 1764 0227 FA00     		.sleb128 122
 1765 0229 08       		.uleb128 0x8
 1766 022a 8D120000 		.4byte	.LASF71
 1767 022e FA01     		.sleb128 250
 1768 0230 08       		.uleb128 0x8
 1769 0231 490D0000 		.4byte	.LASF72
 1770 0235 FB01     		.sleb128 251
 1771 0237 08       		.uleb128 0x8
 1772 0238 2C060000 		.4byte	.LASF73
 1773 023c FF01     		.sleb128 255
 1774 023e 00       		.byte	0
 1775 023f 09       		.uleb128 0x9
 1776 0240 02       		.byte	0x2
 1777 0241 03       		.byte	0x3
 1778 0242 0C02     		.2byte	0x20c
 1779 0244 F6020000 		.4byte	0x2f6
 1780 0248 08       		.uleb128 0x8
 1781 0249 3A060000 		.4byte	.LASF74
 1782 024d 00       		.sleb128 0
 1783 024e 08       		.uleb128 0x8
 1784 024f CC050000 		.4byte	.LASF75
 1785 0253 01       		.sleb128 1
 1786 0254 08       		.uleb128 0x8
 1787 0255 D30F0000 		.4byte	.LASF76
 1788 0259 02       		.sleb128 2
 1789 025a 08       		.uleb128 0x8
 1790 025b 86000000 		.4byte	.LASF77
 1791 025f 03       		.sleb128 3
 1792 0260 08       		.uleb128 0x8
 1793 0261 43020000 		.4byte	.LASF78
 1794 0265 04       		.sleb128 4
 1795 0266 08       		.uleb128 0x8
 1796 0267 FF060000 		.4byte	.LASF79
 1797 026b 05       		.sleb128 5
 1798 026c 08       		.uleb128 0x8
 1799 026d 6D0D0000 		.4byte	.LASF80
 1800 0271 06       		.sleb128 6
 1801 0272 08       		.uleb128 0x8
 1802 0273 E9030000 		.4byte	.LASF81
 1803 0277 07       		.sleb128 7
 1804 0278 08       		.uleb128 0x8
 1805 0279 300E0000 		.4byte	.LASF82
 1806 027d 08       		.sleb128 8
ARM GAS  C:\Users\ADMINI~1.SC-\AppData\Local\Temp\ccGAQuWL.s 			page 55


 1807 027e 08       		.uleb128 0x8
 1808 027f 4B120000 		.4byte	.LASF83
 1809 0283 09       		.sleb128 9
 1810 0284 08       		.uleb128 0x8
 1811 0285 880C0000 		.4byte	.LASF84
 1812 0289 0A       		.sleb128 10
 1813 028a 08       		.uleb128 0x8
 1814 028b 740E0000 		.4byte	.LASF85
 1815 028f 0B       		.sleb128 11
 1816 0290 08       		.uleb128 0x8
 1817 0291 ED020000 		.4byte	.LASF86
 1818 0295 0C       		.sleb128 12
 1819 0296 08       		.uleb128 0x8
 1820 0297 1E020000 		.4byte	.LASF87
 1821 029b 0D       		.sleb128 13
 1822 029c 08       		.uleb128 0x8
 1823 029d 44070000 		.4byte	.LASF88
 1824 02a1 0E       		.sleb128 14
 1825 02a2 08       		.uleb128 0x8
 1826 02a3 41110000 		.4byte	.LASF89
 1827 02a7 0F       		.sleb128 15
 1828 02a8 08       		.uleb128 0x8
 1829 02a9 680F0000 		.4byte	.LASF90
 1830 02ad 10       		.sleb128 16
 1831 02ae 08       		.uleb128 0x8
 1832 02af 04030000 		.4byte	.LASF91
 1833 02b3 11       		.sleb128 17
 1834 02b4 08       		.uleb128 0x8
 1835 02b5 03050000 		.4byte	.LASF92
 1836 02b9 12       		.sleb128 18
 1837 02ba 08       		.uleb128 0x8
 1838 02bb 1D130000 		.4byte	.LASF93
 1839 02bf 13       		.sleb128 19
 1840 02c0 08       		.uleb128 0x8
 1841 02c1 C7030000 		.4byte	.LASF94
 1842 02c5 27       		.sleb128 39
 1843 02c6 08       		.uleb128 0x8
 1844 02c7 430F0000 		.4byte	.LASF95
 1845 02cb 28       		.sleb128 40
 1846 02cc 08       		.uleb128 0x8
 1847 02cd 25110000 		.4byte	.LASF96
 1848 02d1 29       		.sleb128 41
 1849 02d2 08       		.uleb128 0x8
 1850 02d3 FB090000 		.4byte	.LASF97
 1851 02d7 FF01     		.sleb128 255
 1852 02d9 08       		.uleb128 0x8
 1853 02da 2A080000 		.4byte	.LASF98
 1854 02de 8002     		.sleb128 256
 1855 02e0 08       		.uleb128 0x8
 1856 02e1 4A0B0000 		.4byte	.LASF99
 1857 02e5 8102     		.sleb128 257
 1858 02e7 08       		.uleb128 0x8
 1859 02e8 DF0C0000 		.4byte	.LASF100
 1860 02ec 8202     		.sleb128 258
 1861 02ee 08       		.uleb128 0x8
 1862 02ef 62040000 		.4byte	.LASF101
 1863 02f3 8302     		.sleb128 259
ARM GAS  C:\Users\ADMINI~1.SC-\AppData\Local\Temp\ccGAQuWL.s 			page 56


 1864 02f5 00       		.byte	0
 1865 02f6 0A       		.uleb128 0xa
 1866 02f7 0B0B0000 		.4byte	.LASF102
 1867 02fb 03       		.byte	0x3
 1868 02fc 6902     		.2byte	0x269
 1869 02fe 3F020000 		.4byte	0x23f
 1870 0302 0B       		.uleb128 0xb
 1871 0303 07       		.byte	0x7
 1872 0304 03       		.byte	0x3
 1873 0305 0503     		.2byte	0x305
 1874 0307 26030000 		.4byte	0x326
 1875 030b 0C       		.uleb128 0xc
 1876 030c 56050000 		.4byte	.LASF103
 1877 0310 03       		.byte	0x3
 1878 0311 0803     		.2byte	0x308
 1879 0313 26030000 		.4byte	0x326
 1880 0317 00       		.byte	0
 1881 0318 0C       		.uleb128 0xc
 1882 0319 CE010000 		.4byte	.LASF104
 1883 031d 03       		.byte	0x3
 1884 031e 0A03     		.2byte	0x30a
 1885 0320 6B000000 		.4byte	0x6b
 1886 0324 06       		.byte	0x6
 1887 0325 00       		.byte	0
 1888 0326 0D       		.uleb128 0xd
 1889 0327 6B000000 		.4byte	0x6b
 1890 032b 36030000 		.4byte	0x336
 1891 032f 0E       		.uleb128 0xe
 1892 0330 B1000000 		.4byte	0xb1
 1893 0334 05       		.byte	0x5
 1894 0335 00       		.byte	0
 1895 0336 0A       		.uleb128 0xa
 1896 0337 D9020000 		.4byte	.LASF105
 1897 033b 03       		.byte	0x3
 1898 033c 0B03     		.2byte	0x30b
 1899 033e 02030000 		.4byte	0x302
 1900 0342 0B       		.uleb128 0xb
 1901 0343 04       		.byte	0x4
 1902 0344 03       		.byte	0x3
 1903 0345 1503     		.2byte	0x315
 1904 0347 66030000 		.4byte	0x366
 1905 034b 0C       		.uleb128 0xc
 1906 034c 1A0F0000 		.4byte	.LASF106
 1907 0350 03       		.byte	0x3
 1908 0351 1803     		.2byte	0x318
 1909 0353 76000000 		.4byte	0x76
 1910 0357 00       		.byte	0
 1911 0358 0C       		.uleb128 0xc
 1912 0359 1E080000 		.4byte	.LASF107
 1913 035d 03       		.byte	0x3
 1914 035e 1A03     		.2byte	0x31a
 1915 0360 6B000000 		.4byte	0x6b
 1916 0364 02       		.byte	0x2
 1917 0365 00       		.byte	0
 1918 0366 0A       		.uleb128 0xa
 1919 0367 45030000 		.4byte	.LASF108
 1920 036b 03       		.byte	0x3
ARM GAS  C:\Users\ADMINI~1.SC-\AppData\Local\Temp\ccGAQuWL.s 			page 57


 1921 036c 1B03     		.2byte	0x31b
 1922 036e 42030000 		.4byte	0x342
 1923 0372 07       		.uleb128 0x7
 1924 0373 01       		.byte	0x1
 1925 0374 04       		.byte	0x4
 1926 0375 90       		.byte	0x90
 1927 0376 99030000 		.4byte	0x399
 1928 037a 08       		.uleb128 0x8
 1929 037b B3020000 		.4byte	.LASF109
 1930 037f 00       		.sleb128 0
 1931 0380 08       		.uleb128 0x8
 1932 0381 1A010000 		.4byte	.LASF110
 1933 0385 01       		.sleb128 1
 1934 0386 08       		.uleb128 0x8
 1935 0387 99010000 		.4byte	.LASF111
 1936 038b 02       		.sleb128 2
 1937 038c 08       		.uleb128 0x8
 1938 038d 9C100000 		.4byte	.LASF112
 1939 0391 03       		.sleb128 3
 1940 0392 08       		.uleb128 0x8
 1941 0393 B10D0000 		.4byte	.LASF113
 1942 0397 04       		.sleb128 4
 1943 0398 00       		.byte	0
 1944 0399 04       		.uleb128 0x4
 1945 039a 68100000 		.4byte	.LASF114
 1946 039e 04       		.byte	0x4
 1947 039f A0       		.byte	0xa0
 1948 03a0 72030000 		.4byte	0x372
 1949 03a4 0B       		.uleb128 0xb
 1950 03a5 10       		.byte	0x10
 1951 03a6 04       		.byte	0x4
 1952 03a7 6E01     		.2byte	0x16e
 1953 03a9 16040000 		.4byte	0x416
 1954 03ad 0C       		.uleb128 0xc
 1955 03ae A60D0000 		.4byte	.LASF115
 1956 03b2 04       		.byte	0x4
 1957 03b3 7401     		.2byte	0x174
 1958 03b5 76000000 		.4byte	0x76
 1959 03b9 00       		.byte	0
 1960 03ba 0C       		.uleb128 0xc
 1961 03bb B7040000 		.4byte	.LASF116
 1962 03bf 04       		.byte	0x4
 1963 03c0 7A01     		.2byte	0x17a
 1964 03c2 76000000 		.4byte	0x76
 1965 03c6 02       		.byte	0x2
 1966 03c7 0C       		.uleb128 0xc
 1967 03c8 7B020000 		.4byte	.LASF117
 1968 03cc 04       		.byte	0x4
 1969 03cd 8301     		.2byte	0x183
 1970 03cf 99030000 		.4byte	0x399
 1971 03d3 04       		.byte	0x4
 1972 03d4 0C       		.uleb128 0xc
 1973 03d5 840A0000 		.4byte	.LASF118
 1974 03d9 04       		.byte	0x4
 1975 03da 8901     		.2byte	0x189
 1976 03dc 6B000000 		.4byte	0x6b
 1977 03e0 05       		.byte	0x5
ARM GAS  C:\Users\ADMINI~1.SC-\AppData\Local\Temp\ccGAQuWL.s 			page 58


 1978 03e1 0C       		.uleb128 0xc
 1979 03e2 790C0000 		.4byte	.LASF119
 1980 03e6 04       		.byte	0x4
 1981 03e7 9001     		.2byte	0x190
 1982 03e9 6B000000 		.4byte	0x6b
 1983 03ed 06       		.byte	0x6
 1984 03ee 0C       		.uleb128 0xc
 1985 03ef 06040000 		.4byte	.LASF120
 1986 03f3 04       		.byte	0x4
 1987 03f4 9601     		.2byte	0x196
 1988 03f6 26030000 		.4byte	0x326
 1989 03fa 07       		.byte	0x7
 1990 03fb 0C       		.uleb128 0xc
 1991 03fc EB000000 		.4byte	.LASF121
 1992 0400 04       		.byte	0x4
 1993 0401 9E01     		.2byte	0x19e
 1994 0403 6B000000 		.4byte	0x6b
 1995 0407 0D       		.byte	0xd
 1996 0408 0C       		.uleb128 0xc
 1997 0409 7C040000 		.4byte	.LASF122
 1998 040d 04       		.byte	0x4
 1999 040e AA01     		.2byte	0x1aa
 2000 0410 6B000000 		.4byte	0x6b
 2001 0414 0E       		.byte	0xe
 2002 0415 00       		.byte	0
 2003 0416 0A       		.uleb128 0xa
 2004 0417 250F0000 		.4byte	.LASF123
 2005 041b 04       		.byte	0x4
 2006 041c AC01     		.2byte	0x1ac
 2007 041e A4030000 		.4byte	0x3a4
 2008 0422 0B       		.uleb128 0xb
 2009 0423 20       		.byte	0x20
 2010 0424 04       		.byte	0x4
 2011 0425 AF01     		.2byte	0x1af
 2012 0427 46040000 		.4byte	0x446
 2013 042b 0C       		.uleb128 0xc
 2014 042c DC0D0000 		.4byte	.LASF124
 2015 0430 04       		.byte	0x4
 2016 0431 B201     		.2byte	0x1b2
 2017 0433 46040000 		.4byte	0x446
 2018 0437 00       		.byte	0
 2019 0438 0C       		.uleb128 0xc
 2020 0439 B5060000 		.4byte	.LASF125
 2021 043d 04       		.byte	0x4
 2022 043e B501     		.2byte	0x1b5
 2023 0440 6B000000 		.4byte	0x6b
 2024 0444 1F       		.byte	0x1f
 2025 0445 00       		.byte	0
 2026 0446 0D       		.uleb128 0xd
 2027 0447 6B000000 		.4byte	0x6b
 2028 044b 56040000 		.4byte	0x456
 2029 044f 0E       		.uleb128 0xe
 2030 0450 B1000000 		.4byte	0xb1
 2031 0454 1E       		.byte	0x1e
 2032 0455 00       		.byte	0
 2033 0456 0A       		.uleb128 0xa
 2034 0457 AB000000 		.4byte	.LASF126
ARM GAS  C:\Users\ADMINI~1.SC-\AppData\Local\Temp\ccGAQuWL.s 			page 59


 2035 045b 04       		.byte	0x4
 2036 045c B701     		.2byte	0x1b7
 2037 045e 22040000 		.4byte	0x422
 2038 0462 0B       		.uleb128 0xb
 2039 0463 20       		.byte	0x20
 2040 0464 04       		.byte	0x4
 2041 0465 BA01     		.2byte	0x1ba
 2042 0467 86040000 		.4byte	0x486
 2043 046b 0C       		.uleb128 0xc
 2044 046c 4A050000 		.4byte	.LASF127
 2045 0470 04       		.byte	0x4
 2046 0471 BE01     		.2byte	0x1be
 2047 0473 46040000 		.4byte	0x446
 2048 0477 00       		.byte	0
 2049 0478 0C       		.uleb128 0xc
 2050 0479 F2080000 		.4byte	.LASF128
 2051 047d 04       		.byte	0x4
 2052 047e C101     		.2byte	0x1c1
 2053 0480 6B000000 		.4byte	0x6b
 2054 0484 1F       		.byte	0x1f
 2055 0485 00       		.byte	0
 2056 0486 0A       		.uleb128 0xa
 2057 0487 EF070000 		.4byte	.LASF129
 2058 048b 04       		.byte	0x4
 2059 048c C301     		.2byte	0x1c3
 2060 048e 62040000 		.4byte	0x462
 2061 0492 0B       		.uleb128 0xb
 2062 0493 14       		.byte	0x14
 2063 0494 04       		.byte	0x4
 2064 0495 C601     		.2byte	0x1c6
 2065 0497 DD040000 		.4byte	0x4dd
 2066 049b 0C       		.uleb128 0xc
 2067 049c C3050000 		.4byte	.LASF130
 2068 04a0 04       		.byte	0x4
 2069 04a1 CE01     		.2byte	0x1ce
 2070 04a3 6B000000 		.4byte	0x6b
 2071 04a7 00       		.byte	0
 2072 04a8 0C       		.uleb128 0xc
 2073 04a9 5F100000 		.4byte	.LASF131
 2074 04ad 04       		.byte	0x4
 2075 04ae D101     		.2byte	0x1d1
 2076 04b0 DD040000 		.4byte	0x4dd
 2077 04b4 04       		.byte	0x4
 2078 04b5 0C       		.uleb128 0xc
 2079 04b6 DC0D0000 		.4byte	.LASF124
 2080 04ba 04       		.byte	0x4
 2081 04bb D301     		.2byte	0x1d3
 2082 04bd E3040000 		.4byte	0x4e3
 2083 04c1 08       		.byte	0x8
 2084 04c2 0C       		.uleb128 0xc
 2085 04c3 4A050000 		.4byte	.LASF127
 2086 04c7 04       		.byte	0x4
 2087 04c8 D501     		.2byte	0x1d5
 2088 04ca E9040000 		.4byte	0x4e9
 2089 04ce 0C       		.byte	0xc
 2090 04cf 0C       		.uleb128 0xc
 2091 04d0 F9120000 		.4byte	.LASF132
ARM GAS  C:\Users\ADMINI~1.SC-\AppData\Local\Temp\ccGAQuWL.s 			page 60


 2092 04d4 04       		.byte	0x4
 2093 04d5 DF01     		.2byte	0x1df
 2094 04d7 76000000 		.4byte	0x76
 2095 04db 10       		.byte	0x10
 2096 04dc 00       		.byte	0
 2097 04dd 0F       		.uleb128 0xf
 2098 04de 04       		.byte	0x4
 2099 04df 16040000 		.4byte	0x416
 2100 04e3 0F       		.uleb128 0xf
 2101 04e4 04       		.byte	0x4
 2102 04e5 56040000 		.4byte	0x456
 2103 04e9 0F       		.uleb128 0xf
 2104 04ea 04       		.byte	0x4
 2105 04eb 86040000 		.4byte	0x486
 2106 04ef 0A       		.uleb128 0xa
 2107 04f0 43100000 		.4byte	.LASF133
 2108 04f4 04       		.byte	0x4
 2109 04f5 E101     		.2byte	0x1e1
 2110 04f7 92040000 		.4byte	0x492
 2111 04fb 0F       		.uleb128 0xf
 2112 04fc 04       		.byte	0x4
 2113 04fd 6B000000 		.4byte	0x6b
 2114 0501 0B       		.uleb128 0xb
 2115 0502 02       		.byte	0x2
 2116 0503 05       		.byte	0x5
 2117 0504 9201     		.2byte	0x192
 2118 0506 25050000 		.4byte	0x525
 2119 050a 0C       		.uleb128 0xc
 2120 050b 84120000 		.4byte	.LASF134
 2121 050f 05       		.byte	0x5
 2122 0510 9901     		.2byte	0x199
 2123 0512 6B000000 		.4byte	0x6b
 2124 0516 00       		.byte	0
 2125 0517 0C       		.uleb128 0xc
 2126 0518 96090000 		.4byte	.LASF135
 2127 051c 05       		.byte	0x5
 2128 051d 9F01     		.2byte	0x19f
 2129 051f 6B000000 		.4byte	0x6b
 2130 0523 01       		.byte	0x1
 2131 0524 00       		.byte	0
 2132 0525 0A       		.uleb128 0xa
 2133 0526 72000000 		.4byte	.LASF136
 2134 052a 05       		.byte	0x5
 2135 052b A101     		.2byte	0x1a1
 2136 052d 01050000 		.4byte	0x501
 2137 0531 10       		.uleb128 0x10
 2138 0532 08       		.byte	0x8
 2139 0533 06       		.byte	0x6
 2140 0534 C1       		.byte	0xc1
 2141 0535 52050000 		.4byte	0x552
 2142 0539 11       		.uleb128 0x11
 2143 053a 3C090000 		.4byte	.LASF137
 2144 053e 06       		.byte	0x6
 2145 053f C4       		.byte	0xc4
 2146 0540 76000000 		.4byte	0x76
 2147 0544 00       		.byte	0
 2148 0545 11       		.uleb128 0x11
ARM GAS  C:\Users\ADMINI~1.SC-\AppData\Local\Temp\ccGAQuWL.s 			page 61


 2149 0546 A60B0000 		.4byte	.LASF138
 2150 054a 06       		.byte	0x6
 2151 054b C9       		.byte	0xc9
 2152 054c B8000000 		.4byte	0xb8
 2153 0550 04       		.byte	0x4
 2154 0551 00       		.byte	0
 2155 0552 04       		.uleb128 0x4
 2156 0553 19100000 		.4byte	.LASF139
 2157 0557 06       		.byte	0x6
 2158 0558 CB       		.byte	0xcb
 2159 0559 31050000 		.4byte	0x531
 2160 055d 10       		.uleb128 0x10
 2161 055e 08       		.byte	0x8
 2162 055f 06       		.byte	0x6
 2163 0560 CE       		.byte	0xce
 2164 0561 7E050000 		.4byte	0x57e
 2165 0565 11       		.uleb128 0x11
 2166 0566 C9080000 		.4byte	.LASF140
 2167 056a 06       		.byte	0x6
 2168 056b D1       		.byte	0xd1
 2169 056c 76000000 		.4byte	0x76
 2170 0570 00       		.byte	0
 2171 0571 11       		.uleb128 0x11
 2172 0572 E4100000 		.4byte	.LASF141
 2173 0576 06       		.byte	0x6
 2174 0577 D6       		.byte	0xd6
 2175 0578 7E050000 		.4byte	0x57e
 2176 057c 04       		.byte	0x4
 2177 057d 00       		.byte	0
 2178 057e 0F       		.uleb128 0xf
 2179 057f 04       		.byte	0x4
 2180 0580 52050000 		.4byte	0x552
 2181 0584 04       		.uleb128 0x4
 2182 0585 7C050000 		.4byte	.LASF142
 2183 0589 06       		.byte	0x6
 2184 058a D8       		.byte	0xd8
 2185 058b 5D050000 		.4byte	0x55d
 2186 058f 12       		.uleb128 0x12
 2187 0590 08       		.byte	0x8
 2188 0591 06       		.byte	0x6
 2189 0592 DB       		.byte	0xdb
 2190 0593 AE050000 		.4byte	0x5ae
 2191 0597 13       		.uleb128 0x13
 2192 0598 E0070000 		.4byte	.LASF143
 2193 059c 06       		.byte	0x6
 2194 059d E2       		.byte	0xe2
 2195 059e 84050000 		.4byte	0x584
 2196 05a2 13       		.uleb128 0x13
 2197 05a3 990B0000 		.4byte	.LASF144
 2198 05a7 06       		.byte	0x6
 2199 05a8 E5       		.byte	0xe5
 2200 05a9 76000000 		.4byte	0x76
 2201 05ad 00       		.byte	0
 2202 05ae 04       		.uleb128 0x4
 2203 05af F8050000 		.4byte	.LASF145
 2204 05b3 06       		.byte	0x6
 2205 05b4 E7       		.byte	0xe7
ARM GAS  C:\Users\ADMINI~1.SC-\AppData\Local\Temp\ccGAQuWL.s 			page 62


 2206 05b5 8F050000 		.4byte	0x58f
 2207 05b9 10       		.uleb128 0x10
 2208 05ba 14       		.byte	0x14
 2209 05bb 06       		.byte	0x6
 2210 05bc EA       		.byte	0xea
 2211 05bd 00060000 		.4byte	0x600
 2212 05c1 11       		.uleb128 0x11
 2213 05c2 10060000 		.4byte	.LASF146
 2214 05c6 06       		.byte	0x6
 2215 05c7 ED       		.byte	0xed
 2216 05c8 76000000 		.4byte	0x76
 2217 05cc 00       		.byte	0
 2218 05cd 11       		.uleb128 0x11
 2219 05ce AD060000 		.4byte	.LASF147
 2220 05d2 06       		.byte	0x6
 2221 05d3 F3       		.byte	0xf3
 2222 05d4 76000000 		.4byte	0x76
 2223 05d8 02       		.byte	0x2
 2224 05d9 11       		.uleb128 0x11
 2225 05da 3E040000 		.4byte	.LASF148
 2226 05de 06       		.byte	0x6
 2227 05df FD       		.byte	0xfd
 2228 05e0 81000000 		.4byte	0x81
 2229 05e4 04       		.byte	0x4
 2230 05e5 0C       		.uleb128 0xc
 2231 05e6 E40E0000 		.4byte	.LASF149
 2232 05ea 06       		.byte	0x6
 2233 05eb 0001     		.2byte	0x100
 2234 05ed 76000000 		.4byte	0x76
 2235 05f1 08       		.byte	0x8
 2236 05f2 0C       		.uleb128 0xc
 2237 05f3 AF0C0000 		.4byte	.LASF150
 2238 05f7 06       		.byte	0x6
 2239 05f8 0901     		.2byte	0x109
 2240 05fa AE050000 		.4byte	0x5ae
 2241 05fe 0C       		.byte	0xc
 2242 05ff 00       		.byte	0
 2243 0600 0A       		.uleb128 0xa
 2244 0601 C20F0000 		.4byte	.LASF151
 2245 0605 06       		.byte	0x6
 2246 0606 0A01     		.2byte	0x10a
 2247 0608 B9050000 		.4byte	0x5b9
 2248 060c 0A       		.uleb128 0xa
 2249 060d 08100000 		.4byte	.LASF152
 2250 0611 07       		.byte	0x7
 2251 0612 4301     		.2byte	0x143
 2252 0614 18060000 		.4byte	0x618
 2253 0618 0F       		.uleb128 0xf
 2254 0619 04       		.byte	0x4
 2255 061a 1E060000 		.4byte	0x61e
 2256 061e 14       		.uleb128 0x14
 2257 061f 2E060000 		.4byte	0x62e
 2258 0623 15       		.uleb128 0x15
 2259 0624 81000000 		.4byte	0x81
 2260 0628 15       		.uleb128 0x15
 2261 0629 B8000000 		.4byte	0xb8
 2262 062d 00       		.byte	0
ARM GAS  C:\Users\ADMINI~1.SC-\AppData\Local\Temp\ccGAQuWL.s 			page 63


 2263 062e 16       		.uleb128 0x16
 2264 062f 8D01     		.2byte	0x18d
 2265 0631 08       		.byte	0x8
 2266 0632 9B       		.byte	0x9b
 2267 0633 6B060000 		.4byte	0x66b
 2268 0637 11       		.uleb128 0x11
 2269 0638 EA050000 		.4byte	.LASF153
 2270 063c 08       		.byte	0x8
 2271 063d 9D       		.byte	0x9d
 2272 063e 6B060000 		.4byte	0x66b
 2273 0642 00       		.byte	0
 2274 0643 17       		.uleb128 0x17
 2275 0644 23090000 		.4byte	.LASF154
 2276 0648 08       		.byte	0x8
 2277 0649 9E       		.byte	0x9e
 2278 064a 7C060000 		.4byte	0x67c
 2279 064e 6D01     		.2byte	0x16d
 2280 0650 17       		.uleb128 0x17
 2281 0651 E8080000 		.4byte	.LASF155
 2282 0655 08       		.byte	0x8
 2283 0656 9F       		.byte	0x9f
 2284 0657 6B000000 		.4byte	0x6b
 2285 065b 8B01     		.2byte	0x18b
 2286 065d 17       		.uleb128 0x17
 2287 065e D50A0000 		.4byte	.LASF156
 2288 0662 08       		.byte	0x8
 2289 0663 A0       		.byte	0xa0
 2290 0664 6B000000 		.4byte	0x6b
 2291 0668 8C01     		.2byte	0x18c
 2292 066a 00       		.byte	0
 2293 066b 0D       		.uleb128 0xd
 2294 066c 6B000000 		.4byte	0x6b
 2295 0670 7C060000 		.4byte	0x67c
 2296 0674 18       		.uleb128 0x18
 2297 0675 B1000000 		.4byte	0xb1
 2298 0679 6C01     		.2byte	0x16c
 2299 067b 00       		.byte	0
 2300 067c 0D       		.uleb128 0xd
 2301 067d 6B000000 		.4byte	0x6b
 2302 0681 92060000 		.4byte	0x692
 2303 0685 0E       		.uleb128 0xe
 2304 0686 B1000000 		.4byte	0xb1
 2305 068a 04       		.byte	0x4
 2306 068b 0E       		.uleb128 0xe
 2307 068c B1000000 		.4byte	0xb1
 2308 0690 05       		.byte	0x5
 2309 0691 00       		.byte	0
 2310 0692 04       		.uleb128 0x4
 2311 0693 79100000 		.4byte	.LASF157
 2312 0697 08       		.byte	0x8
 2313 0698 A1       		.byte	0xa1
 2314 0699 2E060000 		.4byte	0x62e
 2315 069d 09       		.uleb128 0x9
 2316 069e 01       		.byte	0x1
 2317 069f 09       		.byte	0x9
 2318 06a0 3707     		.2byte	0x737
 2319 06a2 C5060000 		.4byte	0x6c5
ARM GAS  C:\Users\ADMINI~1.SC-\AppData\Local\Temp\ccGAQuWL.s 			page 64


 2320 06a6 08       		.uleb128 0x8
 2321 06a7 3F000000 		.4byte	.LASF158
 2322 06ab 00       		.sleb128 0
 2323 06ac 08       		.uleb128 0x8
 2324 06ad 6B0A0000 		.4byte	.LASF159
 2325 06b1 01       		.sleb128 1
 2326 06b2 08       		.uleb128 0x8
 2327 06b3 80110000 		.4byte	.LASF160
 2328 06b7 02       		.sleb128 2
 2329 06b8 08       		.uleb128 0x8
 2330 06b9 82030000 		.4byte	.LASF161
 2331 06bd 03       		.sleb128 3
 2332 06be 08       		.uleb128 0x8
 2333 06bf C2040000 		.4byte	.LASF162
 2334 06c3 04       		.sleb128 4
 2335 06c4 00       		.byte	0
 2336 06c5 0A       		.uleb128 0xa
 2337 06c6 8E100000 		.4byte	.LASF163
 2338 06ca 09       		.byte	0x9
 2339 06cb 4507     		.2byte	0x745
 2340 06cd 9D060000 		.4byte	0x69d
 2341 06d1 19       		.uleb128 0x19
 2342 06d2 AB120000 		.4byte	.LASF164
 2343 06d6 01       		.byte	0x1
 2344 06d7 9F       		.byte	0x9f
 2345 06d8 00000000 		.4byte	.LFB2
 2346 06dc 40000000 		.4byte	.LFE2-.LFB2
 2347 06e0 01       		.uleb128 0x1
 2348 06e1 9C       		.byte	0x9c
 2349 06e2 19       		.uleb128 0x19
 2350 06e3 32070000 		.4byte	.LASF165
 2351 06e7 01       		.byte	0x1
 2352 06e8 D0       		.byte	0xd0
 2353 06e9 00000000 		.4byte	.LFB3
 2354 06ed 0C000000 		.4byte	.LFE3-.LFB3
 2355 06f1 01       		.uleb128 0x1
 2356 06f2 9C       		.byte	0x9c
 2357 06f3 1A       		.uleb128 0x1a
 2358 06f4 01090000 		.4byte	.LASF169
 2359 06f8 01       		.byte	0x1
 2360 06f9 7F01     		.2byte	0x17f
 2361 06fb F6020000 		.4byte	0x2f6
 2362 06ff 00000000 		.4byte	.LFB4
 2363 0703 DC000000 		.4byte	.LFE4-.LFB4
 2364 0707 01       		.uleb128 0x1
 2365 0708 9C       		.byte	0x9c
 2366 0709 3B070000 		.4byte	0x73b
 2367 070d 1B       		.uleb128 0x1b
 2368 070e A20C0000 		.4byte	.LASF171
 2369 0712 01       		.byte	0x1
 2370 0713 7F01     		.2byte	0x17f
 2371 0715 0C060000 		.4byte	0x60c
 2372 0719 02       		.uleb128 0x2
 2373 071a 91       		.byte	0x91
 2374 071b 44       		.sleb128 -60
 2375 071c 1C       		.uleb128 0x1c
 2376 071d 010B0000 		.4byte	.LASF166
ARM GAS  C:\Users\ADMINI~1.SC-\AppData\Local\Temp\ccGAQuWL.s 			page 65


 2377 0721 01       		.byte	0x1
 2378 0722 8101     		.2byte	0x181
 2379 0724 F6020000 		.4byte	0x2f6
 2380 0728 02       		.uleb128 0x2
 2381 0729 91       		.byte	0x91
 2382 072a 66       		.sleb128 -26
 2383 072b 1C       		.uleb128 0x1c
 2384 072c 4E0E0000 		.4byte	.LASF167
 2385 0730 01       		.byte	0x1
 2386 0731 8501     		.2byte	0x185
 2387 0733 3B070000 		.4byte	0x73b
 2388 0737 02       		.uleb128 0x2
 2389 0738 91       		.byte	0x91
 2390 0739 4C       		.sleb128 -52
 2391 073a 00       		.byte	0
 2392 073b 0D       		.uleb128 0xd
 2393 073c 66030000 		.4byte	0x366
 2394 0740 4B070000 		.4byte	0x74b
 2395 0744 0E       		.uleb128 0xe
 2396 0745 B1000000 		.4byte	0xb1
 2397 0749 05       		.byte	0x5
 2398 074a 00       		.byte	0
 2399 074b 1D       		.uleb128 0x1d
 2400 074c 1E0B0000 		.4byte	.LASF168
 2401 0750 01       		.byte	0x1
 2402 0751 D301     		.2byte	0x1d3
 2403 0753 00000000 		.4byte	.LFB5
 2404 0757 18000000 		.4byte	.LFE5-.LFB5
 2405 075b 01       		.uleb128 0x1
 2406 075c 9C       		.byte	0x9c
 2407 075d 1A       		.uleb128 0x1a
 2408 075e F10F0000 		.4byte	.LASF170
 2409 0762 01       		.byte	0x1
 2410 0763 0802     		.2byte	0x208
 2411 0765 F6020000 		.4byte	0x2f6
 2412 0769 00000000 		.4byte	.LFB6
 2413 076d EC000000 		.4byte	.LFE6-.LFB6
 2414 0771 01       		.uleb128 0x1
 2415 0772 9C       		.byte	0x9c
 2416 0773 96070000 		.4byte	0x796
 2417 0777 1B       		.uleb128 0x1b
 2418 0778 AA040000 		.4byte	.LASF172
 2419 077c 01       		.byte	0x1
 2420 077d 0802     		.2byte	0x208
 2421 077f 6B000000 		.4byte	0x6b
 2422 0783 02       		.uleb128 0x2
 2423 0784 91       		.byte	0x91
 2424 0785 67       		.sleb128 -25
 2425 0786 1C       		.uleb128 0x1c
 2426 0787 010B0000 		.4byte	.LASF166
 2427 078b 01       		.byte	0x1
 2428 078c 0A02     		.2byte	0x20a
 2429 078e F6020000 		.4byte	0x2f6
 2430 0792 02       		.uleb128 0x2
 2431 0793 91       		.byte	0x91
 2432 0794 6E       		.sleb128 -18
 2433 0795 00       		.byte	0
ARM GAS  C:\Users\ADMINI~1.SC-\AppData\Local\Temp\ccGAQuWL.s 			page 66


 2434 0796 1A       		.uleb128 0x1a
 2435 0797 480C0000 		.4byte	.LASF173
 2436 079b 01       		.byte	0x1
 2437 079c 6002     		.2byte	0x260
 2438 079e F6020000 		.4byte	0x2f6
 2439 07a2 00000000 		.4byte	.LFB7
 2440 07a6 D4000000 		.4byte	.LFE7-.LFB7
 2441 07aa 01       		.uleb128 0x1
 2442 07ab 9C       		.byte	0x9c
 2443 07ac CF070000 		.4byte	0x7cf
 2444 07b0 1B       		.uleb128 0x1b
 2445 07b1 BF0E0000 		.4byte	.LASF174
 2446 07b5 01       		.byte	0x1
 2447 07b6 6002     		.2byte	0x260
 2448 07b8 6B000000 		.4byte	0x6b
 2449 07bc 02       		.uleb128 0x2
 2450 07bd 91       		.byte	0x91
 2451 07be 67       		.sleb128 -25
 2452 07bf 1C       		.uleb128 0x1c
 2453 07c0 010B0000 		.4byte	.LASF166
 2454 07c4 01       		.byte	0x1
 2455 07c5 6202     		.2byte	0x262
 2456 07c7 F6020000 		.4byte	0x2f6
 2457 07cb 02       		.uleb128 0x2
 2458 07cc 91       		.byte	0x91
 2459 07cd 6E       		.sleb128 -18
 2460 07ce 00       		.byte	0
 2461 07cf 1D       		.uleb128 0x1d
 2462 07d0 EE010000 		.4byte	.LASF175
 2463 07d4 01       		.byte	0x1
 2464 07d5 9D02     		.2byte	0x29d
 2465 07d7 00000000 		.4byte	.LFB8
 2466 07db 20000000 		.4byte	.LFE8-.LFB8
 2467 07df 01       		.uleb128 0x1
 2468 07e0 9C       		.byte	0x9c
 2469 07e1 1E       		.uleb128 0x1e
 2470 07e2 2D0D0000 		.4byte	.LASF187
 2471 07e6 01       		.byte	0x1
 2472 07e7 B302     		.2byte	0x2b3
 2473 07e9 00000000 		.4byte	.LFB9
 2474 07ed 7C000000 		.4byte	.LFE9-.LFB9
 2475 07f1 01       		.uleb128 0x1
 2476 07f2 9C       		.byte	0x9c
 2477 07f3 32080000 		.4byte	0x832
 2478 07f7 1B       		.uleb128 0x1b
 2479 07f8 56050000 		.4byte	.LASF103
 2480 07fc 01       		.byte	0x1
 2481 07fd B302     		.2byte	0x2b3
 2482 07ff 32080000 		.4byte	0x832
 2483 0803 02       		.uleb128 0x2
 2484 0804 91       		.byte	0x91
 2485 0805 6C       		.sleb128 -20
 2486 0806 1B       		.uleb128 0x1b
 2487 0807 630B0000 		.4byte	.LASF176
 2488 080b 01       		.byte	0x1
 2489 080c B302     		.2byte	0x2b3
 2490 080e 6B000000 		.4byte	0x6b
ARM GAS  C:\Users\ADMINI~1.SC-\AppData\Local\Temp\ccGAQuWL.s 			page 67


 2491 0812 02       		.uleb128 0x2
 2492 0813 91       		.byte	0x91
 2493 0814 6B       		.sleb128 -21
 2494 0815 1F       		.uleb128 0x1f
 2495 0816 6900     		.ascii	"i\000"
 2496 0818 01       		.byte	0x1
 2497 0819 B502     		.2byte	0x2b5
 2498 081b 6B000000 		.4byte	0x6b
 2499 081f 02       		.uleb128 0x2
 2500 0820 91       		.byte	0x91
 2501 0821 77       		.sleb128 -9
 2502 0822 1C       		.uleb128 0x1c
 2503 0823 21060000 		.4byte	.LASF177
 2504 0827 01       		.byte	0x1
 2505 0828 B602     		.2byte	0x2b6
 2506 082a FB040000 		.4byte	0x4fb
 2507 082e 02       		.uleb128 0x2
 2508 082f 91       		.byte	0x91
 2509 0830 70       		.sleb128 -16
 2510 0831 00       		.byte	0
 2511 0832 0F       		.uleb128 0xf
 2512 0833 04       		.byte	0x4
 2513 0834 38080000 		.4byte	0x838
 2514 0838 20       		.uleb128 0x20
 2515 0839 36030000 		.4byte	0x336
 2516 083d 21       		.uleb128 0x21
 2517 083e F70D0000 		.4byte	.LASF213
 2518 0842 01       		.byte	0x1
 2519 0843 E803     		.2byte	0x3e8
 2520 0845 00000000 		.4byte	.LFB10
 2521 0849 A4010000 		.4byte	.LFE10-.LFB10
 2522 084d 01       		.uleb128 0x1
 2523 084e 9C       		.byte	0x9c
 2524 084f CA080000 		.4byte	0x8ca
 2525 0853 1B       		.uleb128 0x1b
 2526 0854 DB070000 		.4byte	.LASF178
 2527 0858 01       		.byte	0x1
 2528 0859 E803     		.2byte	0x3e8
 2529 085b CA080000 		.4byte	0x8ca
 2530 085f 02       		.uleb128 0x2
 2531 0860 91       		.byte	0x91
 2532 0861 64       		.sleb128 -28
 2533 0862 1B       		.uleb128 0x1b
 2534 0863 630B0000 		.4byte	.LASF176
 2535 0867 01       		.byte	0x1
 2536 0868 E803     		.2byte	0x3e8
 2537 086a 6B000000 		.4byte	0x6b
 2538 086e 02       		.uleb128 0x2
 2539 086f 91       		.byte	0x91
 2540 0870 63       		.sleb128 -29
 2541 0871 1F       		.uleb128 0x1f
 2542 0872 6900     		.ascii	"i\000"
 2543 0874 01       		.byte	0x1
 2544 0875 EA03     		.2byte	0x3ea
 2545 0877 6B000000 		.4byte	0x6b
 2546 087b 02       		.uleb128 0x2
 2547 087c 91       		.byte	0x91
ARM GAS  C:\Users\ADMINI~1.SC-\AppData\Local\Temp\ccGAQuWL.s 			page 68


 2548 087d 77       		.sleb128 -9
 2549 087e 1C       		.uleb128 0x1c
 2550 087f 680D0000 		.4byte	.LASF179
 2551 0883 01       		.byte	0x1
 2552 0884 EB03     		.2byte	0x3eb
 2553 0886 6B000000 		.4byte	0x6b
 2554 088a 02       		.uleb128 0x2
 2555 088b 91       		.byte	0x91
 2556 088c 76       		.sleb128 -10
 2557 088d 1C       		.uleb128 0x1c
 2558 088e 940E0000 		.4byte	.LASF180
 2559 0892 01       		.byte	0x1
 2560 0893 EC03     		.2byte	0x3ec
 2561 0895 6B000000 		.4byte	0x6b
 2562 0899 02       		.uleb128 0x2
 2563 089a 91       		.byte	0x91
 2564 089b 75       		.sleb128 -11
 2565 089c 1C       		.uleb128 0x1c
 2566 089d 37100000 		.4byte	.LASF181
 2567 08a1 01       		.byte	0x1
 2568 08a2 ED03     		.2byte	0x3ed
 2569 08a4 6B000000 		.4byte	0x6b
 2570 08a8 02       		.uleb128 0x2
 2571 08a9 91       		.byte	0x91
 2572 08aa 74       		.sleb128 -12
 2573 08ab 1C       		.uleb128 0x1c
 2574 08ac 21060000 		.4byte	.LASF177
 2575 08b0 01       		.byte	0x1
 2576 08b1 EE03     		.2byte	0x3ee
 2577 08b3 FB040000 		.4byte	0x4fb
 2578 08b7 02       		.uleb128 0x2
 2579 08b8 91       		.byte	0x91
 2580 08b9 70       		.sleb128 -16
 2581 08ba 1C       		.uleb128 0x1c
 2582 08bb F5100000 		.4byte	.LASF182
 2583 08bf 01       		.byte	0x1
 2584 08c0 EF03     		.2byte	0x3ef
 2585 08c2 6B000000 		.4byte	0x6b
 2586 08c6 02       		.uleb128 0x2
 2587 08c7 91       		.byte	0x91
 2588 08c8 6F       		.sleb128 -17
 2589 08c9 00       		.byte	0
 2590 08ca 0F       		.uleb128 0xf
 2591 08cb 04       		.byte	0x4
 2592 08cc D0080000 		.4byte	0x8d0
 2593 08d0 20       		.uleb128 0x20
 2594 08d1 9A000000 		.4byte	0x9a
 2595 08d5 1A       		.uleb128 0x1a
 2596 08d6 11040000 		.4byte	.LASF183
 2597 08da 01       		.byte	0x1
 2598 08db 4D04     		.2byte	0x44d
 2599 08dd F6020000 		.4byte	0x2f6
 2600 08e1 00000000 		.4byte	.LFB11
 2601 08e5 C8000000 		.4byte	.LFE11-.LFB11
 2602 08e9 01       		.uleb128 0x1
 2603 08ea 9C       		.byte	0x9c
 2604 08eb 39090000 		.4byte	0x939
ARM GAS  C:\Users\ADMINI~1.SC-\AppData\Local\Temp\ccGAQuWL.s 			page 69


 2605 08ef 1B       		.uleb128 0x1b
 2606 08f0 DB070000 		.4byte	.LASF178
 2607 08f4 01       		.byte	0x1
 2608 08f5 4D04     		.2byte	0x44d
 2609 08f7 CA080000 		.4byte	0x8ca
 2610 08fb 02       		.uleb128 0x2
 2611 08fc 91       		.byte	0x91
 2612 08fd 64       		.sleb128 -28
 2613 08fe 1C       		.uleb128 0x1c
 2614 08ff 010B0000 		.4byte	.LASF166
 2615 0903 01       		.byte	0x1
 2616 0904 4F04     		.2byte	0x44f
 2617 0906 F6020000 		.4byte	0x2f6
 2618 090a 02       		.uleb128 0x2
 2619 090b 91       		.byte	0x91
 2620 090c 76       		.sleb128 -10
 2621 090d 1F       		.uleb128 0x1f
 2622 090e 6900     		.ascii	"i\000"
 2623 0910 01       		.byte	0x1
 2624 0911 5004     		.2byte	0x450
 2625 0913 6B000000 		.4byte	0x6b
 2626 0917 02       		.uleb128 0x2
 2627 0918 91       		.byte	0x91
 2628 0919 75       		.sleb128 -11
 2629 091a 1F       		.uleb128 0x1f
 2630 091b 70747200 		.ascii	"ptr\000"
 2631 091f 01       		.byte	0x1
 2632 0920 5104     		.2byte	0x451
 2633 0922 39090000 		.4byte	0x939
 2634 0926 02       		.uleb128 0x2
 2635 0927 91       		.byte	0x91
 2636 0928 70       		.sleb128 -16
 2637 0929 1C       		.uleb128 0x1c
 2638 092a 9C090000 		.4byte	.LASF184
 2639 092e 01       		.byte	0x1
 2640 092f 5204     		.2byte	0x452
 2641 0931 6B000000 		.4byte	0x6b
 2642 0935 02       		.uleb128 0x2
 2643 0936 91       		.byte	0x91
 2644 0937 6F       		.sleb128 -17
 2645 0938 00       		.byte	0
 2646 0939 0F       		.uleb128 0xf
 2647 093a 04       		.byte	0x4
 2648 093b 9A000000 		.4byte	0x9a
 2649 093f 22       		.uleb128 0x22
 2650 0940 0D090000 		.4byte	.LASF185
 2651 0944 01       		.byte	0x1
 2652 0945 9504     		.2byte	0x495
 2653 0947 F6020000 		.4byte	0x2f6
 2654 094b 00000000 		.4byte	.LFB12
 2655 094f A4000000 		.4byte	.LFE12-.LFB12
 2656 0953 01       		.uleb128 0x1
 2657 0954 9C       		.byte	0x9c
 2658 0955 A3090000 		.4byte	0x9a3
 2659 0959 1B       		.uleb128 0x1b
 2660 095a DB070000 		.4byte	.LASF178
 2661 095e 01       		.byte	0x1
ARM GAS  C:\Users\ADMINI~1.SC-\AppData\Local\Temp\ccGAQuWL.s 			page 70


 2662 095f 9504     		.2byte	0x495
 2663 0961 39090000 		.4byte	0x939
 2664 0965 02       		.uleb128 0x2
 2665 0966 91       		.byte	0x91
 2666 0967 64       		.sleb128 -28
 2667 0968 1C       		.uleb128 0x1c
 2668 0969 010B0000 		.4byte	.LASF166
 2669 096d 01       		.byte	0x1
 2670 096e 9704     		.2byte	0x497
 2671 0970 F6020000 		.4byte	0x2f6
 2672 0974 02       		.uleb128 0x2
 2673 0975 91       		.byte	0x91
 2674 0976 76       		.sleb128 -10
 2675 0977 1C       		.uleb128 0x1c
 2676 0978 9C090000 		.4byte	.LASF184
 2677 097c 01       		.byte	0x1
 2678 097d 9804     		.2byte	0x498
 2679 097f 6B000000 		.4byte	0x6b
 2680 0983 02       		.uleb128 0x2
 2681 0984 91       		.byte	0x91
 2682 0985 6F       		.sleb128 -17
 2683 0986 1F       		.uleb128 0x1f
 2684 0987 6900     		.ascii	"i\000"
 2685 0989 01       		.byte	0x1
 2686 098a 9904     		.2byte	0x499
 2687 098c 6B000000 		.4byte	0x6b
 2688 0990 02       		.uleb128 0x2
 2689 0991 91       		.byte	0x91
 2690 0992 75       		.sleb128 -11
 2691 0993 1F       		.uleb128 0x1f
 2692 0994 70747200 		.ascii	"ptr\000"
 2693 0998 01       		.byte	0x1
 2694 0999 9A04     		.2byte	0x49a
 2695 099b 39090000 		.4byte	0x939
 2696 099f 02       		.uleb128 0x2
 2697 09a0 91       		.byte	0x91
 2698 09a1 70       		.sleb128 -16
 2699 09a2 00       		.byte	0
 2700 09a3 22       		.uleb128 0x22
 2701 09a4 BD010000 		.4byte	.LASF186
 2702 09a8 01       		.byte	0x1
 2703 09a9 C704     		.2byte	0x4c7
 2704 09ab 76000000 		.4byte	0x76
 2705 09af 00000000 		.4byte	.LFB13
 2706 09b3 26000000 		.4byte	.LFE13-.LFB13
 2707 09b7 01       		.uleb128 0x1
 2708 09b8 9C       		.byte	0x9c
 2709 09b9 CD090000 		.4byte	0x9cd
 2710 09bd 23       		.uleb128 0x23
 2711 09be 70747200 		.ascii	"ptr\000"
 2712 09c2 01       		.byte	0x1
 2713 09c3 C704     		.2byte	0x4c7
 2714 09c5 CD090000 		.4byte	0x9cd
 2715 09c9 02       		.uleb128 0x2
 2716 09ca 91       		.byte	0x91
 2717 09cb 74       		.sleb128 -12
 2718 09cc 00       		.byte	0
ARM GAS  C:\Users\ADMINI~1.SC-\AppData\Local\Temp\ccGAQuWL.s 			page 71


 2719 09cd 0F       		.uleb128 0xf
 2720 09ce 04       		.byte	0x4
 2721 09cf D3090000 		.4byte	0x9d3
 2722 09d3 20       		.uleb128 0x20
 2723 09d4 6B000000 		.4byte	0x6b
 2724 09d8 1E       		.uleb128 0x1e
 2725 09d9 D7080000 		.4byte	.LASF188
 2726 09dd 01       		.byte	0x1
 2727 09de DA04     		.2byte	0x4da
 2728 09e0 00000000 		.4byte	.LFB14
 2729 09e4 2E000000 		.4byte	.LFE14-.LFB14
 2730 09e8 01       		.uleb128 0x1
 2731 09e9 9C       		.byte	0x9c
 2732 09ea 0D0A0000 		.4byte	0xa0d
 2733 09ee 23       		.uleb128 0x23
 2734 09ef 70747200 		.ascii	"ptr\000"
 2735 09f3 01       		.byte	0x1
 2736 09f4 DA04     		.2byte	0x4da
 2737 09f6 FB040000 		.4byte	0x4fb
 2738 09fa 02       		.uleb128 0x2
 2739 09fb 91       		.byte	0x91
 2740 09fc 74       		.sleb128 -12
 2741 09fd 1B       		.uleb128 0x1b
 2742 09fe D7060000 		.4byte	.LASF189
 2743 0a02 01       		.byte	0x1
 2744 0a03 DA04     		.2byte	0x4da
 2745 0a05 76000000 		.4byte	0x76
 2746 0a09 02       		.uleb128 0x2
 2747 0a0a 91       		.byte	0x91
 2748 0a0b 72       		.sleb128 -14
 2749 0a0c 00       		.byte	0
 2750 0a0d 24       		.uleb128 0x24
 2751 0a0e E40D0000 		.4byte	.LASF190
 2752 0a12 01       		.byte	0x1
 2753 0a13 85       		.byte	0x85
 2754 0a14 0C060000 		.4byte	0x60c
 2755 0a18 05       		.uleb128 0x5
 2756 0a19 03       		.byte	0x3
 2757 0a1a 00000000 		.4byte	CyBle_ApplCallback
 2758 0a1e 24       		.uleb128 0x24
 2759 0a1f 78080000 		.4byte	.LASF191
 2760 0a23 01       		.byte	0x1
 2761 0a24 2B       		.byte	0x2b
 2762 0a25 6B000000 		.4byte	0x6b
 2763 0a29 05       		.uleb128 0x5
 2764 0a2a 03       		.byte	0x3
 2765 0a2b 00000000 		.4byte	cyBle_initVar
 2766 0a2f 0D       		.uleb128 0xd
 2767 0a30 6B000000 		.4byte	0x6b
 2768 0a34 400A0000 		.4byte	0xa40
 2769 0a38 18       		.uleb128 0x18
 2770 0a39 B1000000 		.4byte	0xb1
 2771 0a3d C30A     		.2byte	0xac3
 2772 0a3f 00       		.byte	0
 2773 0a40 24       		.uleb128 0x24
 2774 0a41 84010000 		.4byte	.LASF192
 2775 0a45 01       		.byte	0x1
ARM GAS  C:\Users\ADMINI~1.SC-\AppData\Local\Temp\ccGAQuWL.s 			page 72


 2776 0a46 36       		.byte	0x36
 2777 0a47 2F0A0000 		.4byte	0xa2f
 2778 0a4b 05       		.uleb128 0x5
 2779 0a4c 03       		.byte	0x3
 2780 0a4d 00000000 		.4byte	cyBle_stackMemoryRam
 2781 0a51 25       		.uleb128 0x25
 2782 0a52 E4090000 		.4byte	.LASF193
 2783 0a56 07       		.byte	0x7
 2784 0a57 D501     		.2byte	0x1d5
 2785 0a59 AC000000 		.4byte	0xac
 2786 0a5d 24       		.uleb128 0x24
 2787 0a5e FF100000 		.4byte	.LASF194
 2788 0a62 01       		.byte	0x1
 2789 0a63 86       		.byte	0x86
 2790 0a64 36030000 		.4byte	0x336
 2791 0a68 05       		.uleb128 0x5
 2792 0a69 03       		.byte	0x3
 2793 0a6a 00000000 		.4byte	cyBle_deviceAddress
 2794 0a6e 24       		.uleb128 0x24
 2795 0a6f 66110000 		.4byte	.LASF195
 2796 0a73 01       		.byte	0x1
 2797 0a74 87       		.byte	0x87
 2798 0a75 7F0A0000 		.4byte	0xa7f
 2799 0a79 05       		.uleb128 0x5
 2800 0a7a 03       		.byte	0x3
 2801 0a7b 00000000 		.4byte	cyBle_sflashDeviceAddress
 2802 0a7f 0F       		.uleb128 0xf
 2803 0a80 04       		.byte	0x4
 2804 0a81 36030000 		.4byte	0x336
 2805 0a85 24       		.uleb128 0x24
 2806 0a86 650C0000 		.4byte	.LASF196
 2807 0a8a 01       		.byte	0x1
 2808 0a8b 8D       		.byte	0x8d
 2809 0a8c 960A0000 		.4byte	0xa96
 2810 0a90 05       		.uleb128 0x5
 2811 0a91 03       		.byte	0x3
 2812 0a92 00000000 		.4byte	cyBle_StackFlashptr
 2813 0a96 20       		.uleb128 0x20
 2814 0a97 6B060000 		.4byte	0x66b
 2815 0a9b 24       		.uleb128 0x24
 2816 0a9c 1D070000 		.4byte	.LASF197
 2817 0aa0 01       		.byte	0x1
 2818 0aa1 3C       		.byte	0x3c
 2819 0aa2 16040000 		.4byte	0x416
 2820 0aa6 05       		.uleb128 0x5
 2821 0aa7 03       		.byte	0x3
 2822 0aa8 00000000 		.4byte	cyBle_discoveryParam
 2823 0aac 24       		.uleb128 0x24
 2824 0aad 0A020000 		.4byte	.LASF198
 2825 0ab1 01       		.byte	0x1
 2826 0ab2 48       		.byte	0x48
 2827 0ab3 56040000 		.4byte	0x456
 2828 0ab7 05       		.uleb128 0x5
 2829 0ab8 03       		.byte	0x3
 2830 0ab9 00000000 		.4byte	cyBle_discoveryData
 2831 0abd 24       		.uleb128 0x24
 2832 0abe 13110000 		.4byte	.LASF199
ARM GAS  C:\Users\ADMINI~1.SC-\AppData\Local\Temp\ccGAQuWL.s 			page 73


 2833 0ac2 01       		.byte	0x1
 2834 0ac3 51       		.byte	0x51
 2835 0ac4 86040000 		.4byte	0x486
 2836 0ac8 05       		.uleb128 0x5
 2837 0ac9 03       		.byte	0x3
 2838 0aca 00000000 		.4byte	cyBle_scanRspData
 2839 0ace 24       		.uleb128 0x24
 2840 0acf 4A0A0000 		.4byte	.LASF200
 2841 0ad3 01       		.byte	0x1
 2842 0ad4 61       		.byte	0x61
 2843 0ad5 EF040000 		.4byte	0x4ef
 2844 0ad9 05       		.uleb128 0x5
 2845 0ada 03       		.byte	0x3
 2846 0adb 00000000 		.4byte	cyBle_discoveryModeInfo
 2847 0adf 24       		.uleb128 0x24
 2848 0ae0 120C0000 		.4byte	.LASF201
 2849 0ae4 01       		.byte	0x1
 2850 0ae5 81       		.byte	0x81
 2851 0ae6 6B000000 		.4byte	0x6b
 2852 0aea 05       		.uleb128 0x5
 2853 0aeb 03       		.byte	0x3
 2854 0aec 00000000 		.4byte	cyBle_pendingFlashWrite
 2855 0af0 24       		.uleb128 0x24
 2856 0af1 CD0C0000 		.4byte	.LASF202
 2857 0af5 01       		.byte	0x1
 2858 0af6 80       		.byte	0x80
 2859 0af7 6B000000 		.4byte	0x6b
 2860 0afb 05       		.uleb128 0x5
 2861 0afc 03       		.byte	0x3
 2862 0afd 00000000 		.4byte	cyBle_peerBonding
 2863 0b01 0D       		.uleb128 0xd
 2864 0b02 00060000 		.4byte	0x600
 2865 0b06 110B0000 		.4byte	0xb11
 2866 0b0a 0E       		.uleb128 0xe
 2867 0b0b B1000000 		.4byte	0xb1
 2868 0b0f 13       		.byte	0x13
 2869 0b10 00       		.byte	0
 2870 0b11 26       		.uleb128 0x26
 2871 0b12 620E0000 		.4byte	.LASF203
 2872 0b16 08       		.byte	0x8
 2873 0b17 DE       		.byte	0xde
 2874 0b18 1C0B0000 		.4byte	0xb1c
 2875 0b1c 20       		.uleb128 0x20
 2876 0b1d 010B0000 		.4byte	0xb01
 2877 0b21 26       		.uleb128 0x26
 2878 0b22 0A080000 		.4byte	.LASF204
 2879 0b26 08       		.byte	0x8
 2880 0b27 E2       		.byte	0xe2
 2881 0b28 26030000 		.4byte	0x326
 2882 0b2c 26       		.uleb128 0x26
 2883 0b2d D20B0000 		.4byte	.LASF205
 2884 0b31 08       		.byte	0x8
 2885 0b32 E9       		.byte	0xe9
 2886 0b33 370B0000 		.4byte	0xb37
 2887 0b37 20       		.uleb128 0x20
 2888 0b38 92060000 		.4byte	0x692
 2889 0b3c 25       		.uleb128 0x25
ARM GAS  C:\Users\ADMINI~1.SC-\AppData\Local\Temp\ccGAQuWL.s 			page 74


 2890 0b3d 49090000 		.4byte	.LASF206
 2891 0b41 09       		.byte	0x9
 2892 0b42 2C09     		.2byte	0x92c
 2893 0b44 C5060000 		.4byte	0x6c5
 2894 0b48 25       		.uleb128 0x25
 2895 0b49 AA0A0000 		.4byte	.LASF207
 2896 0b4d 09       		.byte	0x9
 2897 0b4e 2D09     		.2byte	0x92d
 2898 0b50 25050000 		.4byte	0x525
 2899 0b54 25       		.uleb128 0x25
 2900 0b55 A2020000 		.4byte	.LASF208
 2901 0b59 09       		.byte	0x9
 2902 0b5a 2E09     		.2byte	0x92e
 2903 0b5c AC000000 		.4byte	0xac
 2904 0b60 25       		.uleb128 0x25
 2905 0b61 2A0C0000 		.4byte	.LASF209
 2906 0b65 09       		.byte	0x9
 2907 0b66 3109     		.2byte	0x931
 2908 0b68 6B000000 		.4byte	0x6b
 2909 0b6c 00       		.byte	0
 2910              		.section	.debug_abbrev,"",%progbits
 2911              	.Ldebug_abbrev0:
 2912 0000 01       		.uleb128 0x1
 2913 0001 11       		.uleb128 0x11
 2914 0002 01       		.byte	0x1
 2915 0003 25       		.uleb128 0x25
 2916 0004 0E       		.uleb128 0xe
 2917 0005 13       		.uleb128 0x13
 2918 0006 0B       		.uleb128 0xb
 2919 0007 03       		.uleb128 0x3
 2920 0008 0E       		.uleb128 0xe
 2921 0009 1B       		.uleb128 0x1b
 2922 000a 0E       		.uleb128 0xe
 2923 000b 55       		.uleb128 0x55
 2924 000c 17       		.uleb128 0x17
 2925 000d 11       		.uleb128 0x11
 2926 000e 01       		.uleb128 0x1
 2927 000f 10       		.uleb128 0x10
 2928 0010 17       		.uleb128 0x17
 2929 0011 00       		.byte	0
 2930 0012 00       		.byte	0
 2931 0013 02       		.uleb128 0x2
 2932 0014 24       		.uleb128 0x24
 2933 0015 00       		.byte	0
 2934 0016 0B       		.uleb128 0xb
 2935 0017 0B       		.uleb128 0xb
 2936 0018 3E       		.uleb128 0x3e
 2937 0019 0B       		.uleb128 0xb
 2938 001a 03       		.uleb128 0x3
 2939 001b 0E       		.uleb128 0xe
 2940 001c 00       		.byte	0
 2941 001d 00       		.byte	0
 2942 001e 03       		.uleb128 0x3
 2943 001f 24       		.uleb128 0x24
 2944 0020 00       		.byte	0
 2945 0021 0B       		.uleb128 0xb
 2946 0022 0B       		.uleb128 0xb
ARM GAS  C:\Users\ADMINI~1.SC-\AppData\Local\Temp\ccGAQuWL.s 			page 75


 2947 0023 3E       		.uleb128 0x3e
 2948 0024 0B       		.uleb128 0xb
 2949 0025 03       		.uleb128 0x3
 2950 0026 08       		.uleb128 0x8
 2951 0027 00       		.byte	0
 2952 0028 00       		.byte	0
 2953 0029 04       		.uleb128 0x4
 2954 002a 16       		.uleb128 0x16
 2955 002b 00       		.byte	0
 2956 002c 03       		.uleb128 0x3
 2957 002d 0E       		.uleb128 0xe
 2958 002e 3A       		.uleb128 0x3a
 2959 002f 0B       		.uleb128 0xb
 2960 0030 3B       		.uleb128 0x3b
 2961 0031 0B       		.uleb128 0xb
 2962 0032 49       		.uleb128 0x49
 2963 0033 13       		.uleb128 0x13
 2964 0034 00       		.byte	0
 2965 0035 00       		.byte	0
 2966 0036 05       		.uleb128 0x5
 2967 0037 35       		.uleb128 0x35
 2968 0038 00       		.byte	0
 2969 0039 49       		.uleb128 0x49
 2970 003a 13       		.uleb128 0x13
 2971 003b 00       		.byte	0
 2972 003c 00       		.byte	0
 2973 003d 06       		.uleb128 0x6
 2974 003e 0F       		.uleb128 0xf
 2975 003f 00       		.byte	0
 2976 0040 0B       		.uleb128 0xb
 2977 0041 0B       		.uleb128 0xb
 2978 0042 00       		.byte	0
 2979 0043 00       		.byte	0
 2980 0044 07       		.uleb128 0x7
 2981 0045 04       		.uleb128 0x4
 2982 0046 01       		.byte	0x1
 2983 0047 0B       		.uleb128 0xb
 2984 0048 0B       		.uleb128 0xb
 2985 0049 3A       		.uleb128 0x3a
 2986 004a 0B       		.uleb128 0xb
 2987 004b 3B       		.uleb128 0x3b
 2988 004c 0B       		.uleb128 0xb
 2989 004d 01       		.uleb128 0x1
 2990 004e 13       		.uleb128 0x13
 2991 004f 00       		.byte	0
 2992 0050 00       		.byte	0
 2993 0051 08       		.uleb128 0x8
 2994 0052 28       		.uleb128 0x28
 2995 0053 00       		.byte	0
 2996 0054 03       		.uleb128 0x3
 2997 0055 0E       		.uleb128 0xe
 2998 0056 1C       		.uleb128 0x1c
 2999 0057 0D       		.uleb128 0xd
 3000 0058 00       		.byte	0
 3001 0059 00       		.byte	0
 3002 005a 09       		.uleb128 0x9
 3003 005b 04       		.uleb128 0x4
ARM GAS  C:\Users\ADMINI~1.SC-\AppData\Local\Temp\ccGAQuWL.s 			page 76


 3004 005c 01       		.byte	0x1
 3005 005d 0B       		.uleb128 0xb
 3006 005e 0B       		.uleb128 0xb
 3007 005f 3A       		.uleb128 0x3a
 3008 0060 0B       		.uleb128 0xb
 3009 0061 3B       		.uleb128 0x3b
 3010 0062 05       		.uleb128 0x5
 3011 0063 01       		.uleb128 0x1
 3012 0064 13       		.uleb128 0x13
 3013 0065 00       		.byte	0
 3014 0066 00       		.byte	0
 3015 0067 0A       		.uleb128 0xa
 3016 0068 16       		.uleb128 0x16
 3017 0069 00       		.byte	0
 3018 006a 03       		.uleb128 0x3
 3019 006b 0E       		.uleb128 0xe
 3020 006c 3A       		.uleb128 0x3a
 3021 006d 0B       		.uleb128 0xb
 3022 006e 3B       		.uleb128 0x3b
 3023 006f 05       		.uleb128 0x5
 3024 0070 49       		.uleb128 0x49
 3025 0071 13       		.uleb128 0x13
 3026 0072 00       		.byte	0
 3027 0073 00       		.byte	0
 3028 0074 0B       		.uleb128 0xb
 3029 0075 13       		.uleb128 0x13
 3030 0076 01       		.byte	0x1
 3031 0077 0B       		.uleb128 0xb
 3032 0078 0B       		.uleb128 0xb
 3033 0079 3A       		.uleb128 0x3a
 3034 007a 0B       		.uleb128 0xb
 3035 007b 3B       		.uleb128 0x3b
 3036 007c 05       		.uleb128 0x5
 3037 007d 01       		.uleb128 0x1
 3038 007e 13       		.uleb128 0x13
 3039 007f 00       		.byte	0
 3040 0080 00       		.byte	0
 3041 0081 0C       		.uleb128 0xc
 3042 0082 0D       		.uleb128 0xd
 3043 0083 00       		.byte	0
 3044 0084 03       		.uleb128 0x3
 3045 0085 0E       		.uleb128 0xe
 3046 0086 3A       		.uleb128 0x3a
 3047 0087 0B       		.uleb128 0xb
 3048 0088 3B       		.uleb128 0x3b
 3049 0089 05       		.uleb128 0x5
 3050 008a 49       		.uleb128 0x49
 3051 008b 13       		.uleb128 0x13
 3052 008c 38       		.uleb128 0x38
 3053 008d 0B       		.uleb128 0xb
 3054 008e 00       		.byte	0
 3055 008f 00       		.byte	0
 3056 0090 0D       		.uleb128 0xd
 3057 0091 01       		.uleb128 0x1
 3058 0092 01       		.byte	0x1
 3059 0093 49       		.uleb128 0x49
 3060 0094 13       		.uleb128 0x13
ARM GAS  C:\Users\ADMINI~1.SC-\AppData\Local\Temp\ccGAQuWL.s 			page 77


 3061 0095 01       		.uleb128 0x1
 3062 0096 13       		.uleb128 0x13
 3063 0097 00       		.byte	0
 3064 0098 00       		.byte	0
 3065 0099 0E       		.uleb128 0xe
 3066 009a 21       		.uleb128 0x21
 3067 009b 00       		.byte	0
 3068 009c 49       		.uleb128 0x49
 3069 009d 13       		.uleb128 0x13
 3070 009e 2F       		.uleb128 0x2f
 3071 009f 0B       		.uleb128 0xb
 3072 00a0 00       		.byte	0
 3073 00a1 00       		.byte	0
 3074 00a2 0F       		.uleb128 0xf
 3075 00a3 0F       		.uleb128 0xf
 3076 00a4 00       		.byte	0
 3077 00a5 0B       		.uleb128 0xb
 3078 00a6 0B       		.uleb128 0xb
 3079 00a7 49       		.uleb128 0x49
 3080 00a8 13       		.uleb128 0x13
 3081 00a9 00       		.byte	0
 3082 00aa 00       		.byte	0
 3083 00ab 10       		.uleb128 0x10
 3084 00ac 13       		.uleb128 0x13
 3085 00ad 01       		.byte	0x1
 3086 00ae 0B       		.uleb128 0xb
 3087 00af 0B       		.uleb128 0xb
 3088 00b0 3A       		.uleb128 0x3a
 3089 00b1 0B       		.uleb128 0xb
 3090 00b2 3B       		.uleb128 0x3b
 3091 00b3 0B       		.uleb128 0xb
 3092 00b4 01       		.uleb128 0x1
 3093 00b5 13       		.uleb128 0x13
 3094 00b6 00       		.byte	0
 3095 00b7 00       		.byte	0
 3096 00b8 11       		.uleb128 0x11
 3097 00b9 0D       		.uleb128 0xd
 3098 00ba 00       		.byte	0
 3099 00bb 03       		.uleb128 0x3
 3100 00bc 0E       		.uleb128 0xe
 3101 00bd 3A       		.uleb128 0x3a
 3102 00be 0B       		.uleb128 0xb
 3103 00bf 3B       		.uleb128 0x3b
 3104 00c0 0B       		.uleb128 0xb
 3105 00c1 49       		.uleb128 0x49
 3106 00c2 13       		.uleb128 0x13
 3107 00c3 38       		.uleb128 0x38
 3108 00c4 0B       		.uleb128 0xb
 3109 00c5 00       		.byte	0
 3110 00c6 00       		.byte	0
 3111 00c7 12       		.uleb128 0x12
 3112 00c8 17       		.uleb128 0x17
 3113 00c9 01       		.byte	0x1
 3114 00ca 0B       		.uleb128 0xb
 3115 00cb 0B       		.uleb128 0xb
 3116 00cc 3A       		.uleb128 0x3a
 3117 00cd 0B       		.uleb128 0xb
ARM GAS  C:\Users\ADMINI~1.SC-\AppData\Local\Temp\ccGAQuWL.s 			page 78


 3118 00ce 3B       		.uleb128 0x3b
 3119 00cf 0B       		.uleb128 0xb
 3120 00d0 01       		.uleb128 0x1
 3121 00d1 13       		.uleb128 0x13
 3122 00d2 00       		.byte	0
 3123 00d3 00       		.byte	0
 3124 00d4 13       		.uleb128 0x13
 3125 00d5 0D       		.uleb128 0xd
 3126 00d6 00       		.byte	0
 3127 00d7 03       		.uleb128 0x3
 3128 00d8 0E       		.uleb128 0xe
 3129 00d9 3A       		.uleb128 0x3a
 3130 00da 0B       		.uleb128 0xb
 3131 00db 3B       		.uleb128 0x3b
 3132 00dc 0B       		.uleb128 0xb
 3133 00dd 49       		.uleb128 0x49
 3134 00de 13       		.uleb128 0x13
 3135 00df 00       		.byte	0
 3136 00e0 00       		.byte	0
 3137 00e1 14       		.uleb128 0x14
 3138 00e2 15       		.uleb128 0x15
 3139 00e3 01       		.byte	0x1
 3140 00e4 27       		.uleb128 0x27
 3141 00e5 19       		.uleb128 0x19
 3142 00e6 01       		.uleb128 0x1
 3143 00e7 13       		.uleb128 0x13
 3144 00e8 00       		.byte	0
 3145 00e9 00       		.byte	0
 3146 00ea 15       		.uleb128 0x15
 3147 00eb 05       		.uleb128 0x5
 3148 00ec 00       		.byte	0
 3149 00ed 49       		.uleb128 0x49
 3150 00ee 13       		.uleb128 0x13
 3151 00ef 00       		.byte	0
 3152 00f0 00       		.byte	0
 3153 00f1 16       		.uleb128 0x16
 3154 00f2 13       		.uleb128 0x13
 3155 00f3 01       		.byte	0x1
 3156 00f4 0B       		.uleb128 0xb
 3157 00f5 05       		.uleb128 0x5
 3158 00f6 3A       		.uleb128 0x3a
 3159 00f7 0B       		.uleb128 0xb
 3160 00f8 3B       		.uleb128 0x3b
 3161 00f9 0B       		.uleb128 0xb
 3162 00fa 01       		.uleb128 0x1
 3163 00fb 13       		.uleb128 0x13
 3164 00fc 00       		.byte	0
 3165 00fd 00       		.byte	0
 3166 00fe 17       		.uleb128 0x17
 3167 00ff 0D       		.uleb128 0xd
 3168 0100 00       		.byte	0
 3169 0101 03       		.uleb128 0x3
 3170 0102 0E       		.uleb128 0xe
 3171 0103 3A       		.uleb128 0x3a
 3172 0104 0B       		.uleb128 0xb
 3173 0105 3B       		.uleb128 0x3b
 3174 0106 0B       		.uleb128 0xb
ARM GAS  C:\Users\ADMINI~1.SC-\AppData\Local\Temp\ccGAQuWL.s 			page 79


 3175 0107 49       		.uleb128 0x49
 3176 0108 13       		.uleb128 0x13
 3177 0109 38       		.uleb128 0x38
 3178 010a 05       		.uleb128 0x5
 3179 010b 00       		.byte	0
 3180 010c 00       		.byte	0
 3181 010d 18       		.uleb128 0x18
 3182 010e 21       		.uleb128 0x21
 3183 010f 00       		.byte	0
 3184 0110 49       		.uleb128 0x49
 3185 0111 13       		.uleb128 0x13
 3186 0112 2F       		.uleb128 0x2f
 3187 0113 05       		.uleb128 0x5
 3188 0114 00       		.byte	0
 3189 0115 00       		.byte	0
 3190 0116 19       		.uleb128 0x19
 3191 0117 2E       		.uleb128 0x2e
 3192 0118 00       		.byte	0
 3193 0119 3F       		.uleb128 0x3f
 3194 011a 19       		.uleb128 0x19
 3195 011b 03       		.uleb128 0x3
 3196 011c 0E       		.uleb128 0xe
 3197 011d 3A       		.uleb128 0x3a
 3198 011e 0B       		.uleb128 0xb
 3199 011f 3B       		.uleb128 0x3b
 3200 0120 0B       		.uleb128 0xb
 3201 0121 27       		.uleb128 0x27
 3202 0122 19       		.uleb128 0x19
 3203 0123 11       		.uleb128 0x11
 3204 0124 01       		.uleb128 0x1
 3205 0125 12       		.uleb128 0x12
 3206 0126 06       		.uleb128 0x6
 3207 0127 40       		.uleb128 0x40
 3208 0128 18       		.uleb128 0x18
 3209 0129 9642     		.uleb128 0x2116
 3210 012b 19       		.uleb128 0x19
 3211 012c 00       		.byte	0
 3212 012d 00       		.byte	0
 3213 012e 1A       		.uleb128 0x1a
 3214 012f 2E       		.uleb128 0x2e
 3215 0130 01       		.byte	0x1
 3216 0131 3F       		.uleb128 0x3f
 3217 0132 19       		.uleb128 0x19
 3218 0133 03       		.uleb128 0x3
 3219 0134 0E       		.uleb128 0xe
 3220 0135 3A       		.uleb128 0x3a
 3221 0136 0B       		.uleb128 0xb
 3222 0137 3B       		.uleb128 0x3b
 3223 0138 05       		.uleb128 0x5
 3224 0139 27       		.uleb128 0x27
 3225 013a 19       		.uleb128 0x19
 3226 013b 49       		.uleb128 0x49
 3227 013c 13       		.uleb128 0x13
 3228 013d 11       		.uleb128 0x11
 3229 013e 01       		.uleb128 0x1
 3230 013f 12       		.uleb128 0x12
 3231 0140 06       		.uleb128 0x6
ARM GAS  C:\Users\ADMINI~1.SC-\AppData\Local\Temp\ccGAQuWL.s 			page 80


 3232 0141 40       		.uleb128 0x40
 3233 0142 18       		.uleb128 0x18
 3234 0143 9642     		.uleb128 0x2116
 3235 0145 19       		.uleb128 0x19
 3236 0146 01       		.uleb128 0x1
 3237 0147 13       		.uleb128 0x13
 3238 0148 00       		.byte	0
 3239 0149 00       		.byte	0
 3240 014a 1B       		.uleb128 0x1b
 3241 014b 05       		.uleb128 0x5
 3242 014c 00       		.byte	0
 3243 014d 03       		.uleb128 0x3
 3244 014e 0E       		.uleb128 0xe
 3245 014f 3A       		.uleb128 0x3a
 3246 0150 0B       		.uleb128 0xb
 3247 0151 3B       		.uleb128 0x3b
 3248 0152 05       		.uleb128 0x5
 3249 0153 49       		.uleb128 0x49
 3250 0154 13       		.uleb128 0x13
 3251 0155 02       		.uleb128 0x2
 3252 0156 18       		.uleb128 0x18
 3253 0157 00       		.byte	0
 3254 0158 00       		.byte	0
 3255 0159 1C       		.uleb128 0x1c
 3256 015a 34       		.uleb128 0x34
 3257 015b 00       		.byte	0
 3258 015c 03       		.uleb128 0x3
 3259 015d 0E       		.uleb128 0xe
 3260 015e 3A       		.uleb128 0x3a
 3261 015f 0B       		.uleb128 0xb
 3262 0160 3B       		.uleb128 0x3b
 3263 0161 05       		.uleb128 0x5
 3264 0162 49       		.uleb128 0x49
 3265 0163 13       		.uleb128 0x13
 3266 0164 02       		.uleb128 0x2
 3267 0165 18       		.uleb128 0x18
 3268 0166 00       		.byte	0
 3269 0167 00       		.byte	0
 3270 0168 1D       		.uleb128 0x1d
 3271 0169 2E       		.uleb128 0x2e
 3272 016a 00       		.byte	0
 3273 016b 3F       		.uleb128 0x3f
 3274 016c 19       		.uleb128 0x19
 3275 016d 03       		.uleb128 0x3
 3276 016e 0E       		.uleb128 0xe
 3277 016f 3A       		.uleb128 0x3a
 3278 0170 0B       		.uleb128 0xb
 3279 0171 3B       		.uleb128 0x3b
 3280 0172 05       		.uleb128 0x5
 3281 0173 27       		.uleb128 0x27
 3282 0174 19       		.uleb128 0x19
 3283 0175 11       		.uleb128 0x11
 3284 0176 01       		.uleb128 0x1
 3285 0177 12       		.uleb128 0x12
 3286 0178 06       		.uleb128 0x6
 3287 0179 40       		.uleb128 0x40
 3288 017a 18       		.uleb128 0x18
ARM GAS  C:\Users\ADMINI~1.SC-\AppData\Local\Temp\ccGAQuWL.s 			page 81


 3289 017b 9642     		.uleb128 0x2116
 3290 017d 19       		.uleb128 0x19
 3291 017e 00       		.byte	0
 3292 017f 00       		.byte	0
 3293 0180 1E       		.uleb128 0x1e
 3294 0181 2E       		.uleb128 0x2e
 3295 0182 01       		.byte	0x1
 3296 0183 3F       		.uleb128 0x3f
 3297 0184 19       		.uleb128 0x19
 3298 0185 03       		.uleb128 0x3
 3299 0186 0E       		.uleb128 0xe
 3300 0187 3A       		.uleb128 0x3a
 3301 0188 0B       		.uleb128 0xb
 3302 0189 3B       		.uleb128 0x3b
 3303 018a 05       		.uleb128 0x5
 3304 018b 27       		.uleb128 0x27
 3305 018c 19       		.uleb128 0x19
 3306 018d 11       		.uleb128 0x11
 3307 018e 01       		.uleb128 0x1
 3308 018f 12       		.uleb128 0x12
 3309 0190 06       		.uleb128 0x6
 3310 0191 40       		.uleb128 0x40
 3311 0192 18       		.uleb128 0x18
 3312 0193 9742     		.uleb128 0x2117
 3313 0195 19       		.uleb128 0x19
 3314 0196 01       		.uleb128 0x1
 3315 0197 13       		.uleb128 0x13
 3316 0198 00       		.byte	0
 3317 0199 00       		.byte	0
 3318 019a 1F       		.uleb128 0x1f
 3319 019b 34       		.uleb128 0x34
 3320 019c 00       		.byte	0
 3321 019d 03       		.uleb128 0x3
 3322 019e 08       		.uleb128 0x8
 3323 019f 3A       		.uleb128 0x3a
 3324 01a0 0B       		.uleb128 0xb
 3325 01a1 3B       		.uleb128 0x3b
 3326 01a2 05       		.uleb128 0x5
 3327 01a3 49       		.uleb128 0x49
 3328 01a4 13       		.uleb128 0x13
 3329 01a5 02       		.uleb128 0x2
 3330 01a6 18       		.uleb128 0x18
 3331 01a7 00       		.byte	0
 3332 01a8 00       		.byte	0
 3333 01a9 20       		.uleb128 0x20
 3334 01aa 26       		.uleb128 0x26
 3335 01ab 00       		.byte	0
 3336 01ac 49       		.uleb128 0x49
 3337 01ad 13       		.uleb128 0x13
 3338 01ae 00       		.byte	0
 3339 01af 00       		.byte	0
 3340 01b0 21       		.uleb128 0x21
 3341 01b1 2E       		.uleb128 0x2e
 3342 01b2 01       		.byte	0x1
 3343 01b3 03       		.uleb128 0x3
 3344 01b4 0E       		.uleb128 0xe
 3345 01b5 3A       		.uleb128 0x3a
ARM GAS  C:\Users\ADMINI~1.SC-\AppData\Local\Temp\ccGAQuWL.s 			page 82


 3346 01b6 0B       		.uleb128 0xb
 3347 01b7 3B       		.uleb128 0x3b
 3348 01b8 05       		.uleb128 0x5
 3349 01b9 27       		.uleb128 0x27
 3350 01ba 19       		.uleb128 0x19
 3351 01bb 11       		.uleb128 0x11
 3352 01bc 01       		.uleb128 0x1
 3353 01bd 12       		.uleb128 0x12
 3354 01be 06       		.uleb128 0x6
 3355 01bf 40       		.uleb128 0x40
 3356 01c0 18       		.uleb128 0x18
 3357 01c1 9742     		.uleb128 0x2117
 3358 01c3 19       		.uleb128 0x19
 3359 01c4 01       		.uleb128 0x1
 3360 01c5 13       		.uleb128 0x13
 3361 01c6 00       		.byte	0
 3362 01c7 00       		.byte	0
 3363 01c8 22       		.uleb128 0x22
 3364 01c9 2E       		.uleb128 0x2e
 3365 01ca 01       		.byte	0x1
 3366 01cb 3F       		.uleb128 0x3f
 3367 01cc 19       		.uleb128 0x19
 3368 01cd 03       		.uleb128 0x3
 3369 01ce 0E       		.uleb128 0xe
 3370 01cf 3A       		.uleb128 0x3a
 3371 01d0 0B       		.uleb128 0xb
 3372 01d1 3B       		.uleb128 0x3b
 3373 01d2 05       		.uleb128 0x5
 3374 01d3 27       		.uleb128 0x27
 3375 01d4 19       		.uleb128 0x19
 3376 01d5 49       		.uleb128 0x49
 3377 01d6 13       		.uleb128 0x13
 3378 01d7 11       		.uleb128 0x11
 3379 01d8 01       		.uleb128 0x1
 3380 01d9 12       		.uleb128 0x12
 3381 01da 06       		.uleb128 0x6
 3382 01db 40       		.uleb128 0x40
 3383 01dc 18       		.uleb128 0x18
 3384 01dd 9742     		.uleb128 0x2117
 3385 01df 19       		.uleb128 0x19
 3386 01e0 01       		.uleb128 0x1
 3387 01e1 13       		.uleb128 0x13
 3388 01e2 00       		.byte	0
 3389 01e3 00       		.byte	0
 3390 01e4 23       		.uleb128 0x23
 3391 01e5 05       		.uleb128 0x5
 3392 01e6 00       		.byte	0
 3393 01e7 03       		.uleb128 0x3
 3394 01e8 08       		.uleb128 0x8
 3395 01e9 3A       		.uleb128 0x3a
 3396 01ea 0B       		.uleb128 0xb
 3397 01eb 3B       		.uleb128 0x3b
 3398 01ec 05       		.uleb128 0x5
 3399 01ed 49       		.uleb128 0x49
 3400 01ee 13       		.uleb128 0x13
 3401 01ef 02       		.uleb128 0x2
 3402 01f0 18       		.uleb128 0x18
ARM GAS  C:\Users\ADMINI~1.SC-\AppData\Local\Temp\ccGAQuWL.s 			page 83


 3403 01f1 00       		.byte	0
 3404 01f2 00       		.byte	0
 3405 01f3 24       		.uleb128 0x24
 3406 01f4 34       		.uleb128 0x34
 3407 01f5 00       		.byte	0
 3408 01f6 03       		.uleb128 0x3
 3409 01f7 0E       		.uleb128 0xe
 3410 01f8 3A       		.uleb128 0x3a
 3411 01f9 0B       		.uleb128 0xb
 3412 01fa 3B       		.uleb128 0x3b
 3413 01fb 0B       		.uleb128 0xb
 3414 01fc 49       		.uleb128 0x49
 3415 01fd 13       		.uleb128 0x13
 3416 01fe 3F       		.uleb128 0x3f
 3417 01ff 19       		.uleb128 0x19
 3418 0200 02       		.uleb128 0x2
 3419 0201 18       		.uleb128 0x18
 3420 0202 00       		.byte	0
 3421 0203 00       		.byte	0
 3422 0204 25       		.uleb128 0x25
 3423 0205 34       		.uleb128 0x34
 3424 0206 00       		.byte	0
 3425 0207 03       		.uleb128 0x3
 3426 0208 0E       		.uleb128 0xe
 3427 0209 3A       		.uleb128 0x3a
 3428 020a 0B       		.uleb128 0xb
 3429 020b 3B       		.uleb128 0x3b
 3430 020c 05       		.uleb128 0x5
 3431 020d 49       		.uleb128 0x49
 3432 020e 13       		.uleb128 0x13
 3433 020f 3F       		.uleb128 0x3f
 3434 0210 19       		.uleb128 0x19
 3435 0211 3C       		.uleb128 0x3c
 3436 0212 19       		.uleb128 0x19
 3437 0213 00       		.byte	0
 3438 0214 00       		.byte	0
 3439 0215 26       		.uleb128 0x26
 3440 0216 34       		.uleb128 0x34
 3441 0217 00       		.byte	0
 3442 0218 03       		.uleb128 0x3
 3443 0219 0E       		.uleb128 0xe
 3444 021a 3A       		.uleb128 0x3a
 3445 021b 0B       		.uleb128 0xb
 3446 021c 3B       		.uleb128 0x3b
 3447 021d 0B       		.uleb128 0xb
 3448 021e 49       		.uleb128 0x49
 3449 021f 13       		.uleb128 0x13
 3450 0220 3F       		.uleb128 0x3f
 3451 0221 19       		.uleb128 0x19
 3452 0222 3C       		.uleb128 0x3c
 3453 0223 19       		.uleb128 0x19
 3454 0224 00       		.byte	0
 3455 0225 00       		.byte	0
 3456 0226 00       		.byte	0
 3457              		.section	.debug_aranges,"",%progbits
 3458 0000 7C000000 		.4byte	0x7c
 3459 0004 0200     		.2byte	0x2
ARM GAS  C:\Users\ADMINI~1.SC-\AppData\Local\Temp\ccGAQuWL.s 			page 84


 3460 0006 00000000 		.4byte	.Ldebug_info0
 3461 000a 04       		.byte	0x4
 3462 000b 00       		.byte	0
 3463 000c 0000     		.2byte	0
 3464 000e 0000     		.2byte	0
 3465 0010 00000000 		.4byte	.LFB2
 3466 0014 40000000 		.4byte	.LFE2-.LFB2
 3467 0018 00000000 		.4byte	.LFB3
 3468 001c 0C000000 		.4byte	.LFE3-.LFB3
 3469 0020 00000000 		.4byte	.LFB4
 3470 0024 DC000000 		.4byte	.LFE4-.LFB4
 3471 0028 00000000 		.4byte	.LFB5
 3472 002c 18000000 		.4byte	.LFE5-.LFB5
 3473 0030 00000000 		.4byte	.LFB6
 3474 0034 EC000000 		.4byte	.LFE6-.LFB6
 3475 0038 00000000 		.4byte	.LFB7
 3476 003c D4000000 		.4byte	.LFE7-.LFB7
 3477 0040 00000000 		.4byte	.LFB8
 3478 0044 20000000 		.4byte	.LFE8-.LFB8
 3479 0048 00000000 		.4byte	.LFB9
 3480 004c 7C000000 		.4byte	.LFE9-.LFB9
 3481 0050 00000000 		.4byte	.LFB10
 3482 0054 A4010000 		.4byte	.LFE10-.LFB10
 3483 0058 00000000 		.4byte	.LFB11
 3484 005c C8000000 		.4byte	.LFE11-.LFB11
 3485 0060 00000000 		.4byte	.LFB12
 3486 0064 A4000000 		.4byte	.LFE12-.LFB12
 3487 0068 00000000 		.4byte	.LFB13
 3488 006c 26000000 		.4byte	.LFE13-.LFB13
 3489 0070 00000000 		.4byte	.LFB14
 3490 0074 2E000000 		.4byte	.LFE14-.LFB14
 3491 0078 00000000 		.4byte	0
 3492 007c 00000000 		.4byte	0
 3493              		.section	.debug_ranges,"",%progbits
 3494              	.Ldebug_ranges0:
 3495 0000 00000000 		.4byte	.LFB2
 3496 0004 40000000 		.4byte	.LFE2
 3497 0008 00000000 		.4byte	.LFB3
 3498 000c 0C000000 		.4byte	.LFE3
 3499 0010 00000000 		.4byte	.LFB4
 3500 0014 DC000000 		.4byte	.LFE4
 3501 0018 00000000 		.4byte	.LFB5
 3502 001c 18000000 		.4byte	.LFE5
 3503 0020 00000000 		.4byte	.LFB6
 3504 0024 EC000000 		.4byte	.LFE6
 3505 0028 00000000 		.4byte	.LFB7
 3506 002c D4000000 		.4byte	.LFE7
 3507 0030 00000000 		.4byte	.LFB8
 3508 0034 20000000 		.4byte	.LFE8
 3509 0038 00000000 		.4byte	.LFB9
 3510 003c 7C000000 		.4byte	.LFE9
 3511 0040 00000000 		.4byte	.LFB10
 3512 0044 A4010000 		.4byte	.LFE10
 3513 0048 00000000 		.4byte	.LFB11
 3514 004c C8000000 		.4byte	.LFE11
 3515 0050 00000000 		.4byte	.LFB12
 3516 0054 A4000000 		.4byte	.LFE12
ARM GAS  C:\Users\ADMINI~1.SC-\AppData\Local\Temp\ccGAQuWL.s 			page 85


 3517 0058 00000000 		.4byte	.LFB13
 3518 005c 26000000 		.4byte	.LFE13
 3519 0060 00000000 		.4byte	.LFB14
 3520 0064 2E000000 		.4byte	.LFE14
 3521 0068 00000000 		.4byte	0
 3522 006c 00000000 		.4byte	0
 3523              		.section	.debug_line,"",%progbits
 3524              	.Ldebug_line0:
 3525 0000 94020000 		.section	.debug_str,"MS",%progbits,1
 3525      0200B600 
 3525      00000201 
 3525      FB0E0D00 
 3525      01010101 
 3526              	.LASF68:
 3527 0000 4359424C 		.ascii	"CYBLE_EVT_L2CAP_CBFC_RX_CREDIT_IND\000"
 3527      455F4556 
 3527      545F4C32 
 3527      4341505F 
 3527      43424643 
 3528              	.LASF22:
 3529 0023 4359424C 		.ascii	"CYBLE_EVT_STACK_BUSY_STATUS\000"
 3529      455F4556 
 3529      545F5354 
 3529      41434B5F 
 3529      42555359 
 3530              	.LASF158:
 3531 003f 4359424C 		.ascii	"CYBLE_STATE_STOPPED\000"
 3531      455F5354 
 3531      4154455F 
 3531      53544F50 
 3531      50454400 
 3532              	.LASF67:
 3533 0053 4359424C 		.ascii	"CYBLE_EVT_L2CAP_CBFC_DATA_READ\000"
 3533      455F4556 
 3533      545F4C32 
 3533      4341505F 
 3533      43424643 
 3534              	.LASF136:
 3535 0072 4359424C 		.ascii	"CYBLE_CONN_HANDLE_T\000"
 3535      455F434F 
 3535      4E4E5F48 
 3535      414E444C 
 3535      455F5400 
 3536              	.LASF77:
 3537 0086 4359424C 		.ascii	"CYBLE_ERROR_MEMORY_ALLOCATION_FAILED\000"
 3537      455F4552 
 3537      524F525F 
 3537      4D454D4F 
 3537      52595F41 
 3538              	.LASF126:
 3539 00ab 4359424C 		.ascii	"CYBLE_GAPP_DISC_DATA_T\000"
 3539      455F4741 
 3539      50505F44 
 3539      4953435F 
 3539      44415441 
 3540              	.LASF33:
 3541 00c2 4359424C 		.ascii	"CYBLE_EVT_GAP_CONNECTION_UPDATE_COMPLETE\000"
ARM GAS  C:\Users\ADMINI~1.SC-\AppData\Local\Temp\ccGAQuWL.s 			page 86


 3541      455F4556 
 3541      545F4741 
 3541      505F434F 
 3541      4E4E4543 
 3542              	.LASF121:
 3543 00eb 61647643 		.ascii	"advChannelMap\000"
 3543      68616E6E 
 3543      656C4D61 
 3543      7000
 3544              	.LASF66:
 3545 00f9 4359424C 		.ascii	"CYBLE_EVT_L2CAP_CBFC_DISCONN_CNF\000"
 3545      455F4556 
 3545      545F4C32 
 3545      4341505F 
 3545      43424643 
 3546              	.LASF110:
 3547 011a 4359424C 		.ascii	"CYBLE_GAPP_CONNECTABLE_HIGH_DC_DIRECTED_ADV\000"
 3547      455F4741 
 3547      50505F43 
 3547      4F4E4E45 
 3547      43544142 
 3548              	.LASF47:
 3549 0146 4359424C 		.ascii	"CYBLE_EVT_GATTC_READ_MULTI_RSP\000"
 3549      455F4556 
 3549      545F4741 
 3549      5454435F 
 3549      52454144 
 3550              	.LASF52:
 3551 0165 4359424C 		.ascii	"CYBLE_EVT_GATTS_EXEC_WRITE_REQ\000"
 3551      455F4556 
 3551      545F4741 
 3551      5454535F 
 3551      45584543 
 3552              	.LASF192:
 3553 0184 6379426C 		.ascii	"cyBle_stackMemoryRam\000"
 3553      655F7374 
 3553      61636B4D 
 3553      656D6F72 
 3553      7952616D 
 3554              	.LASF111:
 3555 0199 4359424C 		.ascii	"CYBLE_GAPP_SCANNABLE_UNDIRECTED_ADV\000"
 3555      455F4741 
 3555      50505F53 
 3555      43414E4E 
 3555      41424C45 
 3556              	.LASF186:
 3557 01bd 4379426C 		.ascii	"CyBle_Get16ByPtr\000"
 3557      655F4765 
 3557      74313642 
 3557      79507472 
 3557      00
 3558              	.LASF104:
 3559 01ce 74797065 		.ascii	"type\000"
 3559      00
 3560              	.LASF19:
 3561 01d3 4359424C 		.ascii	"CYBLE_EVT_TIMEOUT\000"
 3561      455F4556 
ARM GAS  C:\Users\ADMINI~1.SC-\AppData\Local\Temp\ccGAQuWL.s 			page 87


 3561      545F5449 
 3561      4D454F55 
 3561      5400
 3562              	.LASF4:
 3563 01e5 6C6F6E67 		.ascii	"long int\000"
 3563      20696E74 
 3563      00
 3564              	.LASF175:
 3565 01ee 4379426C 		.ascii	"CyBle_GappStopAdvertisement\000"
 3565      655F4761 
 3565      70705374 
 3565      6F704164 
 3565      76657274 
 3566              	.LASF198:
 3567 020a 6379426C 		.ascii	"cyBle_discoveryData\000"
 3567      655F6469 
 3567      73636F76 
 3567      65727944 
 3567      61746100 
 3568              	.LASF87:
 3569 021e 4359424C 		.ascii	"CYBLE_ERROR_L2CAP_PSM_WRONG_ENCODING\000"
 3569      455F4552 
 3569      524F525F 
 3569      4C324341 
 3569      505F5053 
 3570              	.LASF78:
 3571 0243 4359424C 		.ascii	"CYBLE_ERROR_INSUFFICIENT_RESOURCES\000"
 3571      455F4552 
 3571      524F525F 
 3571      494E5355 
 3571      46464943 
 3572              	.LASF21:
 3573 0266 4359424C 		.ascii	"CYBLE_EVT_HCI_STATUS\000"
 3573      455F4556 
 3573      545F4843 
 3573      495F5354 
 3573      41545553 
 3574              	.LASF117:
 3575 027b 61647654 		.ascii	"advType\000"
 3575      79706500 
 3576              	.LASF34:
 3577 0283 4359424C 		.ascii	"CYBLE_EVT_GAPC_SCAN_START_STOP\000"
 3577      455F4556 
 3577      545F4741 
 3577      50435F53 
 3577      43414E5F 
 3578              	.LASF208:
 3579 02a2 6379426C 		.ascii	"cyBle_busyStatus\000"
 3579      655F6275 
 3579      73795374 
 3579      61747573 
 3579      00
 3580              	.LASF109:
 3581 02b3 4359424C 		.ascii	"CYBLE_GAPP_CONNECTABLE_UNDIRECTED_ADV\000"
 3581      455F4741 
 3581      50505F43 
 3581      4F4E4E45 
ARM GAS  C:\Users\ADMINI~1.SC-\AppData\Local\Temp\ccGAQuWL.s 			page 88


 3581      43544142 
 3582              	.LASF105:
 3583 02d9 4359424C 		.ascii	"CYBLE_GAP_BD_ADDR_T\000"
 3583      455F4741 
 3583      505F4244 
 3583      5F414444 
 3583      525F5400 
 3584              	.LASF86:
 3585 02ed 4359424C 		.ascii	"CYBLE_ERROR_SEC_FAILED\000"
 3585      455F4552 
 3585      524F525F 
 3585      5345435F 
 3585      4641494C 
 3586              	.LASF91:
 3587 0304 4359424C 		.ascii	"CYBLE_ERROR_L2CAP_CHANNEL_NOT_FOUND\000"
 3587      455F4552 
 3587      524F525F 
 3587      4C324341 
 3587      505F4348 
 3588              	.LASF32:
 3589 0328 4359424C 		.ascii	"CYBLE_EVT_GAP_ENCRYPT_CHANGE\000"
 3589      455F4556 
 3589      545F4741 
 3589      505F454E 
 3589      43525950 
 3590              	.LASF108:
 3591 0345 4359424C 		.ascii	"CYBLE_STK_APP_DATA_BUFF_T\000"
 3591      455F5354 
 3591      4B5F4150 
 3591      505F4441 
 3591      54415F42 
 3592              	.LASF69:
 3593 035f 4359424C 		.ascii	"CYBLE_EVT_L2CAP_CBFC_TX_CREDIT_IND\000"
 3593      455F4556 
 3593      545F4C32 
 3593      4341505F 
 3593      43424643 
 3594              	.LASF161:
 3595 0382 4359424C 		.ascii	"CYBLE_STATE_ADVERTISING\000"
 3595      455F5354 
 3595      4154455F 
 3595      41445645 
 3595      52544953 
 3596              	.LASF6:
 3597 039a 6C6F6E67 		.ascii	"long long int\000"
 3597      206C6F6E 
 3597      6720696E 
 3597      7400
 3598              	.LASF0:
 3599 03a8 7369676E 		.ascii	"signed char\000"
 3599      65642063 
 3599      68617200 
 3600              	.LASF18:
 3601 03b4 4359424C 		.ascii	"CYBLE_EVT_STACK_ON\000"
 3601      455F4556 
 3601      545F5354 
 3601      41434B5F 
ARM GAS  C:\Users\ADMINI~1.SC-\AppData\Local\Temp\ccGAQuWL.s 			page 89


 3601      4F4E00
 3602              	.LASF94:
 3603 03c7 4359424C 		.ascii	"CYBLE_ERROR_DEVICE_ALREADY_EXISTS\000"
 3603      455F4552 
 3603      524F525F 
 3603      44455649 
 3603      43455F41 
 3604              	.LASF81:
 3605 03e9 4359424C 		.ascii	"CYBLE_ERROR_NO_DEVICE_ENTITY\000"
 3605      455F4552 
 3605      524F525F 
 3605      4E4F5F44 
 3605      45564943 
 3606              	.LASF120:
 3607 0406 64697265 		.ascii	"directAddr\000"
 3607      63744164 
 3607      647200
 3608              	.LASF183:
 3609 0411 4379426C 		.ascii	"CyBle_GapSetLocalName\000"
 3609      655F4761 
 3609      70536574 
 3609      4C6F6361 
 3609      6C4E616D 
 3610              	.LASF24:
 3611 0427 4359424C 		.ascii	"CYBLE_EVT_GAP_AUTH_REQ\000"
 3611      455F4556 
 3611      545F4741 
 3611      505F4155 
 3611      54485F52 
 3612              	.LASF148:
 3613 043e 7065726D 		.ascii	"permission\000"
 3613      69737369 
 3613      6F6E00
 3614              	.LASF45:
 3615 0449 4359424C 		.ascii	"CYBLE_EVT_GATTC_READ_RSP\000"
 3615      455F4556 
 3615      545F4741 
 3615      5454435F 
 3615      52454144 
 3616              	.LASF101:
 3617 0462 4359424C 		.ascii	"CYBLE_ERROR_INVALID_STATE\000"
 3617      455F4552 
 3617      524F525F 
 3617      494E5641 
 3617      4C49445F 
 3618              	.LASF122:
 3619 047c 61647646 		.ascii	"advFilterPolicy\000"
 3619      696C7465 
 3619      72506F6C 
 3619      69637900 
 3620              	.LASF50:
 3621 048c 4359424C 		.ascii	"CYBLE_EVT_GATTS_WRITE_CMD_REQ\000"
 3621      455F4556 
 3621      545F4741 
 3621      5454535F 
 3621      57524954 
 3622              	.LASF172:
ARM GAS  C:\Users\ADMINI~1.SC-\AppData\Local\Temp\ccGAQuWL.s 			page 90


 3623 04aa 6973466F 		.ascii	"isForceWrite\000"
 3623      72636557 
 3623      72697465 
 3623      00
 3624              	.LASF116:
 3625 04b7 61647649 		.ascii	"advIntvMax\000"
 3625      6E74764D 
 3625      617800
 3626              	.LASF162:
 3627 04c2 4359424C 		.ascii	"CYBLE_STATE_DISCONNECTED\000"
 3627      455F5354 
 3627      4154455F 
 3627      44495343 
 3627      4F4E4E45 
 3628              	.LASF29:
 3629 04db 4359424C 		.ascii	"CYBLE_EVT_GAPP_ADVERTISEMENT_START_STOP\000"
 3629      455F4556 
 3629      545F4741 
 3629      50505F41 
 3629      44564552 
 3630              	.LASF92:
 3631 0503 4359424C 		.ascii	"CYBLE_ERROR_L2CAP_PSM_NOT_IN_RANGE\000"
 3631      455F4552 
 3631      524F525F 
 3631      4C324341 
 3631      505F5053 
 3632              	.LASF39:
 3633 0526 4359424C 		.ascii	"CYBLE_EVT_GATTS_XCNHG_MTU_REQ\000"
 3633      455F4556 
 3633      545F4741 
 3633      5454535F 
 3633      58434E48 
 3634              	.LASF9:
 3635 0544 75696E74 		.ascii	"uint8\000"
 3635      3800
 3636              	.LASF127:
 3637 054a 7363616E 		.ascii	"scanRspData\000"
 3637      52737044 
 3637      61746100 
 3638              	.LASF103:
 3639 0556 62644164 		.ascii	"bdAddr\000"
 3639      647200
 3640              	.LASF53:
 3641 055d 4359424C 		.ascii	"CYBLE_EVT_GATTC_EXEC_WRITE_RSP\000"
 3641      455F4556 
 3641      545F4741 
 3641      5454435F 
 3641      45584543 
 3642              	.LASF142:
 3643 057c 4359424C 		.ascii	"CYBLE_GATTS_ATT_PACK_VAL_LEN_T\000"
 3643      455F4741 
 3643      5454535F 
 3643      4154545F 
 3643      5041434B 
 3644              	.LASF13:
 3645 059b 646F7562 		.ascii	"double\000"
 3645      6C6500
ARM GAS  C:\Users\ADMINI~1.SC-\AppData\Local\Temp\ccGAQuWL.s 			page 91


 3646              	.LASF65:
 3647 05a2 4359424C 		.ascii	"CYBLE_EVT_L2CAP_CBFC_DISCONN_IND\000"
 3647      455F4556 
 3647      545F4C32 
 3647      4341505F 
 3647      43424643 
 3648              	.LASF130:
 3649 05c3 64697363 		.ascii	"discMode\000"
 3649      4D6F6465 
 3649      00
 3650              	.LASF75:
 3651 05cc 4359424C 		.ascii	"CYBLE_ERROR_INVALID_PARAMETER\000"
 3651      455F4552 
 3651      524F525F 
 3651      494E5641 
 3651      4C49445F 
 3652              	.LASF153:
 3653 05ea 73746163 		.ascii	"stackFlashptr\000"
 3653      6B466C61 
 3653      73687074 
 3653      7200
 3654              	.LASF145:
 3655 05f8 4359424C 		.ascii	"CYBLE_GATTS_ATT_VALUE_T\000"
 3655      455F4741 
 3655      5454535F 
 3655      4154545F 
 3655      56414C55 
 3656              	.LASF146:
 3657 0610 61747448 		.ascii	"attHandle\000"
 3657      616E646C 
 3657      6500
 3658              	.LASF11:
 3659 061a 75696E74 		.ascii	"uint32\000"
 3659      333200
 3660              	.LASF177:
 3661 0621 64657374 		.ascii	"destBuffer\000"
 3661      42756666 
 3661      657200
 3662              	.LASF73:
 3663 062c 4359424C 		.ascii	"CYBLE_EVT_MAX\000"
 3663      455F4556 
 3663      545F4D41 
 3663      5800
 3664              	.LASF74:
 3665 063a 4359424C 		.ascii	"CYBLE_ERROR_OK\000"
 3665      455F4552 
 3665      524F525F 
 3665      4F4B00
 3666              	.LASF36:
 3667 0649 4359424C 		.ascii	"CYBLE_EVT_GATTC_ERROR_RSP\000"
 3667      455F4556 
 3667      545F4741 
 3667      5454435F 
 3667      4552524F 
 3668              	.LASF60:
 3669 0663 4359424C 		.ascii	"CYBLE_EVT_L2CAP_CONN_PARAM_UPDATE_REQ\000"
 3669      455F4556 
ARM GAS  C:\Users\ADMINI~1.SC-\AppData\Local\Temp\ccGAQuWL.s 			page 92


 3669      545F4C32 
 3669      4341505F 
 3669      434F4E4E 
 3670              	.LASF70:
 3671 0689 4359424C 		.ascii	"CYBLE_EVT_L2CAP_CBFC_DATA_WRITE_IND\000"
 3671      455F4556 
 3671      545F4C32 
 3671      4341505F 
 3671      43424643 
 3672              	.LASF147:
 3673 06ad 61747454 		.ascii	"attType\000"
 3673      79706500 
 3674              	.LASF125:
 3675 06b5 61647644 		.ascii	"advDataLen\000"
 3675      6174614C 
 3675      656E00
 3676              	.LASF7:
 3677 06c0 6C6F6E67 		.ascii	"long long unsigned int\000"
 3677      206C6F6E 
 3677      6720756E 
 3677      7369676E 
 3677      65642069 
 3678              	.LASF189:
 3679 06d7 76616C75 		.ascii	"value\000"
 3679      6500
 3680              	.LASF58:
 3681 06dd 4359424C 		.ascii	"CYBLE_EVT_GATTC_STOP_CMD_COMPLETE\000"
 3681      455F4556 
 3681      545F4741 
 3681      5454435F 
 3681      53544F50 
 3682              	.LASF79:
 3683 06ff 4359424C 		.ascii	"CYBLE_ERROR_OOB_NOT_AVAILABLE\000"
 3683      455F4552 
 3683      524F525F 
 3683      4F4F425F 
 3683      4E4F545F 
 3684              	.LASF197:
 3685 071d 6379426C 		.ascii	"cyBle_discoveryParam\000"
 3685      655F6469 
 3685      73636F76 
 3685      65727950 
 3685      6172616D 
 3686              	.LASF165:
 3687 0732 4379426C 		.ascii	"CyBle_ServiceInit\000"
 3687      655F5365 
 3687      72766963 
 3687      65496E69 
 3687      7400
 3688              	.LASF88:
 3689 0744 4359424C 		.ascii	"CYBLE_ERROR_L2CAP_PSM_ALREADY_REGISTERED\000"
 3689      455F4552 
 3689      524F525F 
 3689      4C324341 
 3689      505F5053 
 3690              	.LASF5:
 3691 076d 6C6F6E67 		.ascii	"long unsigned int\000"
ARM GAS  C:\Users\ADMINI~1.SC-\AppData\Local\Temp\ccGAQuWL.s 			page 93


 3691      20756E73 
 3691      69676E65 
 3691      6420696E 
 3691      7400
 3692              	.LASF48:
 3693 077f 4359424C 		.ascii	"CYBLE_EVT_GATTS_WRITE_REQ\000"
 3693      455F4556 
 3693      545F4741 
 3693      5454535F 
 3693      57524954 
 3694              	.LASF40:
 3695 0799 4359424C 		.ascii	"CYBLE_EVT_GATTC_XCHNG_MTU_RSP\000"
 3695      455F4556 
 3695      545F4741 
 3695      5454435F 
 3695      5843484E 
 3696              	.LASF57:
 3697 07b7 4359424C 		.ascii	"CYBLE_EVT_GATTS_DATA_SIGNED_CMD_REQ\000"
 3697      455F4556 
 3697      545F4741 
 3697      5454535F 
 3697      44415441 
 3698              	.LASF178:
 3699 07db 6E616D65 		.ascii	"name\000"
 3699      00
 3700              	.LASF143:
 3701 07e0 61747446 		.ascii	"attFormatValue\000"
 3701      6F726D61 
 3701      7456616C 
 3701      756500
 3702              	.LASF129:
 3703 07ef 4359424C 		.ascii	"CYBLE_GAPP_SCAN_RSP_DATA_T\000"
 3703      455F4741 
 3703      50505F53 
 3703      43414E5F 
 3703      5253505F 
 3704              	.LASF204:
 3705 080a 6379426C 		.ascii	"cyBle_attValuesCCCD\000"
 3705      655F6174 
 3705      7456616C 
 3705      75657343 
 3705      43434400 
 3706              	.LASF107:
 3707 081e 62756666 		.ascii	"bufferUnits\000"
 3707      6572556E 
 3707      69747300 
 3708              	.LASF98:
 3709 082a 4359424C 		.ascii	"CYBLE_ERROR_NTF_DISABLED\000"
 3709      455F4552 
 3709      524F525F 
 3709      4E54465F 
 3709      44495341 
 3710              	.LASF17:
 3711 0843 4359424C 		.ascii	"CYBLE_EVT_HOST_INVALID\000"
 3711      455F4556 
 3711      545F484F 
 3711      53545F49 
ARM GAS  C:\Users\ADMINI~1.SC-\AppData\Local\Temp\ccGAQuWL.s 			page 94


 3711      4E56414C 
 3712              	.LASF43:
 3713 085a 4359424C 		.ascii	"CYBLE_EVT_GATTC_FIND_INFO_RSP\000"
 3713      455F4556 
 3713      545F4741 
 3713      5454435F 
 3713      46494E44 
 3714              	.LASF191:
 3715 0878 6379426C 		.ascii	"cyBle_initVar\000"
 3715      655F696E 
 3715      69745661 
 3715      7200
 3716              	.LASF25:
 3717 0886 4359424C 		.ascii	"CYBLE_EVT_GAP_PASSKEY_ENTRY_REQUEST\000"
 3717      455F4556 
 3717      545F4741 
 3717      505F5041 
 3717      53534B45 
 3718              	.LASF30:
 3719 08aa 4359424C 		.ascii	"CYBLE_EVT_GAP_DEVICE_CONNECTED\000"
 3719      455F4556 
 3719      545F4741 
 3719      505F4445 
 3719      56494345 
 3720              	.LASF140:
 3721 08c9 6D617841 		.ascii	"maxAttrLength\000"
 3721      7474724C 
 3721      656E6774 
 3721      6800
 3722              	.LASF188:
 3723 08d7 4379426C 		.ascii	"CyBle_Set16ByPtr\000"
 3723      655F5365 
 3723      74313642 
 3723      79507472 
 3723      00
 3724              	.LASF155:
 3725 08e8 63636364 		.ascii	"cccdCount\000"
 3725      436F756E 
 3725      7400
 3726              	.LASF128:
 3727 08f2 7363616E 		.ascii	"scanRspDataLen\000"
 3727      52737044 
 3727      6174614C 
 3727      656E00
 3728              	.LASF169:
 3729 0901 4379426C 		.ascii	"CyBle_Start\000"
 3729      655F5374 
 3729      61727400 
 3730              	.LASF185:
 3731 090d 4379426C 		.ascii	"CyBle_GapGetLocalName\000"
 3731      655F4761 
 3731      70476574 
 3731      4C6F6361 
 3731      6C4E616D 
 3732              	.LASF154:
 3733 0923 61747456 		.ascii	"attValuesCCCDFlashMemory\000"
 3733      616C7565 
ARM GAS  C:\Users\ADMINI~1.SC-\AppData\Local\Temp\ccGAQuWL.s 			page 95


 3733      73434343 
 3733      44466C61 
 3733      73684D65 
 3734              	.LASF137:
 3735 093c 61637475 		.ascii	"actualLength\000"
 3735      616C4C65 
 3735      6E677468 
 3735      00
 3736              	.LASF206:
 3737 0949 6379426C 		.ascii	"cyBle_state\000"
 3737      655F7374 
 3737      61746500 
 3738              	.LASF26:
 3739 0955 4359424C 		.ascii	"CYBLE_EVT_GAP_PASSKEY_DISPLAY_REQUEST\000"
 3739      455F4556 
 3739      545F4741 
 3739      505F5041 
 3739      53534B45 
 3740              	.LASF37:
 3741 097b 4359424C 		.ascii	"CYBLE_EVT_GATT_CONNECT_IND\000"
 3741      455F4556 
 3741      545F4741 
 3741      54545F43 
 3741      4F4E4E45 
 3742              	.LASF135:
 3743 0996 61747449 		.ascii	"attId\000"
 3743      6400
 3744              	.LASF184:
 3745 099c 63686172 		.ascii	"charLen\000"
 3745      4C656E00 
 3746              	.LASF62:
 3747 09a4 4359424C 		.ascii	"CYBLE_EVT_L2CAP_COMMAND_REJ\000"
 3747      455F4556 
 3747      545F4C32 
 3747      4341505F 
 3747      434F4D4D 
 3748              	.LASF23:
 3749 09c0 4359424C 		.ascii	"CYBLE_EVT_GAPC_SCAN_PROGRESS_RESULT\000"
 3749      455F4556 
 3749      545F4741 
 3749      50435F53 
 3749      43414E5F 
 3750              	.LASF193:
 3751 09e4 6379426C 		.ascii	"cyBle_eventHandlerFlag\000"
 3751      655F6576 
 3751      656E7448 
 3751      616E646C 
 3751      6572466C 
 3752              	.LASF97:
 3753 09fb 4359424C 		.ascii	"CYBLE_ERROR_MAX\000"
 3753      455F4552 
 3753      524F525F 
 3753      4D415800 
 3754              	.LASF63:
 3755 0a0b 4359424C 		.ascii	"CYBLE_EVT_L2CAP_CBFC_CONN_IND\000"
 3755      455F4556 
 3755      545F4C32 
ARM GAS  C:\Users\ADMINI~1.SC-\AppData\Local\Temp\ccGAQuWL.s 			page 96


 3755      4341505F 
 3755      43424643 
 3756              	.LASF42:
 3757 0a29 4359424C 		.ascii	"CYBLE_EVT_GATTC_READ_BY_TYPE_RSP\000"
 3757      455F4556 
 3757      545F4741 
 3757      5454435F 
 3757      52454144 
 3758              	.LASF200:
 3759 0a4a 6379426C 		.ascii	"cyBle_discoveryModeInfo\000"
 3759      655F6469 
 3759      73636F76 
 3759      6572794D 
 3759      6F646549 
 3760              	.LASF16:
 3761 0a62 73697A65 		.ascii	"sizetype\000"
 3761      74797065 
 3761      00
 3762              	.LASF159:
 3763 0a6b 4359424C 		.ascii	"CYBLE_STATE_INITIALIZING\000"
 3763      455F5354 
 3763      4154455F 
 3763      494E4954 
 3763      49414C49 
 3764              	.LASF118:
 3765 0a84 6F776E41 		.ascii	"ownAddrType\000"
 3765      64647254 
 3765      79706500 
 3766              	.LASF28:
 3767 0a90 4359424C 		.ascii	"CYBLE_EVT_GAP_AUTH_FAILED\000"
 3767      455F4556 
 3767      545F4741 
 3767      505F4155 
 3767      54485F46 
 3768              	.LASF207:
 3769 0aaa 6379426C 		.ascii	"cyBle_connHandle\000"
 3769      655F636F 
 3769      6E6E4861 
 3769      6E646C65 
 3769      00
 3770              	.LASF49:
 3771 0abb 4359424C 		.ascii	"CYBLE_EVT_GATTC_WRITE_RSP\000"
 3771      455F4556 
 3771      545F4741 
 3771      5454435F 
 3771      57524954 
 3772              	.LASF156:
 3773 0ad5 626F756E 		.ascii	"boundedDevCount\000"
 3773      64656444 
 3773      6576436F 
 3773      756E7400 
 3774              	.LASF27:
 3775 0ae5 4359424C 		.ascii	"CYBLE_EVT_GAP_AUTH_COMPLETE\000"
 3775      455F4556 
 3775      545F4741 
 3775      505F4155 
 3775      54485F43 
ARM GAS  C:\Users\ADMINI~1.SC-\AppData\Local\Temp\ccGAQuWL.s 			page 97


 3776              	.LASF166:
 3777 0b01 61706952 		.ascii	"apiResult\000"
 3777      6573756C 
 3777      7400
 3778              	.LASF102:
 3779 0b0b 4359424C 		.ascii	"CYBLE_API_RESULT_T\000"
 3779      455F4150 
 3779      495F5245 
 3779      53554C54 
 3779      5F5400
 3780              	.LASF168:
 3781 0b1e 4379426C 		.ascii	"CyBle_Stop\000"
 3781      655F5374 
 3781      6F7000
 3782              	.LASF54:
 3783 0b29 4359424C 		.ascii	"CYBLE_EVT_GATTC_HANDLE_VALUE_NTF\000"
 3783      455F4556 
 3783      545F4741 
 3783      5454435F 
 3783      48414E44 
 3784              	.LASF99:
 3785 0b4a 4359424C 		.ascii	"CYBLE_ERROR_IND_DISABLED\000"
 3785      455F4552 
 3785      524F525F 
 3785      494E445F 
 3785      44495341 
 3786              	.LASF176:
 3787 0b63 64657374 		.ascii	"dest\000"
 3787      00
 3788              	.LASF212:
 3789 0b68 453A5C6D 		.ascii	"E:\\my_project\\shhl\\BLE_KEY_wuyuan\\Design02.cyds"
 3789      795F7072 
 3789      6F6A6563 
 3789      745C7368 
 3789      686C5C42 
 3790 0b97 6E00     		.ascii	"n\000"
 3791              	.LASF144:
 3792 0b99 61747456 		.ascii	"attValueUuid\000"
 3792      616C7565 
 3792      55756964 
 3792      00
 3793              	.LASF138:
 3794 0ba6 61747447 		.ascii	"attGenericVal\000"
 3794      656E6572 
 3794      69635661 
 3794      6C00
 3795              	.LASF64:
 3796 0bb4 4359424C 		.ascii	"CYBLE_EVT_L2CAP_CBFC_CONN_CNF\000"
 3796      455F4556 
 3796      545F4C32 
 3796      4341505F 
 3796      43424643 
 3797              	.LASF205:
 3798 0bd2 6379426C 		.ascii	"cyBle_flashStorage\000"
 3798      655F666C 
 3798      61736853 
 3798      746F7261 
ARM GAS  C:\Users\ADMINI~1.SC-\AppData\Local\Temp\ccGAQuWL.s 			page 98


 3798      676500
 3799              	.LASF41:
 3800 0be5 4359424C 		.ascii	"CYBLE_EVT_GATTC_READ_BY_GROUP_TYPE_RSP\000"
 3800      455F4556 
 3800      545F4741 
 3800      5454435F 
 3800      52454144 
 3801              	.LASF12:
 3802 0c0c 666C6F61 		.ascii	"float\000"
 3802      7400
 3803              	.LASF201:
 3804 0c12 6379426C 		.ascii	"cyBle_pendingFlashWrite\000"
 3804      655F7065 
 3804      6E64696E 
 3804      67466C61 
 3804      73685772 
 3805              	.LASF209:
 3806 0c2a 6379426C 		.ascii	"cyBle_advertisingIntervalType\000"
 3806      655F6164 
 3806      76657274 
 3806      6973696E 
 3806      67496E74 
 3807              	.LASF173:
 3808 0c48 4379426C 		.ascii	"CyBle_GappStartAdvertisement\000"
 3808      655F4761 
 3808      70705374 
 3808      61727441 
 3808      64766572 
 3809              	.LASF196:
 3810 0c65 6379426C 		.ascii	"cyBle_StackFlashptr\000"
 3810      655F5374 
 3810      61636B46 
 3810      6C617368 
 3810      70747200 
 3811              	.LASF119:
 3812 0c79 64697265 		.ascii	"directAddrType\000"
 3812      63744164 
 3812      64725479 
 3812      706500
 3813              	.LASF84:
 3814 0c88 4359424C 		.ascii	"CYBLE_ERROR_TX_POWER_READ\000"
 3814      455F4552 
 3814      524F525F 
 3814      54585F50 
 3814      4F574552 
 3815              	.LASF171:
 3816 0ca2 63616C6C 		.ascii	"callbackFunc\000"
 3816      6261636B 
 3816      46756E63 
 3816      00
 3817              	.LASF150:
 3818 0caf 61747456 		.ascii	"attValue\000"
 3818      616C7565 
 3818      00
 3819              	.LASF1:
 3820 0cb8 756E7369 		.ascii	"unsigned char\000"
 3820      676E6564 
ARM GAS  C:\Users\ADMINI~1.SC-\AppData\Local\Temp\ccGAQuWL.s 			page 99


 3820      20636861 
 3820      7200
 3821              	.LASF10:
 3822 0cc6 75696E74 		.ascii	"uint16\000"
 3822      313600
 3823              	.LASF202:
 3824 0ccd 6379426C 		.ascii	"cyBle_peerBonding\000"
 3824      655F7065 
 3824      6572426F 
 3824      6E64696E 
 3824      6700
 3825              	.LASF100:
 3826 0cdf 4359424C 		.ascii	"CYBLE_ERROR_CHAR_IS_NOT_DISCOVERED\000"
 3826      455F4552 
 3826      524F525F 
 3826      43484152 
 3826      5F49535F 
 3827              	.LASF2:
 3828 0d02 73686F72 		.ascii	"short int\000"
 3828      7420696E 
 3828      7400
 3829              	.LASF55:
 3830 0d0c 4359424C 		.ascii	"CYBLE_EVT_GATTC_HANDLE_VALUE_IND\000"
 3830      455F4556 
 3830      545F4741 
 3830      5454435F 
 3830      48414E44 
 3831              	.LASF187:
 3832 0d2d 4379426C 		.ascii	"CyBle_ChangeAdDeviceAddress\000"
 3832      655F4368 
 3832      616E6765 
 3832      41644465 
 3832      76696365 
 3833              	.LASF72:
 3834 0d49 4359424C 		.ascii	"CYBLE_EVT_LE_PING_AUTH_TIMEOUT\000"
 3834      455F4556 
 3834      545F4C45 
 3834      5F50494E 
 3834      475F4155 
 3835              	.LASF179:
 3836 0d68 666C6167 		.ascii	"flag\000"
 3836      00
 3837              	.LASF80:
 3838 0d6d 4359424C 		.ascii	"CYBLE_ERROR_NO_CONNECTION\000"
 3838      455F4552 
 3838      524F525F 
 3838      4E4F5F43 
 3838      4F4E4E45 
 3839              	.LASF51:
 3840 0d87 4359424C 		.ascii	"CYBLE_EVT_GATTS_PREP_WRITE_REQ\000"
 3840      455F4556 
 3840      545F4741 
 3840      5454535F 
 3840      50524550 
 3841              	.LASF115:
 3842 0da6 61647649 		.ascii	"advIntvMin\000"
 3842      6E74764D 
ARM GAS  C:\Users\ADMINI~1.SC-\AppData\Local\Temp\ccGAQuWL.s 			page 100


 3842      696E00
 3843              	.LASF113:
 3844 0db1 4359424C 		.ascii	"CYBLE_GAPP_CONNECTABLE_LOW_DC_DIRECTED_ADV\000"
 3844      455F4741 
 3844      50505F43 
 3844      4F4E4E45 
 3844      43544142 
 3845              	.LASF124:
 3846 0ddc 61647644 		.ascii	"advData\000"
 3846      61746100 
 3847              	.LASF190:
 3848 0de4 4379426C 		.ascii	"CyBle_ApplCallback\000"
 3848      655F4170 
 3848      706C4361 
 3848      6C6C6261 
 3848      636B00
 3849              	.LASF213:
 3850 0df7 4379426C 		.ascii	"CyBle_ChangeAdLocalName\000"
 3850      655F4368 
 3850      616E6765 
 3850      41644C6F 
 3850      63616C4E 
 3851              	.LASF56:
 3852 0e0f 4359424C 		.ascii	"CYBLE_EVT_GATTS_HANDLE_VALUE_CNF\000"
 3852      455F4556 
 3852      545F4741 
 3852      5454535F 
 3852      48414E44 
 3853              	.LASF82:
 3854 0e30 4359424C 		.ascii	"CYBLE_ERROR_REPEATED_ATTEMPTS\000"
 3854      455F4552 
 3854      524F525F 
 3854      52455045 
 3854      41544544 
 3855              	.LASF167:
 3856 0e4e 6379426C 		.ascii	"cyBle_stackDataBuff\000"
 3856      655F7374 
 3856      61636B44 
 3856      61746142 
 3856      75666600 
 3857              	.LASF203:
 3858 0e62 6379426C 		.ascii	"cyBle_gattDB\000"
 3858      655F6761 
 3858      74744442 
 3858      00
 3859              	.LASF15:
 3860 0e6f 63686172 		.ascii	"char\000"
 3860      00
 3861              	.LASF85:
 3862 0e74 4359424C 		.ascii	"CYBLE_ERROR_BT_ON_NOT_COMPLETED\000"
 3862      455F4552 
 3862      524F525F 
 3862      42545F4F 
 3862      4E5F4E4F 
 3863              	.LASF180:
 3864 0e94 61644C65 		.ascii	"adLength\000"
 3864      6E677468 
ARM GAS  C:\Users\ADMINI~1.SC-\AppData\Local\Temp\ccGAQuWL.s 			page 101


 3864      00
 3865              	.LASF31:
 3866 0e9d 4359424C 		.ascii	"CYBLE_EVT_GAP_DEVICE_DISCONNECTED\000"
 3866      455F4556 
 3866      545F4741 
 3866      505F4445 
 3866      56494345 
 3867              	.LASF174:
 3868 0ebf 61647665 		.ascii	"advertisingIntervalType\000"
 3868      72746973 
 3868      696E6749 
 3868      6E746572 
 3868      76616C54 
 3869              	.LASF8:
 3870 0ed7 756E7369 		.ascii	"unsigned int\000"
 3870      676E6564 
 3870      20696E74 
 3870      00
 3871              	.LASF149:
 3872 0ee4 61747445 		.ascii	"attEndHandle\000"
 3872      6E644861 
 3872      6E646C65 
 3872      00
 3873              	.LASF59:
 3874 0ef1 4359424C 		.ascii	"CYBLE_EVT_GATTS_READ_CHAR_VAL_ACCESS_REQ\000"
 3874      455F4556 
 3874      545F4741 
 3874      5454535F 
 3874      52454144 
 3875              	.LASF106:
 3876 0f1a 62756666 		.ascii	"bufferSize\000"
 3876      65725369 
 3876      7A6500
 3877              	.LASF123:
 3878 0f25 4359424C 		.ascii	"CYBLE_GAPP_DISC_PARAM_T\000"
 3878      455F4741 
 3878      50505F44 
 3878      4953435F 
 3878      50415241 
 3879              	.LASF14:
 3880 0f3d 63686172 		.ascii	"char8\000"
 3880      3800
 3881              	.LASF95:
 3882 0f43 4359424C 		.ascii	"CYBLE_ERROR_FLASH_WRITE_NOT_PERMITED\000"
 3882      455F4552 
 3882      524F525F 
 3882      464C4153 
 3882      485F5752 
 3883              	.LASF90:
 3884 0f68 4359424C 		.ascii	"CYBLE_ERROR_L2CAP_CONNECTION_ENTITY_NOT_FOUND\000"
 3884      455F4552 
 3884      524F525F 
 3884      4C324341 
 3884      505F434F 
 3885              	.LASF20:
 3886 0f96 4359424C 		.ascii	"CYBLE_EVT_HARDWARE_ERROR\000"
 3886      455F4556 
ARM GAS  C:\Users\ADMINI~1.SC-\AppData\Local\Temp\ccGAQuWL.s 			page 102


 3886      545F4841 
 3886      52445741 
 3886      52455F45 
 3887              	.LASF3:
 3888 0faf 73686F72 		.ascii	"short unsigned int\000"
 3888      7420756E 
 3888      7369676E 
 3888      65642069 
 3888      6E7400
 3889              	.LASF151:
 3890 0fc2 4359424C 		.ascii	"CYBLE_GATTS_DB_T\000"
 3890      455F4741 
 3890      5454535F 
 3890      44425F54 
 3890      00
 3891              	.LASF76:
 3892 0fd3 4359424C 		.ascii	"CYBLE_ERROR_INVALID_OPERATION\000"
 3892      455F4552 
 3892      524F525F 
 3892      494E5641 
 3892      4C49445F 
 3893              	.LASF170:
 3894 0ff1 4379426C 		.ascii	"CyBle_StoreBondingData\000"
 3894      655F5374 
 3894      6F726542 
 3894      6F6E6469 
 3894      6E674461 
 3895              	.LASF152:
 3896 1008 4359424C 		.ascii	"CYBLE_CALLBACK_T\000"
 3896      455F4341 
 3896      4C4C4241 
 3896      434B5F54 
 3896      00
 3897              	.LASF139:
 3898 1019 4359424C 		.ascii	"CYBLE_GATTS_ATT_GEN_VAL_LEN_T\000"
 3898      455F4741 
 3898      5454535F 
 3898      4154545F 
 3898      47454E5F 
 3899              	.LASF181:
 3900 1037 62797465 		.ascii	"byteCounter\000"
 3900      436F756E 
 3900      74657200 
 3901              	.LASF133:
 3902 1043 4359424C 		.ascii	"CYBLE_GAPP_DISC_MODE_INFO_T\000"
 3902      455F4741 
 3902      50505F44 
 3902      4953435F 
 3902      4D4F4445 
 3903              	.LASF131:
 3904 105f 61647650 		.ascii	"advParam\000"
 3904      6172616D 
 3904      00
 3905              	.LASF114:
 3906 1068 4359424C 		.ascii	"CYBLE_GAPP_ADV_T\000"
 3906      455F4741 
 3906      50505F41 
ARM GAS  C:\Users\ADMINI~1.SC-\AppData\Local\Temp\ccGAQuWL.s 			page 103


 3906      44565F54 
 3906      00
 3907              	.LASF157:
 3908 1079 43595F42 		.ascii	"CY_BLE_FLASH_STORAGE\000"
 3908      4C455F46 
 3908      4C415348 
 3908      5F53544F 
 3908      52414745 
 3909              	.LASF163:
 3910 108e 4359424C 		.ascii	"CYBLE_STATE_T\000"
 3910      455F5354 
 3910      4154455F 
 3910      5400
 3911              	.LASF112:
 3912 109c 4359424C 		.ascii	"CYBLE_GAPP_NON_CONNECTABLE_UNDIRECTED_ADV\000"
 3912      455F4741 
 3912      50505F4E 
 3912      4F4E5F43 
 3912      4F4E4E45 
 3913              	.LASF46:
 3914 10c6 4359424C 		.ascii	"CYBLE_EVT_GATTC_READ_BLOB_RSP\000"
 3914      455F4556 
 3914      545F4741 
 3914      5454435F 
 3914      52454144 
 3915              	.LASF141:
 3916 10e4 61747447 		.ascii	"attGenericValLen\000"
 3916      656E6572 
 3916      69635661 
 3916      6C4C656E 
 3916      00
 3917              	.LASF182:
 3918 10f5 6D61784C 		.ascii	"maxLength\000"
 3918      656E6774 
 3918      6800
 3919              	.LASF194:
 3920 10ff 6379426C 		.ascii	"cyBle_deviceAddress\000"
 3920      655F6465 
 3920      76696365 
 3920      41646472 
 3920      65737300 
 3921              	.LASF199:
 3922 1113 6379426C 		.ascii	"cyBle_scanRspData\000"
 3922      655F7363 
 3922      616E5273 
 3922      70446174 
 3922      6100
 3923              	.LASF96:
 3924 1125 4359424C 		.ascii	"CYBLE_ERROR_MIC_AUTH_FAILED\000"
 3924      455F4552 
 3924      524F525F 
 3924      4D49435F 
 3924      41555448 
 3925              	.LASF89:
 3926 1141 4359424C 		.ascii	"CYBLE_ERROR_L2CAP_PSM_NOT_REGISTERED\000"
 3926      455F4552 
 3926      524F525F 
ARM GAS  C:\Users\ADMINI~1.SC-\AppData\Local\Temp\ccGAQuWL.s 			page 104


 3926      4C324341 
 3926      505F5053 
 3927              	.LASF195:
 3928 1166 6379426C 		.ascii	"cyBle_sflashDeviceAddress\000"
 3928      655F7366 
 3928      6C617368 
 3928      44657669 
 3928      63654164 
 3929              	.LASF160:
 3930 1180 4359424C 		.ascii	"CYBLE_STATE_CONNECTED\000"
 3930      455F5354 
 3930      4154455F 
 3930      434F4E4E 
 3930      45435445 
 3931              	.LASF210:
 3932 1196 474E5520 		.ascii	"GNU C 4.9.3 20150303 (release) [ARM/embedded-4_9-br"
 3932      4320342E 
 3932      392E3320 
 3932      32303135 
 3932      30333033 
 3933 11c9 616E6368 		.ascii	"anch revision 221220] -mcpu=cortex-m0 -mthumb -g -O"
 3933      20726576 
 3933      6973696F 
 3933      6E203232 
 3933      31323230 
 3934 11fc 30202D66 		.ascii	"0 -ffunction-sections -ffat-lto-objects\000"
 3934      66756E63 
 3934      74696F6E 
 3934      2D736563 
 3934      74696F6E 
 3935              	.LASF44:
 3936 1224 4359424C 		.ascii	"CYBLE_EVT_GATTC_FIND_BY_TYPE_VALUE_RSP\000"
 3936      455F4556 
 3936      545F4741 
 3936      5454435F 
 3936      46494E44 
 3937              	.LASF83:
 3938 124b 4359424C 		.ascii	"CYBLE_ERROR_GAP_ROLE\000"
 3938      455F4552 
 3938      524F525F 
 3938      4741505F 
 3938      524F4C45 
 3939              	.LASF35:
 3940 1260 4359424C 		.ascii	"CYBLE_EVT_GAP_KEYINFO_EXCHNGE_CMPLT\000"
 3940      455F4556 
 3940      545F4741 
 3940      505F4B45 
 3940      59494E46 
 3941              	.LASF134:
 3942 1284 62644861 		.ascii	"bdHandle\000"
 3942      6E646C65 
 3942      00
 3943              	.LASF71:
 3944 128d 4359424C 		.ascii	"CYBLE_EVT_PENDING_FLASH_WRITE\000"
 3944      455F4556 
 3944      545F5045 
 3944      4E44494E 
ARM GAS  C:\Users\ADMINI~1.SC-\AppData\Local\Temp\ccGAQuWL.s 			page 105


 3944      475F464C 
 3945              	.LASF164:
 3946 12ab 4379426C 		.ascii	"CyBle_Init\000"
 3946      655F496E 
 3946      697400
 3947              	.LASF61:
 3948 12b6 4359424C 		.ascii	"CYBLE_EVT_L2CAP_CONN_PARAM_UPDATE_RSP\000"
 3948      455F4556 
 3948      545F4C32 
 3948      4341505F 
 3948      434F4E4E 
 3949              	.LASF211:
 3950 12dc 47656E65 		.ascii	"Generated_Source\\PSoC4\\BLE.c\000"
 3950      72617465 
 3950      645F536F 
 3950      75726365 
 3950      5C50536F 
 3951              	.LASF132:
 3952 12f9 61647654 		.ascii	"advTo\000"
 3952      6F00
 3953              	.LASF38:
 3954 12ff 4359424C 		.ascii	"CYBLE_EVT_GATT_DISCONNECT_IND\000"
 3954      455F4556 
 3954      545F4741 
 3954      54545F44 
 3954      4953434F 
 3955              	.LASF93:
 3956 131d 4359424C 		.ascii	"CYBLE_ERROR_GATT_DB_INVALID_ATTR_HANDLE\000"
 3956      455F4552 
 3956      524F525F 
 3956      47415454 
 3956      5F44425F 
 3957              		.ident	"GCC: (GNU Tools for ARM Embedded Processors) 4.9.3 20150303 (release) [ARM/embedded-4_9-br
