ARM GAS  C:\Users\ADMINI~1\AppData\Local\Temp\ccv1PMEE.s 			page 1


   1              		.cpu cortex-m0
   2              		.fpu softvfp
   3              		.eabi_attribute 20, 1
   4              		.eabi_attribute 21, 1
   5              		.eabi_attribute 23, 3
   6              		.eabi_attribute 24, 1
   7              		.eabi_attribute 25, 1
   8              		.eabi_attribute 26, 1
   9              		.eabi_attribute 30, 6
  10              		.eabi_attribute 34, 0
  11              		.eabi_attribute 18, 4
  12              		.code	16
  13              		.file	"des.c"
  14              		.text
  15              	.Ltext0:
  16              		.cfi_sections	.debug_frame
  17              		.comm	RootKey,8,4
  18              		.global	IP_Table
  19              		.section	.rodata
  20              		.align	2
  21              		.type	IP_Table, %object
  22              		.size	IP_Table, 64
  23              	IP_Table:
  24 0000 39       		.byte	57
  25 0001 31       		.byte	49
  26 0002 29       		.byte	41
  27 0003 21       		.byte	33
  28 0004 19       		.byte	25
  29 0005 11       		.byte	17
  30 0006 09       		.byte	9
  31 0007 01       		.byte	1
  32 0008 3B       		.byte	59
  33 0009 33       		.byte	51
  34 000a 2B       		.byte	43
  35 000b 23       		.byte	35
  36 000c 1B       		.byte	27
  37 000d 13       		.byte	19
  38 000e 0B       		.byte	11
  39 000f 03       		.byte	3
  40 0010 3D       		.byte	61
  41 0011 35       		.byte	53
  42 0012 2D       		.byte	45
  43 0013 25       		.byte	37
  44 0014 1D       		.byte	29
  45 0015 15       		.byte	21
  46 0016 0D       		.byte	13
  47 0017 05       		.byte	5
  48 0018 3F       		.byte	63
  49 0019 37       		.byte	55
  50 001a 2F       		.byte	47
  51 001b 27       		.byte	39
  52 001c 1F       		.byte	31
  53 001d 17       		.byte	23
  54 001e 0F       		.byte	15
  55 001f 07       		.byte	7
  56 0020 38       		.byte	56
  57 0021 30       		.byte	48
ARM GAS  C:\Users\ADMINI~1\AppData\Local\Temp\ccv1PMEE.s 			page 2


  58 0022 28       		.byte	40
  59 0023 20       		.byte	32
  60 0024 18       		.byte	24
  61 0025 10       		.byte	16
  62 0026 08       		.byte	8
  63 0027 00       		.byte	0
  64 0028 3A       		.byte	58
  65 0029 32       		.byte	50
  66 002a 2A       		.byte	42
  67 002b 22       		.byte	34
  68 002c 1A       		.byte	26
  69 002d 12       		.byte	18
  70 002e 0A       		.byte	10
  71 002f 02       		.byte	2
  72 0030 3C       		.byte	60
  73 0031 34       		.byte	52
  74 0032 2C       		.byte	44
  75 0033 24       		.byte	36
  76 0034 1C       		.byte	28
  77 0035 14       		.byte	20
  78 0036 0C       		.byte	12
  79 0037 04       		.byte	4
  80 0038 3E       		.byte	62
  81 0039 36       		.byte	54
  82 003a 2E       		.byte	46
  83 003b 26       		.byte	38
  84 003c 1E       		.byte	30
  85 003d 16       		.byte	22
  86 003e 0E       		.byte	14
  87 003f 06       		.byte	6
  88              		.global	IP_1_Table
  89              		.align	2
  90              		.type	IP_1_Table, %object
  91              		.size	IP_1_Table, 64
  92              	IP_1_Table:
  93 0040 27       		.byte	39
  94 0041 07       		.byte	7
  95 0042 2F       		.byte	47
  96 0043 0F       		.byte	15
  97 0044 37       		.byte	55
  98 0045 17       		.byte	23
  99 0046 3F       		.byte	63
 100 0047 1F       		.byte	31
 101 0048 26       		.byte	38
 102 0049 06       		.byte	6
 103 004a 2E       		.byte	46
 104 004b 0E       		.byte	14
 105 004c 36       		.byte	54
 106 004d 16       		.byte	22
 107 004e 3E       		.byte	62
 108 004f 1E       		.byte	30
 109 0050 25       		.byte	37
 110 0051 05       		.byte	5
 111 0052 2D       		.byte	45
 112 0053 0D       		.byte	13
 113 0054 35       		.byte	53
 114 0055 15       		.byte	21
ARM GAS  C:\Users\ADMINI~1\AppData\Local\Temp\ccv1PMEE.s 			page 3


 115 0056 3D       		.byte	61
 116 0057 1D       		.byte	29
 117 0058 24       		.byte	36
 118 0059 04       		.byte	4
 119 005a 2C       		.byte	44
 120 005b 0C       		.byte	12
 121 005c 34       		.byte	52
 122 005d 14       		.byte	20
 123 005e 3C       		.byte	60
 124 005f 1C       		.byte	28
 125 0060 23       		.byte	35
 126 0061 03       		.byte	3
 127 0062 2B       		.byte	43
 128 0063 0B       		.byte	11
 129 0064 33       		.byte	51
 130 0065 13       		.byte	19
 131 0066 3B       		.byte	59
 132 0067 1B       		.byte	27
 133 0068 22       		.byte	34
 134 0069 02       		.byte	2
 135 006a 2A       		.byte	42
 136 006b 0A       		.byte	10
 137 006c 32       		.byte	50
 138 006d 12       		.byte	18
 139 006e 3A       		.byte	58
 140 006f 1A       		.byte	26
 141 0070 21       		.byte	33
 142 0071 01       		.byte	1
 143 0072 29       		.byte	41
 144 0073 09       		.byte	9
 145 0074 31       		.byte	49
 146 0075 11       		.byte	17
 147 0076 39       		.byte	57
 148 0077 19       		.byte	25
 149 0078 20       		.byte	32
 150 0079 00       		.byte	0
 151 007a 28       		.byte	40
 152 007b 08       		.byte	8
 153 007c 30       		.byte	48
 154 007d 10       		.byte	16
 155 007e 38       		.byte	56
 156 007f 18       		.byte	24
 157              		.global	E_Table
 158              		.align	2
 159              		.type	E_Table, %object
 160              		.size	E_Table, 48
 161              	E_Table:
 162 0080 1F       		.byte	31
 163 0081 00       		.byte	0
 164 0082 01       		.byte	1
 165 0083 02       		.byte	2
 166 0084 03       		.byte	3
 167 0085 04       		.byte	4
 168 0086 03       		.byte	3
 169 0087 04       		.byte	4
 170 0088 05       		.byte	5
 171 0089 06       		.byte	6
ARM GAS  C:\Users\ADMINI~1\AppData\Local\Temp\ccv1PMEE.s 			page 4


 172 008a 07       		.byte	7
 173 008b 08       		.byte	8
 174 008c 07       		.byte	7
 175 008d 08       		.byte	8
 176 008e 09       		.byte	9
 177 008f 0A       		.byte	10
 178 0090 0B       		.byte	11
 179 0091 0C       		.byte	12
 180 0092 0B       		.byte	11
 181 0093 0C       		.byte	12
 182 0094 0D       		.byte	13
 183 0095 0E       		.byte	14
 184 0096 0F       		.byte	15
 185 0097 10       		.byte	16
 186 0098 0F       		.byte	15
 187 0099 10       		.byte	16
 188 009a 11       		.byte	17
 189 009b 12       		.byte	18
 190 009c 13       		.byte	19
 191 009d 14       		.byte	20
 192 009e 13       		.byte	19
 193 009f 14       		.byte	20
 194 00a0 15       		.byte	21
 195 00a1 16       		.byte	22
 196 00a2 17       		.byte	23
 197 00a3 18       		.byte	24
 198 00a4 17       		.byte	23
 199 00a5 18       		.byte	24
 200 00a6 19       		.byte	25
 201 00a7 1A       		.byte	26
 202 00a8 1B       		.byte	27
 203 00a9 1C       		.byte	28
 204 00aa 1B       		.byte	27
 205 00ab 1C       		.byte	28
 206 00ac 1D       		.byte	29
 207 00ad 1E       		.byte	30
 208 00ae 1F       		.byte	31
 209 00af 00       		.byte	0
 210              		.global	P_Table
 211              		.align	2
 212              		.type	P_Table, %object
 213              		.size	P_Table, 32
 214              	P_Table:
 215 00b0 0F       		.byte	15
 216 00b1 06       		.byte	6
 217 00b2 13       		.byte	19
 218 00b3 14       		.byte	20
 219 00b4 1C       		.byte	28
 220 00b5 0B       		.byte	11
 221 00b6 1B       		.byte	27
 222 00b7 10       		.byte	16
 223 00b8 00       		.byte	0
 224 00b9 0E       		.byte	14
 225 00ba 16       		.byte	22
 226 00bb 19       		.byte	25
 227 00bc 04       		.byte	4
 228 00bd 11       		.byte	17
ARM GAS  C:\Users\ADMINI~1\AppData\Local\Temp\ccv1PMEE.s 			page 5


 229 00be 1E       		.byte	30
 230 00bf 09       		.byte	9
 231 00c0 01       		.byte	1
 232 00c1 07       		.byte	7
 233 00c2 17       		.byte	23
 234 00c3 0D       		.byte	13
 235 00c4 1F       		.byte	31
 236 00c5 1A       		.byte	26
 237 00c6 02       		.byte	2
 238 00c7 08       		.byte	8
 239 00c8 12       		.byte	18
 240 00c9 0C       		.byte	12
 241 00ca 1D       		.byte	29
 242 00cb 05       		.byte	5
 243 00cc 15       		.byte	21
 244 00cd 0A       		.byte	10
 245 00ce 03       		.byte	3
 246 00cf 18       		.byte	24
 247              		.global	S
 248              		.align	2
 249              		.type	S, %object
 250              		.size	S, 512
 251              	S:
 252 00d0 0E       		.byte	14
 253 00d1 04       		.byte	4
 254 00d2 0D       		.byte	13
 255 00d3 01       		.byte	1
 256 00d4 02       		.byte	2
 257 00d5 0F       		.byte	15
 258 00d6 0B       		.byte	11
 259 00d7 08       		.byte	8
 260 00d8 03       		.byte	3
 261 00d9 0A       		.byte	10
 262 00da 06       		.byte	6
 263 00db 0C       		.byte	12
 264 00dc 05       		.byte	5
 265 00dd 09       		.byte	9
 266 00de 00       		.byte	0
 267 00df 07       		.byte	7
 268 00e0 00       		.byte	0
 269 00e1 0F       		.byte	15
 270 00e2 07       		.byte	7
 271 00e3 04       		.byte	4
 272 00e4 0E       		.byte	14
 273 00e5 02       		.byte	2
 274 00e6 0D       		.byte	13
 275 00e7 01       		.byte	1
 276 00e8 0A       		.byte	10
 277 00e9 06       		.byte	6
 278 00ea 0C       		.byte	12
 279 00eb 0B       		.byte	11
 280 00ec 09       		.byte	9
 281 00ed 05       		.byte	5
 282 00ee 03       		.byte	3
 283 00ef 08       		.byte	8
 284 00f0 04       		.byte	4
 285 00f1 01       		.byte	1
ARM GAS  C:\Users\ADMINI~1\AppData\Local\Temp\ccv1PMEE.s 			page 6


 286 00f2 0E       		.byte	14
 287 00f3 08       		.byte	8
 288 00f4 0D       		.byte	13
 289 00f5 06       		.byte	6
 290 00f6 02       		.byte	2
 291 00f7 0B       		.byte	11
 292 00f8 0F       		.byte	15
 293 00f9 0C       		.byte	12
 294 00fa 09       		.byte	9
 295 00fb 07       		.byte	7
 296 00fc 03       		.byte	3
 297 00fd 0A       		.byte	10
 298 00fe 05       		.byte	5
 299 00ff 00       		.byte	0
 300 0100 0F       		.byte	15
 301 0101 0C       		.byte	12
 302 0102 08       		.byte	8
 303 0103 02       		.byte	2
 304 0104 04       		.byte	4
 305 0105 09       		.byte	9
 306 0106 01       		.byte	1
 307 0107 07       		.byte	7
 308 0108 05       		.byte	5
 309 0109 0B       		.byte	11
 310 010a 03       		.byte	3
 311 010b 0E       		.byte	14
 312 010c 0A       		.byte	10
 313 010d 00       		.byte	0
 314 010e 06       		.byte	6
 315 010f 0D       		.byte	13
 316 0110 0F       		.byte	15
 317 0111 01       		.byte	1
 318 0112 08       		.byte	8
 319 0113 0E       		.byte	14
 320 0114 06       		.byte	6
 321 0115 0B       		.byte	11
 322 0116 03       		.byte	3
 323 0117 04       		.byte	4
 324 0118 09       		.byte	9
 325 0119 07       		.byte	7
 326 011a 02       		.byte	2
 327 011b 0D       		.byte	13
 328 011c 0C       		.byte	12
 329 011d 00       		.byte	0
 330 011e 05       		.byte	5
 331 011f 0A       		.byte	10
 332 0120 03       		.byte	3
 333 0121 0D       		.byte	13
 334 0122 04       		.byte	4
 335 0123 07       		.byte	7
 336 0124 0F       		.byte	15
 337 0125 02       		.byte	2
 338 0126 08       		.byte	8
 339 0127 0E       		.byte	14
 340 0128 0C       		.byte	12
 341 0129 00       		.byte	0
 342 012a 01       		.byte	1
ARM GAS  C:\Users\ADMINI~1\AppData\Local\Temp\ccv1PMEE.s 			page 7


 343 012b 0A       		.byte	10
 344 012c 06       		.byte	6
 345 012d 09       		.byte	9
 346 012e 0B       		.byte	11
 347 012f 05       		.byte	5
 348 0130 00       		.byte	0
 349 0131 0E       		.byte	14
 350 0132 07       		.byte	7
 351 0133 0B       		.byte	11
 352 0134 0A       		.byte	10
 353 0135 04       		.byte	4
 354 0136 0D       		.byte	13
 355 0137 01       		.byte	1
 356 0138 05       		.byte	5
 357 0139 08       		.byte	8
 358 013a 0C       		.byte	12
 359 013b 06       		.byte	6
 360 013c 09       		.byte	9
 361 013d 03       		.byte	3
 362 013e 02       		.byte	2
 363 013f 0F       		.byte	15
 364 0140 0D       		.byte	13
 365 0141 08       		.byte	8
 366 0142 0A       		.byte	10
 367 0143 01       		.byte	1
 368 0144 03       		.byte	3
 369 0145 0F       		.byte	15
 370 0146 04       		.byte	4
 371 0147 02       		.byte	2
 372 0148 0B       		.byte	11
 373 0149 06       		.byte	6
 374 014a 07       		.byte	7
 375 014b 0C       		.byte	12
 376 014c 00       		.byte	0
 377 014d 05       		.byte	5
 378 014e 0E       		.byte	14
 379 014f 09       		.byte	9
 380 0150 0A       		.byte	10
 381 0151 00       		.byte	0
 382 0152 09       		.byte	9
 383 0153 0E       		.byte	14
 384 0154 06       		.byte	6
 385 0155 03       		.byte	3
 386 0156 0F       		.byte	15
 387 0157 05       		.byte	5
 388 0158 01       		.byte	1
 389 0159 0D       		.byte	13
 390 015a 0C       		.byte	12
 391 015b 07       		.byte	7
 392 015c 0B       		.byte	11
 393 015d 04       		.byte	4
 394 015e 02       		.byte	2
 395 015f 08       		.byte	8
 396 0160 0D       		.byte	13
 397 0161 07       		.byte	7
 398 0162 00       		.byte	0
 399 0163 09       		.byte	9
ARM GAS  C:\Users\ADMINI~1\AppData\Local\Temp\ccv1PMEE.s 			page 8


 400 0164 03       		.byte	3
 401 0165 04       		.byte	4
 402 0166 06       		.byte	6
 403 0167 0A       		.byte	10
 404 0168 02       		.byte	2
 405 0169 08       		.byte	8
 406 016a 05       		.byte	5
 407 016b 0E       		.byte	14
 408 016c 0C       		.byte	12
 409 016d 0B       		.byte	11
 410 016e 0F       		.byte	15
 411 016f 01       		.byte	1
 412 0170 0D       		.byte	13
 413 0171 06       		.byte	6
 414 0172 04       		.byte	4
 415 0173 09       		.byte	9
 416 0174 08       		.byte	8
 417 0175 0F       		.byte	15
 418 0176 03       		.byte	3
 419 0177 00       		.byte	0
 420 0178 0B       		.byte	11
 421 0179 01       		.byte	1
 422 017a 02       		.byte	2
 423 017b 0C       		.byte	12
 424 017c 05       		.byte	5
 425 017d 0A       		.byte	10
 426 017e 0E       		.byte	14
 427 017f 07       		.byte	7
 428 0180 01       		.byte	1
 429 0181 0A       		.byte	10
 430 0182 0D       		.byte	13
 431 0183 00       		.byte	0
 432 0184 06       		.byte	6
 433 0185 09       		.byte	9
 434 0186 08       		.byte	8
 435 0187 07       		.byte	7
 436 0188 04       		.byte	4
 437 0189 0F       		.byte	15
 438 018a 0E       		.byte	14
 439 018b 03       		.byte	3
 440 018c 0B       		.byte	11
 441 018d 05       		.byte	5
 442 018e 02       		.byte	2
 443 018f 0C       		.byte	12
 444 0190 07       		.byte	7
 445 0191 0D       		.byte	13
 446 0192 0E       		.byte	14
 447 0193 03       		.byte	3
 448 0194 00       		.byte	0
 449 0195 06       		.byte	6
 450 0196 09       		.byte	9
 451 0197 0A       		.byte	10
 452 0198 01       		.byte	1
 453 0199 02       		.byte	2
 454 019a 08       		.byte	8
 455 019b 05       		.byte	5
 456 019c 0B       		.byte	11
ARM GAS  C:\Users\ADMINI~1\AppData\Local\Temp\ccv1PMEE.s 			page 9


 457 019d 0C       		.byte	12
 458 019e 04       		.byte	4
 459 019f 0F       		.byte	15
 460 01a0 0D       		.byte	13
 461 01a1 08       		.byte	8
 462 01a2 0B       		.byte	11
 463 01a3 05       		.byte	5
 464 01a4 06       		.byte	6
 465 01a5 0F       		.byte	15
 466 01a6 00       		.byte	0
 467 01a7 03       		.byte	3
 468 01a8 04       		.byte	4
 469 01a9 07       		.byte	7
 470 01aa 02       		.byte	2
 471 01ab 0C       		.byte	12
 472 01ac 01       		.byte	1
 473 01ad 0A       		.byte	10
 474 01ae 0E       		.byte	14
 475 01af 09       		.byte	9
 476 01b0 0A       		.byte	10
 477 01b1 06       		.byte	6
 478 01b2 09       		.byte	9
 479 01b3 00       		.byte	0
 480 01b4 0C       		.byte	12
 481 01b5 0B       		.byte	11
 482 01b6 07       		.byte	7
 483 01b7 0D       		.byte	13
 484 01b8 0F       		.byte	15
 485 01b9 01       		.byte	1
 486 01ba 03       		.byte	3
 487 01bb 0E       		.byte	14
 488 01bc 05       		.byte	5
 489 01bd 02       		.byte	2
 490 01be 08       		.byte	8
 491 01bf 04       		.byte	4
 492 01c0 03       		.byte	3
 493 01c1 0F       		.byte	15
 494 01c2 00       		.byte	0
 495 01c3 06       		.byte	6
 496 01c4 0A       		.byte	10
 497 01c5 01       		.byte	1
 498 01c6 0D       		.byte	13
 499 01c7 08       		.byte	8
 500 01c8 09       		.byte	9
 501 01c9 04       		.byte	4
 502 01ca 05       		.byte	5
 503 01cb 0B       		.byte	11
 504 01cc 0C       		.byte	12
 505 01cd 07       		.byte	7
 506 01ce 02       		.byte	2
 507 01cf 0E       		.byte	14
 508 01d0 02       		.byte	2
 509 01d1 0C       		.byte	12
 510 01d2 04       		.byte	4
 511 01d3 01       		.byte	1
 512 01d4 07       		.byte	7
 513 01d5 0A       		.byte	10
ARM GAS  C:\Users\ADMINI~1\AppData\Local\Temp\ccv1PMEE.s 			page 10


 514 01d6 0B       		.byte	11
 515 01d7 06       		.byte	6
 516 01d8 08       		.byte	8
 517 01d9 05       		.byte	5
 518 01da 03       		.byte	3
 519 01db 0F       		.byte	15
 520 01dc 0D       		.byte	13
 521 01dd 00       		.byte	0
 522 01de 0E       		.byte	14
 523 01df 09       		.byte	9
 524 01e0 0E       		.byte	14
 525 01e1 0B       		.byte	11
 526 01e2 02       		.byte	2
 527 01e3 0C       		.byte	12
 528 01e4 04       		.byte	4
 529 01e5 07       		.byte	7
 530 01e6 0D       		.byte	13
 531 01e7 01       		.byte	1
 532 01e8 05       		.byte	5
 533 01e9 00       		.byte	0
 534 01ea 0F       		.byte	15
 535 01eb 0A       		.byte	10
 536 01ec 03       		.byte	3
 537 01ed 09       		.byte	9
 538 01ee 08       		.byte	8
 539 01ef 06       		.byte	6
 540 01f0 04       		.byte	4
 541 01f1 02       		.byte	2
 542 01f2 01       		.byte	1
 543 01f3 0B       		.byte	11
 544 01f4 0A       		.byte	10
 545 01f5 0D       		.byte	13
 546 01f6 07       		.byte	7
 547 01f7 08       		.byte	8
 548 01f8 0F       		.byte	15
 549 01f9 09       		.byte	9
 550 01fa 0C       		.byte	12
 551 01fb 05       		.byte	5
 552 01fc 06       		.byte	6
 553 01fd 03       		.byte	3
 554 01fe 00       		.byte	0
 555 01ff 0E       		.byte	14
 556 0200 0B       		.byte	11
 557 0201 08       		.byte	8
 558 0202 0C       		.byte	12
 559 0203 07       		.byte	7
 560 0204 01       		.byte	1
 561 0205 0E       		.byte	14
 562 0206 02       		.byte	2
 563 0207 0D       		.byte	13
 564 0208 06       		.byte	6
 565 0209 0F       		.byte	15
 566 020a 00       		.byte	0
 567 020b 09       		.byte	9
 568 020c 0A       		.byte	10
 569 020d 04       		.byte	4
 570 020e 05       		.byte	5
ARM GAS  C:\Users\ADMINI~1\AppData\Local\Temp\ccv1PMEE.s 			page 11


 571 020f 03       		.byte	3
 572 0210 0C       		.byte	12
 573 0211 01       		.byte	1
 574 0212 0A       		.byte	10
 575 0213 0F       		.byte	15
 576 0214 09       		.byte	9
 577 0215 02       		.byte	2
 578 0216 06       		.byte	6
 579 0217 08       		.byte	8
 580 0218 00       		.byte	0
 581 0219 0D       		.byte	13
 582 021a 03       		.byte	3
 583 021b 04       		.byte	4
 584 021c 0E       		.byte	14
 585 021d 07       		.byte	7
 586 021e 05       		.byte	5
 587 021f 0B       		.byte	11
 588 0220 0A       		.byte	10
 589 0221 0F       		.byte	15
 590 0222 04       		.byte	4
 591 0223 02       		.byte	2
 592 0224 07       		.byte	7
 593 0225 0C       		.byte	12
 594 0226 09       		.byte	9
 595 0227 05       		.byte	5
 596 0228 06       		.byte	6
 597 0229 01       		.byte	1
 598 022a 0D       		.byte	13
 599 022b 0E       		.byte	14
 600 022c 00       		.byte	0
 601 022d 0B       		.byte	11
 602 022e 03       		.byte	3
 603 022f 08       		.byte	8
 604 0230 09       		.byte	9
 605 0231 0E       		.byte	14
 606 0232 0F       		.byte	15
 607 0233 05       		.byte	5
 608 0234 02       		.byte	2
 609 0235 08       		.byte	8
 610 0236 0C       		.byte	12
 611 0237 03       		.byte	3
 612 0238 07       		.byte	7
 613 0239 00       		.byte	0
 614 023a 04       		.byte	4
 615 023b 0A       		.byte	10
 616 023c 01       		.byte	1
 617 023d 0D       		.byte	13
 618 023e 0B       		.byte	11
 619 023f 06       		.byte	6
 620 0240 04       		.byte	4
 621 0241 03       		.byte	3
 622 0242 02       		.byte	2
 623 0243 0C       		.byte	12
 624 0244 09       		.byte	9
 625 0245 05       		.byte	5
 626 0246 0F       		.byte	15
 627 0247 0A       		.byte	10
ARM GAS  C:\Users\ADMINI~1\AppData\Local\Temp\ccv1PMEE.s 			page 12


 628 0248 0B       		.byte	11
 629 0249 0E       		.byte	14
 630 024a 01       		.byte	1
 631 024b 07       		.byte	7
 632 024c 06       		.byte	6
 633 024d 00       		.byte	0
 634 024e 08       		.byte	8
 635 024f 0D       		.byte	13
 636 0250 04       		.byte	4
 637 0251 0B       		.byte	11
 638 0252 02       		.byte	2
 639 0253 0E       		.byte	14
 640 0254 0F       		.byte	15
 641 0255 00       		.byte	0
 642 0256 08       		.byte	8
 643 0257 0D       		.byte	13
 644 0258 03       		.byte	3
 645 0259 0C       		.byte	12
 646 025a 09       		.byte	9
 647 025b 07       		.byte	7
 648 025c 05       		.byte	5
 649 025d 0A       		.byte	10
 650 025e 06       		.byte	6
 651 025f 01       		.byte	1
 652 0260 0D       		.byte	13
 653 0261 00       		.byte	0
 654 0262 0B       		.byte	11
 655 0263 07       		.byte	7
 656 0264 04       		.byte	4
 657 0265 09       		.byte	9
 658 0266 01       		.byte	1
 659 0267 0A       		.byte	10
 660 0268 0E       		.byte	14
 661 0269 03       		.byte	3
 662 026a 05       		.byte	5
 663 026b 0C       		.byte	12
 664 026c 02       		.byte	2
 665 026d 0F       		.byte	15
 666 026e 08       		.byte	8
 667 026f 06       		.byte	6
 668 0270 01       		.byte	1
 669 0271 04       		.byte	4
 670 0272 0B       		.byte	11
 671 0273 0D       		.byte	13
 672 0274 0C       		.byte	12
 673 0275 03       		.byte	3
 674 0276 07       		.byte	7
 675 0277 0E       		.byte	14
 676 0278 0A       		.byte	10
 677 0279 0F       		.byte	15
 678 027a 06       		.byte	6
 679 027b 08       		.byte	8
 680 027c 00       		.byte	0
 681 027d 05       		.byte	5
 682 027e 09       		.byte	9
 683 027f 02       		.byte	2
 684 0280 06       		.byte	6
ARM GAS  C:\Users\ADMINI~1\AppData\Local\Temp\ccv1PMEE.s 			page 13


 685 0281 0B       		.byte	11
 686 0282 0D       		.byte	13
 687 0283 08       		.byte	8
 688 0284 01       		.byte	1
 689 0285 04       		.byte	4
 690 0286 0A       		.byte	10
 691 0287 07       		.byte	7
 692 0288 09       		.byte	9
 693 0289 05       		.byte	5
 694 028a 00       		.byte	0
 695 028b 0F       		.byte	15
 696 028c 0E       		.byte	14
 697 028d 02       		.byte	2
 698 028e 03       		.byte	3
 699 028f 0C       		.byte	12
 700 0290 0D       		.byte	13
 701 0291 02       		.byte	2
 702 0292 08       		.byte	8
 703 0293 04       		.byte	4
 704 0294 06       		.byte	6
 705 0295 0F       		.byte	15
 706 0296 0B       		.byte	11
 707 0297 01       		.byte	1
 708 0298 0A       		.byte	10
 709 0299 09       		.byte	9
 710 029a 03       		.byte	3
 711 029b 0E       		.byte	14
 712 029c 05       		.byte	5
 713 029d 00       		.byte	0
 714 029e 0C       		.byte	12
 715 029f 07       		.byte	7
 716 02a0 01       		.byte	1
 717 02a1 0F       		.byte	15
 718 02a2 0D       		.byte	13
 719 02a3 08       		.byte	8
 720 02a4 0A       		.byte	10
 721 02a5 03       		.byte	3
 722 02a6 07       		.byte	7
 723 02a7 04       		.byte	4
 724 02a8 0C       		.byte	12
 725 02a9 05       		.byte	5
 726 02aa 06       		.byte	6
 727 02ab 0B       		.byte	11
 728 02ac 00       		.byte	0
 729 02ad 0E       		.byte	14
 730 02ae 09       		.byte	9
 731 02af 02       		.byte	2
 732 02b0 07       		.byte	7
 733 02b1 0B       		.byte	11
 734 02b2 04       		.byte	4
 735 02b3 01       		.byte	1
 736 02b4 09       		.byte	9
 737 02b5 0C       		.byte	12
 738 02b6 0E       		.byte	14
 739 02b7 02       		.byte	2
 740 02b8 00       		.byte	0
 741 02b9 06       		.byte	6
ARM GAS  C:\Users\ADMINI~1\AppData\Local\Temp\ccv1PMEE.s 			page 14


 742 02ba 0A       		.byte	10
 743 02bb 0D       		.byte	13
 744 02bc 0F       		.byte	15
 745 02bd 03       		.byte	3
 746 02be 05       		.byte	5
 747 02bf 08       		.byte	8
 748 02c0 02       		.byte	2
 749 02c1 01       		.byte	1
 750 02c2 0E       		.byte	14
 751 02c3 07       		.byte	7
 752 02c4 04       		.byte	4
 753 02c5 0A       		.byte	10
 754 02c6 08       		.byte	8
 755 02c7 0D       		.byte	13
 756 02c8 0F       		.byte	15
 757 02c9 0C       		.byte	12
 758 02ca 09       		.byte	9
 759 02cb 00       		.byte	0
 760 02cc 03       		.byte	3
 761 02cd 05       		.byte	5
 762 02ce 06       		.byte	6
 763 02cf 0B       		.byte	11
 764              		.global	PC_1
 765              		.align	2
 766              		.type	PC_1, %object
 767              		.size	PC_1, 56
 768              	PC_1:
 769 02d0 38       		.byte	56
 770 02d1 30       		.byte	48
 771 02d2 28       		.byte	40
 772 02d3 20       		.byte	32
 773 02d4 18       		.byte	24
 774 02d5 10       		.byte	16
 775 02d6 08       		.byte	8
 776 02d7 00       		.byte	0
 777 02d8 39       		.byte	57
 778 02d9 31       		.byte	49
 779 02da 29       		.byte	41
 780 02db 21       		.byte	33
 781 02dc 19       		.byte	25
 782 02dd 11       		.byte	17
 783 02de 09       		.byte	9
 784 02df 01       		.byte	1
 785 02e0 3A       		.byte	58
 786 02e1 32       		.byte	50
 787 02e2 2A       		.byte	42
 788 02e3 22       		.byte	34
 789 02e4 1A       		.byte	26
 790 02e5 12       		.byte	18
 791 02e6 0A       		.byte	10
 792 02e7 02       		.byte	2
 793 02e8 3B       		.byte	59
 794 02e9 33       		.byte	51
 795 02ea 2B       		.byte	43
 796 02eb 23       		.byte	35
 797 02ec 3E       		.byte	62
 798 02ed 36       		.byte	54
ARM GAS  C:\Users\ADMINI~1\AppData\Local\Temp\ccv1PMEE.s 			page 15


 799 02ee 2E       		.byte	46
 800 02ef 26       		.byte	38
 801 02f0 1E       		.byte	30
 802 02f1 16       		.byte	22
 803 02f2 0E       		.byte	14
 804 02f3 06       		.byte	6
 805 02f4 3D       		.byte	61
 806 02f5 35       		.byte	53
 807 02f6 2D       		.byte	45
 808 02f7 25       		.byte	37
 809 02f8 1D       		.byte	29
 810 02f9 15       		.byte	21
 811 02fa 0D       		.byte	13
 812 02fb 05       		.byte	5
 813 02fc 3C       		.byte	60
 814 02fd 34       		.byte	52
 815 02fe 2C       		.byte	44
 816 02ff 24       		.byte	36
 817 0300 1C       		.byte	28
 818 0301 14       		.byte	20
 819 0302 0C       		.byte	12
 820 0303 04       		.byte	4
 821 0304 1B       		.byte	27
 822 0305 13       		.byte	19
 823 0306 0B       		.byte	11
 824 0307 03       		.byte	3
 825              		.global	PC_2
 826              		.align	2
 827              		.type	PC_2, %object
 828              		.size	PC_2, 48
 829              	PC_2:
 830 0308 0D       		.byte	13
 831 0309 10       		.byte	16
 832 030a 0A       		.byte	10
 833 030b 17       		.byte	23
 834 030c 00       		.byte	0
 835 030d 04       		.byte	4
 836 030e 02       		.byte	2
 837 030f 1B       		.byte	27
 838 0310 0E       		.byte	14
 839 0311 05       		.byte	5
 840 0312 14       		.byte	20
 841 0313 09       		.byte	9
 842 0314 16       		.byte	22
 843 0315 12       		.byte	18
 844 0316 0B       		.byte	11
 845 0317 03       		.byte	3
 846 0318 19       		.byte	25
 847 0319 07       		.byte	7
 848 031a 0F       		.byte	15
 849 031b 06       		.byte	6
 850 031c 1A       		.byte	26
 851 031d 13       		.byte	19
 852 031e 0C       		.byte	12
 853 031f 01       		.byte	1
 854 0320 28       		.byte	40
 855 0321 33       		.byte	51
ARM GAS  C:\Users\ADMINI~1\AppData\Local\Temp\ccv1PMEE.s 			page 16


 856 0322 1E       		.byte	30
 857 0323 24       		.byte	36
 858 0324 2E       		.byte	46
 859 0325 36       		.byte	54
 860 0326 1D       		.byte	29
 861 0327 27       		.byte	39
 862 0328 32       		.byte	50
 863 0329 2C       		.byte	44
 864 032a 20       		.byte	32
 865 032b 2F       		.byte	47
 866 032c 2B       		.byte	43
 867 032d 30       		.byte	48
 868 032e 26       		.byte	38
 869 032f 37       		.byte	55
 870 0330 21       		.byte	33
 871 0331 34       		.byte	52
 872 0332 2D       		.byte	45
 873 0333 29       		.byte	41
 874 0334 31       		.byte	49
 875 0335 23       		.byte	35
 876 0336 1C       		.byte	28
 877 0337 1F       		.byte	31
 878              		.section	.text.change1,"ax",%progbits
 879              		.align	2
 880              		.global	change1
 881              		.code	16
 882              		.thumb_func
 883              		.type	change1, %function
 884              	change1:
 885              	.LFB37:
 886              		.file 1 ".\\des.c"
   1:.\des.c       **** #include "des.h"
   2:.\des.c       **** uint8 RootKey[8];
   3:.\des.c       **** /* 初始置换表IP */
   4:.\des.c       **** const uint8 IP_Table[64] = { 
   5:.\des.c       ****     57,49,41,33,25,17, 9,1,
   6:.\des.c       ****     59,51,43,35,27,19,11,3,
   7:.\des.c       ****     61,53,45,37,29,21,13,5,
   8:.\des.c       ****     63,55,47,39,31,23,15,7,
   9:.\des.c       ****     56,48,40,32,24,16, 8,0,
  10:.\des.c       ****     58,50,42,34,26,18,10,2,
  11:.\des.c       ****     60,52,44,36,28,20,12,4,
  12:.\des.c       ****     62,54,46,38,30,22,14,6
  13:.\des.c       **** };
  14:.\des.c       **** 
  15:.\des.c       **** /* 逆初始置换表IP */
  16:.\des.c       **** const uint8 IP_1_Table[64] = {
  17:.\des.c       ****     39,7,47,15,55,23,63,31,
  18:.\des.c       ****     38,6,46,14,54,22,62,30,
  19:.\des.c       ****     37,5,45,13,53,21,61,29,
  20:.\des.c       ****     36,4,44,12,52,20,60,28,
  21:.\des.c       ****     35,3,43,11,51,19,59,27,
  22:.\des.c       ****     34,2,42,10,50,18,58,26,
  23:.\des.c       ****     33,1,41, 9,49,17,57,25,
  24:.\des.c       ****     32,0,40, 8,48,16,56,24
  25:.\des.c       **** };
  26:.\des.c       **** 
ARM GAS  C:\Users\ADMINI~1\AppData\Local\Temp\ccv1PMEE.s 			page 17


  27:.\des.c       **** /* 扩充置换表E */
  28:.\des.c       **** const uint8 E_Table[48] = {
  29:.\des.c       ****     31, 0, 1, 2, 3, 4, 3, 4,
  30:.\des.c       ****     5, 6, 7, 8, 7, 8, 9,10,
  31:.\des.c       ****     11,12,11,12,13,14,15,16,
  32:.\des.c       ****     15,16,17,18,19,20,19,20,
  33:.\des.c       ****     21,22,23,24,23,24,25,26,
  34:.\des.c       ****     27,28,27,28,29,30,31, 0
  35:.\des.c       **** };
  36:.\des.c       **** 
  37:.\des.c       **** /* 置换函数P */
  38:.\des.c       **** const uint8 P_Table[32] = {
  39:.\des.c       ****     15, 6,19,20,28,11,27,16,
  40:.\des.c       ****     0,14,22,25, 4,17,30, 9,
  41:.\des.c       ****     1, 7,23,13,31,26, 2, 8,
  42:.\des.c       ****     18,12,29, 5,21,10, 3,24
  43:.\des.c       **** };
  44:.\des.c       **** 
  45:.\des.c       **** /* S盒 */
  46:.\des.c       **** const uint8 S[8][4][16] = {
  47:.\des.c       **** 	/* S1 */
  48:.\des.c       **** 	{	{14,4,13,1,2,15,11,8,3,10,6,12,5,9,0,7},
  49:.\des.c       ****     {0,15,7,4,14,2,13,1,10,6,12,11,9,5,3,8},
  50:.\des.c       ****     {4,1,14,8,13,6,2,11,15,12,9,7,3,10,5,0},
  51:.\des.c       ****     {15,12,8,2,4,9,1,7,5,11,3,14,10,0,6,13} },
  52:.\des.c       **** 	
  53:.\des.c       **** 	/* S2 */
  54:.\des.c       **** 	{	{15,1,8,14,6,11,3,4,9,7,2,13,12,0,5,10},
  55:.\des.c       ****     {3,13,4,7,15,2,8,14,12,0,1,10,6,9,11,5},
  56:.\des.c       ****     {0,14,7,11,10,4,13,1,5,8,12,6,9,3,2,15},
  57:.\des.c       ****     {13,8,10,1,3,15,4,2,11,6,7,12,0,5,14,9} },
  58:.\des.c       **** 	
  59:.\des.c       **** 	/* S3 */
  60:.\des.c       **** 	{	{10,0,9,14,6,3,15,5,1,13,12,7,11,4,2,8},
  61:.\des.c       ****     {13,7,0,9,3,4,6,10,2,8,5,14,12,11,15,1},
  62:.\des.c       ****     {13,6,4,9,8,15,3,0,11,1,2,12,5,10,14,7},
  63:.\des.c       ****     {1,10,13,0,6,9,8,7,4,15,14,3,11,5,2,12} },
  64:.\des.c       **** 	
  65:.\des.c       **** 	/* S4 */
  66:.\des.c       **** 	{	{7,13,14,3,0,6,9,10,1,2,8,5,11,12,4,15},
  67:.\des.c       ****     {13,8,11,5,6,15,0,3,4,7,2,12,1,10,14,9},
  68:.\des.c       ****     {10,6,9,0,12,11,7,13,15,1,3,14,5,2,8,4},
  69:.\des.c       ****     {3,15,0,6,10,1,13,8,9,4,5,11,12,7,2,14} },
  70:.\des.c       **** 	
  71:.\des.c       **** 	/* S5 */
  72:.\des.c       **** 	{	{2,12,4,1,7,10,11,6,8,5,3,15,13,0,14,9},
  73:.\des.c       ****     {14,11,2,12,4,7,13,1,5,0,15,10,3,9,8,6},
  74:.\des.c       ****     {4,2,1,11,10,13,7,8,15,9,12,5,6,3,0,14},
  75:.\des.c       ****     {11,8,12,7,1,14,2,13,6,15,0,9,10,4,5,3} },
  76:.\des.c       **** 	
  77:.\des.c       **** 	/* S6 */
  78:.\des.c       **** 	{	{12,1,10,15,9,2,6,8,0,13,3,4,14,7,5,11},
  79:.\des.c       ****     {10,15,4,2,7,12,9,5,6,1,13,14,0,11,3,8},
  80:.\des.c       ****     {9,14,15,5,2,8,12,3,7,0,4,10,1,13,11,6},
  81:.\des.c       ****     {4,3,2,12,9,5,15,10,11,14,1,7,6,0,8,13} },
  82:.\des.c       **** 	
  83:.\des.c       **** 	/* S7 */
ARM GAS  C:\Users\ADMINI~1\AppData\Local\Temp\ccv1PMEE.s 			page 18


  84:.\des.c       **** 	{	{4,11,2,14,15,0,8,13,3,12,9,7,5,10,6,1},
  85:.\des.c       ****     {13,0,11,7,4,9,1,10,14,3,5,12,2,15,8,6},
  86:.\des.c       ****     {1,4,11,13,12,3,7,14,10,15,6,8,0,5,9,2},
  87:.\des.c       ****     {6,11,13,8,1,4,10,7,9,5,0,15,14,2,3,12} },
  88:.\des.c       **** 	
  89:.\des.c       **** 	/* S8 */
  90:.\des.c       **** 	{	{13,2,8,4,6,15,11,1,10,9,3,14,5,0,12,7},
  91:.\des.c       ****     {1,15,13,8,10,3,7,4,12,5,6,11,0,14,9,2},
  92:.\des.c       ****     {7,11,4,1,9,12,14,2,0,6,10,13,15,3,5,8},
  93:.\des.c       ****     {2,1,14,7,4,10,8,13,15,12,9,0,3,5,6,11} }
  94:.\des.c       **** };
  95:.\des.c       **** 
  96:.\des.c       **** /* 置换选择1 */
  97:.\des.c       **** 
  98:.\des.c       **** const uint8 PC_1[56] = {
  99:.\des.c       ****     56,48,40,32,24,16, 8,
 100:.\des.c       ****     0,57,49,41,33,25,17,
 101:.\des.c       ****     9, 1,58,50,42,34,26,
 102:.\des.c       ****     18,10, 2,59,51,43,35,
 103:.\des.c       ****     62,54,46,38,30,22,14,
 104:.\des.c       ****     6,61,53,45,37,29,21,
 105:.\des.c       ****     13, 5,60,52,44,36,28,
 106:.\des.c       ****     20,12, 4,27,19,11, 3
 107:.\des.c       **** };
 108:.\des.c       **** 
 109:.\des.c       **** /* 置换选择2 */
 110:.\des.c       **** 
 111:.\des.c       **** const uint8 PC_2[48] = {
 112:.\des.c       ****     13,16,10,23,0,4,2,27,
 113:.\des.c       ****     14,5,20,9,22,18,11,3,
 114:.\des.c       ****     25,7,15,6,26,19,12,1,
 115:.\des.c       ****     
 116:.\des.c       ****     40,51,30,36,46,54,29,39,
 117:.\des.c       ****     50,44,32,47,43,48,38,55,
 118:.\des.c       ****     33,52,45,41,49,35,28,31
 119:.\des.c       **** };
 120:.\des.c       **** 
 121:.\des.c       **** //把8X6的数组变成一个一维数组
 122:.\des.c       **** void change1(uint8 E[8][6],uint8 r[48])
 123:.\des.c       **** {
 887              		.loc 1 123 0
 888              		.cfi_startproc
 889 0000 80B5     		push	{r7, lr}
 890              		.cfi_def_cfa_offset 8
 891              		.cfi_offset 7, -8
 892              		.cfi_offset 14, -4
 893 0002 84B0     		sub	sp, sp, #16
 894              		.cfi_def_cfa_offset 24
 895 0004 00AF     		add	r7, sp, #0
 896              		.cfi_def_cfa_register 7
 897 0006 7860     		str	r0, [r7, #4]
 898 0008 3960     		str	r1, [r7]
 124:.\des.c       **** 	uint8 i,j;
 125:.\des.c       **** 	for(i=0;i<8;i++)
 899              		.loc 1 125 0
 900 000a 0F23     		mov	r3, #15
 901 000c FB18     		add	r3, r7, r3
ARM GAS  C:\Users\ADMINI~1\AppData\Local\Temp\ccv1PMEE.s 			page 19


 902 000e 0022     		mov	r2, #0
 903 0010 1A70     		strb	r2, [r3]
 904 0012 35E0     		b	.L2
 905              	.L5:
 126:.\des.c       **** 	{
 127:.\des.c       **** 		for(j=0;j<6;j++)
 906              		.loc 1 127 0
 907 0014 0E23     		mov	r3, #14
 908 0016 FB18     		add	r3, r7, r3
 909 0018 0022     		mov	r2, #0
 910 001a 1A70     		strb	r2, [r3]
 911 001c 24E0     		b	.L3
 912              	.L4:
 128:.\des.c       **** 		{
 129:.\des.c       **** 			r[i*6+j] = E[i][j];
 913              		.loc 1 129 0 discriminator 3
 914 001e 0F23     		mov	r3, #15
 915 0020 FB18     		add	r3, r7, r3
 916 0022 1A78     		ldrb	r2, [r3]
 917 0024 131C     		mov	r3, r2
 918 0026 5B00     		lsl	r3, r3, #1
 919 0028 9B18     		add	r3, r3, r2
 920 002a 5B00     		lsl	r3, r3, #1
 921 002c 1A1C     		mov	r2, r3
 922 002e 0E23     		mov	r3, #14
 923 0030 FB18     		add	r3, r7, r3
 924 0032 1B78     		ldrb	r3, [r3]
 925 0034 D318     		add	r3, r2, r3
 926 0036 1A1C     		mov	r2, r3
 927 0038 3B68     		ldr	r3, [r7]
 928 003a 9918     		add	r1, r3, r2
 929 003c 0F23     		mov	r3, #15
 930 003e FB18     		add	r3, r7, r3
 931 0040 1A78     		ldrb	r2, [r3]
 932 0042 131C     		mov	r3, r2
 933 0044 5B00     		lsl	r3, r3, #1
 934 0046 9B18     		add	r3, r3, r2
 935 0048 5B00     		lsl	r3, r3, #1
 936 004a 1A1C     		mov	r2, r3
 937 004c 7B68     		ldr	r3, [r7, #4]
 938 004e 9A18     		add	r2, r3, r2
 939 0050 0E23     		mov	r3, #14
 940 0052 FB18     		add	r3, r7, r3
 941 0054 1B78     		ldrb	r3, [r3]
 942 0056 D35C     		ldrb	r3, [r2, r3]
 943 0058 0B70     		strb	r3, [r1]
 127:.\des.c       **** 		{
 944              		.loc 1 127 0 discriminator 3
 945 005a 0E23     		mov	r3, #14
 946 005c FB18     		add	r3, r7, r3
 947 005e 1A78     		ldrb	r2, [r3]
 948 0060 0E23     		mov	r3, #14
 949 0062 FB18     		add	r3, r7, r3
 950 0064 0132     		add	r2, r2, #1
 951 0066 1A70     		strb	r2, [r3]
 952              	.L3:
 127:.\des.c       **** 		{
ARM GAS  C:\Users\ADMINI~1\AppData\Local\Temp\ccv1PMEE.s 			page 20


 953              		.loc 1 127 0 is_stmt 0 discriminator 1
 954 0068 0E23     		mov	r3, #14
 955 006a FB18     		add	r3, r7, r3
 956 006c 1B78     		ldrb	r3, [r3]
 957 006e 052B     		cmp	r3, #5
 958 0070 D5D9     		bls	.L4
 125:.\des.c       **** 	{
 959              		.loc 1 125 0 is_stmt 1 discriminator 2
 960 0072 0F23     		mov	r3, #15
 961 0074 FB18     		add	r3, r7, r3
 962 0076 1A78     		ldrb	r2, [r3]
 963 0078 0F23     		mov	r3, #15
 964 007a FB18     		add	r3, r7, r3
 965 007c 0132     		add	r2, r2, #1
 966 007e 1A70     		strb	r2, [r3]
 967              	.L2:
 125:.\des.c       **** 	{
 968              		.loc 1 125 0 is_stmt 0 discriminator 1
 969 0080 0F23     		mov	r3, #15
 970 0082 FB18     		add	r3, r7, r3
 971 0084 1B78     		ldrb	r3, [r3]
 972 0086 072B     		cmp	r3, #7
 973 0088 C4D9     		bls	.L5
 130:.\des.c       **** 		}
 131:.\des.c       **** 	}
 132:.\des.c       **** }
 974              		.loc 1 132 0 is_stmt 1
 975 008a BD46     		mov	sp, r7
 976 008c 04B0     		add	sp, sp, #16
 977              		@ sp needed
 978 008e 80BD     		pop	{r7, pc}
 979              		.cfi_endproc
 980              	.LFE37:
 981              		.size	change1, .-change1
 982              		.section	.text.change2,"ax",%progbits
 983              		.align	2
 984              		.global	change2
 985              		.code	16
 986              		.thumb_func
 987              		.type	change2, %function
 988              	change2:
 989              	.LFB38:
 133:.\des.c       **** //把一维数组变成8X6的矩阵
 134:.\des.c       **** void change2(uint8 r[48],uint8 E[8][6])
 135:.\des.c       **** {
 990              		.loc 1 135 0
 991              		.cfi_startproc
 992 0000 80B5     		push	{r7, lr}
 993              		.cfi_def_cfa_offset 8
 994              		.cfi_offset 7, -8
 995              		.cfi_offset 14, -4
 996 0002 84B0     		sub	sp, sp, #16
 997              		.cfi_def_cfa_offset 24
 998 0004 00AF     		add	r7, sp, #0
 999              		.cfi_def_cfa_register 7
 1000 0006 7860     		str	r0, [r7, #4]
 1001 0008 3960     		str	r1, [r7]
ARM GAS  C:\Users\ADMINI~1\AppData\Local\Temp\ccv1PMEE.s 			page 21


 136:.\des.c       **** 	uint8 i,j;
 137:.\des.c       **** 	for(i=0;i<8;i++)
 1002              		.loc 1 137 0
 1003 000a 0F23     		mov	r3, #15
 1004 000c FB18     		add	r3, r7, r3
 1005 000e 0022     		mov	r2, #0
 1006 0010 1A70     		strb	r2, [r3]
 1007 0012 35E0     		b	.L7
 1008              	.L10:
 138:.\des.c       **** 	{
 139:.\des.c       **** 		for(j=0;j<6;j++)
 1009              		.loc 1 139 0
 1010 0014 0E23     		mov	r3, #14
 1011 0016 FB18     		add	r3, r7, r3
 1012 0018 0022     		mov	r2, #0
 1013 001a 1A70     		strb	r2, [r3]
 1014 001c 24E0     		b	.L8
 1015              	.L9:
 140:.\des.c       **** 		{
 141:.\des.c       **** 			E[i][j]= r[i*6+j];
 1016              		.loc 1 141 0 discriminator 3
 1017 001e 0F23     		mov	r3, #15
 1018 0020 FB18     		add	r3, r7, r3
 1019 0022 1A78     		ldrb	r2, [r3]
 1020 0024 131C     		mov	r3, r2
 1021 0026 5B00     		lsl	r3, r3, #1
 1022 0028 9B18     		add	r3, r3, r2
 1023 002a 5B00     		lsl	r3, r3, #1
 1024 002c 1A1C     		mov	r2, r3
 1025 002e 3B68     		ldr	r3, [r7]
 1026 0030 9818     		add	r0, r3, r2
 1027 0032 0E23     		mov	r3, #14
 1028 0034 FB18     		add	r3, r7, r3
 1029 0036 1978     		ldrb	r1, [r3]
 1030 0038 0F23     		mov	r3, #15
 1031 003a FB18     		add	r3, r7, r3
 1032 003c 1A78     		ldrb	r2, [r3]
 1033 003e 131C     		mov	r3, r2
 1034 0040 5B00     		lsl	r3, r3, #1
 1035 0042 9B18     		add	r3, r3, r2
 1036 0044 5B00     		lsl	r3, r3, #1
 1037 0046 1A1C     		mov	r2, r3
 1038 0048 0E23     		mov	r3, #14
 1039 004a FB18     		add	r3, r7, r3
 1040 004c 1B78     		ldrb	r3, [r3]
 1041 004e D318     		add	r3, r2, r3
 1042 0050 1A1C     		mov	r2, r3
 1043 0052 7B68     		ldr	r3, [r7, #4]
 1044 0054 9B18     		add	r3, r3, r2
 1045 0056 1B78     		ldrb	r3, [r3]
 1046 0058 4354     		strb	r3, [r0, r1]
 139:.\des.c       **** 		{
 1047              		.loc 1 139 0 discriminator 3
 1048 005a 0E23     		mov	r3, #14
 1049 005c FB18     		add	r3, r7, r3
 1050 005e 1A78     		ldrb	r2, [r3]
 1051 0060 0E23     		mov	r3, #14
ARM GAS  C:\Users\ADMINI~1\AppData\Local\Temp\ccv1PMEE.s 			page 22


 1052 0062 FB18     		add	r3, r7, r3
 1053 0064 0132     		add	r2, r2, #1
 1054 0066 1A70     		strb	r2, [r3]
 1055              	.L8:
 139:.\des.c       **** 		{
 1056              		.loc 1 139 0 is_stmt 0 discriminator 1
 1057 0068 0E23     		mov	r3, #14
 1058 006a FB18     		add	r3, r7, r3
 1059 006c 1B78     		ldrb	r3, [r3]
 1060 006e 052B     		cmp	r3, #5
 1061 0070 D5D9     		bls	.L9
 137:.\des.c       **** 	{
 1062              		.loc 1 137 0 is_stmt 1 discriminator 2
 1063 0072 0F23     		mov	r3, #15
 1064 0074 FB18     		add	r3, r7, r3
 1065 0076 1A78     		ldrb	r2, [r3]
 1066 0078 0F23     		mov	r3, #15
 1067 007a FB18     		add	r3, r7, r3
 1068 007c 0132     		add	r2, r2, #1
 1069 007e 1A70     		strb	r2, [r3]
 1070              	.L7:
 137:.\des.c       **** 	{
 1071              		.loc 1 137 0 is_stmt 0 discriminator 1
 1072 0080 0F23     		mov	r3, #15
 1073 0082 FB18     		add	r3, r7, r3
 1074 0084 1B78     		ldrb	r3, [r3]
 1075 0086 072B     		cmp	r3, #7
 1076 0088 C4D9     		bls	.L10
 142:.\des.c       **** 		}
 143:.\des.c       **** 	}
 144:.\des.c       **** }
 1077              		.loc 1 144 0 is_stmt 1
 1078 008a BD46     		mov	sp, r7
 1079 008c 04B0     		add	sp, sp, #16
 1080              		@ sp needed
 1081 008e 80BD     		pop	{r7, pc}
 1082              		.cfi_endproc
 1083              	.LFE38:
 1084              		.size	change2, .-change2
 1085              		.section	.text.ByteToBit,"ax",%progbits
 1086              		.align	2
 1087              		.global	ByteToBit
 1088              		.code	16
 1089              		.thumb_func
 1090              		.type	ByteToBit, %function
 1091              	ByteToBit:
 1092              	.LFB39:
 145:.\des.c       **** //输入16进制明文
 146:.\des.c       **** void ByteToBit(uint8 buff[8],uint8 M[64])
 147:.\des.c       **** {   
 1093              		.loc 1 147 0
 1094              		.cfi_startproc
 1095 0000 80B5     		push	{r7, lr}
 1096              		.cfi_def_cfa_offset 8
 1097              		.cfi_offset 7, -8
 1098              		.cfi_offset 14, -4
 1099 0002 84B0     		sub	sp, sp, #16
ARM GAS  C:\Users\ADMINI~1\AppData\Local\Temp\ccv1PMEE.s 			page 23


 1100              		.cfi_def_cfa_offset 24
 1101 0004 00AF     		add	r7, sp, #0
 1102              		.cfi_def_cfa_register 7
 1103 0006 7860     		str	r0, [r7, #4]
 1104 0008 3960     		str	r1, [r7]
 148:.\des.c       **** 	uint8 i,j;
 149:.\des.c       **** 	for(i=0; i<8; i++)
 1105              		.loc 1 149 0
 1106 000a 0F23     		mov	r3, #15
 1107 000c FB18     		add	r3, r7, r3
 1108 000e 0022     		mov	r2, #0
 1109 0010 1A70     		strb	r2, [r3]
 1110 0012 34E0     		b	.L12
 1111              	.L15:
 150:.\des.c       **** 	{
 151:.\des.c       **** 		for(j=0; j<8; j++)
 1112              		.loc 1 151 0
 1113 0014 0E23     		mov	r3, #14
 1114 0016 FB18     		add	r3, r7, r3
 1115 0018 0022     		mov	r2, #0
 1116 001a 1A70     		strb	r2, [r3]
 1117 001c 23E0     		b	.L13
 1118              	.L14:
 152:.\des.c       **** 		{
 153:.\des.c       **** 			M[i*8 + 7 - j] = (buff[i] >> j) & 1;
 1119              		.loc 1 153 0 discriminator 3
 1120 001e 0F23     		mov	r3, #15
 1121 0020 FB18     		add	r3, r7, r3
 1122 0022 1B78     		ldrb	r3, [r3]
 1123 0024 DB00     		lsl	r3, r3, #3
 1124 0026 DA1D     		add	r2, r3, #7
 1125 0028 0E23     		mov	r3, #14
 1126 002a FB18     		add	r3, r7, r3
 1127 002c 1B78     		ldrb	r3, [r3]
 1128 002e D31A     		sub	r3, r2, r3
 1129 0030 1A1C     		mov	r2, r3
 1130 0032 3B68     		ldr	r3, [r7]
 1131 0034 9B18     		add	r3, r3, r2
 1132 0036 0F22     		mov	r2, #15
 1133 0038 BA18     		add	r2, r7, r2
 1134 003a 1278     		ldrb	r2, [r2]
 1135 003c 7968     		ldr	r1, [r7, #4]
 1136 003e 8A18     		add	r2, r1, r2
 1137 0040 1278     		ldrb	r2, [r2]
 1138 0042 111C     		mov	r1, r2
 1139 0044 0E22     		mov	r2, #14
 1140 0046 BA18     		add	r2, r7, r2
 1141 0048 1278     		ldrb	r2, [r2]
 1142 004a 1141     		asr	r1, r1, r2
 1143 004c 0A1C     		mov	r2, r1
 1144 004e D2B2     		uxtb	r2, r2
 1145 0050 0121     		mov	r1, #1
 1146 0052 0A40     		and	r2, r1
 1147 0054 D2B2     		uxtb	r2, r2
 1148 0056 1A70     		strb	r2, [r3]
 151:.\des.c       **** 		{
 1149              		.loc 1 151 0 discriminator 3
ARM GAS  C:\Users\ADMINI~1\AppData\Local\Temp\ccv1PMEE.s 			page 24


 1150 0058 0E23     		mov	r3, #14
 1151 005a FB18     		add	r3, r7, r3
 1152 005c 1A78     		ldrb	r2, [r3]
 1153 005e 0E23     		mov	r3, #14
 1154 0060 FB18     		add	r3, r7, r3
 1155 0062 0132     		add	r2, r2, #1
 1156 0064 1A70     		strb	r2, [r3]
 1157              	.L13:
 151:.\des.c       **** 		{
 1158              		.loc 1 151 0 is_stmt 0 discriminator 1
 1159 0066 0E23     		mov	r3, #14
 1160 0068 FB18     		add	r3, r7, r3
 1161 006a 1B78     		ldrb	r3, [r3]
 1162 006c 072B     		cmp	r3, #7
 1163 006e D6D9     		bls	.L14
 149:.\des.c       **** 	{
 1164              		.loc 1 149 0 is_stmt 1 discriminator 2
 1165 0070 0F23     		mov	r3, #15
 1166 0072 FB18     		add	r3, r7, r3
 1167 0074 1A78     		ldrb	r2, [r3]
 1168 0076 0F23     		mov	r3, #15
 1169 0078 FB18     		add	r3, r7, r3
 1170 007a 0132     		add	r2, r2, #1
 1171 007c 1A70     		strb	r2, [r3]
 1172              	.L12:
 149:.\des.c       **** 	{
 1173              		.loc 1 149 0 is_stmt 0 discriminator 1
 1174 007e 0F23     		mov	r3, #15
 1175 0080 FB18     		add	r3, r7, r3
 1176 0082 1B78     		ldrb	r3, [r3]
 1177 0084 072B     		cmp	r3, #7
 1178 0086 C5D9     		bls	.L15
 154:.\des.c       **** 		}
 155:.\des.c       **** 	}
 156:.\des.c       **** }
 1179              		.loc 1 156 0 is_stmt 1
 1180 0088 BD46     		mov	sp, r7
 1181 008a 04B0     		add	sp, sp, #16
 1182              		@ sp needed
 1183 008c 80BD     		pop	{r7, pc}
 1184              		.cfi_endproc
 1185              	.LFE39:
 1186              		.size	ByteToBit, .-ByteToBit
 1187 008e C046     		.section	.text.BeginChange,"ax",%progbits
 1188              		.align	2
 1189              		.global	BeginChange
 1190              		.code	16
 1191              		.thumb_func
 1192              		.type	BeginChange, %function
 1193              	BeginChange:
 1194              	.LFB40:
 157:.\des.c       **** 
 158:.\des.c       **** /*初始置换*/
 159:.\des.c       **** void BeginChange(uint8 buff[64],uint8 temp[64])
 160:.\des.c       **** {
 1195              		.loc 1 160 0
 1196              		.cfi_startproc
ARM GAS  C:\Users\ADMINI~1\AppData\Local\Temp\ccv1PMEE.s 			page 25


 1197 0000 80B5     		push	{r7, lr}
 1198              		.cfi_def_cfa_offset 8
 1199              		.cfi_offset 7, -8
 1200              		.cfi_offset 14, -4
 1201 0002 84B0     		sub	sp, sp, #16
 1202              		.cfi_def_cfa_offset 24
 1203 0004 00AF     		add	r7, sp, #0
 1204              		.cfi_def_cfa_register 7
 1205 0006 7860     		str	r0, [r7, #4]
 1206 0008 3960     		str	r1, [r7]
 161:.\des.c       **** 	uint8 i;
 162:.\des.c       ****     
 163:.\des.c       **** 	for(i=0;i<64;i++)
 1207              		.loc 1 163 0
 1208 000a 0F23     		mov	r3, #15
 1209 000c FB18     		add	r3, r7, r3
 1210 000e 0022     		mov	r2, #0
 1211 0010 1A70     		strb	r2, [r3]
 1212 0012 15E0     		b	.L17
 1213              	.L18:
 164:.\des.c       ****  	{
 165:.\des.c       ****     	temp[i] = buff[IP_Table[i]];
 1214              		.loc 1 165 0 discriminator 3
 1215 0014 0F23     		mov	r3, #15
 1216 0016 FB18     		add	r3, r7, r3
 1217 0018 1B78     		ldrb	r3, [r3]
 1218 001a 3A68     		ldr	r2, [r7]
 1219 001c D318     		add	r3, r2, r3
 1220 001e 0F22     		mov	r2, #15
 1221 0020 BA18     		add	r2, r7, r2
 1222 0022 1278     		ldrb	r2, [r2]
 1223 0024 0A49     		ldr	r1, .L19
 1224 0026 8A5C     		ldrb	r2, [r1, r2]
 1225 0028 111C     		mov	r1, r2
 1226 002a 7A68     		ldr	r2, [r7, #4]
 1227 002c 5218     		add	r2, r2, r1
 1228 002e 1278     		ldrb	r2, [r2]
 1229 0030 1A70     		strb	r2, [r3]
 163:.\des.c       ****  	{
 1230              		.loc 1 163 0 discriminator 3
 1231 0032 0F23     		mov	r3, #15
 1232 0034 FB18     		add	r3, r7, r3
 1233 0036 1A78     		ldrb	r2, [r3]
 1234 0038 0F23     		mov	r3, #15
 1235 003a FB18     		add	r3, r7, r3
 1236 003c 0132     		add	r2, r2, #1
 1237 003e 1A70     		strb	r2, [r3]
 1238              	.L17:
 163:.\des.c       ****  	{
 1239              		.loc 1 163 0 is_stmt 0 discriminator 1
 1240 0040 0F23     		mov	r3, #15
 1241 0042 FB18     		add	r3, r7, r3
 1242 0044 1B78     		ldrb	r3, [r3]
 1243 0046 3F2B     		cmp	r3, #63
 1244 0048 E4D9     		bls	.L18
 166:.\des.c       ****  	}
 167:.\des.c       **** }
ARM GAS  C:\Users\ADMINI~1\AppData\Local\Temp\ccv1PMEE.s 			page 26


 1245              		.loc 1 167 0 is_stmt 1
 1246 004a BD46     		mov	sp, r7
 1247 004c 04B0     		add	sp, sp, #16
 1248              		@ sp needed
 1249 004e 80BD     		pop	{r7, pc}
 1250              	.L20:
 1251              		.align	2
 1252              	.L19:
 1253 0050 00000000 		.word	IP_Table
 1254              		.cfi_endproc
 1255              	.LFE40:
 1256              		.size	BeginChange, .-BeginChange
 1257              		.section	.rodata
 1258              		.align	2
 1259              	.LC0:
 1260 0338 01       		.byte	1
 1261 0339 01       		.byte	1
 1262 033a 02       		.byte	2
 1263 033b 02       		.byte	2
 1264 033c 02       		.byte	2
 1265 033d 02       		.byte	2
 1266 033e 02       		.byte	2
 1267 033f 02       		.byte	2
 1268 0340 01       		.byte	1
 1269 0341 02       		.byte	2
 1270 0342 02       		.byte	2
 1271 0343 02       		.byte	2
 1272 0344 02       		.byte	2
 1273 0345 02       		.byte	2
 1274 0346 02       		.byte	2
 1275 0347 01       		.byte	1
 1276              		.section	.text.CreatKey,"ax",%progbits
 1277              		.align	2
 1278              		.global	CreatKey
 1279              		.code	16
 1280              		.thumb_func
 1281              		.type	CreatKey, %function
 1282              	CreatKey:
 1283              	.LFB41:
 168:.\des.c       **** 
 169:.\des.c       **** /*生成秘钥*/
 170:.\des.c       **** void CreatKey(uint8 My[64],uint8 n,uint8 key [48])
 171:.\des.c       **** {   
 1284              		.loc 1 171 0
 1285              		.cfi_startproc
 1286 0000 90B5     		push	{r4, r7, lr}
 1287              		.cfi_def_cfa_offset 12
 1288              		.cfi_offset 4, -12
 1289              		.cfi_offset 7, -8
 1290              		.cfi_offset 14, -4
 1291 0002 B5B0     		sub	sp, sp, #212
 1292              		.cfi_def_cfa_offset 224
 1293 0004 00AF     		add	r7, sp, #0
 1294              		.cfi_def_cfa_register 7
 1295 0006 F860     		str	r0, [r7, #12]
 1296 0008 7A60     		str	r2, [r7, #4]
 1297 000a 0B23     		mov	r3, #11
ARM GAS  C:\Users\ADMINI~1\AppData\Local\Temp\ccv1PMEE.s 			page 27


 1298 000c FB18     		add	r3, r7, r3
 1299 000e 0A1C     		add	r2, r1, #0
 1300 0010 1A70     		strb	r2, [r3]
 172:.\des.c       **** 	uint8 i,j,m;
 173:.\des.c       ****  	uint8 tem,tem2;
 174:.\des.c       **** 	uint8 k[56];
 175:.\des.c       **** 	uint8 a[8][7];
 176:.\des.c       **** 	uint8 c[28],d[28];
 177:.\des.c       **** 	uint8 list[16]={1,1,2,2,2,2,2,2,1,2,2,2,2,2,2,1};
 1301              		.loc 1 177 0
 1302 0012 1023     		mov	r3, #16
 1303 0014 FA18     		add	r2, r7, r3
 1304 0016 B44B     		ldr	r3, .L40
 1305 0018 111C     		mov	r1, r2
 1306 001a 1A1C     		mov	r2, r3
 1307 001c 1023     		mov	r3, #16
 1308 001e 081C     		mov	r0, r1
 1309 0020 111C     		mov	r1, r2
 1310 0022 1A1C     		mov	r2, r3
 1311 0024 FFF7FEFF 		bl	memcpy
 178:.\des.c       **** 	
 179:.\des.c       **** 	for(i=0;i<8;i++)
 1312              		.loc 1 179 0
 1313 0028 CF23     		mov	r3, #207
 1314 002a FB18     		add	r3, r7, r3
 1315 002c 0022     		mov	r2, #0
 1316 002e 1A70     		strb	r2, [r3]
 1317 0030 35E0     		b	.L22
 1318              	.L25:
 180:.\des.c       **** 	{
 181:.\des.c       ****     	for(j=0;j<7;j++)
 1319              		.loc 1 181 0
 1320 0032 CE23     		mov	r3, #206
 1321 0034 FB18     		add	r3, r7, r3
 1322 0036 0022     		mov	r2, #0
 1323 0038 1A70     		strb	r2, [r3]
 1324 003a 24E0     		b	.L23
 1325              	.L24:
 182:.\des.c       ****       	{
 183:.\des.c       ****         	a[i][j] = My[PC_1[i*7+j]];
 1326              		.loc 1 183 0 discriminator 3
 1327 003c CF23     		mov	r3, #207
 1328 003e FB18     		add	r3, r7, r3
 1329 0040 1A78     		ldrb	r2, [r3]
 1330 0042 CE23     		mov	r3, #206
 1331 0044 FB18     		add	r3, r7, r3
 1332 0046 1878     		ldrb	r0, [r3]
 1333 0048 CF23     		mov	r3, #207
 1334 004a FB18     		add	r3, r7, r3
 1335 004c 1978     		ldrb	r1, [r3]
 1336 004e 0B1C     		mov	r3, r1
 1337 0050 DB00     		lsl	r3, r3, #3
 1338 0052 591A     		sub	r1, r3, r1
 1339 0054 CE23     		mov	r3, #206
 1340 0056 FB18     		add	r3, r7, r3
 1341 0058 1B78     		ldrb	r3, [r3]
 1342 005a CB18     		add	r3, r1, r3
ARM GAS  C:\Users\ADMINI~1\AppData\Local\Temp\ccv1PMEE.s 			page 28


 1343 005c A349     		ldr	r1, .L40+4
 1344 005e CB5C     		ldrb	r3, [r1, r3]
 1345 0060 191C     		mov	r1, r3
 1346 0062 FB68     		ldr	r3, [r7, #12]
 1347 0064 5B18     		add	r3, r3, r1
 1348 0066 1C78     		ldrb	r4, [r3]
 1349 0068 5823     		mov	r3, #88
 1350 006a F918     		add	r1, r7, r3
 1351 006c 131C     		mov	r3, r2
 1352 006e DB00     		lsl	r3, r3, #3
 1353 0070 9B1A     		sub	r3, r3, r2
 1354 0072 1B18     		add	r3, r3, r0
 1355 0074 221C     		add	r2, r4, #0
 1356 0076 5A54     		strb	r2, [r3, r1]
 181:.\des.c       ****       	{
 1357              		.loc 1 181 0 discriminator 3
 1358 0078 CE23     		mov	r3, #206
 1359 007a FB18     		add	r3, r7, r3
 1360 007c 1A78     		ldrb	r2, [r3]
 1361 007e CE23     		mov	r3, #206
 1362 0080 FB18     		add	r3, r7, r3
 1363 0082 0132     		add	r2, r2, #1
 1364 0084 1A70     		strb	r2, [r3]
 1365              	.L23:
 181:.\des.c       ****       	{
 1366              		.loc 1 181 0 is_stmt 0 discriminator 1
 1367 0086 CE23     		mov	r3, #206
 1368 0088 FB18     		add	r3, r7, r3
 1369 008a 1B78     		ldrb	r3, [r3]
 1370 008c 062B     		cmp	r3, #6
 1371 008e D5D9     		bls	.L24
 179:.\des.c       **** 	{
 1372              		.loc 1 179 0 is_stmt 1 discriminator 2
 1373 0090 CF23     		mov	r3, #207
 1374 0092 FB18     		add	r3, r7, r3
 1375 0094 1A78     		ldrb	r2, [r3]
 1376 0096 CF23     		mov	r3, #207
 1377 0098 FB18     		add	r3, r7, r3
 1378 009a 0132     		add	r2, r2, #1
 1379 009c 1A70     		strb	r2, [r3]
 1380              	.L22:
 179:.\des.c       **** 	{
 1381              		.loc 1 179 0 is_stmt 0 discriminator 1
 1382 009e CF23     		mov	r3, #207
 1383 00a0 FB18     		add	r3, r7, r3
 1384 00a2 1B78     		ldrb	r3, [r3]
 1385 00a4 072B     		cmp	r3, #7
 1386 00a6 C4D9     		bls	.L25
 184:.\des.c       ****      	}
 185:.\des.c       **** 	}
 186:.\des.c       ****     
 187:.\des.c       **** 	for(i=0;i<4;i++)
 1387              		.loc 1 187 0 is_stmt 1
 1388 00a8 CF23     		mov	r3, #207
 1389 00aa FB18     		add	r3, r7, r3
 1390 00ac 0022     		mov	r2, #0
 1391 00ae 1A70     		strb	r2, [r3]
ARM GAS  C:\Users\ADMINI~1\AppData\Local\Temp\ccv1PMEE.s 			page 29


 1392 00b0 4CE0     		b	.L26
 1393              	.L29:
 188:.\des.c       **** 	{
 189:.\des.c       ****      	for(j=0;j<7;j++)
 1394              		.loc 1 189 0
 1395 00b2 CE23     		mov	r3, #206
 1396 00b4 FB18     		add	r3, r7, r3
 1397 00b6 0022     		mov	r2, #0
 1398 00b8 1A70     		strb	r2, [r3]
 1399 00ba 3BE0     		b	.L27
 1400              	.L28:
 190:.\des.c       ****      	{
 191:.\des.c       ****          	c[i*7+j] = a[i][j];
 1401              		.loc 1 191 0 discriminator 3
 1402 00bc CF23     		mov	r3, #207
 1403 00be FB18     		add	r3, r7, r3
 1404 00c0 1A78     		ldrb	r2, [r3]
 1405 00c2 131C     		mov	r3, r2
 1406 00c4 DB00     		lsl	r3, r3, #3
 1407 00c6 9A1A     		sub	r2, r3, r2
 1408 00c8 CE23     		mov	r3, #206
 1409 00ca FB18     		add	r3, r7, r3
 1410 00cc 1B78     		ldrb	r3, [r3]
 1411 00ce D118     		add	r1, r2, r3
 1412 00d0 CF23     		mov	r3, #207
 1413 00d2 FB18     		add	r3, r7, r3
 1414 00d4 1A78     		ldrb	r2, [r3]
 1415 00d6 CE23     		mov	r3, #206
 1416 00d8 FB18     		add	r3, r7, r3
 1417 00da 1C78     		ldrb	r4, [r3]
 1418 00dc 5823     		mov	r3, #88
 1419 00de F818     		add	r0, r7, r3
 1420 00e0 131C     		mov	r3, r2
 1421 00e2 DB00     		lsl	r3, r3, #3
 1422 00e4 9B1A     		sub	r3, r3, r2
 1423 00e6 1B19     		add	r3, r3, r4
 1424 00e8 1A5C     		ldrb	r2, [r3, r0]
 1425 00ea 3C23     		mov	r3, #60
 1426 00ec FB18     		add	r3, r7, r3
 1427 00ee 5A54     		strb	r2, [r3, r1]
 192:.\des.c       ****          	d[i*7+j] = a[i+4][j];
 1428              		.loc 1 192 0 discriminator 3
 1429 00f0 CF23     		mov	r3, #207
 1430 00f2 FB18     		add	r3, r7, r3
 1431 00f4 1A78     		ldrb	r2, [r3]
 1432 00f6 131C     		mov	r3, r2
 1433 00f8 DB00     		lsl	r3, r3, #3
 1434 00fa 9A1A     		sub	r2, r3, r2
 1435 00fc CE23     		mov	r3, #206
 1436 00fe FB18     		add	r3, r7, r3
 1437 0100 1B78     		ldrb	r3, [r3]
 1438 0102 D118     		add	r1, r2, r3
 1439 0104 CF23     		mov	r3, #207
 1440 0106 FB18     		add	r3, r7, r3
 1441 0108 1B78     		ldrb	r3, [r3]
 1442 010a 1A1D     		add	r2, r3, #4
 1443 010c CE23     		mov	r3, #206
ARM GAS  C:\Users\ADMINI~1\AppData\Local\Temp\ccv1PMEE.s 			page 30


 1444 010e FB18     		add	r3, r7, r3
 1445 0110 1C78     		ldrb	r4, [r3]
 1446 0112 5823     		mov	r3, #88
 1447 0114 F818     		add	r0, r7, r3
 1448 0116 131C     		mov	r3, r2
 1449 0118 DB00     		lsl	r3, r3, #3
 1450 011a 9B1A     		sub	r3, r3, r2
 1451 011c 1B19     		add	r3, r3, r4
 1452 011e 1A5C     		ldrb	r2, [r3, r0]
 1453 0120 2023     		mov	r3, #32
 1454 0122 FB18     		add	r3, r7, r3
 1455 0124 5A54     		strb	r2, [r3, r1]
 189:.\des.c       ****      	{
 1456              		.loc 1 189 0 discriminator 3
 1457 0126 CE23     		mov	r3, #206
 1458 0128 FB18     		add	r3, r7, r3
 1459 012a 1A78     		ldrb	r2, [r3]
 1460 012c CE23     		mov	r3, #206
 1461 012e FB18     		add	r3, r7, r3
 1462 0130 0132     		add	r2, r2, #1
 1463 0132 1A70     		strb	r2, [r3]
 1464              	.L27:
 189:.\des.c       ****      	{
 1465              		.loc 1 189 0 is_stmt 0 discriminator 1
 1466 0134 CE23     		mov	r3, #206
 1467 0136 FB18     		add	r3, r7, r3
 1468 0138 1B78     		ldrb	r3, [r3]
 1469 013a 062B     		cmp	r3, #6
 1470 013c BED9     		bls	.L28
 187:.\des.c       **** 	{
 1471              		.loc 1 187 0 is_stmt 1 discriminator 2
 1472 013e CF23     		mov	r3, #207
 1473 0140 FB18     		add	r3, r7, r3
 1474 0142 1A78     		ldrb	r2, [r3]
 1475 0144 CF23     		mov	r3, #207
 1476 0146 FB18     		add	r3, r7, r3
 1477 0148 0132     		add	r2, r2, #1
 1478 014a 1A70     		strb	r2, [r3]
 1479              	.L26:
 187:.\des.c       **** 	{
 1480              		.loc 1 187 0 is_stmt 0 discriminator 1
 1481 014c CF23     		mov	r3, #207
 1482 014e FB18     		add	r3, r7, r3
 1483 0150 1B78     		ldrb	r3, [r3]
 1484 0152 032B     		cmp	r3, #3
 1485 0154 ADD9     		bls	.L29
 193:.\des.c       ****    		}
 194:.\des.c       ****   	}
 195:.\des.c       ****     
 196:.\des.c       ****  	//确定左移位数
 197:.\des.c       **** 	m = 0;
 1486              		.loc 1 197 0 is_stmt 1
 1487 0156 CD23     		mov	r3, #205
 1488 0158 FB18     		add	r3, r7, r3
 1489 015a 0022     		mov	r2, #0
 1490 015c 1A70     		strb	r2, [r3]
 198:.\des.c       **** 	for(i=0; i<n; i++)
ARM GAS  C:\Users\ADMINI~1\AppData\Local\Temp\ccv1PMEE.s 			page 31


 1491              		.loc 1 198 0
 1492 015e CF23     		mov	r3, #207
 1493 0160 FB18     		add	r3, r7, r3
 1494 0162 0022     		mov	r2, #0
 1495 0164 1A70     		strb	r2, [r3]
 1496 0166 13E0     		b	.L30
 1497              	.L31:
 199:.\des.c       ****  	{
 200:.\des.c       ****     	m+=list[i];
 1498              		.loc 1 200 0 discriminator 3
 1499 0168 CF23     		mov	r3, #207
 1500 016a FB18     		add	r3, r7, r3
 1501 016c 1B78     		ldrb	r3, [r3]
 1502 016e 1022     		mov	r2, #16
 1503 0170 BA18     		add	r2, r7, r2
 1504 0172 D15C     		ldrb	r1, [r2, r3]
 1505 0174 CD23     		mov	r3, #205
 1506 0176 FB18     		add	r3, r7, r3
 1507 0178 CD22     		mov	r2, #205
 1508 017a BA18     		add	r2, r7, r2
 1509 017c 1278     		ldrb	r2, [r2]
 1510 017e 8A18     		add	r2, r1, r2
 1511 0180 1A70     		strb	r2, [r3]
 198:.\des.c       **** 	for(i=0; i<n; i++)
 1512              		.loc 1 198 0 discriminator 3
 1513 0182 CF23     		mov	r3, #207
 1514 0184 FB18     		add	r3, r7, r3
 1515 0186 1A78     		ldrb	r2, [r3]
 1516 0188 CF23     		mov	r3, #207
 1517 018a FB18     		add	r3, r7, r3
 1518 018c 0132     		add	r2, r2, #1
 1519 018e 1A70     		strb	r2, [r3]
 1520              	.L30:
 198:.\des.c       **** 	for(i=0; i<n; i++)
 1521              		.loc 1 198 0 is_stmt 0 discriminator 1
 1522 0190 CF23     		mov	r3, #207
 1523 0192 FA18     		add	r2, r7, r3
 1524 0194 0B23     		mov	r3, #11
 1525 0196 FB18     		add	r3, r7, r3
 1526 0198 1278     		ldrb	r2, [r2]
 1527 019a 1B78     		ldrb	r3, [r3]
 1528 019c 9A42     		cmp	r2, r3
 1529 019e E3D3     		bcc	.L31
 201:.\des.c       **** 	}
 202:.\des.c       ****     //循环左移处理
 203:.\des.c       **** 	for(i=0; i<m; i++)
 1530              		.loc 1 203 0 is_stmt 1
 1531 01a0 CF23     		mov	r3, #207
 1532 01a2 FB18     		add	r3, r7, r3
 1533 01a4 0022     		mov	r2, #0
 1534 01a6 1A70     		strb	r2, [r3]
 1535 01a8 49E0     		b	.L32
 1536              	.L35:
 204:.\des.c       ****   	{
 205:.\des.c       ****        	tem=c[0];
 1537              		.loc 1 205 0
 1538 01aa CC23     		mov	r3, #204
ARM GAS  C:\Users\ADMINI~1\AppData\Local\Temp\ccv1PMEE.s 			page 32


 1539 01ac FB18     		add	r3, r7, r3
 1540 01ae 3C22     		mov	r2, #60
 1541 01b0 BA18     		add	r2, r7, r2
 1542 01b2 1278     		ldrb	r2, [r2]
 1543 01b4 1A70     		strb	r2, [r3]
 206:.\des.c       ****        	tem2 = d[0];
 1544              		.loc 1 206 0
 1545 01b6 CB23     		mov	r3, #203
 1546 01b8 FB18     		add	r3, r7, r3
 1547 01ba 2022     		mov	r2, #32
 1548 01bc BA18     		add	r2, r7, r2
 1549 01be 1278     		ldrb	r2, [r2]
 1550 01c0 1A70     		strb	r2, [r3]
 207:.\des.c       ****     	for(j=0;j<27;j++)
 1551              		.loc 1 207 0
 1552 01c2 CE23     		mov	r3, #206
 1553 01c4 FB18     		add	r3, r7, r3
 1554 01c6 0022     		mov	r2, #0
 1555 01c8 1A70     		strb	r2, [r3]
 1556 01ca 20E0     		b	.L33
 1557              	.L34:
 208:.\des.c       ****      	{
 209:.\des.c       ****          	c[j] = c[j+1];
 1558              		.loc 1 209 0 discriminator 3
 1559 01cc CE23     		mov	r3, #206
 1560 01ce FB18     		add	r3, r7, r3
 1561 01d0 1B78     		ldrb	r3, [r3]
 1562 01d2 CE22     		mov	r2, #206
 1563 01d4 BA18     		add	r2, r7, r2
 1564 01d6 1278     		ldrb	r2, [r2]
 1565 01d8 0132     		add	r2, r2, #1
 1566 01da 3C21     		mov	r1, #60
 1567 01dc 7918     		add	r1, r7, r1
 1568 01de 895C     		ldrb	r1, [r1, r2]
 1569 01e0 3C22     		mov	r2, #60
 1570 01e2 BA18     		add	r2, r7, r2
 1571 01e4 D154     		strb	r1, [r2, r3]
 210:.\des.c       ****          	d[j] = d[j+1];
 1572              		.loc 1 210 0 discriminator 3
 1573 01e6 CE23     		mov	r3, #206
 1574 01e8 FB18     		add	r3, r7, r3
 1575 01ea 1B78     		ldrb	r3, [r3]
 1576 01ec CE22     		mov	r2, #206
 1577 01ee BA18     		add	r2, r7, r2
 1578 01f0 1278     		ldrb	r2, [r2]
 1579 01f2 0132     		add	r2, r2, #1
 1580 01f4 2021     		mov	r1, #32
 1581 01f6 7918     		add	r1, r7, r1
 1582 01f8 895C     		ldrb	r1, [r1, r2]
 1583 01fa 2022     		mov	r2, #32
 1584 01fc BA18     		add	r2, r7, r2
 1585 01fe D154     		strb	r1, [r2, r3]
 207:.\des.c       ****     	for(j=0;j<27;j++)
 1586              		.loc 1 207 0 discriminator 3
 1587 0200 CE23     		mov	r3, #206
 1588 0202 FB18     		add	r3, r7, r3
 1589 0204 1A78     		ldrb	r2, [r3]
ARM GAS  C:\Users\ADMINI~1\AppData\Local\Temp\ccv1PMEE.s 			page 33


 1590 0206 CE23     		mov	r3, #206
 1591 0208 FB18     		add	r3, r7, r3
 1592 020a 0132     		add	r2, r2, #1
 1593 020c 1A70     		strb	r2, [r3]
 1594              	.L33:
 207:.\des.c       ****     	for(j=0;j<27;j++)
 1595              		.loc 1 207 0 is_stmt 0 discriminator 1
 1596 020e CE23     		mov	r3, #206
 1597 0210 FB18     		add	r3, r7, r3
 1598 0212 1B78     		ldrb	r3, [r3]
 1599 0214 1A2B     		cmp	r3, #26
 1600 0216 D9D9     		bls	.L34
 211:.\des.c       ****    		}
 212:.\des.c       ****       	c[27] = tem;
 1601              		.loc 1 212 0 is_stmt 1 discriminator 2
 1602 0218 3C23     		mov	r3, #60
 1603 021a FB18     		add	r3, r7, r3
 1604 021c CC22     		mov	r2, #204
 1605 021e BA18     		add	r2, r7, r2
 1606 0220 1278     		ldrb	r2, [r2]
 1607 0222 DA76     		strb	r2, [r3, #27]
 213:.\des.c       ****      	d[27] = tem2;           
 1608              		.loc 1 213 0 discriminator 2
 1609 0224 2023     		mov	r3, #32
 1610 0226 FB18     		add	r3, r7, r3
 1611 0228 CB22     		mov	r2, #203
 1612 022a BA18     		add	r2, r7, r2
 1613 022c 1278     		ldrb	r2, [r2]
 1614 022e DA76     		strb	r2, [r3, #27]
 203:.\des.c       ****   	{
 1615              		.loc 1 203 0 discriminator 2
 1616 0230 CF23     		mov	r3, #207
 1617 0232 FB18     		add	r3, r7, r3
 1618 0234 1A78     		ldrb	r2, [r3]
 1619 0236 CF23     		mov	r3, #207
 1620 0238 FB18     		add	r3, r7, r3
 1621 023a 0132     		add	r2, r2, #1
 1622 023c 1A70     		strb	r2, [r3]
 1623              	.L32:
 203:.\des.c       ****   	{
 1624              		.loc 1 203 0 is_stmt 0 discriminator 1
 1625 023e CF23     		mov	r3, #207
 1626 0240 FA18     		add	r2, r7, r3
 1627 0242 CD23     		mov	r3, #205
 1628 0244 FB18     		add	r3, r7, r3
 1629 0246 1278     		ldrb	r2, [r2]
 1630 0248 1B78     		ldrb	r3, [r3]
 1631 024a 9A42     		cmp	r2, r3
 1632 024c ADD3     		bcc	.L35
 214:.\des.c       **** 	}
 215:.\des.c       ****     
 216:.\des.c       ****     //合并
 217:.\des.c       **** 	for(i=0;i<28;i++)
 1633              		.loc 1 217 0 is_stmt 1
 1634 024e CF23     		mov	r3, #207
 1635 0250 FB18     		add	r3, r7, r3
 1636 0252 0022     		mov	r2, #0
ARM GAS  C:\Users\ADMINI~1\AppData\Local\Temp\ccv1PMEE.s 			page 34


 1637 0254 1A70     		strb	r2, [r3]
 1638 0256 1FE0     		b	.L36
 1639              	.L37:
 218:.\des.c       **** 	{
 219:.\des.c       **** 		k[i] = c[i];
 1640              		.loc 1 219 0 discriminator 3
 1641 0258 CF23     		mov	r3, #207
 1642 025a FB18     		add	r3, r7, r3
 1643 025c 1B78     		ldrb	r3, [r3]
 1644 025e CF22     		mov	r2, #207
 1645 0260 BA18     		add	r2, r7, r2
 1646 0262 1278     		ldrb	r2, [r2]
 1647 0264 3C21     		mov	r1, #60
 1648 0266 7918     		add	r1, r7, r1
 1649 0268 895C     		ldrb	r1, [r1, r2]
 1650 026a 9022     		mov	r2, #144
 1651 026c BA18     		add	r2, r7, r2
 1652 026e D154     		strb	r1, [r2, r3]
 220:.\des.c       **** 		k[28+i] = d[i];
 1653              		.loc 1 220 0 discriminator 3
 1654 0270 CF23     		mov	r3, #207
 1655 0272 FB18     		add	r3, r7, r3
 1656 0274 1B78     		ldrb	r3, [r3]
 1657 0276 1C33     		add	r3, r3, #28
 1658 0278 CF22     		mov	r2, #207
 1659 027a BA18     		add	r2, r7, r2
 1660 027c 1278     		ldrb	r2, [r2]
 1661 027e 2021     		mov	r1, #32
 1662 0280 7918     		add	r1, r7, r1
 1663 0282 895C     		ldrb	r1, [r1, r2]
 1664 0284 9022     		mov	r2, #144
 1665 0286 BA18     		add	r2, r7, r2
 1666 0288 D154     		strb	r1, [r2, r3]
 217:.\des.c       **** 	{
 1667              		.loc 1 217 0 discriminator 3
 1668 028a CF23     		mov	r3, #207
 1669 028c FB18     		add	r3, r7, r3
 1670 028e 1A78     		ldrb	r2, [r3]
 1671 0290 CF23     		mov	r3, #207
 1672 0292 FB18     		add	r3, r7, r3
 1673 0294 0132     		add	r2, r2, #1
 1674 0296 1A70     		strb	r2, [r3]
 1675              	.L36:
 217:.\des.c       **** 	{
 1676              		.loc 1 217 0 is_stmt 0 discriminator 1
 1677 0298 CF23     		mov	r3, #207
 1678 029a FB18     		add	r3, r7, r3
 1679 029c 1B78     		ldrb	r3, [r3]
 1680 029e 1B2B     		cmp	r3, #27
 1681 02a0 DAD9     		bls	.L37
 221:.\des.c       **** 	}
 222:.\des.c       ****     //置换选择2
 223:.\des.c       **** 	for(i=0;i<48;i++)
 1682              		.loc 1 223 0 is_stmt 1
 1683 02a2 CF23     		mov	r3, #207
 1684 02a4 FB18     		add	r3, r7, r3
 1685 02a6 0022     		mov	r2, #0
ARM GAS  C:\Users\ADMINI~1\AppData\Local\Temp\ccv1PMEE.s 			page 35


 1686 02a8 1A70     		strb	r2, [r3]
 1687 02aa 15E0     		b	.L38
 1688              	.L39:
 224:.\des.c       **** 	{
 225:.\des.c       ****  		key[i] = k[PC_2[i]];
 1689              		.loc 1 225 0 discriminator 3
 1690 02ac CF23     		mov	r3, #207
 1691 02ae FB18     		add	r3, r7, r3
 1692 02b0 1B78     		ldrb	r3, [r3]
 1693 02b2 7A68     		ldr	r2, [r7, #4]
 1694 02b4 D318     		add	r3, r2, r3
 1695 02b6 CF22     		mov	r2, #207
 1696 02b8 BA18     		add	r2, r7, r2
 1697 02ba 1278     		ldrb	r2, [r2]
 1698 02bc 0C49     		ldr	r1, .L40+8
 1699 02be 8A5C     		ldrb	r2, [r1, r2]
 1700 02c0 111C     		mov	r1, r2
 1701 02c2 9022     		mov	r2, #144
 1702 02c4 BA18     		add	r2, r7, r2
 1703 02c6 525C     		ldrb	r2, [r2, r1]
 1704 02c8 1A70     		strb	r2, [r3]
 223:.\des.c       **** 	{
 1705              		.loc 1 223 0 discriminator 3
 1706 02ca CF23     		mov	r3, #207
 1707 02cc FB18     		add	r3, r7, r3
 1708 02ce 1A78     		ldrb	r2, [r3]
 1709 02d0 CF23     		mov	r3, #207
 1710 02d2 FB18     		add	r3, r7, r3
 1711 02d4 0132     		add	r2, r2, #1
 1712 02d6 1A70     		strb	r2, [r3]
 1713              	.L38:
 223:.\des.c       **** 	{
 1714              		.loc 1 223 0 is_stmt 0 discriminator 1
 1715 02d8 CF23     		mov	r3, #207
 1716 02da FB18     		add	r3, r7, r3
 1717 02dc 1B78     		ldrb	r3, [r3]
 1718 02de 2F2B     		cmp	r3, #47
 1719 02e0 E4D9     		bls	.L39
 226:.\des.c       ****   	}
 227:.\des.c       **** }
 1720              		.loc 1 227 0 is_stmt 1
 1721 02e2 BD46     		mov	sp, r7
 1722 02e4 35B0     		add	sp, sp, #212
 1723              		@ sp needed
 1724 02e6 90BD     		pop	{r4, r7, pc}
 1725              	.L41:
 1726              		.align	2
 1727              	.L40:
 1728 02e8 38030000 		.word	.LC0
 1729 02ec 00000000 		.word	PC_1
 1730 02f0 00000000 		.word	PC_2
 1731              		.cfi_endproc
 1732              	.LFE41:
 1733              		.size	CreatKey, .-CreatKey
 1734              		.section	.text.firstXOR,"ax",%progbits
 1735              		.align	2
 1736              		.global	firstXOR
ARM GAS  C:\Users\ADMINI~1\AppData\Local\Temp\ccv1PMEE.s 			page 36


 1737              		.code	16
 1738              		.thumb_func
 1739              		.type	firstXOR, %function
 1740              	firstXOR:
 1741              	.LFB42:
 228:.\des.c       **** //第一次异或
 229:.\des.c       **** void firstXOR(uint8 key[48],uint8 R[48],uint8 k2[48])
 230:.\des.c       **** {
 1742              		.loc 1 230 0
 1743              		.cfi_startproc
 1744 0000 80B5     		push	{r7, lr}
 1745              		.cfi_def_cfa_offset 8
 1746              		.cfi_offset 7, -8
 1747              		.cfi_offset 14, -4
 1748 0002 86B0     		sub	sp, sp, #24
 1749              		.cfi_def_cfa_offset 32
 1750 0004 00AF     		add	r7, sp, #0
 1751              		.cfi_def_cfa_register 7
 1752 0006 F860     		str	r0, [r7, #12]
 1753 0008 B960     		str	r1, [r7, #8]
 1754 000a 7A60     		str	r2, [r7, #4]
 231:.\des.c       **** 	uint8 i;
 232:.\des.c       **** 	for(i=0;i<48;i++)
 1755              		.loc 1 232 0
 1756 000c 1723     		mov	r3, #23
 1757 000e FB18     		add	r3, r7, r3
 1758 0010 0022     		mov	r2, #0
 1759 0012 1A70     		strb	r2, [r3]
 1760 0014 23E0     		b	.L43
 1761              	.L46:
 233:.\des.c       **** 	{
 234:.\des.c       ****    		if(R[i]!=key[i])
 1762              		.loc 1 234 0
 1763 0016 1723     		mov	r3, #23
 1764 0018 FB18     		add	r3, r7, r3
 1765 001a 1B78     		ldrb	r3, [r3]
 1766 001c BA68     		ldr	r2, [r7, #8]
 1767 001e D318     		add	r3, r2, r3
 1768 0020 1A78     		ldrb	r2, [r3]
 1769 0022 1723     		mov	r3, #23
 1770 0024 FB18     		add	r3, r7, r3
 1771 0026 1B78     		ldrb	r3, [r3]
 1772 0028 F968     		ldr	r1, [r7, #12]
 1773 002a CB18     		add	r3, r1, r3
 1774 002c 1B78     		ldrb	r3, [r3]
 1775 002e 9A42     		cmp	r2, r3
 1776 0030 07D0     		beq	.L44
 235:.\des.c       ****    		{
 236:.\des.c       ****          	k2[i] = 1;
 1777              		.loc 1 236 0
 1778 0032 1723     		mov	r3, #23
 1779 0034 FB18     		add	r3, r7, r3
 1780 0036 1B78     		ldrb	r3, [r3]
 1781 0038 7A68     		ldr	r2, [r7, #4]
 1782 003a D318     		add	r3, r2, r3
 1783 003c 0122     		mov	r2, #1
 1784 003e 1A70     		strb	r2, [r3]
ARM GAS  C:\Users\ADMINI~1\AppData\Local\Temp\ccv1PMEE.s 			page 37


 1785 0040 06E0     		b	.L45
 1786              	.L44:
 237:.\des.c       ****      	}
 238:.\des.c       ****      	else
 239:.\des.c       ****      	{
 240:.\des.c       **** 	     	k2[i] = 0;
 1787              		.loc 1 240 0
 1788 0042 1723     		mov	r3, #23
 1789 0044 FB18     		add	r3, r7, r3
 1790 0046 1B78     		ldrb	r3, [r3]
 1791 0048 7A68     		ldr	r2, [r7, #4]
 1792 004a D318     		add	r3, r2, r3
 1793 004c 0022     		mov	r2, #0
 1794 004e 1A70     		strb	r2, [r3]
 1795              	.L45:
 232:.\des.c       **** 	{
 1796              		.loc 1 232 0 discriminator 2
 1797 0050 1723     		mov	r3, #23
 1798 0052 FB18     		add	r3, r7, r3
 1799 0054 1A78     		ldrb	r2, [r3]
 1800 0056 1723     		mov	r3, #23
 1801 0058 FB18     		add	r3, r7, r3
 1802 005a 0132     		add	r2, r2, #1
 1803 005c 1A70     		strb	r2, [r3]
 1804              	.L43:
 232:.\des.c       **** 	{
 1805              		.loc 1 232 0 is_stmt 0 discriminator 1
 1806 005e 1723     		mov	r3, #23
 1807 0060 FB18     		add	r3, r7, r3
 1808 0062 1B78     		ldrb	r3, [r3]
 1809 0064 2F2B     		cmp	r3, #47
 1810 0066 D6D9     		bls	.L46
 241:.\des.c       **** 		}
 242:.\des.c       ****  	}
 243:.\des.c       **** }
 1811              		.loc 1 243 0 is_stmt 1
 1812 0068 BD46     		mov	sp, r7
 1813 006a 06B0     		add	sp, sp, #24
 1814              		@ sp needed
 1815 006c 80BD     		pop	{r7, pc}
 1816              		.cfi_endproc
 1817              	.LFE42:
 1818              		.size	firstXOR, .-firstXOR
 1819 006e C046     		.section	.text.Schange,"ax",%progbits
 1820              		.align	2
 1821              		.global	Schange
 1822              		.code	16
 1823              		.thumb_func
 1824              		.type	Schange, %function
 1825              	Schange:
 1826              	.LFB43:
 244:.\des.c       **** //S盒压缩变换
 245:.\des.c       **** void Schange(uint8 k2[48],uint8 k3[32])
 246:.\des.c       **** {
 1827              		.loc 1 246 0
 1828              		.cfi_startproc
 1829 0000 90B5     		push	{r4, r7, lr}
ARM GAS  C:\Users\ADMINI~1\AppData\Local\Temp\ccv1PMEE.s 			page 38


 1830              		.cfi_def_cfa_offset 12
 1831              		.cfi_offset 4, -12
 1832              		.cfi_offset 7, -8
 1833              		.cfi_offset 14, -4
 1834 0002 93B0     		sub	sp, sp, #76
 1835              		.cfi_def_cfa_offset 88
 1836 0004 00AF     		add	r7, sp, #0
 1837              		.cfi_def_cfa_register 7
 1838 0006 7860     		str	r0, [r7, #4]
 1839 0008 3960     		str	r1, [r7]
 247:.\des.c       **** 	uint8 i,h,l,a,temp,m,j;
 248:.\des.c       ****     int k;
 249:.\des.c       ****  	uint8 b[8][6];
 250:.\des.c       ****  	uint8 num[4];
 251:.\des.c       ****     
 252:.\des.c       **** 	change2(k2,b);
 1840              		.loc 1 252 0
 1841 000a 7A68     		ldr	r2, [r7, #4]
 1842 000c 0C23     		mov	r3, #12
 1843 000e FB18     		add	r3, r7, r3
 1844 0010 101C     		mov	r0, r2
 1845 0012 191C     		mov	r1, r3
 1846 0014 FFF7FEFF 		bl	change2
 253:.\des.c       ****  	m=0;
 1847              		.loc 1 253 0
 1848 0018 4523     		mov	r3, #69
 1849 001a FB18     		add	r3, r7, r3
 1850 001c 0022     		mov	r2, #0
 1851 001e 1A70     		strb	r2, [r3]
 254:.\des.c       ****     
 255:.\des.c       **** 	for(i=0;i<8;i++)
 1852              		.loc 1 255 0
 1853 0020 4723     		mov	r3, #71
 1854 0022 FB18     		add	r3, r7, r3
 1855 0024 0022     		mov	r2, #0
 1856 0026 1A70     		strb	r2, [r3]
 1857 0028 C2E0     		b	.L48
 1858              	.L55:
 256:.\des.c       **** 	{
 257:.\des.c       ****       	h=2*b[i][0]+b[i][5];
 1859              		.loc 1 257 0
 1860 002a 4723     		mov	r3, #71
 1861 002c FB18     		add	r3, r7, r3
 1862 002e 1A78     		ldrb	r2, [r3]
 1863 0030 0C23     		mov	r3, #12
 1864 0032 F918     		add	r1, r7, r3
 1865 0034 131C     		mov	r3, r2
 1866 0036 5B00     		lsl	r3, r3, #1
 1867 0038 9B18     		add	r3, r3, r2
 1868 003a 5B00     		lsl	r3, r3, #1
 1869 003c 5B5C     		ldrb	r3, [r3, r1]
 1870 003e DB18     		add	r3, r3, r3
 1871 0040 D9B2     		uxtb	r1, r3
 1872 0042 4723     		mov	r3, #71
 1873 0044 FB18     		add	r3, r7, r3
 1874 0046 1A78     		ldrb	r2, [r3]
 1875 0048 0C23     		mov	r3, #12
ARM GAS  C:\Users\ADMINI~1\AppData\Local\Temp\ccv1PMEE.s 			page 39


 1876 004a F818     		add	r0, r7, r3
 1877 004c 131C     		mov	r3, r2
 1878 004e 5B00     		lsl	r3, r3, #1
 1879 0050 9B18     		add	r3, r3, r2
 1880 0052 5B00     		lsl	r3, r3, #1
 1881 0054 C318     		add	r3, r0, r3
 1882 0056 0533     		add	r3, r3, #5
 1883 0058 1A78     		ldrb	r2, [r3]
 1884 005a 3F23     		mov	r3, #63
 1885 005c FB18     		add	r3, r7, r3
 1886 005e 8A18     		add	r2, r1, r2
 1887 0060 1A70     		strb	r2, [r3]
 258:.\des.c       ****     	l=8*b[i][1]+4*b[i][2]+2*b[i][3]+b[i][4];
 1888              		.loc 1 258 0
 1889 0062 4723     		mov	r3, #71
 1890 0064 FB18     		add	r3, r7, r3
 1891 0066 1A78     		ldrb	r2, [r3]
 1892 0068 0C23     		mov	r3, #12
 1893 006a F918     		add	r1, r7, r3
 1894 006c 131C     		mov	r3, r2
 1895 006e 5B00     		lsl	r3, r3, #1
 1896 0070 9B18     		add	r3, r3, r2
 1897 0072 5B00     		lsl	r3, r3, #1
 1898 0074 CB18     		add	r3, r1, r3
 1899 0076 0133     		add	r3, r3, #1
 1900 0078 1B78     		ldrb	r3, [r3]
 1901 007a 5900     		lsl	r1, r3, #1
 1902 007c 4723     		mov	r3, #71
 1903 007e FB18     		add	r3, r7, r3
 1904 0080 1A78     		ldrb	r2, [r3]
 1905 0082 0C23     		mov	r3, #12
 1906 0084 F818     		add	r0, r7, r3
 1907 0086 131C     		mov	r3, r2
 1908 0088 5B00     		lsl	r3, r3, #1
 1909 008a 9B18     		add	r3, r3, r2
 1910 008c 5B00     		lsl	r3, r3, #1
 1911 008e C318     		add	r3, r0, r3
 1912 0090 0233     		add	r3, r3, #2
 1913 0092 1B78     		ldrb	r3, [r3]
 1914 0094 CB18     		add	r3, r1, r3
 1915 0096 5900     		lsl	r1, r3, #1
 1916 0098 4723     		mov	r3, #71
 1917 009a FB18     		add	r3, r7, r3
 1918 009c 1A78     		ldrb	r2, [r3]
 1919 009e 0C23     		mov	r3, #12
 1920 00a0 F818     		add	r0, r7, r3
 1921 00a2 131C     		mov	r3, r2
 1922 00a4 5B00     		lsl	r3, r3, #1
 1923 00a6 9B18     		add	r3, r3, r2
 1924 00a8 5B00     		lsl	r3, r3, #1
 1925 00aa C318     		add	r3, r0, r3
 1926 00ac 0333     		add	r3, r3, #3
 1927 00ae 1B78     		ldrb	r3, [r3]
 1928 00b0 CB18     		add	r3, r1, r3
 1929 00b2 DBB2     		uxtb	r3, r3
 1930 00b4 DB18     		add	r3, r3, r3
 1931 00b6 D9B2     		uxtb	r1, r3
ARM GAS  C:\Users\ADMINI~1\AppData\Local\Temp\ccv1PMEE.s 			page 40


 1932 00b8 4723     		mov	r3, #71
 1933 00ba FB18     		add	r3, r7, r3
 1934 00bc 1A78     		ldrb	r2, [r3]
 1935 00be 0C23     		mov	r3, #12
 1936 00c0 F818     		add	r0, r7, r3
 1937 00c2 131C     		mov	r3, r2
 1938 00c4 5B00     		lsl	r3, r3, #1
 1939 00c6 9B18     		add	r3, r3, r2
 1940 00c8 5B00     		lsl	r3, r3, #1
 1941 00ca C318     		add	r3, r0, r3
 1942 00cc 0433     		add	r3, r3, #4
 1943 00ce 1A78     		ldrb	r2, [r3]
 1944 00d0 3E23     		mov	r3, #62
 1945 00d2 FB18     		add	r3, r7, r3
 1946 00d4 8A18     		add	r2, r1, r2
 1947 00d6 1A70     		strb	r2, [r3]
 259:.\des.c       ****       	a = S[i][h][l];
 1948              		.loc 1 259 0
 1949 00d8 4723     		mov	r3, #71
 1950 00da FB18     		add	r3, r7, r3
 1951 00dc 1C78     		ldrb	r4, [r3]
 1952 00de 3F23     		mov	r3, #63
 1953 00e0 FB18     		add	r3, r7, r3
 1954 00e2 1878     		ldrb	r0, [r3]
 1955 00e4 3E23     		mov	r3, #62
 1956 00e6 FB18     		add	r3, r7, r3
 1957 00e8 1978     		ldrb	r1, [r3]
 1958 00ea 4623     		mov	r3, #70
 1959 00ec FB18     		add	r3, r7, r3
 1960 00ee 354A     		ldr	r2, .L56
 1961 00f0 A400     		lsl	r4, r4, #2
 1962 00f2 2018     		add	r0, r4, r0
 1963 00f4 0001     		lsl	r0, r0, #4
 1964 00f6 4118     		add	r1, r0, r1
 1965 00f8 8A5C     		ldrb	r2, [r1, r2]
 1966 00fa 1A70     		strb	r2, [r3]
 260:.\des.c       ****         
 261:.\des.c       ****     	k=3;
 1967              		.loc 1 261 0
 1968 00fc 0323     		mov	r3, #3
 1969 00fe 3B64     		str	r3, [r7, #64]
 262:.\des.c       ****        	while(a!=0)
 1970              		.loc 1 262 0
 1971 0100 19E0     		b	.L49
 1972              	.L50:
 263:.\des.c       ****      	{
 264:.\des.c       ****       		temp = a%2;
 1973              		.loc 1 264 0
 1974 0102 3D23     		mov	r3, #61
 1975 0104 FB18     		add	r3, r7, r3
 1976 0106 4622     		mov	r2, #70
 1977 0108 BA18     		add	r2, r7, r2
 1978 010a 1278     		ldrb	r2, [r2]
 1979 010c 0121     		mov	r1, #1
 1980 010e 0A40     		and	r2, r1
 1981 0110 1A70     		strb	r2, [r3]
 265:.\des.c       ****         	a = a/2;
ARM GAS  C:\Users\ADMINI~1\AppData\Local\Temp\ccv1PMEE.s 			page 41


 1982              		.loc 1 265 0
 1983 0112 4623     		mov	r3, #70
 1984 0114 FB18     		add	r3, r7, r3
 1985 0116 4622     		mov	r2, #70
 1986 0118 BA18     		add	r2, r7, r2
 1987 011a 1278     		ldrb	r2, [r2]
 1988 011c 5208     		lsr	r2, r2, #1
 1989 011e 1A70     		strb	r2, [r3]
 266:.\des.c       ****          	num[k] = temp;
 1990              		.loc 1 266 0
 1991 0120 0823     		mov	r3, #8
 1992 0122 FA18     		add	r2, r7, r3
 1993 0124 3B6C     		ldr	r3, [r7, #64]
 1994 0126 D318     		add	r3, r2, r3
 1995 0128 3D22     		mov	r2, #61
 1996 012a BA18     		add	r2, r7, r2
 1997 012c 1278     		ldrb	r2, [r2]
 1998 012e 1A70     		strb	r2, [r3]
 267:.\des.c       ****           	k--;
 1999              		.loc 1 267 0
 2000 0130 3B6C     		ldr	r3, [r7, #64]
 2001 0132 013B     		sub	r3, r3, #1
 2002 0134 3B64     		str	r3, [r7, #64]
 2003              	.L49:
 262:.\des.c       ****      	{
 2004              		.loc 1 262 0
 2005 0136 4623     		mov	r3, #70
 2006 0138 FB18     		add	r3, r7, r3
 2007 013a 1B78     		ldrb	r3, [r3]
 2008 013c 002B     		cmp	r3, #0
 2009 013e E0D1     		bne	.L50
 268:.\des.c       ****       	}
 269:.\des.c       ****      	while(k>=0)
 2010              		.loc 1 269 0
 2011 0140 08E0     		b	.L51
 2012              	.L52:
 270:.\des.c       ****       	{
 271:.\des.c       ****         	num[k]=0;
 2013              		.loc 1 271 0
 2014 0142 0823     		mov	r3, #8
 2015 0144 FA18     		add	r2, r7, r3
 2016 0146 3B6C     		ldr	r3, [r7, #64]
 2017 0148 D318     		add	r3, r2, r3
 2018 014a 0022     		mov	r2, #0
 2019 014c 1A70     		strb	r2, [r3]
 272:.\des.c       ****          	k--;
 2020              		.loc 1 272 0
 2021 014e 3B6C     		ldr	r3, [r7, #64]
 2022 0150 013B     		sub	r3, r3, #1
 2023 0152 3B64     		str	r3, [r7, #64]
 2024              	.L51:
 269:.\des.c       ****       	{
 2025              		.loc 1 269 0
 2026 0154 3B6C     		ldr	r3, [r7, #64]
 2027 0156 002B     		cmp	r3, #0
 2028 0158 F3DA     		bge	.L52
 273:.\des.c       ****        	}
ARM GAS  C:\Users\ADMINI~1\AppData\Local\Temp\ccv1PMEE.s 			page 42


 274:.\des.c       ****   		for(j=0;j<4;j++)
 2029              		.loc 1 274 0
 2030 015a 4423     		mov	r3, #68
 2031 015c FB18     		add	r3, r7, r3
 2032 015e 0022     		mov	r2, #0
 2033 0160 1A70     		strb	r2, [r3]
 2034 0162 19E0     		b	.L53
 2035              	.L54:
 275:.\des.c       ****      	{
 276:.\des.c       ****         	k3[m] = num[j];
 2036              		.loc 1 276 0 discriminator 3
 2037 0164 4523     		mov	r3, #69
 2038 0166 FB18     		add	r3, r7, r3
 2039 0168 1B78     		ldrb	r3, [r3]
 2040 016a 3A68     		ldr	r2, [r7]
 2041 016c D318     		add	r3, r2, r3
 2042 016e 4422     		mov	r2, #68
 2043 0170 BA18     		add	r2, r7, r2
 2044 0172 1278     		ldrb	r2, [r2]
 2045 0174 0821     		mov	r1, #8
 2046 0176 7918     		add	r1, r7, r1
 2047 0178 8A5C     		ldrb	r2, [r1, r2]
 2048 017a 1A70     		strb	r2, [r3]
 277:.\des.c       ****           	m++;
 2049              		.loc 1 277 0 discriminator 3
 2050 017c 4523     		mov	r3, #69
 2051 017e FB18     		add	r3, r7, r3
 2052 0180 1A78     		ldrb	r2, [r3]
 2053 0182 4523     		mov	r3, #69
 2054 0184 FB18     		add	r3, r7, r3
 2055 0186 0132     		add	r2, r2, #1
 2056 0188 1A70     		strb	r2, [r3]
 274:.\des.c       ****      	{
 2057              		.loc 1 274 0 discriminator 3
 2058 018a 4423     		mov	r3, #68
 2059 018c FB18     		add	r3, r7, r3
 2060 018e 1A78     		ldrb	r2, [r3]
 2061 0190 4423     		mov	r3, #68
 2062 0192 FB18     		add	r3, r7, r3
 2063 0194 0132     		add	r2, r2, #1
 2064 0196 1A70     		strb	r2, [r3]
 2065              	.L53:
 274:.\des.c       ****      	{
 2066              		.loc 1 274 0 is_stmt 0 discriminator 1
 2067 0198 4423     		mov	r3, #68
 2068 019a FB18     		add	r3, r7, r3
 2069 019c 1B78     		ldrb	r3, [r3]
 2070 019e 032B     		cmp	r3, #3
 2071 01a0 E0D9     		bls	.L54
 255:.\des.c       **** 	{
 2072              		.loc 1 255 0 is_stmt 1 discriminator 2
 2073 01a2 4723     		mov	r3, #71
 2074 01a4 FB18     		add	r3, r7, r3
 2075 01a6 1A78     		ldrb	r2, [r3]
 2076 01a8 4723     		mov	r3, #71
 2077 01aa FB18     		add	r3, r7, r3
 2078 01ac 0132     		add	r2, r2, #1
ARM GAS  C:\Users\ADMINI~1\AppData\Local\Temp\ccv1PMEE.s 			page 43


 2079 01ae 1A70     		strb	r2, [r3]
 2080              	.L48:
 255:.\des.c       **** 	{
 2081              		.loc 1 255 0 is_stmt 0 discriminator 1
 2082 01b0 4723     		mov	r3, #71
 2083 01b2 FB18     		add	r3, r7, r3
 2084 01b4 1B78     		ldrb	r3, [r3]
 2085 01b6 072B     		cmp	r3, #7
 2086 01b8 00D8     		bhi	.LCB1131
 2087 01ba 36E7     		b	.L55	@long jump
 2088              	.LCB1131:
 278:.\des.c       ****      	}
 279:.\des.c       **** 	}
 280:.\des.c       **** }
 2089              		.loc 1 280 0 is_stmt 1
 2090 01bc BD46     		mov	sp, r7
 2091 01be 13B0     		add	sp, sp, #76
 2092              		@ sp needed
 2093 01c0 90BD     		pop	{r4, r7, pc}
 2094              	.L57:
 2095 01c2 C046     		.align	2
 2096              	.L56:
 2097 01c4 00000000 		.word	S
 2098              		.cfi_endproc
 2099              	.LFE43:
 2100              		.size	Schange, .-Schange
 2101              		.section	.text.Pchange,"ax",%progbits
 2102              		.align	2
 2103              		.global	Pchange
 2104              		.code	16
 2105              		.thumb_func
 2106              		.type	Pchange, %function
 2107              	Pchange:
 2108              	.LFB44:
 281:.\des.c       **** //置换运算P
 282:.\des.c       **** void Pchange(uint8 k3[32],uint8 p[32])
 283:.\des.c       **** {
 2109              		.loc 1 283 0
 2110              		.cfi_startproc
 2111 0000 80B5     		push	{r7, lr}
 2112              		.cfi_def_cfa_offset 8
 2113              		.cfi_offset 7, -8
 2114              		.cfi_offset 14, -4
 2115 0002 84B0     		sub	sp, sp, #16
 2116              		.cfi_def_cfa_offset 24
 2117 0004 00AF     		add	r7, sp, #0
 2118              		.cfi_def_cfa_register 7
 2119 0006 7860     		str	r0, [r7, #4]
 2120 0008 3960     		str	r1, [r7]
 284:.\des.c       ****     uint8 i;
 285:.\des.c       ****     for(i=0;i<32;i++)
 2121              		.loc 1 285 0
 2122 000a 0F23     		mov	r3, #15
 2123 000c FB18     		add	r3, r7, r3
 2124 000e 0022     		mov	r2, #0
 2125 0010 1A70     		strb	r2, [r3]
 2126 0012 15E0     		b	.L59
ARM GAS  C:\Users\ADMINI~1\AppData\Local\Temp\ccv1PMEE.s 			page 44


 2127              	.L60:
 286:.\des.c       ****     {
 287:.\des.c       ****         p[i] = k3[P_Table[i]];
 2128              		.loc 1 287 0 discriminator 3
 2129 0014 0F23     		mov	r3, #15
 2130 0016 FB18     		add	r3, r7, r3
 2131 0018 1B78     		ldrb	r3, [r3]
 2132 001a 3A68     		ldr	r2, [r7]
 2133 001c D318     		add	r3, r2, r3
 2134 001e 0F22     		mov	r2, #15
 2135 0020 BA18     		add	r2, r7, r2
 2136 0022 1278     		ldrb	r2, [r2]
 2137 0024 0A49     		ldr	r1, .L61
 2138 0026 8A5C     		ldrb	r2, [r1, r2]
 2139 0028 111C     		mov	r1, r2
 2140 002a 7A68     		ldr	r2, [r7, #4]
 2141 002c 5218     		add	r2, r2, r1
 2142 002e 1278     		ldrb	r2, [r2]
 2143 0030 1A70     		strb	r2, [r3]
 285:.\des.c       ****     {
 2144              		.loc 1 285 0 discriminator 3
 2145 0032 0F23     		mov	r3, #15
 2146 0034 FB18     		add	r3, r7, r3
 2147 0036 1A78     		ldrb	r2, [r3]
 2148 0038 0F23     		mov	r3, #15
 2149 003a FB18     		add	r3, r7, r3
 2150 003c 0132     		add	r2, r2, #1
 2151 003e 1A70     		strb	r2, [r3]
 2152              	.L59:
 285:.\des.c       ****     {
 2153              		.loc 1 285 0 is_stmt 0 discriminator 1
 2154 0040 0F23     		mov	r3, #15
 2155 0042 FB18     		add	r3, r7, r3
 2156 0044 1B78     		ldrb	r3, [r3]
 2157 0046 1F2B     		cmp	r3, #31
 2158 0048 E4D9     		bls	.L60
 288:.\des.c       ****     }
 289:.\des.c       **** }
 2159              		.loc 1 289 0 is_stmt 1
 2160 004a BD46     		mov	sp, r7
 2161 004c 04B0     		add	sp, sp, #16
 2162              		@ sp needed
 2163 004e 80BD     		pop	{r7, pc}
 2164              	.L62:
 2165              		.align	2
 2166              	.L61:
 2167 0050 00000000 		.word	P_Table
 2168              		.cfi_endproc
 2169              	.LFE44:
 2170              		.size	Pchange, .-Pchange
 2171              		.section	.text.extension,"ax",%progbits
 2172              		.align	2
 2173              		.global	extension
 2174              		.code	16
 2175              		.thumb_func
 2176              		.type	extension, %function
 2177              	extension:
ARM GAS  C:\Users\ADMINI~1\AppData\Local\Temp\ccv1PMEE.s 			page 45


 2178              	.LFB45:
 290:.\des.c       **** //拓展变换
 291:.\des.c       **** void extension(uint8 a[32],uint8 b[48])
 292:.\des.c       **** {
 2179              		.loc 1 292 0
 2180              		.cfi_startproc
 2181 0000 80B5     		push	{r7, lr}
 2182              		.cfi_def_cfa_offset 8
 2183              		.cfi_offset 7, -8
 2184              		.cfi_offset 14, -4
 2185 0002 84B0     		sub	sp, sp, #16
 2186              		.cfi_def_cfa_offset 24
 2187 0004 00AF     		add	r7, sp, #0
 2188              		.cfi_def_cfa_register 7
 2189 0006 7860     		str	r0, [r7, #4]
 2190 0008 3960     		str	r1, [r7]
 293:.\des.c       ****     uint8 i;
 294:.\des.c       ****     for(i=0;i<48;i++)
 2191              		.loc 1 294 0
 2192 000a 0F23     		mov	r3, #15
 2193 000c FB18     		add	r3, r7, r3
 2194 000e 0022     		mov	r2, #0
 2195 0010 1A70     		strb	r2, [r3]
 2196 0012 15E0     		b	.L64
 2197              	.L65:
 295:.\des.c       ****     {      
 296:.\des.c       ****         b[i] = a[E_Table[i]];	    
 2198              		.loc 1 296 0 discriminator 3
 2199 0014 0F23     		mov	r3, #15
 2200 0016 FB18     		add	r3, r7, r3
 2201 0018 1B78     		ldrb	r3, [r3]
 2202 001a 3A68     		ldr	r2, [r7]
 2203 001c D318     		add	r3, r2, r3
 2204 001e 0F22     		mov	r2, #15
 2205 0020 BA18     		add	r2, r7, r2
 2206 0022 1278     		ldrb	r2, [r2]
 2207 0024 0A49     		ldr	r1, .L66
 2208 0026 8A5C     		ldrb	r2, [r1, r2]
 2209 0028 111C     		mov	r1, r2
 2210 002a 7A68     		ldr	r2, [r7, #4]
 2211 002c 5218     		add	r2, r2, r1
 2212 002e 1278     		ldrb	r2, [r2]
 2213 0030 1A70     		strb	r2, [r3]
 294:.\des.c       ****     {      
 2214              		.loc 1 294 0 discriminator 3
 2215 0032 0F23     		mov	r3, #15
 2216 0034 FB18     		add	r3, r7, r3
 2217 0036 1A78     		ldrb	r2, [r3]
 2218 0038 0F23     		mov	r3, #15
 2219 003a FB18     		add	r3, r7, r3
 2220 003c 0132     		add	r2, r2, #1
 2221 003e 1A70     		strb	r2, [r3]
 2222              	.L64:
 294:.\des.c       ****     {      
 2223              		.loc 1 294 0 is_stmt 0 discriminator 1
 2224 0040 0F23     		mov	r3, #15
 2225 0042 FB18     		add	r3, r7, r3
ARM GAS  C:\Users\ADMINI~1\AppData\Local\Temp\ccv1PMEE.s 			page 46


 2226 0044 1B78     		ldrb	r3, [r3]
 2227 0046 2F2B     		cmp	r3, #47
 2228 0048 E4D9     		bls	.L65
 297:.\des.c       ****     }
 298:.\des.c       **** }
 2229              		.loc 1 298 0 is_stmt 1
 2230 004a BD46     		mov	sp, r7
 2231 004c 04B0     		add	sp, sp, #16
 2232              		@ sp needed
 2233 004e 80BD     		pop	{r7, pc}
 2234              	.L67:
 2235              		.align	2
 2236              	.L66:
 2237 0050 00000000 		.word	E_Table
 2238              		.cfi_endproc
 2239              	.LFE45:
 2240              		.size	extension, .-extension
 2241              		.section	.text.feistel,"ax",%progbits
 2242              		.align	2
 2243              		.global	feistel
 2244              		.code	16
 2245              		.thumb_func
 2246              		.type	feistel, %function
 2247              	feistel:
 2248              	.LFB46:
 299:.\des.c       **** 
 300:.\des.c       **** void feistel(uint8 R[32], uint8 key[48],uint8 p[32])
 301:.\des.c       **** {
 2249              		.loc 1 301 0
 2250              		.cfi_startproc
 2251 0000 80B5     		push	{r7, lr}
 2252              		.cfi_def_cfa_offset 8
 2253              		.cfi_offset 7, -8
 2254              		.cfi_offset 14, -4
 2255 0002 A4B0     		sub	sp, sp, #144
 2256              		.cfi_def_cfa_offset 152
 2257 0004 00AF     		add	r7, sp, #0
 2258              		.cfi_def_cfa_register 7
 2259 0006 F860     		str	r0, [r7, #12]
 2260 0008 B960     		str	r1, [r7, #8]
 2261 000a 7A60     		str	r2, [r7, #4]
 302:.\des.c       ****     uint8 b[48],k2[48],k3[32];
 303:.\des.c       ****     extension(R,b);
 2262              		.loc 1 303 0
 2263 000c FA68     		ldr	r2, [r7, #12]
 2264 000e 6023     		mov	r3, #96
 2265 0010 FB18     		add	r3, r7, r3
 2266 0012 101C     		mov	r0, r2
 2267 0014 191C     		mov	r1, r3
 2268 0016 FFF7FEFF 		bl	extension
 304:.\des.c       ****     firstXOR(key,b,k2);
 2269              		.loc 1 304 0
 2270 001a B968     		ldr	r1, [r7, #8]
 2271 001c 6023     		mov	r3, #96
 2272 001e FA18     		add	r2, r7, r3
 2273 0020 3023     		mov	r3, #48
 2274 0022 FB18     		add	r3, r7, r3
ARM GAS  C:\Users\ADMINI~1\AppData\Local\Temp\ccv1PMEE.s 			page 47


 2275 0024 081C     		mov	r0, r1
 2276 0026 111C     		mov	r1, r2
 2277 0028 1A1C     		mov	r2, r3
 2278 002a FFF7FEFF 		bl	firstXOR
 305:.\des.c       ****     
 306:.\des.c       ****     Schange(k2,k3);
 2279              		.loc 1 306 0
 2280 002e 3023     		mov	r3, #48
 2281 0030 FA18     		add	r2, r7, r3
 2282 0032 1023     		mov	r3, #16
 2283 0034 FB18     		add	r3, r7, r3
 2284 0036 101C     		mov	r0, r2
 2285 0038 191C     		mov	r1, r3
 2286 003a FFF7FEFF 		bl	Schange
 307:.\des.c       ****     Pchange(k3,p);
 2287              		.loc 1 307 0
 2288 003e 1023     		mov	r3, #16
 2289 0040 FA18     		add	r2, r7, r3
 2290 0042 7B68     		ldr	r3, [r7, #4]
 2291 0044 101C     		mov	r0, r2
 2292 0046 191C     		mov	r1, r3
 2293 0048 FFF7FEFF 		bl	Pchange
 308:.\des.c       **** }
 2294              		.loc 1 308 0
 2295 004c BD46     		mov	sp, r7
 2296 004e 24B0     		add	sp, sp, #144
 2297              		@ sp needed
 2298 0050 80BD     		pop	{r7, pc}
 2299              		.cfi_endproc
 2300              	.LFE46:
 2301              		.size	feistel, .-feistel
 2302 0052 C046     		.section	.text.SecondXOR,"ax",%progbits
 2303              		.align	2
 2304              		.global	SecondXOR
 2305              		.code	16
 2306              		.thumb_func
 2307              		.type	SecondXOR, %function
 2308              	SecondXOR:
 2309              	.LFB47:
 309:.\des.c       **** //第二次异或
 310:.\des.c       **** void SecondXOR(uint8 L[32],uint8 p[32],uint8 R1[32])
 311:.\des.c       **** {
 2310              		.loc 1 311 0
 2311              		.cfi_startproc
 2312 0000 80B5     		push	{r7, lr}
 2313              		.cfi_def_cfa_offset 8
 2314              		.cfi_offset 7, -8
 2315              		.cfi_offset 14, -4
 2316 0002 86B0     		sub	sp, sp, #24
 2317              		.cfi_def_cfa_offset 32
 2318 0004 00AF     		add	r7, sp, #0
 2319              		.cfi_def_cfa_register 7
 2320 0006 F860     		str	r0, [r7, #12]
 2321 0008 B960     		str	r1, [r7, #8]
 2322 000a 7A60     		str	r2, [r7, #4]
 312:.\des.c       ****     uint8 i;
 313:.\des.c       ****     for(i=0;i<32;i++)
ARM GAS  C:\Users\ADMINI~1\AppData\Local\Temp\ccv1PMEE.s 			page 48


 2323              		.loc 1 313 0
 2324 000c 1723     		mov	r3, #23
 2325 000e FB18     		add	r3, r7, r3
 2326 0010 0022     		mov	r2, #0
 2327 0012 1A70     		strb	r2, [r3]
 2328 0014 23E0     		b	.L70
 2329              	.L73:
 314:.\des.c       ****     {
 315:.\des.c       ****         if(L[i]!=p[i])
 2330              		.loc 1 315 0
 2331 0016 1723     		mov	r3, #23
 2332 0018 FB18     		add	r3, r7, r3
 2333 001a 1B78     		ldrb	r3, [r3]
 2334 001c FA68     		ldr	r2, [r7, #12]
 2335 001e D318     		add	r3, r2, r3
 2336 0020 1A78     		ldrb	r2, [r3]
 2337 0022 1723     		mov	r3, #23
 2338 0024 FB18     		add	r3, r7, r3
 2339 0026 1B78     		ldrb	r3, [r3]
 2340 0028 B968     		ldr	r1, [r7, #8]
 2341 002a CB18     		add	r3, r1, r3
 2342 002c 1B78     		ldrb	r3, [r3]
 2343 002e 9A42     		cmp	r2, r3
 2344 0030 07D0     		beq	.L71
 316:.\des.c       ****         {
 317:.\des.c       ****             R1[i] = 1;
 2345              		.loc 1 317 0
 2346 0032 1723     		mov	r3, #23
 2347 0034 FB18     		add	r3, r7, r3
 2348 0036 1B78     		ldrb	r3, [r3]
 2349 0038 7A68     		ldr	r2, [r7, #4]
 2350 003a D318     		add	r3, r2, r3
 2351 003c 0122     		mov	r2, #1
 2352 003e 1A70     		strb	r2, [r3]
 2353 0040 06E0     		b	.L72
 2354              	.L71:
 318:.\des.c       ****         }
 319:.\des.c       ****         else
 320:.\des.c       ****         {
 321:.\des.c       ****             R1[i] = 0;
 2355              		.loc 1 321 0
 2356 0042 1723     		mov	r3, #23
 2357 0044 FB18     		add	r3, r7, r3
 2358 0046 1B78     		ldrb	r3, [r3]
 2359 0048 7A68     		ldr	r2, [r7, #4]
 2360 004a D318     		add	r3, r2, r3
 2361 004c 0022     		mov	r2, #0
 2362 004e 1A70     		strb	r2, [r3]
 2363              	.L72:
 313:.\des.c       ****     {
 2364              		.loc 1 313 0 discriminator 2
 2365 0050 1723     		mov	r3, #23
 2366 0052 FB18     		add	r3, r7, r3
 2367 0054 1A78     		ldrb	r2, [r3]
 2368 0056 1723     		mov	r3, #23
 2369 0058 FB18     		add	r3, r7, r3
 2370 005a 0132     		add	r2, r2, #1
ARM GAS  C:\Users\ADMINI~1\AppData\Local\Temp\ccv1PMEE.s 			page 49


 2371 005c 1A70     		strb	r2, [r3]
 2372              	.L70:
 313:.\des.c       ****     {
 2373              		.loc 1 313 0 is_stmt 0 discriminator 1
 2374 005e 1723     		mov	r3, #23
 2375 0060 FB18     		add	r3, r7, r3
 2376 0062 1B78     		ldrb	r3, [r3]
 2377 0064 1F2B     		cmp	r3, #31
 2378 0066 D6D9     		bls	.L73
 322:.\des.c       ****         }
 323:.\des.c       ****     }
 324:.\des.c       **** }
 2379              		.loc 1 324 0 is_stmt 1
 2380 0068 BD46     		mov	sp, r7
 2381 006a 06B0     		add	sp, sp, #24
 2382              		@ sp needed
 2383 006c 80BD     		pop	{r7, pc}
 2384              		.cfi_endproc
 2385              	.LFE47:
 2386              		.size	SecondXOR, .-SecondXOR
 2387 006e C046     		.section	.text.Split_LR,"ax",%progbits
 2388              		.align	2
 2389              		.global	Split_LR
 2390              		.code	16
 2391              		.thumb_func
 2392              		.type	Split_LR, %function
 2393              	Split_LR:
 2394              	.LFB48:
 325:.\des.c       **** 
 326:.\des.c       **** 
 327:.\des.c       **** /*把明文分成两部分32+32*/
 328:.\des.c       **** void Split_LR(uint8 data[64],uint8 data_L[32],uint8 data_R[32])
 329:.\des.c       **** {
 2395              		.loc 1 329 0
 2396              		.cfi_startproc
 2397 0000 80B5     		push	{r7, lr}
 2398              		.cfi_def_cfa_offset 8
 2399              		.cfi_offset 7, -8
 2400              		.cfi_offset 14, -4
 2401 0002 86B0     		sub	sp, sp, #24
 2402              		.cfi_def_cfa_offset 32
 2403 0004 00AF     		add	r7, sp, #0
 2404              		.cfi_def_cfa_register 7
 2405 0006 F860     		str	r0, [r7, #12]
 2406 0008 B960     		str	r1, [r7, #8]
 2407 000a 7A60     		str	r2, [r7, #4]
 330:.\des.c       **** 	uint8 i,j;
 331:.\des.c       **** 	for(i=0;i<4;i++)
 2408              		.loc 1 331 0
 2409 000c 1723     		mov	r3, #23
 2410 000e FB18     		add	r3, r7, r3
 2411 0010 0022     		mov	r2, #0
 2412 0012 1A70     		strb	r2, [r3]
 2413 0014 48E0     		b	.L75
 2414              	.L78:
 332:.\des.c       **** 	{
 333:.\des.c       **** 		for(j=0;j<8;j++)
ARM GAS  C:\Users\ADMINI~1\AppData\Local\Temp\ccv1PMEE.s 			page 50


 2415              		.loc 1 333 0
 2416 0016 1623     		mov	r3, #22
 2417 0018 FB18     		add	r3, r7, r3
 2418 001a 0022     		mov	r2, #0
 2419 001c 1A70     		strb	r2, [r3]
 2420 001e 37E0     		b	.L76
 2421              	.L77:
 334:.\des.c       ****    		{
 335:.\des.c       ****      		data_L[i*8+j] = data[i*8 + j];
 2422              		.loc 1 335 0 discriminator 3
 2423 0020 1723     		mov	r3, #23
 2424 0022 FB18     		add	r3, r7, r3
 2425 0024 1B78     		ldrb	r3, [r3]
 2426 0026 DA00     		lsl	r2, r3, #3
 2427 0028 1623     		mov	r3, #22
 2428 002a FB18     		add	r3, r7, r3
 2429 002c 1B78     		ldrb	r3, [r3]
 2430 002e D318     		add	r3, r2, r3
 2431 0030 1A1C     		mov	r2, r3
 2432 0032 BB68     		ldr	r3, [r7, #8]
 2433 0034 9B18     		add	r3, r3, r2
 2434 0036 1722     		mov	r2, #23
 2435 0038 BA18     		add	r2, r7, r2
 2436 003a 1278     		ldrb	r2, [r2]
 2437 003c D100     		lsl	r1, r2, #3
 2438 003e 1622     		mov	r2, #22
 2439 0040 BA18     		add	r2, r7, r2
 2440 0042 1278     		ldrb	r2, [r2]
 2441 0044 8A18     		add	r2, r1, r2
 2442 0046 111C     		mov	r1, r2
 2443 0048 FA68     		ldr	r2, [r7, #12]
 2444 004a 5218     		add	r2, r2, r1
 2445 004c 1278     		ldrb	r2, [r2]
 2446 004e 1A70     		strb	r2, [r3]
 336:.\des.c       ****      		data_R[i*8+j] = data[(i+4)*8 + j];
 2447              		.loc 1 336 0 discriminator 3
 2448 0050 1723     		mov	r3, #23
 2449 0052 FB18     		add	r3, r7, r3
 2450 0054 1B78     		ldrb	r3, [r3]
 2451 0056 DA00     		lsl	r2, r3, #3
 2452 0058 1623     		mov	r3, #22
 2453 005a FB18     		add	r3, r7, r3
 2454 005c 1B78     		ldrb	r3, [r3]
 2455 005e D318     		add	r3, r2, r3
 2456 0060 1A1C     		mov	r2, r3
 2457 0062 7B68     		ldr	r3, [r7, #4]
 2458 0064 9B18     		add	r3, r3, r2
 2459 0066 1722     		mov	r2, #23
 2460 0068 BA18     		add	r2, r7, r2
 2461 006a 1278     		ldrb	r2, [r2]
 2462 006c 0432     		add	r2, r2, #4
 2463 006e D100     		lsl	r1, r2, #3
 2464 0070 1622     		mov	r2, #22
 2465 0072 BA18     		add	r2, r7, r2
 2466 0074 1278     		ldrb	r2, [r2]
 2467 0076 8A18     		add	r2, r1, r2
 2468 0078 111C     		mov	r1, r2
ARM GAS  C:\Users\ADMINI~1\AppData\Local\Temp\ccv1PMEE.s 			page 51


 2469 007a FA68     		ldr	r2, [r7, #12]
 2470 007c 5218     		add	r2, r2, r1
 2471 007e 1278     		ldrb	r2, [r2]
 2472 0080 1A70     		strb	r2, [r3]
 333:.\des.c       ****    		{
 2473              		.loc 1 333 0 discriminator 3
 2474 0082 1623     		mov	r3, #22
 2475 0084 FB18     		add	r3, r7, r3
 2476 0086 1A78     		ldrb	r2, [r3]
 2477 0088 1623     		mov	r3, #22
 2478 008a FB18     		add	r3, r7, r3
 2479 008c 0132     		add	r2, r2, #1
 2480 008e 1A70     		strb	r2, [r3]
 2481              	.L76:
 333:.\des.c       ****    		{
 2482              		.loc 1 333 0 is_stmt 0 discriminator 1
 2483 0090 1623     		mov	r3, #22
 2484 0092 FB18     		add	r3, r7, r3
 2485 0094 1B78     		ldrb	r3, [r3]
 2486 0096 072B     		cmp	r3, #7
 2487 0098 C2D9     		bls	.L77
 331:.\des.c       **** 	{
 2488              		.loc 1 331 0 is_stmt 1 discriminator 2
 2489 009a 1723     		mov	r3, #23
 2490 009c FB18     		add	r3, r7, r3
 2491 009e 1A78     		ldrb	r2, [r3]
 2492 00a0 1723     		mov	r3, #23
 2493 00a2 FB18     		add	r3, r7, r3
 2494 00a4 0132     		add	r2, r2, #1
 2495 00a6 1A70     		strb	r2, [r3]
 2496              	.L75:
 331:.\des.c       **** 	{
 2497              		.loc 1 331 0 is_stmt 0 discriminator 1
 2498 00a8 1723     		mov	r3, #23
 2499 00aa FB18     		add	r3, r7, r3
 2500 00ac 1B78     		ldrb	r3, [r3]
 2501 00ae 032B     		cmp	r3, #3
 2502 00b0 B1D9     		bls	.L78
 337:.\des.c       ****      	}
 338:.\des.c       **** 	}
 339:.\des.c       **** }
 2503              		.loc 1 339 0 is_stmt 1
 2504 00b2 BD46     		mov	sp, r7
 2505 00b4 06B0     		add	sp, sp, #24
 2506              		@ sp needed
 2507 00b6 80BD     		pop	{r7, pc}
 2508              		.cfi_endproc
 2509              	.LFE48:
 2510              		.size	Split_LR, .-Split_LR
 2511              		.section	.text.Swap,"ax",%progbits
 2512              		.align	2
 2513              		.global	Swap
 2514              		.code	16
 2515              		.thumb_func
 2516              		.type	Swap, %function
 2517              	Swap:
 2518              	.LFB49:
ARM GAS  C:\Users\ADMINI~1\AppData\Local\Temp\ccv1PMEE.s 			page 52


 340:.\des.c       **** 
 341:.\des.c       **** void Swap(uint8 data_L[32],uint8 data_R[32])
 342:.\des.c       **** {
 2519              		.loc 1 342 0
 2520              		.cfi_startproc
 2521 0000 80B5     		push	{r7, lr}
 2522              		.cfi_def_cfa_offset 8
 2523              		.cfi_offset 7, -8
 2524              		.cfi_offset 14, -4
 2525 0002 84B0     		sub	sp, sp, #16
 2526              		.cfi_def_cfa_offset 24
 2527 0004 00AF     		add	r7, sp, #0
 2528              		.cfi_def_cfa_register 7
 2529 0006 7860     		str	r0, [r7, #4]
 2530 0008 3960     		str	r1, [r7]
 343:.\des.c       **** 	uint8 i;
 344:.\des.c       **** 	for(i=0;i<32;i++)
 2531              		.loc 1 344 0
 2532 000a 0F23     		mov	r3, #15
 2533 000c FB18     		add	r3, r7, r3
 2534 000e 0022     		mov	r2, #0
 2535 0010 1A70     		strb	r2, [r3]
 2536 0012 12E0     		b	.L80
 2537              	.L81:
 345:.\des.c       **** 	{
 346:.\des.c       ****     	data_L[i] = data_R[i];
 2538              		.loc 1 346 0 discriminator 3
 2539 0014 0F23     		mov	r3, #15
 2540 0016 FB18     		add	r3, r7, r3
 2541 0018 1B78     		ldrb	r3, [r3]
 2542 001a 7A68     		ldr	r2, [r7, #4]
 2543 001c D318     		add	r3, r2, r3
 2544 001e 0F22     		mov	r2, #15
 2545 0020 BA18     		add	r2, r7, r2
 2546 0022 1278     		ldrb	r2, [r2]
 2547 0024 3968     		ldr	r1, [r7]
 2548 0026 8A18     		add	r2, r1, r2
 2549 0028 1278     		ldrb	r2, [r2]
 2550 002a 1A70     		strb	r2, [r3]
 344:.\des.c       **** 	{
 2551              		.loc 1 344 0 discriminator 3
 2552 002c 0F23     		mov	r3, #15
 2553 002e FB18     		add	r3, r7, r3
 2554 0030 1A78     		ldrb	r2, [r3]
 2555 0032 0F23     		mov	r3, #15
 2556 0034 FB18     		add	r3, r7, r3
 2557 0036 0132     		add	r2, r2, #1
 2558 0038 1A70     		strb	r2, [r3]
 2559              	.L80:
 344:.\des.c       **** 	{
 2560              		.loc 1 344 0 is_stmt 0 discriminator 1
 2561 003a 0F23     		mov	r3, #15
 2562 003c FB18     		add	r3, r7, r3
 2563 003e 1B78     		ldrb	r3, [r3]
 2564 0040 1F2B     		cmp	r3, #31
 2565 0042 E7D9     		bls	.L81
 347:.\des.c       ****   	}
ARM GAS  C:\Users\ADMINI~1\AppData\Local\Temp\ccv1PMEE.s 			page 53


 348:.\des.c       **** }
 2566              		.loc 1 348 0 is_stmt 1
 2567 0044 BD46     		mov	sp, r7
 2568 0046 04B0     		add	sp, sp, #16
 2569              		@ sp needed
 2570 0048 80BD     		pop	{r7, pc}
 2571              		.cfi_endproc
 2572              	.LFE49:
 2573              		.size	Swap, .-Swap
 2574 004a C046     		.section	.text.BackChange,"ax",%progbits
 2575              		.align	2
 2576              		.global	BackChange
 2577              		.code	16
 2578              		.thumb_func
 2579              		.type	BackChange, %function
 2580              	BackChange:
 2581              	.LFB50:
 349:.\des.c       **** //逆初始置换
 350:.\des.c       **** void BackChange(uint8 data_L[32],uint8 data_R[32],uint8 data[64])
 351:.\des.c       **** {
 2582              		.loc 1 351 0
 2583              		.cfi_startproc
 2584 0000 80B5     		push	{r7, lr}
 2585              		.cfi_def_cfa_offset 8
 2586              		.cfi_offset 7, -8
 2587              		.cfi_offset 14, -4
 2588 0002 96B0     		sub	sp, sp, #88
 2589              		.cfi_def_cfa_offset 96
 2590 0004 00AF     		add	r7, sp, #0
 2591              		.cfi_def_cfa_register 7
 2592 0006 F860     		str	r0, [r7, #12]
 2593 0008 B960     		str	r1, [r7, #8]
 2594 000a 7A60     		str	r2, [r7, #4]
 352:.\des.c       **** 	uint8 a[64];
 353:.\des.c       **** 	uint8 i;
 354:.\des.c       **** 	for(i=0;i<32;i++)
 2595              		.loc 1 354 0
 2596 000c 5723     		mov	r3, #87
 2597 000e FB18     		add	r3, r7, r3
 2598 0010 0022     		mov	r2, #0
 2599 0012 1A70     		strb	r2, [r3]
 2600 0014 1FE0     		b	.L83
 2601              	.L84:
 355:.\des.c       ****    	{
 356:.\des.c       ****    		a[i] = data_L[i];
 2602              		.loc 1 356 0 discriminator 3
 2603 0016 5723     		mov	r3, #87
 2604 0018 FB18     		add	r3, r7, r3
 2605 001a 1B78     		ldrb	r3, [r3]
 2606 001c 5722     		mov	r2, #87
 2607 001e BA18     		add	r2, r7, r2
 2608 0020 1278     		ldrb	r2, [r2]
 2609 0022 F968     		ldr	r1, [r7, #12]
 2610 0024 8A18     		add	r2, r1, r2
 2611 0026 1178     		ldrb	r1, [r2]
 2612 0028 1422     		mov	r2, #20
 2613 002a BA18     		add	r2, r7, r2
ARM GAS  C:\Users\ADMINI~1\AppData\Local\Temp\ccv1PMEE.s 			page 54


 2614 002c D154     		strb	r1, [r2, r3]
 357:.\des.c       ****     	a[32+i] = data_R[i];
 2615              		.loc 1 357 0 discriminator 3
 2616 002e 5723     		mov	r3, #87
 2617 0030 FB18     		add	r3, r7, r3
 2618 0032 1B78     		ldrb	r3, [r3]
 2619 0034 2033     		add	r3, r3, #32
 2620 0036 5722     		mov	r2, #87
 2621 0038 BA18     		add	r2, r7, r2
 2622 003a 1278     		ldrb	r2, [r2]
 2623 003c B968     		ldr	r1, [r7, #8]
 2624 003e 8A18     		add	r2, r1, r2
 2625 0040 1178     		ldrb	r1, [r2]
 2626 0042 1422     		mov	r2, #20
 2627 0044 BA18     		add	r2, r7, r2
 2628 0046 D154     		strb	r1, [r2, r3]
 354:.\des.c       ****    	{
 2629              		.loc 1 354 0 discriminator 3
 2630 0048 5723     		mov	r3, #87
 2631 004a FB18     		add	r3, r7, r3
 2632 004c 1A78     		ldrb	r2, [r3]
 2633 004e 5723     		mov	r3, #87
 2634 0050 FB18     		add	r3, r7, r3
 2635 0052 0132     		add	r2, r2, #1
 2636 0054 1A70     		strb	r2, [r3]
 2637              	.L83:
 354:.\des.c       ****    	{
 2638              		.loc 1 354 0 is_stmt 0 discriminator 1
 2639 0056 5723     		mov	r3, #87
 2640 0058 FB18     		add	r3, r7, r3
 2641 005a 1B78     		ldrb	r3, [r3]
 2642 005c 1F2B     		cmp	r3, #31
 2643 005e DAD9     		bls	.L84
 358:.\des.c       ****  	}
 359:.\des.c       **** 	for(i=0;i<64;i++)
 2644              		.loc 1 359 0 is_stmt 1
 2645 0060 5723     		mov	r3, #87
 2646 0062 FB18     		add	r3, r7, r3
 2647 0064 0022     		mov	r2, #0
 2648 0066 1A70     		strb	r2, [r3]
 2649 0068 15E0     		b	.L85
 2650              	.L86:
 360:.\des.c       **** 	{
 361:.\des.c       ****  		data[i] = a[IP_1_Table[i]];
 2651              		.loc 1 361 0 discriminator 3
 2652 006a 5723     		mov	r3, #87
 2653 006c FB18     		add	r3, r7, r3
 2654 006e 1B78     		ldrb	r3, [r3]
 2655 0070 7A68     		ldr	r2, [r7, #4]
 2656 0072 D318     		add	r3, r2, r3
 2657 0074 5722     		mov	r2, #87
 2658 0076 BA18     		add	r2, r7, r2
 2659 0078 1278     		ldrb	r2, [r2]
 2660 007a 0B49     		ldr	r1, .L87
 2661 007c 8A5C     		ldrb	r2, [r1, r2]
 2662 007e 111C     		mov	r1, r2
 2663 0080 1422     		mov	r2, #20
ARM GAS  C:\Users\ADMINI~1\AppData\Local\Temp\ccv1PMEE.s 			page 55


 2664 0082 BA18     		add	r2, r7, r2
 2665 0084 525C     		ldrb	r2, [r2, r1]
 2666 0086 1A70     		strb	r2, [r3]
 359:.\des.c       **** 	{
 2667              		.loc 1 359 0 discriminator 3
 2668 0088 5723     		mov	r3, #87
 2669 008a FB18     		add	r3, r7, r3
 2670 008c 1A78     		ldrb	r2, [r3]
 2671 008e 5723     		mov	r3, #87
 2672 0090 FB18     		add	r3, r7, r3
 2673 0092 0132     		add	r2, r2, #1
 2674 0094 1A70     		strb	r2, [r3]
 2675              	.L85:
 359:.\des.c       **** 	{
 2676              		.loc 1 359 0 is_stmt 0 discriminator 1
 2677 0096 5723     		mov	r3, #87
 2678 0098 FB18     		add	r3, r7, r3
 2679 009a 1B78     		ldrb	r3, [r3]
 2680 009c 3F2B     		cmp	r3, #63
 2681 009e E4D9     		bls	.L86
 362:.\des.c       ****   	}
 363:.\des.c       **** }
 2682              		.loc 1 363 0 is_stmt 1
 2683 00a0 BD46     		mov	sp, r7
 2684 00a2 16B0     		add	sp, sp, #88
 2685              		@ sp needed
 2686 00a4 80BD     		pop	{r7, pc}
 2687              	.L88:
 2688 00a6 C046     		.align	2
 2689              	.L87:
 2690 00a8 00000000 		.word	IP_1_Table
 2691              		.cfi_endproc
 2692              	.LFE50:
 2693              		.size	BackChange, .-BackChange
 2694              		.section	.text.BitToByte,"ax",%progbits
 2695              		.align	2
 2696              		.global	BitToByte
 2697              		.code	16
 2698              		.thumb_func
 2699              		.type	BitToByte, %function
 2700              	BitToByte:
 2701              	.LFB51:
 364:.\des.c       **** 
 365:.\des.c       **** //二进制转换成字节  
 366:.\des.c       **** uint8 BitToByte(uint8 *bit)
 367:.\des.c       **** {  
 2702              		.loc 1 367 0
 2703              		.cfi_startproc
 2704 0000 80B5     		push	{r7, lr}
 2705              		.cfi_def_cfa_offset 8
 2706              		.cfi_offset 7, -8
 2707              		.cfi_offset 14, -4
 2708 0002 84B0     		sub	sp, sp, #16
 2709              		.cfi_def_cfa_offset 24
 2710 0004 00AF     		add	r7, sp, #0
 2711              		.cfi_def_cfa_register 7
 2712 0006 7860     		str	r0, [r7, #4]
ARM GAS  C:\Users\ADMINI~1\AppData\Local\Temp\ccv1PMEE.s 			page 56


 368:.\des.c       ****     uint8 cnt;
 369:.\des.c       ****     uint8 data=0;  
 2713              		.loc 1 369 0
 2714 0008 0E23     		mov	r3, #14
 2715 000a FB18     		add	r3, r7, r3
 2716 000c 0022     		mov	r2, #0
 2717 000e 1A70     		strb	r2, [r3]
 370:.\des.c       ****     for(cnt = 0; cnt < 8; cnt++)
 2718              		.loc 1 370 0
 2719 0010 0F23     		mov	r3, #15
 2720 0012 FB18     		add	r3, r7, r3
 2721 0014 0022     		mov	r2, #0
 2722 0016 1A70     		strb	r2, [r3]
 2723 0018 1DE0     		b	.L90
 2724              	.L91:
 371:.\des.c       ****     {  
 372:.\des.c       ****         data |= bit[cnt] << (7 - cnt);  
 2725              		.loc 1 372 0 discriminator 3
 2726 001a 0F23     		mov	r3, #15
 2727 001c FB18     		add	r3, r7, r3
 2728 001e 1B78     		ldrb	r3, [r3]
 2729 0020 7A68     		ldr	r2, [r7, #4]
 2730 0022 D318     		add	r3, r2, r3
 2731 0024 1B78     		ldrb	r3, [r3]
 2732 0026 191C     		mov	r1, r3
 2733 0028 0F23     		mov	r3, #15
 2734 002a FB18     		add	r3, r7, r3
 2735 002c 1B78     		ldrb	r3, [r3]
 2736 002e 0722     		mov	r2, #7
 2737 0030 D31A     		sub	r3, r2, r3
 2738 0032 9940     		lsl	r1, r1, r3
 2739 0034 0B1C     		mov	r3, r1
 2740 0036 DAB2     		uxtb	r2, r3
 2741 0038 0E23     		mov	r3, #14
 2742 003a FB18     		add	r3, r7, r3
 2743 003c 1B78     		ldrb	r3, [r3]
 2744 003e 1343     		orr	r3, r2
 2745 0040 DAB2     		uxtb	r2, r3
 2746 0042 0E23     		mov	r3, #14
 2747 0044 FB18     		add	r3, r7, r3
 2748 0046 1A70     		strb	r2, [r3]
 370:.\des.c       ****     for(cnt = 0; cnt < 8; cnt++)
 2749              		.loc 1 370 0 discriminator 3
 2750 0048 0F23     		mov	r3, #15
 2751 004a FB18     		add	r3, r7, r3
 2752 004c 1A78     		ldrb	r2, [r3]
 2753 004e 0F23     		mov	r3, #15
 2754 0050 FB18     		add	r3, r7, r3
 2755 0052 0132     		add	r2, r2, #1
 2756 0054 1A70     		strb	r2, [r3]
 2757              	.L90:
 370:.\des.c       ****     for(cnt = 0; cnt < 8; cnt++)
 2758              		.loc 1 370 0 is_stmt 0 discriminator 1
 2759 0056 0F23     		mov	r3, #15
 2760 0058 FB18     		add	r3, r7, r3
 2761 005a 1B78     		ldrb	r3, [r3]
 2762 005c 072B     		cmp	r3, #7
ARM GAS  C:\Users\ADMINI~1\AppData\Local\Temp\ccv1PMEE.s 			page 57


 2763 005e DCD9     		bls	.L91
 373:.\des.c       ****     }   
 374:.\des.c       ****     return data;
 2764              		.loc 1 374 0 is_stmt 1
 2765 0060 0E23     		mov	r3, #14
 2766 0062 FB18     		add	r3, r7, r3
 2767 0064 1B78     		ldrb	r3, [r3]
 375:.\des.c       **** }  
 2768              		.loc 1 375 0
 2769 0066 181C     		mov	r0, r3
 2770 0068 BD46     		mov	sp, r7
 2771 006a 04B0     		add	sp, sp, #16
 2772              		@ sp needed
 2773 006c 80BD     		pop	{r7, pc}
 2774              		.cfi_endproc
 2775              	.LFE51:
 2776              		.size	BitToByte, .-BitToByte
 2777 006e C046     		.section	.text.GetLR,"ax",%progbits
 2778              		.align	2
 2779              		.global	GetLR
 2780              		.code	16
 2781              		.thumb_func
 2782              		.type	GetLR, %function
 2783              	GetLR:
 2784              	.LFB52:
 376:.\des.c       **** //提取明文信息,转为左右两部分
 377:.\des.c       **** void GetLR(uint8 data[8],uint8 data_L[32],uint8 data_R[32])
 378:.\des.c       **** {
 2785              		.loc 1 378 0
 2786              		.cfi_startproc
 2787 0000 80B5     		push	{r7, lr}
 2788              		.cfi_def_cfa_offset 8
 2789              		.cfi_offset 7, -8
 2790              		.cfi_offset 14, -4
 2791 0002 A4B0     		sub	sp, sp, #144
 2792              		.cfi_def_cfa_offset 152
 2793 0004 00AF     		add	r7, sp, #0
 2794              		.cfi_def_cfa_register 7
 2795 0006 F860     		str	r0, [r7, #12]
 2796 0008 B960     		str	r1, [r7, #8]
 2797 000a 7A60     		str	r2, [r7, #4]
 379:.\des.c       ****     uint8 minwen[64];
 380:.\des.c       ****     uint8 buffer[64];
 381:.\des.c       ****     
 382:.\des.c       ****     ByteToBit(data,minwen);         //数据转成二进制数组
 2798              		.loc 1 382 0
 2799 000c FA68     		ldr	r2, [r7, #12]
 2800 000e 5023     		mov	r3, #80
 2801 0010 FB18     		add	r3, r7, r3
 2802 0012 101C     		mov	r0, r2
 2803 0014 191C     		mov	r1, r3
 2804 0016 FFF7FEFF 		bl	ByteToBit
 383:.\des.c       ****     BeginChange(minwen,buffer);     //初始化置换
 2805              		.loc 1 383 0
 2806 001a 5023     		mov	r3, #80
 2807 001c FA18     		add	r2, r7, r3
 2808 001e 1023     		mov	r3, #16
ARM GAS  C:\Users\ADMINI~1\AppData\Local\Temp\ccv1PMEE.s 			page 58


 2809 0020 FB18     		add	r3, r7, r3
 2810 0022 101C     		mov	r0, r2
 2811 0024 191C     		mov	r1, r3
 2812 0026 FFF7FEFF 		bl	BeginChange
 384:.\des.c       ****     Split_LR(buffer,data_L,data_R); //将数据拆分为L和R两部分
 2813              		.loc 1 384 0
 2814 002a 1023     		mov	r3, #16
 2815 002c F918     		add	r1, r7, r3
 2816 002e BA68     		ldr	r2, [r7, #8]
 2817 0030 7B68     		ldr	r3, [r7, #4]
 2818 0032 081C     		mov	r0, r1
 2819 0034 111C     		mov	r1, r2
 2820 0036 1A1C     		mov	r2, r3
 2821 0038 FFF7FEFF 		bl	Split_LR
 385:.\des.c       **** }
 2822              		.loc 1 385 0
 2823 003c BD46     		mov	sp, r7
 2824 003e 24B0     		add	sp, sp, #144
 2825              		@ sp needed
 2826 0040 80BD     		pop	{r7, pc}
 2827              		.cfi_endproc
 2828              	.LFE52:
 2829              		.size	GetLR, .-GetLR
 2830 0042 C046     		.section	.text.DES_Encrypt,"ax",%progbits
 2831              		.align	2
 2832              		.global	DES_Encrypt
 2833              		.code	16
 2834              		.thumb_func
 2835              		.type	DES_Encrypt, %function
 2836              	DES_Encrypt:
 2837              	.LFB53:
 386:.\des.c       **** 
 387:.\des.c       **** void DES_Encrypt(uint8 Data_Mw[8],uint8 Data_Key[8],uint8 Data_Cipher[8])
 388:.\des.c       **** {     
 2838              		.loc 1 388 0
 2839              		.cfi_startproc
 2840 0000 90B5     		push	{r4, r7, lr}
 2841              		.cfi_def_cfa_offset 12
 2842              		.cfi_offset 4, -12
 2843              		.cfi_offset 7, -8
 2844              		.cfi_offset 14, -4
 2845 0002 D3B0     		sub	sp, sp, #332
 2846              		.cfi_def_cfa_offset 344
 2847 0004 00AF     		add	r7, sp, #0
 2848              		.cfi_def_cfa_register 7
 2849 0006 F860     		str	r0, [r7, #12]
 2850 0008 B960     		str	r1, [r7, #8]
 2851 000a 7A60     		str	r2, [r7, #4]
 389:.\des.c       ****     uint8 i;
 390:.\des.c       ****     uint8 MY[64];       //秘钥
 391:.\des.c       ****     uint8 L[32];        //左边加密部分
 392:.\des.c       ****     uint8 R[32];        //右边加密部分
 393:.\des.c       ****     uint8 R1[32];       
 394:.\des.c       ****     uint8 key[48];      //生成的秘钥
 395:.\des.c       ****     uint8 p[32];
 396:.\des.c       ****     uint8 secret[64];   //密文二进制表示
 397:.\des.c       ****    
ARM GAS  C:\Users\ADMINI~1\AppData\Local\Temp\ccv1PMEE.s 			page 59


 398:.\des.c       ****     GetLR(Data_Mw,L,R);  //提取明文信息
 2852              		.loc 1 398 0
 2853 000c F968     		ldr	r1, [r7, #12]
 2854 000e E423     		mov	r3, #228
 2855 0010 FA18     		add	r2, r7, r3
 2856 0012 C423     		mov	r3, #196
 2857 0014 FB18     		add	r3, r7, r3
 2858 0016 081C     		mov	r0, r1
 2859 0018 111C     		mov	r1, r2
 2860 001a 1A1C     		mov	r2, r3
 2861 001c FFF7FEFF 		bl	GetLR
 399:.\des.c       ****     ByteToBit(Data_Key,MY);
 2862              		.loc 1 399 0
 2863 0020 BA68     		ldr	r2, [r7, #8]
 2864 0022 7B1D     		add	r3, r7, #5
 2865 0024 FF33     		add	r3, r3, #255
 2866 0026 101C     		mov	r0, r2
 2867 0028 191C     		mov	r1, r3
 2868 002a FFF7FEFF 		bl	ByteToBit
 400:.\des.c       ****     
 401:.\des.c       ****     for(i=1; i <= 16; i++)
 2869              		.loc 1 401 0
 2870 002e 4823     		mov	r3, #72
 2871 0030 FF33     		add	r3, r3, #255
 2872 0032 FB18     		add	r3, r7, r3
 2873 0034 0122     		mov	r2, #1
 2874 0036 1A70     		strb	r2, [r3]
 2875 0038 4AE0     		b	.L95
 2876              	.L98:
 402:.\des.c       ****     {
 403:.\des.c       ****         CreatKey(MY,i,key);//true
 2877              		.loc 1 403 0
 2878 003a 791D     		add	r1, r7, #5
 2879 003c FF31     		add	r1, r1, #255
 2880 003e 4823     		mov	r3, #72
 2881 0040 FF33     		add	r3, r3, #255
 2882 0042 FB18     		add	r3, r7, r3
 2883 0044 1A78     		ldrb	r2, [r3]
 2884 0046 7423     		mov	r3, #116
 2885 0048 FB18     		add	r3, r7, r3
 2886 004a 081C     		mov	r0, r1
 2887 004c 111C     		mov	r1, r2
 2888 004e 1A1C     		mov	r2, r3
 2889 0050 FFF7FEFF 		bl	CreatKey
 404:.\des.c       ****         feistel(R,key,p);
 2890              		.loc 1 404 0
 2891 0054 C423     		mov	r3, #196
 2892 0056 F918     		add	r1, r7, r3
 2893 0058 7423     		mov	r3, #116
 2894 005a FA18     		add	r2, r7, r3
 2895 005c 5423     		mov	r3, #84
 2896 005e FB18     		add	r3, r7, r3
 2897 0060 081C     		mov	r0, r1
 2898 0062 111C     		mov	r1, r2
 2899 0064 1A1C     		mov	r2, r3
 2900 0066 FFF7FEFF 		bl	feistel
 405:.\des.c       ****         SecondXOR(L,p,R1);
ARM GAS  C:\Users\ADMINI~1\AppData\Local\Temp\ccv1PMEE.s 			page 60


 2901              		.loc 1 405 0
 2902 006a E423     		mov	r3, #228
 2903 006c F918     		add	r1, r7, r3
 2904 006e 5423     		mov	r3, #84
 2905 0070 FA18     		add	r2, r7, r3
 2906 0072 A423     		mov	r3, #164
 2907 0074 FB18     		add	r3, r7, r3
 2908 0076 081C     		mov	r0, r1
 2909 0078 111C     		mov	r1, r2
 2910 007a 1A1C     		mov	r2, r3
 2911 007c FFF7FEFF 		bl	SecondXOR
 406:.\des.c       ****         if(i != 16)
 2912              		.loc 1 406 0
 2913 0080 4823     		mov	r3, #72
 2914 0082 FF33     		add	r3, r3, #255
 2915 0084 FB18     		add	r3, r7, r3
 2916 0086 1B78     		ldrb	r3, [r3]
 2917 0088 102B     		cmp	r3, #16
 2918 008a 10D0     		beq	.L96
 407:.\des.c       ****         {
 408:.\des.c       ****             Swap(L,R);
 2919              		.loc 1 408 0
 2920 008c E423     		mov	r3, #228
 2921 008e FA18     		add	r2, r7, r3
 2922 0090 C423     		mov	r3, #196
 2923 0092 FB18     		add	r3, r7, r3
 2924 0094 101C     		mov	r0, r2
 2925 0096 191C     		mov	r1, r3
 2926 0098 FFF7FEFF 		bl	Swap
 409:.\des.c       ****             Swap(R,R1);
 2927              		.loc 1 409 0
 2928 009c C423     		mov	r3, #196
 2929 009e FA18     		add	r2, r7, r3
 2930 00a0 A423     		mov	r3, #164
 2931 00a2 FB18     		add	r3, r7, r3
 2932 00a4 101C     		mov	r0, r2
 2933 00a6 191C     		mov	r1, r3
 2934 00a8 FFF7FEFF 		bl	Swap
 2935 00ac 07E0     		b	.L97
 2936              	.L96:
 410:.\des.c       ****         }
 411:.\des.c       ****         else
 412:.\des.c       ****         {
 413:.\des.c       ****             Swap(L,R1);
 2937              		.loc 1 413 0
 2938 00ae E423     		mov	r3, #228
 2939 00b0 FA18     		add	r2, r7, r3
 2940 00b2 A423     		mov	r3, #164
 2941 00b4 FB18     		add	r3, r7, r3
 2942 00b6 101C     		mov	r0, r2
 2943 00b8 191C     		mov	r1, r3
 2944 00ba FFF7FEFF 		bl	Swap
 2945              	.L97:
 401:.\des.c       ****     {
 2946              		.loc 1 401 0 discriminator 2
 2947 00be 4823     		mov	r3, #72
 2948 00c0 FF33     		add	r3, r3, #255
ARM GAS  C:\Users\ADMINI~1\AppData\Local\Temp\ccv1PMEE.s 			page 61


 2949 00c2 FB18     		add	r3, r7, r3
 2950 00c4 1A78     		ldrb	r2, [r3]
 2951 00c6 4823     		mov	r3, #72
 2952 00c8 FF33     		add	r3, r3, #255
 2953 00ca FB18     		add	r3, r7, r3
 2954 00cc 0132     		add	r2, r2, #1
 2955 00ce 1A70     		strb	r2, [r3]
 2956              	.L95:
 401:.\des.c       ****     {
 2957              		.loc 1 401 0 is_stmt 0 discriminator 1
 2958 00d0 4823     		mov	r3, #72
 2959 00d2 FF33     		add	r3, r3, #255
 2960 00d4 FB18     		add	r3, r7, r3
 2961 00d6 1B78     		ldrb	r3, [r3]
 2962 00d8 102B     		cmp	r3, #16
 2963 00da AED9     		bls	.L98
 414:.\des.c       ****         }
 415:.\des.c       ****     }
 416:.\des.c       ****        
 417:.\des.c       ****     BackChange(L,R,secret);
 2964              		.loc 1 417 0 is_stmt 1
 2965 00dc E423     		mov	r3, #228
 2966 00de F918     		add	r1, r7, r3
 2967 00e0 C423     		mov	r3, #196
 2968 00e2 FA18     		add	r2, r7, r3
 2969 00e4 1423     		mov	r3, #20
 2970 00e6 FB18     		add	r3, r7, r3
 2971 00e8 081C     		mov	r0, r1
 2972 00ea 111C     		mov	r1, r2
 2973 00ec 1A1C     		mov	r2, r3
 2974 00ee FFF7FEFF 		bl	BackChange
 418:.\des.c       ****     for(i=0; i < 8; i++)
 2975              		.loc 1 418 0
 2976 00f2 4823     		mov	r3, #72
 2977 00f4 FF33     		add	r3, r3, #255
 2978 00f6 FB18     		add	r3, r7, r3
 2979 00f8 0022     		mov	r2, #0
 2980 00fa 1A70     		strb	r2, [r3]
 2981 00fc 1CE0     		b	.L99
 2982              	.L100:
 419:.\des.c       ****     {    
 420:.\des.c       ****         Data_Cipher[i] = BitToByte(secret + i*8);
 2983              		.loc 1 420 0 discriminator 3
 2984 00fe 4823     		mov	r3, #72
 2985 0100 FF33     		add	r3, r3, #255
 2986 0102 FB18     		add	r3, r7, r3
 2987 0104 1B78     		ldrb	r3, [r3]
 2988 0106 7A68     		ldr	r2, [r7, #4]
 2989 0108 D418     		add	r4, r2, r3
 2990 010a 4823     		mov	r3, #72
 2991 010c FF33     		add	r3, r3, #255
 2992 010e FB18     		add	r3, r7, r3
 2993 0110 1B78     		ldrb	r3, [r3]
 2994 0112 DB00     		lsl	r3, r3, #3
 2995 0114 1A1C     		mov	r2, r3
 2996 0116 1423     		mov	r3, #20
 2997 0118 FB18     		add	r3, r7, r3
ARM GAS  C:\Users\ADMINI~1\AppData\Local\Temp\ccv1PMEE.s 			page 62


 2998 011a 9B18     		add	r3, r3, r2
 2999 011c 181C     		mov	r0, r3
 3000 011e FFF7FEFF 		bl	BitToByte
 3001 0122 031C     		mov	r3, r0
 3002 0124 2370     		strb	r3, [r4]
 418:.\des.c       ****     for(i=0; i < 8; i++)
 3003              		.loc 1 418 0 discriminator 3
 3004 0126 4823     		mov	r3, #72
 3005 0128 FF33     		add	r3, r3, #255
 3006 012a FB18     		add	r3, r7, r3
 3007 012c 1A78     		ldrb	r2, [r3]
 3008 012e 4823     		mov	r3, #72
 3009 0130 FF33     		add	r3, r3, #255
 3010 0132 FB18     		add	r3, r7, r3
 3011 0134 0132     		add	r2, r2, #1
 3012 0136 1A70     		strb	r2, [r3]
 3013              	.L99:
 418:.\des.c       ****     for(i=0; i < 8; i++)
 3014              		.loc 1 418 0 is_stmt 0 discriminator 1
 3015 0138 4823     		mov	r3, #72
 3016 013a FF33     		add	r3, r3, #255
 3017 013c FB18     		add	r3, r7, r3
 3018 013e 1B78     		ldrb	r3, [r3]
 3019 0140 072B     		cmp	r3, #7
 3020 0142 DCD9     		bls	.L100
 421:.\des.c       ****     }
 422:.\des.c       **** } 
 3021              		.loc 1 422 0 is_stmt 1
 3022 0144 BD46     		mov	sp, r7
 3023 0146 53B0     		add	sp, sp, #332
 3024              		@ sp needed
 3025 0148 90BD     		pop	{r4, r7, pc}
 3026              		.cfi_endproc
 3027              	.LFE53:
 3028              		.size	DES_Encrypt, .-DES_Encrypt
 3029 014a C046     		.section	.text.DES_Decrypt,"ax",%progbits
 3030              		.align	2
 3031              		.global	DES_Decrypt
 3032              		.code	16
 3033              		.thumb_func
 3034              		.type	DES_Decrypt, %function
 3035              	DES_Decrypt:
 3036              	.LFB54:
 423:.\des.c       **** 
 424:.\des.c       **** 
 425:.\des.c       **** void DES_Decrypt(uint8 Data_Cipher[8],uint8 Data_Key[8],uint8 Data_Mw[8])
 426:.\des.c       **** {
 3037              		.loc 1 426 0
 3038              		.cfi_startproc
 3039 0000 90B5     		push	{r4, r7, lr}
 3040              		.cfi_def_cfa_offset 12
 3041              		.cfi_offset 4, -12
 3042              		.cfi_offset 7, -8
 3043              		.cfi_offset 14, -4
 3044 0002 D3B0     		sub	sp, sp, #332
 3045              		.cfi_def_cfa_offset 344
 3046 0004 00AF     		add	r7, sp, #0
ARM GAS  C:\Users\ADMINI~1\AppData\Local\Temp\ccv1PMEE.s 			page 63


 3047              		.cfi_def_cfa_register 7
 3048 0006 F860     		str	r0, [r7, #12]
 3049 0008 B960     		str	r1, [r7, #8]
 3050 000a 7A60     		str	r2, [r7, #4]
 427:.\des.c       ****     uint8 i;
 428:.\des.c       ****     uint8 MY[64];       //秘钥
 429:.\des.c       ****     uint8 L[32];        //左边加密部分
 430:.\des.c       ****     uint8 R[32];        //右边加密部分
 431:.\des.c       ****     uint8 R1[32];       
 432:.\des.c       ****     uint8 key[48];      //生成的秘钥
 433:.\des.c       ****     uint8 p[32];
 434:.\des.c       ****     uint8 minwen[64];   //明文二进制表示    
 435:.\des.c       **** 
 436:.\des.c       ****     GetLR(Data_Cipher,L,R);  //提取明文信息
 3051              		.loc 1 436 0
 3052 000c F968     		ldr	r1, [r7, #12]
 3053 000e E423     		mov	r3, #228
 3054 0010 FA18     		add	r2, r7, r3
 3055 0012 C423     		mov	r3, #196
 3056 0014 FB18     		add	r3, r7, r3
 3057 0016 081C     		mov	r0, r1
 3058 0018 111C     		mov	r1, r2
 3059 001a 1A1C     		mov	r2, r3
 3060 001c FFF7FEFF 		bl	GetLR
 437:.\des.c       ****     ByteToBit(Data_Key,MY);
 3061              		.loc 1 437 0
 3062 0020 BA68     		ldr	r2, [r7, #8]
 3063 0022 7B1D     		add	r3, r7, #5
 3064 0024 FF33     		add	r3, r3, #255
 3065 0026 101C     		mov	r0, r2
 3066 0028 191C     		mov	r1, r3
 3067 002a FFF7FEFF 		bl	ByteToBit
 438:.\des.c       ****     
 439:.\des.c       **** 
 440:.\des.c       ****     for(i=16; i > 0; i--)
 3068              		.loc 1 440 0
 3069 002e 4823     		mov	r3, #72
 3070 0030 FF33     		add	r3, r3, #255
 3071 0032 FB18     		add	r3, r7, r3
 3072 0034 1022     		mov	r2, #16
 3073 0036 1A70     		strb	r2, [r3]
 3074 0038 4AE0     		b	.L102
 3075              	.L105:
 441:.\des.c       ****     {
 442:.\des.c       ****         CreatKey(MY,i,key);//true
 3076              		.loc 1 442 0
 3077 003a 791D     		add	r1, r7, #5
 3078 003c FF31     		add	r1, r1, #255
 3079 003e 4823     		mov	r3, #72
 3080 0040 FF33     		add	r3, r3, #255
 3081 0042 FB18     		add	r3, r7, r3
 3082 0044 1A78     		ldrb	r2, [r3]
 3083 0046 7423     		mov	r3, #116
 3084 0048 FB18     		add	r3, r7, r3
 3085 004a 081C     		mov	r0, r1
 3086 004c 111C     		mov	r1, r2
 3087 004e 1A1C     		mov	r2, r3
ARM GAS  C:\Users\ADMINI~1\AppData\Local\Temp\ccv1PMEE.s 			page 64


 3088 0050 FFF7FEFF 		bl	CreatKey
 443:.\des.c       ****         feistel(R,key,p);
 3089              		.loc 1 443 0
 3090 0054 C423     		mov	r3, #196
 3091 0056 F918     		add	r1, r7, r3
 3092 0058 7423     		mov	r3, #116
 3093 005a FA18     		add	r2, r7, r3
 3094 005c 5423     		mov	r3, #84
 3095 005e FB18     		add	r3, r7, r3
 3096 0060 081C     		mov	r0, r1
 3097 0062 111C     		mov	r1, r2
 3098 0064 1A1C     		mov	r2, r3
 3099 0066 FFF7FEFF 		bl	feistel
 444:.\des.c       ****         SecondXOR(L,p,R1);
 3100              		.loc 1 444 0
 3101 006a E423     		mov	r3, #228
 3102 006c F918     		add	r1, r7, r3
 3103 006e 5423     		mov	r3, #84
 3104 0070 FA18     		add	r2, r7, r3
 3105 0072 A423     		mov	r3, #164
 3106 0074 FB18     		add	r3, r7, r3
 3107 0076 081C     		mov	r0, r1
 3108 0078 111C     		mov	r1, r2
 3109 007a 1A1C     		mov	r2, r3
 3110 007c FFF7FEFF 		bl	SecondXOR
 445:.\des.c       ****         if(i != 1)
 3111              		.loc 1 445 0
 3112 0080 4823     		mov	r3, #72
 3113 0082 FF33     		add	r3, r3, #255
 3114 0084 FB18     		add	r3, r7, r3
 3115 0086 1B78     		ldrb	r3, [r3]
 3116 0088 012B     		cmp	r3, #1
 3117 008a 10D0     		beq	.L103
 446:.\des.c       ****         {
 447:.\des.c       ****             Swap(L,R);
 3118              		.loc 1 447 0
 3119 008c E423     		mov	r3, #228
 3120 008e FA18     		add	r2, r7, r3
 3121 0090 C423     		mov	r3, #196
 3122 0092 FB18     		add	r3, r7, r3
 3123 0094 101C     		mov	r0, r2
 3124 0096 191C     		mov	r1, r3
 3125 0098 FFF7FEFF 		bl	Swap
 448:.\des.c       ****             Swap(R,R1);
 3126              		.loc 1 448 0
 3127 009c C423     		mov	r3, #196
 3128 009e FA18     		add	r2, r7, r3
 3129 00a0 A423     		mov	r3, #164
 3130 00a2 FB18     		add	r3, r7, r3
 3131 00a4 101C     		mov	r0, r2
 3132 00a6 191C     		mov	r1, r3
 3133 00a8 FFF7FEFF 		bl	Swap
 3134 00ac 07E0     		b	.L104
 3135              	.L103:
 449:.\des.c       ****         }
 450:.\des.c       ****         else
 451:.\des.c       ****         {
ARM GAS  C:\Users\ADMINI~1\AppData\Local\Temp\ccv1PMEE.s 			page 65


 452:.\des.c       ****             Swap(L,R1);
 3136              		.loc 1 452 0
 3137 00ae E423     		mov	r3, #228
 3138 00b0 FA18     		add	r2, r7, r3
 3139 00b2 A423     		mov	r3, #164
 3140 00b4 FB18     		add	r3, r7, r3
 3141 00b6 101C     		mov	r0, r2
 3142 00b8 191C     		mov	r1, r3
 3143 00ba FFF7FEFF 		bl	Swap
 3144              	.L104:
 440:.\des.c       ****     {
 3145              		.loc 1 440 0 discriminator 2
 3146 00be 4823     		mov	r3, #72
 3147 00c0 FF33     		add	r3, r3, #255
 3148 00c2 FB18     		add	r3, r7, r3
 3149 00c4 1A78     		ldrb	r2, [r3]
 3150 00c6 4823     		mov	r3, #72
 3151 00c8 FF33     		add	r3, r3, #255
 3152 00ca FB18     		add	r3, r7, r3
 3153 00cc 013A     		sub	r2, r2, #1
 3154 00ce 1A70     		strb	r2, [r3]
 3155              	.L102:
 440:.\des.c       ****     {
 3156              		.loc 1 440 0 is_stmt 0 discriminator 1
 3157 00d0 4823     		mov	r3, #72
 3158 00d2 FF33     		add	r3, r3, #255
 3159 00d4 FB18     		add	r3, r7, r3
 3160 00d6 1B78     		ldrb	r3, [r3]
 3161 00d8 002B     		cmp	r3, #0
 3162 00da AED1     		bne	.L105
 453:.\des.c       ****         }
 454:.\des.c       ****     }
 455:.\des.c       ****     BackChange(L,R,minwen);
 3163              		.loc 1 455 0 is_stmt 1
 3164 00dc E423     		mov	r3, #228
 3165 00de F918     		add	r1, r7, r3
 3166 00e0 C423     		mov	r3, #196
 3167 00e2 FA18     		add	r2, r7, r3
 3168 00e4 1423     		mov	r3, #20
 3169 00e6 FB18     		add	r3, r7, r3
 3170 00e8 081C     		mov	r0, r1
 3171 00ea 111C     		mov	r1, r2
 3172 00ec 1A1C     		mov	r2, r3
 3173 00ee FFF7FEFF 		bl	BackChange
 456:.\des.c       ****     for(i=0; i < 8; i++)
 3174              		.loc 1 456 0
 3175 00f2 4823     		mov	r3, #72
 3176 00f4 FF33     		add	r3, r3, #255
 3177 00f6 FB18     		add	r3, r7, r3
 3178 00f8 0022     		mov	r2, #0
 3179 00fa 1A70     		strb	r2, [r3]
 3180 00fc 1CE0     		b	.L106
 3181              	.L107:
 457:.\des.c       ****     {    
 458:.\des.c       ****         Data_Mw[i] = BitToByte(minwen + i*8);
 3182              		.loc 1 458 0 discriminator 3
 3183 00fe 4823     		mov	r3, #72
ARM GAS  C:\Users\ADMINI~1\AppData\Local\Temp\ccv1PMEE.s 			page 66


 3184 0100 FF33     		add	r3, r3, #255
 3185 0102 FB18     		add	r3, r7, r3
 3186 0104 1B78     		ldrb	r3, [r3]
 3187 0106 7A68     		ldr	r2, [r7, #4]
 3188 0108 D418     		add	r4, r2, r3
 3189 010a 4823     		mov	r3, #72
 3190 010c FF33     		add	r3, r3, #255
 3191 010e FB18     		add	r3, r7, r3
 3192 0110 1B78     		ldrb	r3, [r3]
 3193 0112 DB00     		lsl	r3, r3, #3
 3194 0114 1A1C     		mov	r2, r3
 3195 0116 1423     		mov	r3, #20
 3196 0118 FB18     		add	r3, r7, r3
 3197 011a 9B18     		add	r3, r3, r2
 3198 011c 181C     		mov	r0, r3
 3199 011e FFF7FEFF 		bl	BitToByte
 3200 0122 031C     		mov	r3, r0
 3201 0124 2370     		strb	r3, [r4]
 456:.\des.c       ****     for(i=0; i < 8; i++)
 3202              		.loc 1 456 0 discriminator 3
 3203 0126 4823     		mov	r3, #72
 3204 0128 FF33     		add	r3, r3, #255
 3205 012a FB18     		add	r3, r7, r3
 3206 012c 1A78     		ldrb	r2, [r3]
 3207 012e 4823     		mov	r3, #72
 3208 0130 FF33     		add	r3, r3, #255
 3209 0132 FB18     		add	r3, r7, r3
 3210 0134 0132     		add	r2, r2, #1
 3211 0136 1A70     		strb	r2, [r3]
 3212              	.L106:
 456:.\des.c       ****     for(i=0; i < 8; i++)
 3213              		.loc 1 456 0 is_stmt 0 discriminator 1
 3214 0138 4823     		mov	r3, #72
 3215 013a FF33     		add	r3, r3, #255
 3216 013c FB18     		add	r3, r7, r3
 3217 013e 1B78     		ldrb	r3, [r3]
 3218 0140 072B     		cmp	r3, #7
 3219 0142 DCD9     		bls	.L107
 459:.\des.c       ****     }    
 460:.\des.c       **** }...
 3220              		.loc 1 460 0 is_stmt 1
 3221 0144 BD46     		mov	sp, r7
 3222 0146 53B0     		add	sp, sp, #332
 3223              		@ sp needed
 3224 0148 90BD     		pop	{r4, r7, pc}
 3225              		.cfi_endproc
 3226              	.LFE54:
 3227              		.size	DES_Decrypt, .-DES_Decrypt
 3228 014a C046     		.text
 3229              	.Letext0:
 3230              		.file 2 "Generated_Source\\PSoC4/cytypes.h"
 3231              		.file 3 "Generated_Source\\PSoC4/BLE_Stack.h"
 3232              		.section	.debug_info,"",%progbits
 3233              	.Ldebug_info0:
 3234 0000 D00A0000 		.4byte	0xad0
 3235 0004 0400     		.2byte	0x4
 3236 0006 00000000 		.4byte	.Ldebug_abbrev0
ARM GAS  C:\Users\ADMINI~1\AppData\Local\Temp\ccv1PMEE.s 			page 67


 3237 000a 04       		.byte	0x4
 3238 000b 01       		.uleb128 0x1
 3239 000c F7070000 		.4byte	.LASF107
 3240 0010 01       		.byte	0x1
 3241 0011 0C060000 		.4byte	.LASF108
 3242 0015 EB040000 		.4byte	.LASF109
 3243 0019 00000000 		.4byte	.Ldebug_ranges0+0
 3244 001d 00000000 		.4byte	0
 3245 0021 00000000 		.4byte	.Ldebug_line0
 3246 0025 02       		.uleb128 0x2
 3247 0026 01       		.byte	0x1
 3248 0027 06       		.byte	0x6
 3249 0028 BE010000 		.4byte	.LASF0
 3250 002c 02       		.uleb128 0x2
 3251 002d 01       		.byte	0x1
 3252 002e 08       		.byte	0x8
 3253 002f 93060000 		.4byte	.LASF1
 3254 0033 02       		.uleb128 0x2
 3255 0034 02       		.byte	0x2
 3256 0035 05       		.byte	0x5
 3257 0036 A0040000 		.4byte	.LASF2
 3258 003a 02       		.uleb128 0x2
 3259 003b 02       		.byte	0x2
 3260 003c 07       		.byte	0x7
 3261 003d B0030000 		.4byte	.LASF3
 3262 0041 02       		.uleb128 0x2
 3263 0042 04       		.byte	0x4
 3264 0043 05       		.byte	0x5
 3265 0044 0B010000 		.4byte	.LASF4
 3266 0048 02       		.uleb128 0x2
 3267 0049 04       		.byte	0x4
 3268 004a 07       		.byte	0x7
 3269 004b 57030000 		.4byte	.LASF5
 3270 004f 02       		.uleb128 0x2
 3271 0050 08       		.byte	0x8
 3272 0051 05       		.byte	0x5
 3273 0052 B0010000 		.4byte	.LASF6
 3274 0056 02       		.uleb128 0x2
 3275 0057 08       		.byte	0x8
 3276 0058 07       		.byte	0x7
 3277 0059 14010000 		.4byte	.LASF7
 3278 005d 03       		.uleb128 0x3
 3279 005e 04       		.byte	0x4
 3280 005f 05       		.byte	0x5
 3281 0060 696E7400 		.ascii	"int\000"
 3282 0064 02       		.uleb128 0x2
 3283 0065 04       		.byte	0x4
 3284 0066 07       		.byte	0x7
 3285 0067 16030000 		.4byte	.LASF8
 3286 006b 04       		.uleb128 0x4
 3287 006c 7D020000 		.4byte	.LASF110
 3288 0070 02       		.byte	0x2
 3289 0071 3801     		.2byte	0x138
 3290 0073 2C000000 		.4byte	0x2c
 3291 0077 02       		.uleb128 0x2
 3292 0078 04       		.byte	0x4
 3293 0079 04       		.byte	0x4
ARM GAS  C:\Users\ADMINI~1\AppData\Local\Temp\ccv1PMEE.s 			page 68


 3294 007a 59060000 		.4byte	.LASF9
 3295 007e 02       		.uleb128 0x2
 3296 007f 08       		.byte	0x8
 3297 0080 04       		.byte	0x4
 3298 0081 AC020000 		.4byte	.LASF10
 3299 0085 02       		.uleb128 0x2
 3300 0086 01       		.byte	0x1
 3301 0087 08       		.byte	0x8
 3302 0088 02070000 		.4byte	.LASF11
 3303 008c 02       		.uleb128 0x2
 3304 008d 04       		.byte	0x4
 3305 008e 07       		.byte	0x7
 3306 008f 76050000 		.4byte	.LASF12
 3307 0093 05       		.uleb128 0x5
 3308 0094 01       		.byte	0x1
 3309 0095 03       		.byte	0x3
 3310 0096 A4       		.byte	0xa4
 3311 0097 18020000 		.4byte	0x218
 3312 009b 06       		.uleb128 0x6
 3313 009c C3030000 		.4byte	.LASF13
 3314 00a0 00       		.sleb128 0
 3315 00a1 06       		.uleb128 0x6
 3316 00a2 67060000 		.4byte	.LASF14
 3317 00a6 01       		.sleb128 1
 3318 00a7 06       		.uleb128 0x6
 3319 00a8 F9000000 		.4byte	.LASF15
 3320 00ac 02       		.sleb128 2
 3321 00ad 06       		.uleb128 0x6
 3322 00ae 8D070000 		.4byte	.LASF16
 3323 00b2 03       		.sleb128 3
 3324 00b3 06       		.uleb128 0x6
 3325 00b4 2B010000 		.4byte	.LASF17
 3326 00b8 04       		.sleb128 4
 3327 00b9 06       		.uleb128 0x6
 3328 00ba 23000000 		.4byte	.LASF18
 3329 00be 05       		.sleb128 5
 3330 00bf 06       		.uleb128 0x6
 3331 00c0 25050000 		.4byte	.LASF19
 3332 00c4 20       		.sleb128 32
 3333 00c5 06       		.uleb128 0x6
 3334 00c6 F8010000 		.4byte	.LASF20
 3335 00ca 21       		.sleb128 33
 3336 00cb 06       		.uleb128 0x6
 3337 00cc F8030000 		.4byte	.LASF21
 3338 00d0 22       		.sleb128 34
 3339 00d1 06       		.uleb128 0x6
 3340 00d2 AA040000 		.4byte	.LASF22
 3341 00d6 23       		.sleb128 35
 3342 00d7 06       		.uleb128 0x6
 3343 00d8 C6050000 		.4byte	.LASF23
 3344 00dc 24       		.sleb128 36
 3345 00dd 06       		.uleb128 0x6
 3346 00de 8B050000 		.4byte	.LASF24
 3347 00e2 25       		.sleb128 37
 3348 00e3 06       		.uleb128 0x6
 3349 00e4 55020000 		.4byte	.LASF25
 3350 00e8 26       		.sleb128 38
ARM GAS  C:\Users\ADMINI~1\AppData\Local\Temp\ccv1PMEE.s 			page 69


 3351 00e9 06       		.uleb128 0x6
 3352 00ea 1C040000 		.4byte	.LASF26
 3353 00ee 27       		.sleb128 39
 3354 00ef 06       		.uleb128 0x6
 3355 00f0 07070000 		.4byte	.LASF27
 3356 00f4 28       		.sleb128 40
 3357 00f5 06       		.uleb128 0x6
 3358 00f6 8D010000 		.4byte	.LASF28
 3359 00fa 29       		.sleb128 41
 3360 00fb 06       		.uleb128 0x6
 3361 00fc 5E000000 		.4byte	.LASF29
 3362 0100 2A       		.sleb128 42
 3363 0101 06       		.uleb128 0x6
 3364 0102 D9010000 		.4byte	.LASF30
 3365 0106 2B       		.sleb128 43
 3366 0107 06       		.uleb128 0x6
 3367 0108 AC080000 		.4byte	.LASF31
 3368 010c 2C       		.sleb128 44
 3369 010d 06       		.uleb128 0x6
 3370 010e E8060000 		.4byte	.LASF32
 3371 0112 C000     		.sleb128 64
 3372 0114 06       		.uleb128 0x6
 3373 0115 D0040000 		.4byte	.LASF33
 3374 0119 C100     		.sleb128 65
 3375 011b 06       		.uleb128 0x6
 3376 011c 3B090000 		.4byte	.LASF34
 3377 0120 C200     		.sleb128 66
 3378 0122 06       		.uleb128 0x6
 3379 0123 AF070000 		.4byte	.LASF35
 3380 0127 C300     		.sleb128 67
 3381 0129 06       		.uleb128 0x6
 3382 012a 69030000 		.4byte	.LASF36
 3383 012e C400     		.sleb128 68
 3384 0130 06       		.uleb128 0x6
 3385 0131 32060000 		.4byte	.LASF37
 3386 0135 C500     		.sleb128 69
 3387 0137 06       		.uleb128 0x6
 3388 0138 7F040000 		.4byte	.LASF38
 3389 013c C600     		.sleb128 70
 3390 013e 06       		.uleb128 0x6
 3391 013f DA030000 		.4byte	.LASF39
 3392 0143 C700     		.sleb128 71
 3393 0145 06       		.uleb128 0x6
 3394 0146 85080000 		.4byte	.LASF40
 3395 014a C800     		.sleb128 72
 3396 014c 06       		.uleb128 0x6
 3397 014d 19020000 		.4byte	.LASF41
 3398 0151 C900     		.sleb128 73
 3399 0153 06       		.uleb128 0x6
 3400 0154 CD070000 		.4byte	.LASF42
 3401 0158 CA00     		.sleb128 74
 3402 015a 06       		.uleb128 0x6
 3403 015b A8000000 		.4byte	.LASF43
 3404 015f CB00     		.sleb128 75
 3405 0161 06       		.uleb128 0x6
 3406 0162 5C040000 		.4byte	.LASF44
 3407 0166 CC00     		.sleb128 76
ARM GAS  C:\Users\ADMINI~1\AppData\Local\Temp\ccv1PMEE.s 			page 70


 3408 0168 06       		.uleb128 0x6
 3409 0169 A5050000 		.4byte	.LASF45
 3410 016d CD00     		.sleb128 77
 3411 016f 06       		.uleb128 0x6
 3412 0170 37020000 		.4byte	.LASF46
 3413 0174 CE00     		.sleb128 78
 3414 0176 06       		.uleb128 0x6
 3415 0177 A8060000 		.4byte	.LASF47
 3416 017b CF00     		.sleb128 79
 3417 017d 06       		.uleb128 0x6
 3418 017e C7000000 		.4byte	.LASF48
 3419 0182 D000     		.sleb128 80
 3420 0184 06       		.uleb128 0x6
 3421 0185 8D020000 		.4byte	.LASF49
 3422 0189 D100     		.sleb128 81
 3423 018b 06       		.uleb128 0x6
 3424 018c EB050000 		.4byte	.LASF50
 3425 0190 D200     		.sleb128 82
 3426 0192 06       		.uleb128 0x6
 3427 0193 3B040000 		.4byte	.LASF51
 3428 0197 D300     		.sleb128 83
 3429 0199 06       		.uleb128 0x6
 3430 019a C7060000 		.4byte	.LASF52
 3431 019e D400     		.sleb128 84
 3432 01a0 06       		.uleb128 0x6
 3433 01a1 87030000 		.4byte	.LASF53
 3434 01a5 D500     		.sleb128 85
 3435 01a7 06       		.uleb128 0x6
 3436 01a8 EA020000 		.4byte	.LASF54
 3437 01ac D600     		.sleb128 86
 3438 01ae 06       		.uleb128 0x6
 3439 01af 29070000 		.4byte	.LASF55
 3440 01b3 D700     		.sleb128 87
 3441 01b5 06       		.uleb128 0x6
 3442 01b6 67010000 		.4byte	.LASF56
 3443 01ba F000     		.sleb128 112
 3444 01bc 06       		.uleb128 0x6
 3445 01bd 06090000 		.4byte	.LASF57
 3446 01c1 F100     		.sleb128 113
 3447 01c3 06       		.uleb128 0x6
 3448 01c4 09050000 		.4byte	.LASF58
 3449 01c8 F200     		.sleb128 114
 3450 01ca 06       		.uleb128 0x6
 3451 01cb 50050000 		.4byte	.LASF59
 3452 01cf F300     		.sleb128 115
 3453 01d1 06       		.uleb128 0x6
 3454 01d2 14060000 		.4byte	.LASF60
 3455 01d6 F400     		.sleb128 116
 3456 01d8 06       		.uleb128 0x6
 3457 01d9 D0080000 		.4byte	.LASF61
 3458 01dd F500     		.sleb128 117
 3459 01df 06       		.uleb128 0x6
 3460 01e0 87000000 		.4byte	.LASF62
 3461 01e4 F600     		.sleb128 118
 3462 01e6 06       		.uleb128 0x6
 3463 01e7 3F000000 		.4byte	.LASF63
 3464 01eb F700     		.sleb128 119
ARM GAS  C:\Users\ADMINI~1\AppData\Local\Temp\ccv1PMEE.s 			page 71


 3465 01ed 06       		.uleb128 0x6
 3466 01ee 00000000 		.4byte	.LASF64
 3467 01f2 F800     		.sleb128 120
 3468 01f4 06       		.uleb128 0x6
 3469 01f5 65070000 		.4byte	.LASF65
 3470 01f9 F900     		.sleb128 121
 3471 01fb 06       		.uleb128 0x6
 3472 01fc C1020000 		.4byte	.LASF66
 3473 0200 FA00     		.sleb128 122
 3474 0202 06       		.uleb128 0x6
 3475 0203 49010000 		.4byte	.LASF67
 3476 0207 FA01     		.sleb128 250
 3477 0209 06       		.uleb128 0x6
 3478 020a 23030000 		.4byte	.LASF68
 3479 020e FB01     		.sleb128 251
 3480 0210 06       		.uleb128 0x6
 3481 0211 B3020000 		.4byte	.LASF69
 3482 0215 FF01     		.sleb128 255
 3483 0217 00       		.byte	0
 3484 0218 07       		.uleb128 0x7
 3485 0219 6B000000 		.4byte	0x6b
 3486 021d 28020000 		.4byte	0x228
 3487 0221 08       		.uleb128 0x8
 3488 0222 8C000000 		.4byte	0x8c
 3489 0226 05       		.byte	0x5
 3490 0227 00       		.byte	0
 3491 0228 07       		.uleb128 0x7
 3492 0229 6B000000 		.4byte	0x6b
 3493 022d 38020000 		.4byte	0x238
 3494 0231 08       		.uleb128 0x8
 3495 0232 8C000000 		.4byte	0x8c
 3496 0236 0F       		.byte	0xf
 3497 0237 00       		.byte	0
 3498 0238 09       		.uleb128 0x9
 3499 0239 04       		.byte	0x4
 3500 023a 6B000000 		.4byte	0x6b
 3501 023e 0A       		.uleb128 0xa
 3502 023f F9080000 		.4byte	.LASF70
 3503 0243 01       		.byte	0x1
 3504 0244 7A       		.byte	0x7a
 3505 0245 00000000 		.4byte	.LFB37
 3506 0249 90000000 		.4byte	.LFE37-.LFB37
 3507 024d 01       		.uleb128 0x1
 3508 024e 9C       		.byte	0x9c
 3509 024f 84020000 		.4byte	0x284
 3510 0253 0B       		.uleb128 0xb
 3511 0254 4500     		.ascii	"E\000"
 3512 0256 01       		.byte	0x1
 3513 0257 7A       		.byte	0x7a
 3514 0258 84020000 		.4byte	0x284
 3515 025c 02       		.uleb128 0x2
 3516 025d 91       		.byte	0x91
 3517 025e 6C       		.sleb128 -20
 3518 025f 0B       		.uleb128 0xb
 3519 0260 7200     		.ascii	"r\000"
 3520 0262 01       		.byte	0x1
 3521 0263 7A       		.byte	0x7a
ARM GAS  C:\Users\ADMINI~1\AppData\Local\Temp\ccv1PMEE.s 			page 72


 3522 0264 38020000 		.4byte	0x238
 3523 0268 02       		.uleb128 0x2
 3524 0269 91       		.byte	0x91
 3525 026a 68       		.sleb128 -24
 3526 026b 0C       		.uleb128 0xc
 3527 026c 6900     		.ascii	"i\000"
 3528 026e 01       		.byte	0x1
 3529 026f 7C       		.byte	0x7c
 3530 0270 6B000000 		.4byte	0x6b
 3531 0274 02       		.uleb128 0x2
 3532 0275 91       		.byte	0x91
 3533 0276 77       		.sleb128 -9
 3534 0277 0C       		.uleb128 0xc
 3535 0278 6A00     		.ascii	"j\000"
 3536 027a 01       		.byte	0x1
 3537 027b 7C       		.byte	0x7c
 3538 027c 6B000000 		.4byte	0x6b
 3539 0280 02       		.uleb128 0x2
 3540 0281 91       		.byte	0x91
 3541 0282 76       		.sleb128 -10
 3542 0283 00       		.byte	0
 3543 0284 09       		.uleb128 0x9
 3544 0285 04       		.byte	0x4
 3545 0286 18020000 		.4byte	0x218
 3546 028a 0A       		.uleb128 0xa
 3547 028b F1000000 		.4byte	.LASF71
 3548 028f 01       		.byte	0x1
 3549 0290 86       		.byte	0x86
 3550 0291 00000000 		.4byte	.LFB38
 3551 0295 90000000 		.4byte	.LFE38-.LFB38
 3552 0299 01       		.uleb128 0x1
 3553 029a 9C       		.byte	0x9c
 3554 029b D0020000 		.4byte	0x2d0
 3555 029f 0B       		.uleb128 0xb
 3556 02a0 7200     		.ascii	"r\000"
 3557 02a2 01       		.byte	0x1
 3558 02a3 86       		.byte	0x86
 3559 02a4 38020000 		.4byte	0x238
 3560 02a8 02       		.uleb128 0x2
 3561 02a9 91       		.byte	0x91
 3562 02aa 6C       		.sleb128 -20
 3563 02ab 0B       		.uleb128 0xb
 3564 02ac 4500     		.ascii	"E\000"
 3565 02ae 01       		.byte	0x1
 3566 02af 86       		.byte	0x86
 3567 02b0 84020000 		.4byte	0x284
 3568 02b4 02       		.uleb128 0x2
 3569 02b5 91       		.byte	0x91
 3570 02b6 68       		.sleb128 -24
 3571 02b7 0C       		.uleb128 0xc
 3572 02b8 6900     		.ascii	"i\000"
 3573 02ba 01       		.byte	0x1
 3574 02bb 88       		.byte	0x88
 3575 02bc 6B000000 		.4byte	0x6b
 3576 02c0 02       		.uleb128 0x2
 3577 02c1 91       		.byte	0x91
 3578 02c2 77       		.sleb128 -9
ARM GAS  C:\Users\ADMINI~1\AppData\Local\Temp\ccv1PMEE.s 			page 73


 3579 02c3 0C       		.uleb128 0xc
 3580 02c4 6A00     		.ascii	"j\000"
 3581 02c6 01       		.byte	0x1
 3582 02c7 88       		.byte	0x88
 3583 02c8 6B000000 		.4byte	0x6b
 3584 02cc 02       		.uleb128 0x2
 3585 02cd 91       		.byte	0x91
 3586 02ce 76       		.sleb128 -10
 3587 02cf 00       		.byte	0
 3588 02d0 0A       		.uleb128 0xa
 3589 02d1 0F020000 		.4byte	.LASF72
 3590 02d5 01       		.byte	0x1
 3591 02d6 92       		.byte	0x92
 3592 02d7 00000000 		.4byte	.LFB39
 3593 02db 8E000000 		.4byte	.LFE39-.LFB39
 3594 02df 01       		.uleb128 0x1
 3595 02e0 9C       		.byte	0x9c
 3596 02e1 18030000 		.4byte	0x318
 3597 02e5 0D       		.uleb128 0xd
 3598 02e6 D4010000 		.4byte	.LASF73
 3599 02ea 01       		.byte	0x1
 3600 02eb 92       		.byte	0x92
 3601 02ec 38020000 		.4byte	0x238
 3602 02f0 02       		.uleb128 0x2
 3603 02f1 91       		.byte	0x91
 3604 02f2 6C       		.sleb128 -20
 3605 02f3 0B       		.uleb128 0xb
 3606 02f4 4D00     		.ascii	"M\000"
 3607 02f6 01       		.byte	0x1
 3608 02f7 92       		.byte	0x92
 3609 02f8 38020000 		.4byte	0x238
 3610 02fc 02       		.uleb128 0x2
 3611 02fd 91       		.byte	0x91
 3612 02fe 68       		.sleb128 -24
 3613 02ff 0C       		.uleb128 0xc
 3614 0300 6900     		.ascii	"i\000"
 3615 0302 01       		.byte	0x1
 3616 0303 94       		.byte	0x94
 3617 0304 6B000000 		.4byte	0x6b
 3618 0308 02       		.uleb128 0x2
 3619 0309 91       		.byte	0x91
 3620 030a 77       		.sleb128 -9
 3621 030b 0C       		.uleb128 0xc
 3622 030c 6A00     		.ascii	"j\000"
 3623 030e 01       		.byte	0x1
 3624 030f 94       		.byte	0x94
 3625 0310 6B000000 		.4byte	0x6b
 3626 0314 02       		.uleb128 0x2
 3627 0315 91       		.byte	0x91
 3628 0316 76       		.sleb128 -10
 3629 0317 00       		.byte	0
 3630 0318 0A       		.uleb128 0xa
 3631 0319 EB070000 		.4byte	.LASF74
 3632 031d 01       		.byte	0x1
 3633 031e 9F       		.byte	0x9f
 3634 031f 00000000 		.4byte	.LFB40
 3635 0323 54000000 		.4byte	.LFE40-.LFB40
ARM GAS  C:\Users\ADMINI~1\AppData\Local\Temp\ccv1PMEE.s 			page 74


 3636 0327 01       		.uleb128 0x1
 3637 0328 9C       		.byte	0x9c
 3638 0329 56030000 		.4byte	0x356
 3639 032d 0D       		.uleb128 0xd
 3640 032e D4010000 		.4byte	.LASF73
 3641 0332 01       		.byte	0x1
 3642 0333 9F       		.byte	0x9f
 3643 0334 38020000 		.4byte	0x238
 3644 0338 02       		.uleb128 0x2
 3645 0339 91       		.byte	0x91
 3646 033a 6C       		.sleb128 -20
 3647 033b 0D       		.uleb128 0xd
 3648 033c E5020000 		.4byte	.LASF75
 3649 0340 01       		.byte	0x1
 3650 0341 9F       		.byte	0x9f
 3651 0342 38020000 		.4byte	0x238
 3652 0346 02       		.uleb128 0x2
 3653 0347 91       		.byte	0x91
 3654 0348 68       		.sleb128 -24
 3655 0349 0C       		.uleb128 0xc
 3656 034a 6900     		.ascii	"i\000"
 3657 034c 01       		.byte	0x1
 3658 034d A1       		.byte	0xa1
 3659 034e 6B000000 		.4byte	0x6b
 3660 0352 02       		.uleb128 0x2
 3661 0353 91       		.byte	0x91
 3662 0354 77       		.sleb128 -9
 3663 0355 00       		.byte	0
 3664 0356 0E       		.uleb128 0xe
 3665 0357 A6070000 		.4byte	.LASF76
 3666 035b 01       		.byte	0x1
 3667 035c AA       		.byte	0xaa
 3668 035d 00000000 		.4byte	.LFB41
 3669 0361 F4020000 		.4byte	.LFE41-.LFB41
 3670 0365 01       		.uleb128 0x1
 3671 0366 9C       		.byte	0x9c
 3672 0367 19040000 		.4byte	0x419
 3673 036b 0B       		.uleb128 0xb
 3674 036c 4D7900   		.ascii	"My\000"
 3675 036f 01       		.byte	0x1
 3676 0370 AA       		.byte	0xaa
 3677 0371 38020000 		.4byte	0x238
 3678 0375 03       		.uleb128 0x3
 3679 0376 91       		.byte	0x91
 3680 0377 AC7E     		.sleb128 -212
 3681 0379 0B       		.uleb128 0xb
 3682 037a 6E00     		.ascii	"n\000"
 3683 037c 01       		.byte	0x1
 3684 037d AA       		.byte	0xaa
 3685 037e 6B000000 		.4byte	0x6b
 3686 0382 03       		.uleb128 0x3
 3687 0383 91       		.byte	0x91
 3688 0384 AB7E     		.sleb128 -213
 3689 0386 0B       		.uleb128 0xb
 3690 0387 6B657900 		.ascii	"key\000"
 3691 038b 01       		.byte	0x1
 3692 038c AA       		.byte	0xaa
ARM GAS  C:\Users\ADMINI~1\AppData\Local\Temp\ccv1PMEE.s 			page 75


 3693 038d 38020000 		.4byte	0x238
 3694 0391 03       		.uleb128 0x3
 3695 0392 91       		.byte	0x91
 3696 0393 A47E     		.sleb128 -220
 3697 0395 0C       		.uleb128 0xc
 3698 0396 6900     		.ascii	"i\000"
 3699 0398 01       		.byte	0x1
 3700 0399 AC       		.byte	0xac
 3701 039a 6B000000 		.4byte	0x6b
 3702 039e 02       		.uleb128 0x2
 3703 039f 91       		.byte	0x91
 3704 03a0 6F       		.sleb128 -17
 3705 03a1 0C       		.uleb128 0xc
 3706 03a2 6A00     		.ascii	"j\000"
 3707 03a4 01       		.byte	0x1
 3708 03a5 AC       		.byte	0xac
 3709 03a6 6B000000 		.4byte	0x6b
 3710 03aa 02       		.uleb128 0x2
 3711 03ab 91       		.byte	0x91
 3712 03ac 6E       		.sleb128 -18
 3713 03ad 0C       		.uleb128 0xc
 3714 03ae 6D00     		.ascii	"m\000"
 3715 03b0 01       		.byte	0x1
 3716 03b1 AC       		.byte	0xac
 3717 03b2 6B000000 		.4byte	0x6b
 3718 03b6 02       		.uleb128 0x2
 3719 03b7 91       		.byte	0x91
 3720 03b8 6D       		.sleb128 -19
 3721 03b9 0C       		.uleb128 0xc
 3722 03ba 74656D00 		.ascii	"tem\000"
 3723 03be 01       		.byte	0x1
 3724 03bf AD       		.byte	0xad
 3725 03c0 6B000000 		.4byte	0x6b
 3726 03c4 02       		.uleb128 0x2
 3727 03c5 91       		.byte	0x91
 3728 03c6 6C       		.sleb128 -20
 3729 03c7 0F       		.uleb128 0xf
 3730 03c8 32020000 		.4byte	.LASF77
 3731 03cc 01       		.byte	0x1
 3732 03cd AD       		.byte	0xad
 3733 03ce 6B000000 		.4byte	0x6b
 3734 03d2 02       		.uleb128 0x2
 3735 03d3 91       		.byte	0x91
 3736 03d4 6B       		.sleb128 -21
 3737 03d5 0C       		.uleb128 0xc
 3738 03d6 6B00     		.ascii	"k\000"
 3739 03d8 01       		.byte	0x1
 3740 03d9 AE       		.byte	0xae
 3741 03da 19040000 		.4byte	0x419
 3742 03de 03       		.uleb128 0x3
 3743 03df 91       		.byte	0x91
 3744 03e0 B07F     		.sleb128 -80
 3745 03e2 0C       		.uleb128 0xc
 3746 03e3 6100     		.ascii	"a\000"
 3747 03e5 01       		.byte	0x1
 3748 03e6 AF       		.byte	0xaf
 3749 03e7 29040000 		.4byte	0x429
ARM GAS  C:\Users\ADMINI~1\AppData\Local\Temp\ccv1PMEE.s 			page 76


 3750 03eb 03       		.uleb128 0x3
 3751 03ec 91       		.byte	0x91
 3752 03ed F87E     		.sleb128 -136
 3753 03ef 0C       		.uleb128 0xc
 3754 03f0 6300     		.ascii	"c\000"
 3755 03f2 01       		.byte	0x1
 3756 03f3 B0       		.byte	0xb0
 3757 03f4 3F040000 		.4byte	0x43f
 3758 03f8 03       		.uleb128 0x3
 3759 03f9 91       		.byte	0x91
 3760 03fa DC7E     		.sleb128 -164
 3761 03fc 0C       		.uleb128 0xc
 3762 03fd 6400     		.ascii	"d\000"
 3763 03ff 01       		.byte	0x1
 3764 0400 B0       		.byte	0xb0
 3765 0401 3F040000 		.4byte	0x43f
 3766 0405 03       		.uleb128 0x3
 3767 0406 91       		.byte	0x91
 3768 0407 C07E     		.sleb128 -192
 3769 0409 0F       		.uleb128 0xf
 3770 040a 01090000 		.4byte	.LASF78
 3771 040e 01       		.byte	0x1
 3772 040f B1       		.byte	0xb1
 3773 0410 28020000 		.4byte	0x228
 3774 0414 03       		.uleb128 0x3
 3775 0415 91       		.byte	0x91
 3776 0416 B07E     		.sleb128 -208
 3777 0418 00       		.byte	0
 3778 0419 07       		.uleb128 0x7
 3779 041a 6B000000 		.4byte	0x6b
 3780 041e 29040000 		.4byte	0x429
 3781 0422 08       		.uleb128 0x8
 3782 0423 8C000000 		.4byte	0x8c
 3783 0427 37       		.byte	0x37
 3784 0428 00       		.byte	0
 3785 0429 07       		.uleb128 0x7
 3786 042a 6B000000 		.4byte	0x6b
 3787 042e 3F040000 		.4byte	0x43f
 3788 0432 08       		.uleb128 0x8
 3789 0433 8C000000 		.4byte	0x8c
 3790 0437 07       		.byte	0x7
 3791 0438 08       		.uleb128 0x8
 3792 0439 8C000000 		.4byte	0x8c
 3793 043d 06       		.byte	0x6
 3794 043e 00       		.byte	0
 3795 043f 07       		.uleb128 0x7
 3796 0440 6B000000 		.4byte	0x6b
 3797 0444 4F040000 		.4byte	0x44f
 3798 0448 08       		.uleb128 0x8
 3799 0449 8C000000 		.4byte	0x8c
 3800 044d 1B       		.byte	0x1b
 3801 044e 00       		.byte	0
 3802 044f 0A       		.uleb128 0xa
 3803 0450 7A060000 		.4byte	.LASF79
 3804 0454 01       		.byte	0x1
 3805 0455 E5       		.byte	0xe5
 3806 0456 00000000 		.4byte	.LFB42
ARM GAS  C:\Users\ADMINI~1\AppData\Local\Temp\ccv1PMEE.s 			page 77


 3807 045a 6E000000 		.4byte	.LFE42-.LFB42
 3808 045e 01       		.uleb128 0x1
 3809 045f 9C       		.byte	0x9c
 3810 0460 98040000 		.4byte	0x498
 3811 0464 0B       		.uleb128 0xb
 3812 0465 6B657900 		.ascii	"key\000"
 3813 0469 01       		.byte	0x1
 3814 046a E5       		.byte	0xe5
 3815 046b 38020000 		.4byte	0x238
 3816 046f 02       		.uleb128 0x2
 3817 0470 91       		.byte	0x91
 3818 0471 6C       		.sleb128 -20
 3819 0472 0B       		.uleb128 0xb
 3820 0473 5200     		.ascii	"R\000"
 3821 0475 01       		.byte	0x1
 3822 0476 E5       		.byte	0xe5
 3823 0477 38020000 		.4byte	0x238
 3824 047b 02       		.uleb128 0x2
 3825 047c 91       		.byte	0x91
 3826 047d 68       		.sleb128 -24
 3827 047e 0B       		.uleb128 0xb
 3828 047f 6B3200   		.ascii	"k2\000"
 3829 0482 01       		.byte	0x1
 3830 0483 E5       		.byte	0xe5
 3831 0484 38020000 		.4byte	0x238
 3832 0488 02       		.uleb128 0x2
 3833 0489 91       		.byte	0x91
 3834 048a 64       		.sleb128 -28
 3835 048b 0C       		.uleb128 0xc
 3836 048c 6900     		.ascii	"i\000"
 3837 048e 01       		.byte	0x1
 3838 048f E7       		.byte	0xe7
 3839 0490 6B000000 		.4byte	0x6b
 3840 0494 02       		.uleb128 0x2
 3841 0495 91       		.byte	0x91
 3842 0496 77       		.sleb128 -9
 3843 0497 00       		.byte	0
 3844 0498 0E       		.uleb128 0xe
 3845 0499 8B060000 		.4byte	.LASF80
 3846 049d 01       		.byte	0x1
 3847 049e F5       		.byte	0xf5
 3848 049f 00000000 		.4byte	.LFB43
 3849 04a3 C8010000 		.4byte	.LFE43-.LFB43
 3850 04a7 01       		.uleb128 0x1
 3851 04a8 9C       		.byte	0x9c
 3852 04a9 48050000 		.4byte	0x548
 3853 04ad 0B       		.uleb128 0xb
 3854 04ae 6B3200   		.ascii	"k2\000"
 3855 04b1 01       		.byte	0x1
 3856 04b2 F5       		.byte	0xf5
 3857 04b3 38020000 		.4byte	0x238
 3858 04b7 03       		.uleb128 0x3
 3859 04b8 91       		.byte	0x91
 3860 04b9 AC7F     		.sleb128 -84
 3861 04bb 0B       		.uleb128 0xb
 3862 04bc 6B3300   		.ascii	"k3\000"
 3863 04bf 01       		.byte	0x1
ARM GAS  C:\Users\ADMINI~1\AppData\Local\Temp\ccv1PMEE.s 			page 78


 3864 04c0 F5       		.byte	0xf5
 3865 04c1 38020000 		.4byte	0x238
 3866 04c5 03       		.uleb128 0x3
 3867 04c6 91       		.byte	0x91
 3868 04c7 A87F     		.sleb128 -88
 3869 04c9 0C       		.uleb128 0xc
 3870 04ca 6900     		.ascii	"i\000"
 3871 04cc 01       		.byte	0x1
 3872 04cd F7       		.byte	0xf7
 3873 04ce 6B000000 		.4byte	0x6b
 3874 04d2 02       		.uleb128 0x2
 3875 04d3 91       		.byte	0x91
 3876 04d4 6F       		.sleb128 -17
 3877 04d5 0C       		.uleb128 0xc
 3878 04d6 6800     		.ascii	"h\000"
 3879 04d8 01       		.byte	0x1
 3880 04d9 F7       		.byte	0xf7
 3881 04da 6B000000 		.4byte	0x6b
 3882 04de 02       		.uleb128 0x2
 3883 04df 91       		.byte	0x91
 3884 04e0 67       		.sleb128 -25
 3885 04e1 0C       		.uleb128 0xc
 3886 04e2 6C00     		.ascii	"l\000"
 3887 04e4 01       		.byte	0x1
 3888 04e5 F7       		.byte	0xf7
 3889 04e6 6B000000 		.4byte	0x6b
 3890 04ea 02       		.uleb128 0x2
 3891 04eb 91       		.byte	0x91
 3892 04ec 66       		.sleb128 -26
 3893 04ed 0C       		.uleb128 0xc
 3894 04ee 6100     		.ascii	"a\000"
 3895 04f0 01       		.byte	0x1
 3896 04f1 F7       		.byte	0xf7
 3897 04f2 6B000000 		.4byte	0x6b
 3898 04f6 02       		.uleb128 0x2
 3899 04f7 91       		.byte	0x91
 3900 04f8 6E       		.sleb128 -18
 3901 04f9 0F       		.uleb128 0xf
 3902 04fa E5020000 		.4byte	.LASF75
 3903 04fe 01       		.byte	0x1
 3904 04ff F7       		.byte	0xf7
 3905 0500 6B000000 		.4byte	0x6b
 3906 0504 02       		.uleb128 0x2
 3907 0505 91       		.byte	0x91
 3908 0506 65       		.sleb128 -27
 3909 0507 0C       		.uleb128 0xc
 3910 0508 6D00     		.ascii	"m\000"
 3911 050a 01       		.byte	0x1
 3912 050b F7       		.byte	0xf7
 3913 050c 6B000000 		.4byte	0x6b
 3914 0510 02       		.uleb128 0x2
 3915 0511 91       		.byte	0x91
 3916 0512 6D       		.sleb128 -19
 3917 0513 0C       		.uleb128 0xc
 3918 0514 6A00     		.ascii	"j\000"
 3919 0516 01       		.byte	0x1
 3920 0517 F7       		.byte	0xf7
ARM GAS  C:\Users\ADMINI~1\AppData\Local\Temp\ccv1PMEE.s 			page 79


 3921 0518 6B000000 		.4byte	0x6b
 3922 051c 02       		.uleb128 0x2
 3923 051d 91       		.byte	0x91
 3924 051e 6C       		.sleb128 -20
 3925 051f 0C       		.uleb128 0xc
 3926 0520 6B00     		.ascii	"k\000"
 3927 0522 01       		.byte	0x1
 3928 0523 F8       		.byte	0xf8
 3929 0524 5D000000 		.4byte	0x5d
 3930 0528 02       		.uleb128 0x2
 3931 0529 91       		.byte	0x91
 3932 052a 68       		.sleb128 -24
 3933 052b 0C       		.uleb128 0xc
 3934 052c 6200     		.ascii	"b\000"
 3935 052e 01       		.byte	0x1
 3936 052f F9       		.byte	0xf9
 3937 0530 48050000 		.4byte	0x548
 3938 0534 03       		.uleb128 0x3
 3939 0535 91       		.byte	0x91
 3940 0536 B47F     		.sleb128 -76
 3941 0538 0C       		.uleb128 0xc
 3942 0539 6E756D00 		.ascii	"num\000"
 3943 053d 01       		.byte	0x1
 3944 053e FA       		.byte	0xfa
 3945 053f 5E050000 		.4byte	0x55e
 3946 0543 03       		.uleb128 0x3
 3947 0544 91       		.byte	0x91
 3948 0545 B07F     		.sleb128 -80
 3949 0547 00       		.byte	0
 3950 0548 07       		.uleb128 0x7
 3951 0549 6B000000 		.4byte	0x6b
 3952 054d 5E050000 		.4byte	0x55e
 3953 0551 08       		.uleb128 0x8
 3954 0552 8C000000 		.4byte	0x8c
 3955 0556 07       		.byte	0x7
 3956 0557 08       		.uleb128 0x8
 3957 0558 8C000000 		.4byte	0x8c
 3958 055c 05       		.byte	0x5
 3959 055d 00       		.byte	0
 3960 055e 07       		.uleb128 0x7
 3961 055f 6B000000 		.4byte	0x6b
 3962 0563 6E050000 		.4byte	0x56e
 3963 0567 08       		.uleb128 0x8
 3964 0568 8C000000 		.4byte	0x8c
 3965 056c 03       		.byte	0x3
 3966 056d 00       		.byte	0
 3967 056e 10       		.uleb128 0x10
 3968 056f 6E050000 		.4byte	.LASF81
 3969 0573 01       		.byte	0x1
 3970 0574 1A01     		.2byte	0x11a
 3971 0576 00000000 		.4byte	.LFB44
 3972 057a 54000000 		.4byte	.LFE44-.LFB44
 3973 057e 01       		.uleb128 0x1
 3974 057f 9C       		.byte	0x9c
 3975 0580 AD050000 		.4byte	0x5ad
 3976 0584 11       		.uleb128 0x11
 3977 0585 6B3300   		.ascii	"k3\000"
ARM GAS  C:\Users\ADMINI~1\AppData\Local\Temp\ccv1PMEE.s 			page 80


 3978 0588 01       		.byte	0x1
 3979 0589 1A01     		.2byte	0x11a
 3980 058b 38020000 		.4byte	0x238
 3981 058f 02       		.uleb128 0x2
 3982 0590 91       		.byte	0x91
 3983 0591 6C       		.sleb128 -20
 3984 0592 11       		.uleb128 0x11
 3985 0593 7000     		.ascii	"p\000"
 3986 0595 01       		.byte	0x1
 3987 0596 1A01     		.2byte	0x11a
 3988 0598 38020000 		.4byte	0x238
 3989 059c 02       		.uleb128 0x2
 3990 059d 91       		.byte	0x91
 3991 059e 68       		.sleb128 -24
 3992 059f 12       		.uleb128 0x12
 3993 05a0 6900     		.ascii	"i\000"
 3994 05a2 01       		.byte	0x1
 3995 05a3 1C01     		.2byte	0x11c
 3996 05a5 6B000000 		.4byte	0x6b
 3997 05a9 02       		.uleb128 0x2
 3998 05aa 91       		.byte	0x91
 3999 05ab 77       		.sleb128 -9
 4000 05ac 00       		.byte	0
 4001 05ad 10       		.uleb128 0x10
 4002 05ae 42030000 		.4byte	.LASF82
 4003 05b2 01       		.byte	0x1
 4004 05b3 2301     		.2byte	0x123
 4005 05b5 00000000 		.4byte	.LFB45
 4006 05b9 54000000 		.4byte	.LFE45-.LFB45
 4007 05bd 01       		.uleb128 0x1
 4008 05be 9C       		.byte	0x9c
 4009 05bf EB050000 		.4byte	0x5eb
 4010 05c3 11       		.uleb128 0x11
 4011 05c4 6100     		.ascii	"a\000"
 4012 05c6 01       		.byte	0x1
 4013 05c7 2301     		.2byte	0x123
 4014 05c9 38020000 		.4byte	0x238
 4015 05cd 02       		.uleb128 0x2
 4016 05ce 91       		.byte	0x91
 4017 05cf 6C       		.sleb128 -20
 4018 05d0 11       		.uleb128 0x11
 4019 05d1 6200     		.ascii	"b\000"
 4020 05d3 01       		.byte	0x1
 4021 05d4 2301     		.2byte	0x123
 4022 05d6 38020000 		.4byte	0x238
 4023 05da 02       		.uleb128 0x2
 4024 05db 91       		.byte	0x91
 4025 05dc 68       		.sleb128 -24
 4026 05dd 12       		.uleb128 0x12
 4027 05de 6900     		.ascii	"i\000"
 4028 05e0 01       		.byte	0x1
 4029 05e1 2501     		.2byte	0x125
 4030 05e3 6B000000 		.4byte	0x6b
 4031 05e7 02       		.uleb128 0x2
 4032 05e8 91       		.byte	0x91
 4033 05e9 77       		.sleb128 -9
 4034 05ea 00       		.byte	0
ARM GAS  C:\Users\ADMINI~1\AppData\Local\Temp\ccv1PMEE.s 			page 81


 4035 05eb 13       		.uleb128 0x13
 4036 05ec 33090000 		.4byte	.LASF83
 4037 05f0 01       		.byte	0x1
 4038 05f1 2C01     		.2byte	0x12c
 4039 05f3 00000000 		.4byte	.LFB46
 4040 05f7 52000000 		.4byte	.LFE46-.LFB46
 4041 05fb 01       		.uleb128 0x1
 4042 05fc 9C       		.byte	0x9c
 4043 05fd 59060000 		.4byte	0x659
 4044 0601 11       		.uleb128 0x11
 4045 0602 5200     		.ascii	"R\000"
 4046 0604 01       		.byte	0x1
 4047 0605 2C01     		.2byte	0x12c
 4048 0607 38020000 		.4byte	0x238
 4049 060b 03       		.uleb128 0x3
 4050 060c 91       		.byte	0x91
 4051 060d F47E     		.sleb128 -140
 4052 060f 11       		.uleb128 0x11
 4053 0610 6B657900 		.ascii	"key\000"
 4054 0614 01       		.byte	0x1
 4055 0615 2C01     		.2byte	0x12c
 4056 0617 38020000 		.4byte	0x238
 4057 061b 03       		.uleb128 0x3
 4058 061c 91       		.byte	0x91
 4059 061d F07E     		.sleb128 -144
 4060 061f 11       		.uleb128 0x11
 4061 0620 7000     		.ascii	"p\000"
 4062 0622 01       		.byte	0x1
 4063 0623 2C01     		.2byte	0x12c
 4064 0625 38020000 		.4byte	0x238
 4065 0629 03       		.uleb128 0x3
 4066 062a 91       		.byte	0x91
 4067 062b EC7E     		.sleb128 -148
 4068 062d 12       		.uleb128 0x12
 4069 062e 6200     		.ascii	"b\000"
 4070 0630 01       		.byte	0x1
 4071 0631 2E01     		.2byte	0x12e
 4072 0633 59060000 		.4byte	0x659
 4073 0637 02       		.uleb128 0x2
 4074 0638 91       		.byte	0x91
 4075 0639 48       		.sleb128 -56
 4076 063a 12       		.uleb128 0x12
 4077 063b 6B3200   		.ascii	"k2\000"
 4078 063e 01       		.byte	0x1
 4079 063f 2E01     		.2byte	0x12e
 4080 0641 59060000 		.4byte	0x659
 4081 0645 03       		.uleb128 0x3
 4082 0646 91       		.byte	0x91
 4083 0647 987F     		.sleb128 -104
 4084 0649 12       		.uleb128 0x12
 4085 064a 6B3300   		.ascii	"k3\000"
 4086 064d 01       		.byte	0x1
 4087 064e 2E01     		.2byte	0x12e
 4088 0650 69060000 		.4byte	0x669
 4089 0654 03       		.uleb128 0x3
 4090 0655 91       		.byte	0x91
 4091 0656 F87E     		.sleb128 -136
ARM GAS  C:\Users\ADMINI~1\AppData\Local\Temp\ccv1PMEE.s 			page 82


 4092 0658 00       		.byte	0
 4093 0659 07       		.uleb128 0x7
 4094 065a 6B000000 		.4byte	0x6b
 4095 065e 69060000 		.4byte	0x669
 4096 0662 08       		.uleb128 0x8
 4097 0663 8C000000 		.4byte	0x8c
 4098 0667 2F       		.byte	0x2f
 4099 0668 00       		.byte	0
 4100 0669 07       		.uleb128 0x7
 4101 066a 6B000000 		.4byte	0x6b
 4102 066e 79060000 		.4byte	0x679
 4103 0672 08       		.uleb128 0x8
 4104 0673 8C000000 		.4byte	0x8c
 4105 0677 1F       		.byte	0x1f
 4106 0678 00       		.byte	0
 4107 0679 10       		.uleb128 0x10
 4108 067a 0C030000 		.4byte	.LASF84
 4109 067e 01       		.byte	0x1
 4110 067f 3601     		.2byte	0x136
 4111 0681 00000000 		.4byte	.LFB47
 4112 0685 6E000000 		.4byte	.LFE47-.LFB47
 4113 0689 01       		.uleb128 0x1
 4114 068a 9C       		.byte	0x9c
 4115 068b C5060000 		.4byte	0x6c5
 4116 068f 11       		.uleb128 0x11
 4117 0690 4C00     		.ascii	"L\000"
 4118 0692 01       		.byte	0x1
 4119 0693 3601     		.2byte	0x136
 4120 0695 38020000 		.4byte	0x238
 4121 0699 02       		.uleb128 0x2
 4122 069a 91       		.byte	0x91
 4123 069b 6C       		.sleb128 -20
 4124 069c 11       		.uleb128 0x11
 4125 069d 7000     		.ascii	"p\000"
 4126 069f 01       		.byte	0x1
 4127 06a0 3601     		.2byte	0x136
 4128 06a2 38020000 		.4byte	0x238
 4129 06a6 02       		.uleb128 0x2
 4130 06a7 91       		.byte	0x91
 4131 06a8 68       		.sleb128 -24
 4132 06a9 11       		.uleb128 0x11
 4133 06aa 523100   		.ascii	"R1\000"
 4134 06ad 01       		.byte	0x1
 4135 06ae 3601     		.2byte	0x136
 4136 06b0 38020000 		.4byte	0x238
 4137 06b4 02       		.uleb128 0x2
 4138 06b5 91       		.byte	0x91
 4139 06b6 64       		.sleb128 -28
 4140 06b7 12       		.uleb128 0x12
 4141 06b8 6900     		.ascii	"i\000"
 4142 06ba 01       		.byte	0x1
 4143 06bb 3801     		.2byte	0x138
 4144 06bd 6B000000 		.4byte	0x6b
 4145 06c1 02       		.uleb128 0x2
 4146 06c2 91       		.byte	0x91
 4147 06c3 77       		.sleb128 -9
 4148 06c4 00       		.byte	0
ARM GAS  C:\Users\ADMINI~1\AppData\Local\Temp\ccv1PMEE.s 			page 83


 4149 06c5 10       		.uleb128 0x10
 4150 06c6 40010000 		.4byte	.LASF85
 4151 06ca 01       		.byte	0x1
 4152 06cb 4801     		.2byte	0x148
 4153 06cd 00000000 		.4byte	.LFB48
 4154 06d1 B8000000 		.4byte	.LFE48-.LFB48
 4155 06d5 01       		.uleb128 0x1
 4156 06d6 9C       		.byte	0x9c
 4157 06d7 23070000 		.4byte	0x723
 4158 06db 14       		.uleb128 0x14
 4159 06dc AB030000 		.4byte	.LASF86
 4160 06e0 01       		.byte	0x1
 4161 06e1 4801     		.2byte	0x148
 4162 06e3 38020000 		.4byte	0x238
 4163 06e7 02       		.uleb128 0x2
 4164 06e8 91       		.byte	0x91
 4165 06e9 6C       		.sleb128 -20
 4166 06ea 14       		.uleb128 0x14
 4167 06eb A1060000 		.4byte	.LASF87
 4168 06ef 01       		.byte	0x1
 4169 06f0 4801     		.2byte	0x148
 4170 06f2 38020000 		.4byte	0x238
 4171 06f6 02       		.uleb128 0x2
 4172 06f7 91       		.byte	0x91
 4173 06f8 68       		.sleb128 -24
 4174 06f9 14       		.uleb128 0x14
 4175 06fa 2C090000 		.4byte	.LASF88
 4176 06fe 01       		.byte	0x1
 4177 06ff 4801     		.2byte	0x148
 4178 0701 38020000 		.4byte	0x238
 4179 0705 02       		.uleb128 0x2
 4180 0706 91       		.byte	0x91
 4181 0707 64       		.sleb128 -28
 4182 0708 12       		.uleb128 0x12
 4183 0709 6900     		.ascii	"i\000"
 4184 070b 01       		.byte	0x1
 4185 070c 4A01     		.2byte	0x14a
 4186 070e 6B000000 		.4byte	0x6b
 4187 0712 02       		.uleb128 0x2
 4188 0713 91       		.byte	0x91
 4189 0714 77       		.sleb128 -9
 4190 0715 12       		.uleb128 0x12
 4191 0716 6A00     		.ascii	"j\000"
 4192 0718 01       		.byte	0x1
 4193 0719 4A01     		.2byte	0x14a
 4194 071b 6B000000 		.4byte	0x6b
 4195 071f 02       		.uleb128 0x2
 4196 0720 91       		.byte	0x91
 4197 0721 76       		.sleb128 -10
 4198 0722 00       		.byte	0
 4199 0723 10       		.uleb128 0x10
 4200 0724 88070000 		.4byte	.LASF89
 4201 0728 01       		.byte	0x1
 4202 0729 5501     		.2byte	0x155
 4203 072b 00000000 		.4byte	.LFB49
 4204 072f 4A000000 		.4byte	.LFE49-.LFB49
 4205 0733 01       		.uleb128 0x1
ARM GAS  C:\Users\ADMINI~1\AppData\Local\Temp\ccv1PMEE.s 			page 84


 4206 0734 9C       		.byte	0x9c
 4207 0735 65070000 		.4byte	0x765
 4208 0739 14       		.uleb128 0x14
 4209 073a A1060000 		.4byte	.LASF87
 4210 073e 01       		.byte	0x1
 4211 073f 5501     		.2byte	0x155
 4212 0741 38020000 		.4byte	0x238
 4213 0745 02       		.uleb128 0x2
 4214 0746 91       		.byte	0x91
 4215 0747 6C       		.sleb128 -20
 4216 0748 14       		.uleb128 0x14
 4217 0749 2C090000 		.4byte	.LASF88
 4218 074d 01       		.byte	0x1
 4219 074e 5501     		.2byte	0x155
 4220 0750 38020000 		.4byte	0x238
 4221 0754 02       		.uleb128 0x2
 4222 0755 91       		.byte	0x91
 4223 0756 68       		.sleb128 -24
 4224 0757 12       		.uleb128 0x12
 4225 0758 6900     		.ascii	"i\000"
 4226 075a 01       		.byte	0x1
 4227 075b 5701     		.2byte	0x157
 4228 075d 6B000000 		.4byte	0x6b
 4229 0761 02       		.uleb128 0x2
 4230 0762 91       		.byte	0x91
 4231 0763 77       		.sleb128 -9
 4232 0764 00       		.byte	0
 4233 0765 10       		.uleb128 0x10
 4234 0766 4C030000 		.4byte	.LASF90
 4235 076a 01       		.byte	0x1
 4236 076b 5E01     		.2byte	0x15e
 4237 076d 00000000 		.4byte	.LFB50
 4238 0771 AC000000 		.4byte	.LFE50-.LFB50
 4239 0775 01       		.uleb128 0x1
 4240 0776 9C       		.byte	0x9c
 4241 0777 C7070000 		.4byte	0x7c7
 4242 077b 14       		.uleb128 0x14
 4243 077c A1060000 		.4byte	.LASF87
 4244 0780 01       		.byte	0x1
 4245 0781 5E01     		.2byte	0x15e
 4246 0783 38020000 		.4byte	0x238
 4247 0787 03       		.uleb128 0x3
 4248 0788 91       		.byte	0x91
 4249 0789 AC7F     		.sleb128 -84
 4250 078b 14       		.uleb128 0x14
 4251 078c 2C090000 		.4byte	.LASF88
 4252 0790 01       		.byte	0x1
 4253 0791 5E01     		.2byte	0x15e
 4254 0793 38020000 		.4byte	0x238
 4255 0797 03       		.uleb128 0x3
 4256 0798 91       		.byte	0x91
 4257 0799 A87F     		.sleb128 -88
 4258 079b 14       		.uleb128 0x14
 4259 079c AB030000 		.4byte	.LASF86
 4260 07a0 01       		.byte	0x1
 4261 07a1 5E01     		.2byte	0x15e
 4262 07a3 38020000 		.4byte	0x238
ARM GAS  C:\Users\ADMINI~1\AppData\Local\Temp\ccv1PMEE.s 			page 85


 4263 07a7 03       		.uleb128 0x3
 4264 07a8 91       		.byte	0x91
 4265 07a9 A47F     		.sleb128 -92
 4266 07ab 12       		.uleb128 0x12
 4267 07ac 6100     		.ascii	"a\000"
 4268 07ae 01       		.byte	0x1
 4269 07af 6001     		.2byte	0x160
 4270 07b1 C7070000 		.4byte	0x7c7
 4271 07b5 03       		.uleb128 0x3
 4272 07b6 91       		.byte	0x91
 4273 07b7 B47F     		.sleb128 -76
 4274 07b9 12       		.uleb128 0x12
 4275 07ba 6900     		.ascii	"i\000"
 4276 07bc 01       		.byte	0x1
 4277 07bd 6101     		.2byte	0x161
 4278 07bf 6B000000 		.4byte	0x6b
 4279 07c3 02       		.uleb128 0x2
 4280 07c4 91       		.byte	0x91
 4281 07c5 77       		.sleb128 -9
 4282 07c6 00       		.byte	0
 4283 07c7 07       		.uleb128 0x7
 4284 07c8 6B000000 		.4byte	0x6b
 4285 07cc D7070000 		.4byte	0x7d7
 4286 07d0 08       		.uleb128 0x8
 4287 07d1 8C000000 		.4byte	0x8c
 4288 07d5 3F       		.byte	0x3f
 4289 07d6 00       		.byte	0
 4290 07d7 15       		.uleb128 0x15
 4291 07d8 83020000 		.4byte	.LASF111
 4292 07dc 01       		.byte	0x1
 4293 07dd 6E01     		.2byte	0x16e
 4294 07df 6B000000 		.4byte	0x6b
 4295 07e3 00000000 		.4byte	.LFB51
 4296 07e7 6E000000 		.4byte	.LFE51-.LFB51
 4297 07eb 01       		.uleb128 0x1
 4298 07ec 9C       		.byte	0x9c
 4299 07ed 1F080000 		.4byte	0x81f
 4300 07f1 11       		.uleb128 0x11
 4301 07f2 62697400 		.ascii	"bit\000"
 4302 07f6 01       		.byte	0x1
 4303 07f7 6E01     		.2byte	0x16e
 4304 07f9 38020000 		.4byte	0x238
 4305 07fd 02       		.uleb128 0x2
 4306 07fe 91       		.byte	0x91
 4307 07ff 6C       		.sleb128 -20
 4308 0800 12       		.uleb128 0x12
 4309 0801 636E7400 		.ascii	"cnt\000"
 4310 0805 01       		.byte	0x1
 4311 0806 7001     		.2byte	0x170
 4312 0808 6B000000 		.4byte	0x6b
 4313 080c 02       		.uleb128 0x2
 4314 080d 91       		.byte	0x91
 4315 080e 77       		.sleb128 -9
 4316 080f 16       		.uleb128 0x16
 4317 0810 AB030000 		.4byte	.LASF86
 4318 0814 01       		.byte	0x1
 4319 0815 7101     		.2byte	0x171
ARM GAS  C:\Users\ADMINI~1\AppData\Local\Temp\ccv1PMEE.s 			page 86


 4320 0817 6B000000 		.4byte	0x6b
 4321 081b 02       		.uleb128 0x2
 4322 081c 91       		.byte	0x91
 4323 081d 76       		.sleb128 -10
 4324 081e 00       		.byte	0
 4325 081f 13       		.uleb128 0x13
 4326 0820 AA010000 		.4byte	.LASF91
 4327 0824 01       		.byte	0x1
 4328 0825 7901     		.2byte	0x179
 4329 0827 00000000 		.4byte	.LFB52
 4330 082b 42000000 		.4byte	.LFE52-.LFB52
 4331 082f 01       		.uleb128 0x1
 4332 0830 9C       		.byte	0x9c
 4333 0831 86080000 		.4byte	0x886
 4334 0835 14       		.uleb128 0x14
 4335 0836 AB030000 		.4byte	.LASF86
 4336 083a 01       		.byte	0x1
 4337 083b 7901     		.2byte	0x179
 4338 083d 38020000 		.4byte	0x238
 4339 0841 03       		.uleb128 0x3
 4340 0842 91       		.byte	0x91
 4341 0843 F47E     		.sleb128 -140
 4342 0845 14       		.uleb128 0x14
 4343 0846 A1060000 		.4byte	.LASF87
 4344 084a 01       		.byte	0x1
 4345 084b 7901     		.2byte	0x179
 4346 084d 38020000 		.4byte	0x238
 4347 0851 03       		.uleb128 0x3
 4348 0852 91       		.byte	0x91
 4349 0853 F07E     		.sleb128 -144
 4350 0855 14       		.uleb128 0x14
 4351 0856 2C090000 		.4byte	.LASF88
 4352 085a 01       		.byte	0x1
 4353 085b 7901     		.2byte	0x179
 4354 085d 38020000 		.4byte	0x238
 4355 0861 03       		.uleb128 0x3
 4356 0862 91       		.byte	0x91
 4357 0863 EC7E     		.sleb128 -148
 4358 0865 16       		.uleb128 0x16
 4359 0866 BF050000 		.4byte	.LASF92
 4360 086a 01       		.byte	0x1
 4361 086b 7B01     		.2byte	0x17b
 4362 086d C7070000 		.4byte	0x7c7
 4363 0871 03       		.uleb128 0x3
 4364 0872 91       		.byte	0x91
 4365 0873 B87F     		.sleb128 -72
 4366 0875 16       		.uleb128 0x16
 4367 0876 5E070000 		.4byte	.LASF93
 4368 087a 01       		.byte	0x1
 4369 087b 7C01     		.2byte	0x17c
 4370 087d C7070000 		.4byte	0x7c7
 4371 0881 03       		.uleb128 0x3
 4372 0882 91       		.byte	0x91
 4373 0883 F87E     		.sleb128 -136
 4374 0885 00       		.byte	0
 4375 0886 13       		.uleb128 0x13
 4376 0887 61090000 		.4byte	.LASF94
ARM GAS  C:\Users\ADMINI~1\AppData\Local\Temp\ccv1PMEE.s 			page 87


 4377 088b 01       		.byte	0x1
 4378 088c 8301     		.2byte	0x183
 4379 088e 00000000 		.4byte	.LFB53
 4380 0892 4A010000 		.4byte	.LFE53-.LFB53
 4381 0896 01       		.uleb128 0x1
 4382 0897 9C       		.byte	0x9c
 4383 0898 42090000 		.4byte	0x942
 4384 089c 14       		.uleb128 0x14
 4385 089d 83060000 		.4byte	.LASF95
 4386 08a1 01       		.byte	0x1
 4387 08a2 8301     		.2byte	0x183
 4388 08a4 38020000 		.4byte	0x238
 4389 08a8 03       		.uleb128 0x3
 4390 08a9 91       		.byte	0x91
 4391 08aa B47D     		.sleb128 -332
 4392 08ac 14       		.uleb128 0x14
 4393 08ad 76040000 		.4byte	.LASF96
 4394 08b1 01       		.byte	0x1
 4395 08b2 8301     		.2byte	0x183
 4396 08b4 38020000 		.4byte	0x238
 4397 08b8 03       		.uleb128 0x3
 4398 08b9 91       		.byte	0x91
 4399 08ba B07D     		.sleb128 -336
 4400 08bc 14       		.uleb128 0x14
 4401 08bd 7F050000 		.4byte	.LASF97
 4402 08c1 01       		.byte	0x1
 4403 08c2 8301     		.2byte	0x183
 4404 08c4 38020000 		.4byte	0x238
 4405 08c8 03       		.uleb128 0x3
 4406 08c9 91       		.byte	0x91
 4407 08ca AC7D     		.sleb128 -340
 4408 08cc 12       		.uleb128 0x12
 4409 08cd 6900     		.ascii	"i\000"
 4410 08cf 01       		.byte	0x1
 4411 08d0 8501     		.2byte	0x185
 4412 08d2 6B000000 		.4byte	0x6b
 4413 08d6 02       		.uleb128 0x2
 4414 08d7 91       		.byte	0x91
 4415 08d8 6F       		.sleb128 -17
 4416 08d9 12       		.uleb128 0x12
 4417 08da 4D5900   		.ascii	"MY\000"
 4418 08dd 01       		.byte	0x1
 4419 08de 8601     		.2byte	0x186
 4420 08e0 C7070000 		.4byte	0x7c7
 4421 08e4 03       		.uleb128 0x3
 4422 08e5 91       		.byte	0x91
 4423 08e6 AC7F     		.sleb128 -84
 4424 08e8 12       		.uleb128 0x12
 4425 08e9 4C00     		.ascii	"L\000"
 4426 08eb 01       		.byte	0x1
 4427 08ec 8701     		.2byte	0x187
 4428 08ee 69060000 		.4byte	0x669
 4429 08f2 03       		.uleb128 0x3
 4430 08f3 91       		.byte	0x91
 4431 08f4 8C7F     		.sleb128 -116
 4432 08f6 12       		.uleb128 0x12
 4433 08f7 5200     		.ascii	"R\000"
ARM GAS  C:\Users\ADMINI~1\AppData\Local\Temp\ccv1PMEE.s 			page 88


 4434 08f9 01       		.byte	0x1
 4435 08fa 8801     		.2byte	0x188
 4436 08fc 69060000 		.4byte	0x669
 4437 0900 03       		.uleb128 0x3
 4438 0901 91       		.byte	0x91
 4439 0902 EC7E     		.sleb128 -148
 4440 0904 12       		.uleb128 0x12
 4441 0905 523100   		.ascii	"R1\000"
 4442 0908 01       		.byte	0x1
 4443 0909 8901     		.2byte	0x189
 4444 090b 69060000 		.4byte	0x669
 4445 090f 03       		.uleb128 0x3
 4446 0910 91       		.byte	0x91
 4447 0911 CC7E     		.sleb128 -180
 4448 0913 12       		.uleb128 0x12
 4449 0914 6B657900 		.ascii	"key\000"
 4450 0918 01       		.byte	0x1
 4451 0919 8A01     		.2byte	0x18a
 4452 091b 59060000 		.4byte	0x659
 4453 091f 03       		.uleb128 0x3
 4454 0920 91       		.byte	0x91
 4455 0921 9C7E     		.sleb128 -228
 4456 0923 12       		.uleb128 0x12
 4457 0924 7000     		.ascii	"p\000"
 4458 0926 01       		.byte	0x1
 4459 0927 8B01     		.2byte	0x18b
 4460 0929 69060000 		.4byte	0x669
 4461 092d 03       		.uleb128 0x3
 4462 092e 91       		.byte	0x91
 4463 092f FC7D     		.sleb128 -260
 4464 0931 16       		.uleb128 0x16
 4465 0932 49050000 		.4byte	.LASF98
 4466 0936 01       		.byte	0x1
 4467 0937 8C01     		.2byte	0x18c
 4468 0939 C7070000 		.4byte	0x7c7
 4469 093d 03       		.uleb128 0x3
 4470 093e 91       		.byte	0x91
 4471 093f BC7D     		.sleb128 -324
 4472 0941 00       		.byte	0
 4473 0942 13       		.uleb128 0x13
 4474 0943 52070000 		.4byte	.LASF99
 4475 0947 01       		.byte	0x1
 4476 0948 A901     		.2byte	0x1a9
 4477 094a 00000000 		.4byte	.LFB54
 4478 094e 4A010000 		.4byte	.LFE54-.LFB54
 4479 0952 01       		.uleb128 0x1
 4480 0953 9C       		.byte	0x9c
 4481 0954 FE090000 		.4byte	0x9fe
 4482 0958 14       		.uleb128 0x14
 4483 0959 7F050000 		.4byte	.LASF97
 4484 095d 01       		.byte	0x1
 4485 095e A901     		.2byte	0x1a9
 4486 0960 38020000 		.4byte	0x238
 4487 0964 03       		.uleb128 0x3
 4488 0965 91       		.byte	0x91
 4489 0966 B47D     		.sleb128 -332
 4490 0968 14       		.uleb128 0x14
ARM GAS  C:\Users\ADMINI~1\AppData\Local\Temp\ccv1PMEE.s 			page 89


 4491 0969 76040000 		.4byte	.LASF96
 4492 096d 01       		.byte	0x1
 4493 096e A901     		.2byte	0x1a9
 4494 0970 38020000 		.4byte	0x238
 4495 0974 03       		.uleb128 0x3
 4496 0975 91       		.byte	0x91
 4497 0976 B07D     		.sleb128 -336
 4498 0978 14       		.uleb128 0x14
 4499 0979 83060000 		.4byte	.LASF95
 4500 097d 01       		.byte	0x1
 4501 097e A901     		.2byte	0x1a9
 4502 0980 38020000 		.4byte	0x238
 4503 0984 03       		.uleb128 0x3
 4504 0985 91       		.byte	0x91
 4505 0986 AC7D     		.sleb128 -340
 4506 0988 12       		.uleb128 0x12
 4507 0989 6900     		.ascii	"i\000"
 4508 098b 01       		.byte	0x1
 4509 098c AB01     		.2byte	0x1ab
 4510 098e 6B000000 		.4byte	0x6b
 4511 0992 02       		.uleb128 0x2
 4512 0993 91       		.byte	0x91
 4513 0994 6F       		.sleb128 -17
 4514 0995 12       		.uleb128 0x12
 4515 0996 4D5900   		.ascii	"MY\000"
 4516 0999 01       		.byte	0x1
 4517 099a AC01     		.2byte	0x1ac
 4518 099c C7070000 		.4byte	0x7c7
 4519 09a0 03       		.uleb128 0x3
 4520 09a1 91       		.byte	0x91
 4521 09a2 AC7F     		.sleb128 -84
 4522 09a4 12       		.uleb128 0x12
 4523 09a5 4C00     		.ascii	"L\000"
 4524 09a7 01       		.byte	0x1
 4525 09a8 AD01     		.2byte	0x1ad
 4526 09aa 69060000 		.4byte	0x669
 4527 09ae 03       		.uleb128 0x3
 4528 09af 91       		.byte	0x91
 4529 09b0 8C7F     		.sleb128 -116
 4530 09b2 12       		.uleb128 0x12
 4531 09b3 5200     		.ascii	"R\000"
 4532 09b5 01       		.byte	0x1
 4533 09b6 AE01     		.2byte	0x1ae
 4534 09b8 69060000 		.4byte	0x669
 4535 09bc 03       		.uleb128 0x3
 4536 09bd 91       		.byte	0x91
 4537 09be EC7E     		.sleb128 -148
 4538 09c0 12       		.uleb128 0x12
 4539 09c1 523100   		.ascii	"R1\000"
 4540 09c4 01       		.byte	0x1
 4541 09c5 AF01     		.2byte	0x1af
 4542 09c7 69060000 		.4byte	0x669
 4543 09cb 03       		.uleb128 0x3
 4544 09cc 91       		.byte	0x91
 4545 09cd CC7E     		.sleb128 -180
 4546 09cf 12       		.uleb128 0x12
 4547 09d0 6B657900 		.ascii	"key\000"
ARM GAS  C:\Users\ADMINI~1\AppData\Local\Temp\ccv1PMEE.s 			page 90


 4548 09d4 01       		.byte	0x1
 4549 09d5 B001     		.2byte	0x1b0
 4550 09d7 59060000 		.4byte	0x659
 4551 09db 03       		.uleb128 0x3
 4552 09dc 91       		.byte	0x91
 4553 09dd 9C7E     		.sleb128 -228
 4554 09df 12       		.uleb128 0x12
 4555 09e0 7000     		.ascii	"p\000"
 4556 09e2 01       		.byte	0x1
 4557 09e3 B101     		.2byte	0x1b1
 4558 09e5 69060000 		.4byte	0x669
 4559 09e9 03       		.uleb128 0x3
 4560 09ea 91       		.byte	0x91
 4561 09eb FC7D     		.sleb128 -260
 4562 09ed 16       		.uleb128 0x16
 4563 09ee BF050000 		.4byte	.LASF92
 4564 09f2 01       		.byte	0x1
 4565 09f3 B201     		.2byte	0x1b2
 4566 09f5 C7070000 		.4byte	0x7c7
 4567 09f9 03       		.uleb128 0x3
 4568 09fa 91       		.byte	0x91
 4569 09fb BC7D     		.sleb128 -324
 4570 09fd 00       		.byte	0
 4571 09fe 07       		.uleb128 0x7
 4572 09ff 6B000000 		.4byte	0x6b
 4573 0a03 0E0A0000 		.4byte	0xa0e
 4574 0a07 08       		.uleb128 0x8
 4575 0a08 8C000000 		.4byte	0x8c
 4576 0a0c 07       		.byte	0x7
 4577 0a0d 00       		.byte	0
 4578 0a0e 17       		.uleb128 0x17
 4579 0a0f 5F060000 		.4byte	.LASF100
 4580 0a13 01       		.byte	0x1
 4581 0a14 02       		.byte	0x2
 4582 0a15 FE090000 		.4byte	0x9fe
 4583 0a19 05       		.uleb128 0x5
 4584 0a1a 03       		.byte	0x3
 4585 0a1b 00000000 		.4byte	RootKey
 4586 0a1f 17       		.uleb128 0x17
 4587 0a20 E2050000 		.4byte	.LASF101
 4588 0a24 01       		.byte	0x1
 4589 0a25 04       		.byte	0x4
 4590 0a26 300A0000 		.4byte	0xa30
 4591 0a2a 05       		.uleb128 0x5
 4592 0a2b 03       		.byte	0x3
 4593 0a2c 00000000 		.4byte	IP_Table
 4594 0a30 18       		.uleb128 0x18
 4595 0a31 C7070000 		.4byte	0x7c7
 4596 0a35 17       		.uleb128 0x17
 4597 0a36 E6000000 		.4byte	.LASF102
 4598 0a3a 01       		.byte	0x1
 4599 0a3b 10       		.byte	0x10
 4600 0a3c 460A0000 		.4byte	0xa46
 4601 0a40 05       		.uleb128 0x5
 4602 0a41 03       		.byte	0x3
 4603 0a42 00000000 		.4byte	IP_1_Table
 4604 0a46 18       		.uleb128 0x18
ARM GAS  C:\Users\ADMINI~1\AppData\Local\Temp\ccv1PMEE.s 			page 91


 4605 0a47 C7070000 		.4byte	0x7c7
 4606 0a4b 17       		.uleb128 0x17
 4607 0a4c 59090000 		.4byte	.LASF103
 4608 0a50 01       		.byte	0x1
 4609 0a51 1C       		.byte	0x1c
 4610 0a52 5C0A0000 		.4byte	0xa5c
 4611 0a56 05       		.uleb128 0x5
 4612 0a57 03       		.byte	0x3
 4613 0a58 00000000 		.4byte	E_Table
 4614 0a5c 18       		.uleb128 0x18
 4615 0a5d 59060000 		.4byte	0x659
 4616 0a61 17       		.uleb128 0x17
 4617 0a62 F1080000 		.4byte	.LASF104
 4618 0a66 01       		.byte	0x1
 4619 0a67 26       		.byte	0x26
 4620 0a68 720A0000 		.4byte	0xa72
 4621 0a6c 05       		.uleb128 0x5
 4622 0a6d 03       		.byte	0x3
 4623 0a6e 00000000 		.4byte	P_Table
 4624 0a72 18       		.uleb128 0x18
 4625 0a73 69060000 		.4byte	0x669
 4626 0a77 07       		.uleb128 0x7
 4627 0a78 6B000000 		.4byte	0x6b
 4628 0a7c 930A0000 		.4byte	0xa93
 4629 0a80 08       		.uleb128 0x8
 4630 0a81 8C000000 		.4byte	0x8c
 4631 0a85 07       		.byte	0x7
 4632 0a86 08       		.uleb128 0x8
 4633 0a87 8C000000 		.4byte	0x8c
 4634 0a8b 03       		.byte	0x3
 4635 0a8c 08       		.uleb128 0x8
 4636 0a8d 8C000000 		.4byte	0x8c
 4637 0a91 0F       		.byte	0xf
 4638 0a92 00       		.byte	0
 4639 0a93 19       		.uleb128 0x19
 4640 0a94 5300     		.ascii	"S\000"
 4641 0a96 01       		.byte	0x1
 4642 0a97 2E       		.byte	0x2e
 4643 0a98 A20A0000 		.4byte	0xaa2
 4644 0a9c 05       		.uleb128 0x5
 4645 0a9d 03       		.byte	0x3
 4646 0a9e 00000000 		.4byte	S
 4647 0aa2 18       		.uleb128 0x18
 4648 0aa3 770A0000 		.4byte	0xa77
 4649 0aa7 17       		.uleb128 0x17
 4650 0aa8 CA010000 		.4byte	.LASF105
 4651 0aac 01       		.byte	0x1
 4652 0aad 62       		.byte	0x62
 4653 0aae B80A0000 		.4byte	0xab8
 4654 0ab2 05       		.uleb128 0x5
 4655 0ab3 03       		.byte	0x3
 4656 0ab4 00000000 		.4byte	PC_1
 4657 0ab8 18       		.uleb128 0x18
 4658 0ab9 19040000 		.4byte	0x419
 4659 0abd 17       		.uleb128 0x17
 4660 0abe CF010000 		.4byte	.LASF106
 4661 0ac2 01       		.byte	0x1
ARM GAS  C:\Users\ADMINI~1\AppData\Local\Temp\ccv1PMEE.s 			page 92


 4662 0ac3 6F       		.byte	0x6f
 4663 0ac4 CE0A0000 		.4byte	0xace
 4664 0ac8 05       		.uleb128 0x5
 4665 0ac9 03       		.byte	0x3
 4666 0aca 00000000 		.4byte	PC_2
 4667 0ace 18       		.uleb128 0x18
 4668 0acf 59060000 		.4byte	0x659
 4669 0ad3 00       		.byte	0
 4670              		.section	.debug_abbrev,"",%progbits
 4671              	.Ldebug_abbrev0:
 4672 0000 01       		.uleb128 0x1
 4673 0001 11       		.uleb128 0x11
 4674 0002 01       		.byte	0x1
 4675 0003 25       		.uleb128 0x25
 4676 0004 0E       		.uleb128 0xe
 4677 0005 13       		.uleb128 0x13
 4678 0006 0B       		.uleb128 0xb
 4679 0007 03       		.uleb128 0x3
 4680 0008 0E       		.uleb128 0xe
 4681 0009 1B       		.uleb128 0x1b
 4682 000a 0E       		.uleb128 0xe
 4683 000b 55       		.uleb128 0x55
 4684 000c 17       		.uleb128 0x17
 4685 000d 11       		.uleb128 0x11
 4686 000e 01       		.uleb128 0x1
 4687 000f 10       		.uleb128 0x10
 4688 0010 17       		.uleb128 0x17
 4689 0011 00       		.byte	0
 4690 0012 00       		.byte	0
 4691 0013 02       		.uleb128 0x2
 4692 0014 24       		.uleb128 0x24
 4693 0015 00       		.byte	0
 4694 0016 0B       		.uleb128 0xb
 4695 0017 0B       		.uleb128 0xb
 4696 0018 3E       		.uleb128 0x3e
 4697 0019 0B       		.uleb128 0xb
 4698 001a 03       		.uleb128 0x3
 4699 001b 0E       		.uleb128 0xe
 4700 001c 00       		.byte	0
 4701 001d 00       		.byte	0
 4702 001e 03       		.uleb128 0x3
 4703 001f 24       		.uleb128 0x24
 4704 0020 00       		.byte	0
 4705 0021 0B       		.uleb128 0xb
 4706 0022 0B       		.uleb128 0xb
 4707 0023 3E       		.uleb128 0x3e
 4708 0024 0B       		.uleb128 0xb
 4709 0025 03       		.uleb128 0x3
 4710 0026 08       		.uleb128 0x8
 4711 0027 00       		.byte	0
 4712 0028 00       		.byte	0
 4713 0029 04       		.uleb128 0x4
 4714 002a 16       		.uleb128 0x16
 4715 002b 00       		.byte	0
 4716 002c 03       		.uleb128 0x3
 4717 002d 0E       		.uleb128 0xe
 4718 002e 3A       		.uleb128 0x3a
ARM GAS  C:\Users\ADMINI~1\AppData\Local\Temp\ccv1PMEE.s 			page 93


 4719 002f 0B       		.uleb128 0xb
 4720 0030 3B       		.uleb128 0x3b
 4721 0031 05       		.uleb128 0x5
 4722 0032 49       		.uleb128 0x49
 4723 0033 13       		.uleb128 0x13
 4724 0034 00       		.byte	0
 4725 0035 00       		.byte	0
 4726 0036 05       		.uleb128 0x5
 4727 0037 04       		.uleb128 0x4
 4728 0038 01       		.byte	0x1
 4729 0039 0B       		.uleb128 0xb
 4730 003a 0B       		.uleb128 0xb
 4731 003b 3A       		.uleb128 0x3a
 4732 003c 0B       		.uleb128 0xb
 4733 003d 3B       		.uleb128 0x3b
 4734 003e 0B       		.uleb128 0xb
 4735 003f 01       		.uleb128 0x1
 4736 0040 13       		.uleb128 0x13
 4737 0041 00       		.byte	0
 4738 0042 00       		.byte	0
 4739 0043 06       		.uleb128 0x6
 4740 0044 28       		.uleb128 0x28
 4741 0045 00       		.byte	0
 4742 0046 03       		.uleb128 0x3
 4743 0047 0E       		.uleb128 0xe
 4744 0048 1C       		.uleb128 0x1c
 4745 0049 0D       		.uleb128 0xd
 4746 004a 00       		.byte	0
 4747 004b 00       		.byte	0
 4748 004c 07       		.uleb128 0x7
 4749 004d 01       		.uleb128 0x1
 4750 004e 01       		.byte	0x1
 4751 004f 49       		.uleb128 0x49
 4752 0050 13       		.uleb128 0x13
 4753 0051 01       		.uleb128 0x1
 4754 0052 13       		.uleb128 0x13
 4755 0053 00       		.byte	0
 4756 0054 00       		.byte	0
 4757 0055 08       		.uleb128 0x8
 4758 0056 21       		.uleb128 0x21
 4759 0057 00       		.byte	0
 4760 0058 49       		.uleb128 0x49
 4761 0059 13       		.uleb128 0x13
 4762 005a 2F       		.uleb128 0x2f
 4763 005b 0B       		.uleb128 0xb
 4764 005c 00       		.byte	0
 4765 005d 00       		.byte	0
 4766 005e 09       		.uleb128 0x9
 4767 005f 0F       		.uleb128 0xf
 4768 0060 00       		.byte	0
 4769 0061 0B       		.uleb128 0xb
 4770 0062 0B       		.uleb128 0xb
 4771 0063 49       		.uleb128 0x49
 4772 0064 13       		.uleb128 0x13
 4773 0065 00       		.byte	0
 4774 0066 00       		.byte	0
 4775 0067 0A       		.uleb128 0xa
ARM GAS  C:\Users\ADMINI~1\AppData\Local\Temp\ccv1PMEE.s 			page 94


 4776 0068 2E       		.uleb128 0x2e
 4777 0069 01       		.byte	0x1
 4778 006a 3F       		.uleb128 0x3f
 4779 006b 19       		.uleb128 0x19
 4780 006c 03       		.uleb128 0x3
 4781 006d 0E       		.uleb128 0xe
 4782 006e 3A       		.uleb128 0x3a
 4783 006f 0B       		.uleb128 0xb
 4784 0070 3B       		.uleb128 0x3b
 4785 0071 0B       		.uleb128 0xb
 4786 0072 27       		.uleb128 0x27
 4787 0073 19       		.uleb128 0x19
 4788 0074 11       		.uleb128 0x11
 4789 0075 01       		.uleb128 0x1
 4790 0076 12       		.uleb128 0x12
 4791 0077 06       		.uleb128 0x6
 4792 0078 40       		.uleb128 0x40
 4793 0079 18       		.uleb128 0x18
 4794 007a 9742     		.uleb128 0x2117
 4795 007c 19       		.uleb128 0x19
 4796 007d 01       		.uleb128 0x1
 4797 007e 13       		.uleb128 0x13
 4798 007f 00       		.byte	0
 4799 0080 00       		.byte	0
 4800 0081 0B       		.uleb128 0xb
 4801 0082 05       		.uleb128 0x5
 4802 0083 00       		.byte	0
 4803 0084 03       		.uleb128 0x3
 4804 0085 08       		.uleb128 0x8
 4805 0086 3A       		.uleb128 0x3a
 4806 0087 0B       		.uleb128 0xb
 4807 0088 3B       		.uleb128 0x3b
 4808 0089 0B       		.uleb128 0xb
 4809 008a 49       		.uleb128 0x49
 4810 008b 13       		.uleb128 0x13
 4811 008c 02       		.uleb128 0x2
 4812 008d 18       		.uleb128 0x18
 4813 008e 00       		.byte	0
 4814 008f 00       		.byte	0
 4815 0090 0C       		.uleb128 0xc
 4816 0091 34       		.uleb128 0x34
 4817 0092 00       		.byte	0
 4818 0093 03       		.uleb128 0x3
 4819 0094 08       		.uleb128 0x8
 4820 0095 3A       		.uleb128 0x3a
 4821 0096 0B       		.uleb128 0xb
 4822 0097 3B       		.uleb128 0x3b
 4823 0098 0B       		.uleb128 0xb
 4824 0099 49       		.uleb128 0x49
 4825 009a 13       		.uleb128 0x13
 4826 009b 02       		.uleb128 0x2
 4827 009c 18       		.uleb128 0x18
 4828 009d 00       		.byte	0
 4829 009e 00       		.byte	0
 4830 009f 0D       		.uleb128 0xd
 4831 00a0 05       		.uleb128 0x5
 4832 00a1 00       		.byte	0
ARM GAS  C:\Users\ADMINI~1\AppData\Local\Temp\ccv1PMEE.s 			page 95


 4833 00a2 03       		.uleb128 0x3
 4834 00a3 0E       		.uleb128 0xe
 4835 00a4 3A       		.uleb128 0x3a
 4836 00a5 0B       		.uleb128 0xb
 4837 00a6 3B       		.uleb128 0x3b
 4838 00a7 0B       		.uleb128 0xb
 4839 00a8 49       		.uleb128 0x49
 4840 00a9 13       		.uleb128 0x13
 4841 00aa 02       		.uleb128 0x2
 4842 00ab 18       		.uleb128 0x18
 4843 00ac 00       		.byte	0
 4844 00ad 00       		.byte	0
 4845 00ae 0E       		.uleb128 0xe
 4846 00af 2E       		.uleb128 0x2e
 4847 00b0 01       		.byte	0x1
 4848 00b1 3F       		.uleb128 0x3f
 4849 00b2 19       		.uleb128 0x19
 4850 00b3 03       		.uleb128 0x3
 4851 00b4 0E       		.uleb128 0xe
 4852 00b5 3A       		.uleb128 0x3a
 4853 00b6 0B       		.uleb128 0xb
 4854 00b7 3B       		.uleb128 0x3b
 4855 00b8 0B       		.uleb128 0xb
 4856 00b9 27       		.uleb128 0x27
 4857 00ba 19       		.uleb128 0x19
 4858 00bb 11       		.uleb128 0x11
 4859 00bc 01       		.uleb128 0x1
 4860 00bd 12       		.uleb128 0x12
 4861 00be 06       		.uleb128 0x6
 4862 00bf 40       		.uleb128 0x40
 4863 00c0 18       		.uleb128 0x18
 4864 00c1 9642     		.uleb128 0x2116
 4865 00c3 19       		.uleb128 0x19
 4866 00c4 01       		.uleb128 0x1
 4867 00c5 13       		.uleb128 0x13
 4868 00c6 00       		.byte	0
 4869 00c7 00       		.byte	0
 4870 00c8 0F       		.uleb128 0xf
 4871 00c9 34       		.uleb128 0x34
 4872 00ca 00       		.byte	0
 4873 00cb 03       		.uleb128 0x3
 4874 00cc 0E       		.uleb128 0xe
 4875 00cd 3A       		.uleb128 0x3a
 4876 00ce 0B       		.uleb128 0xb
 4877 00cf 3B       		.uleb128 0x3b
 4878 00d0 0B       		.uleb128 0xb
 4879 00d1 49       		.uleb128 0x49
 4880 00d2 13       		.uleb128 0x13
 4881 00d3 02       		.uleb128 0x2
 4882 00d4 18       		.uleb128 0x18
 4883 00d5 00       		.byte	0
 4884 00d6 00       		.byte	0
 4885 00d7 10       		.uleb128 0x10
 4886 00d8 2E       		.uleb128 0x2e
 4887 00d9 01       		.byte	0x1
 4888 00da 3F       		.uleb128 0x3f
 4889 00db 19       		.uleb128 0x19
ARM GAS  C:\Users\ADMINI~1\AppData\Local\Temp\ccv1PMEE.s 			page 96


 4890 00dc 03       		.uleb128 0x3
 4891 00dd 0E       		.uleb128 0xe
 4892 00de 3A       		.uleb128 0x3a
 4893 00df 0B       		.uleb128 0xb
 4894 00e0 3B       		.uleb128 0x3b
 4895 00e1 05       		.uleb128 0x5
 4896 00e2 27       		.uleb128 0x27
 4897 00e3 19       		.uleb128 0x19
 4898 00e4 11       		.uleb128 0x11
 4899 00e5 01       		.uleb128 0x1
 4900 00e6 12       		.uleb128 0x12
 4901 00e7 06       		.uleb128 0x6
 4902 00e8 40       		.uleb128 0x40
 4903 00e9 18       		.uleb128 0x18
 4904 00ea 9742     		.uleb128 0x2117
 4905 00ec 19       		.uleb128 0x19
 4906 00ed 01       		.uleb128 0x1
 4907 00ee 13       		.uleb128 0x13
 4908 00ef 00       		.byte	0
 4909 00f0 00       		.byte	0
 4910 00f1 11       		.uleb128 0x11
 4911 00f2 05       		.uleb128 0x5
 4912 00f3 00       		.byte	0
 4913 00f4 03       		.uleb128 0x3
 4914 00f5 08       		.uleb128 0x8
 4915 00f6 3A       		.uleb128 0x3a
 4916 00f7 0B       		.uleb128 0xb
 4917 00f8 3B       		.uleb128 0x3b
 4918 00f9 05       		.uleb128 0x5
 4919 00fa 49       		.uleb128 0x49
 4920 00fb 13       		.uleb128 0x13
 4921 00fc 02       		.uleb128 0x2
 4922 00fd 18       		.uleb128 0x18
 4923 00fe 00       		.byte	0
 4924 00ff 00       		.byte	0
 4925 0100 12       		.uleb128 0x12
 4926 0101 34       		.uleb128 0x34
 4927 0102 00       		.byte	0
 4928 0103 03       		.uleb128 0x3
 4929 0104 08       		.uleb128 0x8
 4930 0105 3A       		.uleb128 0x3a
 4931 0106 0B       		.uleb128 0xb
 4932 0107 3B       		.uleb128 0x3b
 4933 0108 05       		.uleb128 0x5
 4934 0109 49       		.uleb128 0x49
 4935 010a 13       		.uleb128 0x13
 4936 010b 02       		.uleb128 0x2
 4937 010c 18       		.uleb128 0x18
 4938 010d 00       		.byte	0
 4939 010e 00       		.byte	0
 4940 010f 13       		.uleb128 0x13
 4941 0110 2E       		.uleb128 0x2e
 4942 0111 01       		.byte	0x1
 4943 0112 3F       		.uleb128 0x3f
 4944 0113 19       		.uleb128 0x19
 4945 0114 03       		.uleb128 0x3
 4946 0115 0E       		.uleb128 0xe
ARM GAS  C:\Users\ADMINI~1\AppData\Local\Temp\ccv1PMEE.s 			page 97


 4947 0116 3A       		.uleb128 0x3a
 4948 0117 0B       		.uleb128 0xb
 4949 0118 3B       		.uleb128 0x3b
 4950 0119 05       		.uleb128 0x5
 4951 011a 27       		.uleb128 0x27
 4952 011b 19       		.uleb128 0x19
 4953 011c 11       		.uleb128 0x11
 4954 011d 01       		.uleb128 0x1
 4955 011e 12       		.uleb128 0x12
 4956 011f 06       		.uleb128 0x6
 4957 0120 40       		.uleb128 0x40
 4958 0121 18       		.uleb128 0x18
 4959 0122 9642     		.uleb128 0x2116
 4960 0124 19       		.uleb128 0x19
 4961 0125 01       		.uleb128 0x1
 4962 0126 13       		.uleb128 0x13
 4963 0127 00       		.byte	0
 4964 0128 00       		.byte	0
 4965 0129 14       		.uleb128 0x14
 4966 012a 05       		.uleb128 0x5
 4967 012b 00       		.byte	0
 4968 012c 03       		.uleb128 0x3
 4969 012d 0E       		.uleb128 0xe
 4970 012e 3A       		.uleb128 0x3a
 4971 012f 0B       		.uleb128 0xb
 4972 0130 3B       		.uleb128 0x3b
 4973 0131 05       		.uleb128 0x5
 4974 0132 49       		.uleb128 0x49
 4975 0133 13       		.uleb128 0x13
 4976 0134 02       		.uleb128 0x2
 4977 0135 18       		.uleb128 0x18
 4978 0136 00       		.byte	0
 4979 0137 00       		.byte	0
 4980 0138 15       		.uleb128 0x15
 4981 0139 2E       		.uleb128 0x2e
 4982 013a 01       		.byte	0x1
 4983 013b 3F       		.uleb128 0x3f
 4984 013c 19       		.uleb128 0x19
 4985 013d 03       		.uleb128 0x3
 4986 013e 0E       		.uleb128 0xe
 4987 013f 3A       		.uleb128 0x3a
 4988 0140 0B       		.uleb128 0xb
 4989 0141 3B       		.uleb128 0x3b
 4990 0142 05       		.uleb128 0x5
 4991 0143 27       		.uleb128 0x27
 4992 0144 19       		.uleb128 0x19
 4993 0145 49       		.uleb128 0x49
 4994 0146 13       		.uleb128 0x13
 4995 0147 11       		.uleb128 0x11
 4996 0148 01       		.uleb128 0x1
 4997 0149 12       		.uleb128 0x12
 4998 014a 06       		.uleb128 0x6
 4999 014b 40       		.uleb128 0x40
 5000 014c 18       		.uleb128 0x18
 5001 014d 9742     		.uleb128 0x2117
 5002 014f 19       		.uleb128 0x19
 5003 0150 01       		.uleb128 0x1
ARM GAS  C:\Users\ADMINI~1\AppData\Local\Temp\ccv1PMEE.s 			page 98


 5004 0151 13       		.uleb128 0x13
 5005 0152 00       		.byte	0
 5006 0153 00       		.byte	0
 5007 0154 16       		.uleb128 0x16
 5008 0155 34       		.uleb128 0x34
 5009 0156 00       		.byte	0
 5010 0157 03       		.uleb128 0x3
 5011 0158 0E       		.uleb128 0xe
 5012 0159 3A       		.uleb128 0x3a
 5013 015a 0B       		.uleb128 0xb
 5014 015b 3B       		.uleb128 0x3b
 5015 015c 05       		.uleb128 0x5
 5016 015d 49       		.uleb128 0x49
 5017 015e 13       		.uleb128 0x13
 5018 015f 02       		.uleb128 0x2
 5019 0160 18       		.uleb128 0x18
 5020 0161 00       		.byte	0
 5021 0162 00       		.byte	0
 5022 0163 17       		.uleb128 0x17
 5023 0164 34       		.uleb128 0x34
 5024 0165 00       		.byte	0
 5025 0166 03       		.uleb128 0x3
 5026 0167 0E       		.uleb128 0xe
 5027 0168 3A       		.uleb128 0x3a
 5028 0169 0B       		.uleb128 0xb
 5029 016a 3B       		.uleb128 0x3b
 5030 016b 0B       		.uleb128 0xb
 5031 016c 49       		.uleb128 0x49
 5032 016d 13       		.uleb128 0x13
 5033 016e 3F       		.uleb128 0x3f
 5034 016f 19       		.uleb128 0x19
 5035 0170 02       		.uleb128 0x2
 5036 0171 18       		.uleb128 0x18
 5037 0172 00       		.byte	0
 5038 0173 00       		.byte	0
 5039 0174 18       		.uleb128 0x18
 5040 0175 26       		.uleb128 0x26
 5041 0176 00       		.byte	0
 5042 0177 49       		.uleb128 0x49
 5043 0178 13       		.uleb128 0x13
 5044 0179 00       		.byte	0
 5045 017a 00       		.byte	0
 5046 017b 19       		.uleb128 0x19
 5047 017c 34       		.uleb128 0x34
 5048 017d 00       		.byte	0
 5049 017e 03       		.uleb128 0x3
 5050 017f 08       		.uleb128 0x8
 5051 0180 3A       		.uleb128 0x3a
 5052 0181 0B       		.uleb128 0xb
 5053 0182 3B       		.uleb128 0x3b
 5054 0183 0B       		.uleb128 0xb
 5055 0184 49       		.uleb128 0x49
 5056 0185 13       		.uleb128 0x13
 5057 0186 3F       		.uleb128 0x3f
 5058 0187 19       		.uleb128 0x19
 5059 0188 02       		.uleb128 0x2
 5060 0189 18       		.uleb128 0x18
ARM GAS  C:\Users\ADMINI~1\AppData\Local\Temp\ccv1PMEE.s 			page 99


 5061 018a 00       		.byte	0
 5062 018b 00       		.byte	0
 5063 018c 00       		.byte	0
 5064              		.section	.debug_aranges,"",%progbits
 5065 0000 A4000000 		.4byte	0xa4
 5066 0004 0200     		.2byte	0x2
 5067 0006 00000000 		.4byte	.Ldebug_info0
 5068 000a 04       		.byte	0x4
 5069 000b 00       		.byte	0
 5070 000c 0000     		.2byte	0
 5071 000e 0000     		.2byte	0
 5072 0010 00000000 		.4byte	.LFB37
 5073 0014 90000000 		.4byte	.LFE37-.LFB37
 5074 0018 00000000 		.4byte	.LFB38
 5075 001c 90000000 		.4byte	.LFE38-.LFB38
 5076 0020 00000000 		.4byte	.LFB39
 5077 0024 8E000000 		.4byte	.LFE39-.LFB39
 5078 0028 00000000 		.4byte	.LFB40
 5079 002c 54000000 		.4byte	.LFE40-.LFB40
 5080 0030 00000000 		.4byte	.LFB41
 5081 0034 F4020000 		.4byte	.LFE41-.LFB41
 5082 0038 00000000 		.4byte	.LFB42
 5083 003c 6E000000 		.4byte	.LFE42-.LFB42
 5084 0040 00000000 		.4byte	.LFB43
 5085 0044 C8010000 		.4byte	.LFE43-.LFB43
 5086 0048 00000000 		.4byte	.LFB44
 5087 004c 54000000 		.4byte	.LFE44-.LFB44
 5088 0050 00000000 		.4byte	.LFB45
 5089 0054 54000000 		.4byte	.LFE45-.LFB45
 5090 0058 00000000 		.4byte	.LFB46
 5091 005c 52000000 		.4byte	.LFE46-.LFB46
 5092 0060 00000000 		.4byte	.LFB47
 5093 0064 6E000000 		.4byte	.LFE47-.LFB47
 5094 0068 00000000 		.4byte	.LFB48
 5095 006c B8000000 		.4byte	.LFE48-.LFB48
 5096 0070 00000000 		.4byte	.LFB49
 5097 0074 4A000000 		.4byte	.LFE49-.LFB49
 5098 0078 00000000 		.4byte	.LFB50
 5099 007c AC000000 		.4byte	.LFE50-.LFB50
 5100 0080 00000000 		.4byte	.LFB51
 5101 0084 6E000000 		.4byte	.LFE51-.LFB51
 5102 0088 00000000 		.4byte	.LFB52
 5103 008c 42000000 		.4byte	.LFE52-.LFB52
 5104 0090 00000000 		.4byte	.LFB53
 5105 0094 4A010000 		.4byte	.LFE53-.LFB53
 5106 0098 00000000 		.4byte	.LFB54
 5107 009c 4A010000 		.4byte	.LFE54-.LFB54
 5108 00a0 00000000 		.4byte	0
 5109 00a4 00000000 		.4byte	0
 5110              		.section	.debug_ranges,"",%progbits
 5111              	.Ldebug_ranges0:
 5112 0000 00000000 		.4byte	.LFB37
 5113 0004 90000000 		.4byte	.LFE37
 5114 0008 00000000 		.4byte	.LFB38
 5115 000c 90000000 		.4byte	.LFE38
 5116 0010 00000000 		.4byte	.LFB39
 5117 0014 8E000000 		.4byte	.LFE39
ARM GAS  C:\Users\ADMINI~1\AppData\Local\Temp\ccv1PMEE.s 			page 100


 5118 0018 00000000 		.4byte	.LFB40
 5119 001c 54000000 		.4byte	.LFE40
 5120 0020 00000000 		.4byte	.LFB41
 5121 0024 F4020000 		.4byte	.LFE41
 5122 0028 00000000 		.4byte	.LFB42
 5123 002c 6E000000 		.4byte	.LFE42
 5124 0030 00000000 		.4byte	.LFB43
 5125 0034 C8010000 		.4byte	.LFE43
 5126 0038 00000000 		.4byte	.LFB44
 5127 003c 54000000 		.4byte	.LFE44
 5128 0040 00000000 		.4byte	.LFB45
 5129 0044 54000000 		.4byte	.LFE45
 5130 0048 00000000 		.4byte	.LFB46
 5131 004c 52000000 		.4byte	.LFE46
 5132 0050 00000000 		.4byte	.LFB47
 5133 0054 6E000000 		.4byte	.LFE47
 5134 0058 00000000 		.4byte	.LFB48
 5135 005c B8000000 		.4byte	.LFE48
 5136 0060 00000000 		.4byte	.LFB49
 5137 0064 4A000000 		.4byte	.LFE49
 5138 0068 00000000 		.4byte	.LFB50
 5139 006c AC000000 		.4byte	.LFE50
 5140 0070 00000000 		.4byte	.LFB51
 5141 0074 6E000000 		.4byte	.LFE51
 5142 0078 00000000 		.4byte	.LFB52
 5143 007c 42000000 		.4byte	.LFE52
 5144 0080 00000000 		.4byte	.LFB53
 5145 0084 4A010000 		.4byte	.LFE53
 5146 0088 00000000 		.4byte	.LFB54
 5147 008c 4A010000 		.4byte	.LFE54
 5148 0090 00000000 		.4byte	0
 5149 0094 00000000 		.4byte	0
 5150              		.section	.debug_line,"",%progbits
 5151              	.Ldebug_line0:
 5152 0000 19040000 		.section	.debug_str,"MS",%progbits,1
 5152      02005100 
 5152      00000201 
 5152      FB0E0D00 
 5152      01010101 
 5153              	.LASF64:
 5154 0000 4359424C 		.ascii	"CYBLE_EVT_L2CAP_CBFC_RX_CREDIT_IND\000"
 5154      455F4556 
 5154      545F4C32 
 5154      4341505F 
 5154      43424643 
 5155              	.LASF18:
 5156 0023 4359424C 		.ascii	"CYBLE_EVT_STACK_BUSY_STATUS\000"
 5156      455F4556 
 5156      545F5354 
 5156      41434B5F 
 5156      42555359 
 5157              	.LASF63:
 5158 003f 4359424C 		.ascii	"CYBLE_EVT_L2CAP_CBFC_DATA_READ\000"
 5158      455F4556 
 5158      545F4C32 
 5158      4341505F 
 5158      43424643 
ARM GAS  C:\Users\ADMINI~1\AppData\Local\Temp\ccv1PMEE.s 			page 101


 5159              	.LASF29:
 5160 005e 4359424C 		.ascii	"CYBLE_EVT_GAP_CONNECTION_UPDATE_COMPLETE\000"
 5160      455F4556 
 5160      545F4741 
 5160      505F434F 
 5160      4E4E4543 
 5161              	.LASF62:
 5162 0087 4359424C 		.ascii	"CYBLE_EVT_L2CAP_CBFC_DISCONN_CNF\000"
 5162      455F4556 
 5162      545F4C32 
 5162      4341505F 
 5162      43424643 
 5163              	.LASF43:
 5164 00a8 4359424C 		.ascii	"CYBLE_EVT_GATTC_READ_MULTI_RSP\000"
 5164      455F4556 
 5164      545F4741 
 5164      5454435F 
 5164      52454144 
 5165              	.LASF48:
 5166 00c7 4359424C 		.ascii	"CYBLE_EVT_GATTS_EXEC_WRITE_REQ\000"
 5166      455F4556 
 5166      545F4741 
 5166      5454535F 
 5166      45584543 
 5167              	.LASF102:
 5168 00e6 49505F31 		.ascii	"IP_1_Table\000"
 5168      5F546162 
 5168      6C6500
 5169              	.LASF71:
 5170 00f1 6368616E 		.ascii	"change2\000"
 5170      67653200 
 5171              	.LASF15:
 5172 00f9 4359424C 		.ascii	"CYBLE_EVT_TIMEOUT\000"
 5172      455F4556 
 5172      545F5449 
 5172      4D454F55 
 5172      5400
 5173              	.LASF4:
 5174 010b 6C6F6E67 		.ascii	"long int\000"
 5174      20696E74 
 5174      00
 5175              	.LASF7:
 5176 0114 6C6F6E67 		.ascii	"long long unsigned int\000"
 5176      206C6F6E 
 5176      6720756E 
 5176      7369676E 
 5176      65642069 
 5177              	.LASF17:
 5178 012b 4359424C 		.ascii	"CYBLE_EVT_HCI_STATUS\000"
 5178      455F4556 
 5178      545F4843 
 5178      495F5354 
 5178      41545553 
 5179              	.LASF85:
 5180 0140 53706C69 		.ascii	"Split_LR\000"
 5180      745F4C52 
 5180      00
ARM GAS  C:\Users\ADMINI~1\AppData\Local\Temp\ccv1PMEE.s 			page 102


 5181              	.LASF67:
 5182 0149 4359424C 		.ascii	"CYBLE_EVT_PENDING_FLASH_WRITE\000"
 5182      455F4556 
 5182      545F5045 
 5182      4E44494E 
 5182      475F464C 
 5183              	.LASF56:
 5184 0167 4359424C 		.ascii	"CYBLE_EVT_L2CAP_CONN_PARAM_UPDATE_REQ\000"
 5184      455F4556 
 5184      545F4C32 
 5184      4341505F 
 5184      434F4E4E 
 5185              	.LASF28:
 5186 018d 4359424C 		.ascii	"CYBLE_EVT_GAP_ENCRYPT_CHANGE\000"
 5186      455F4556 
 5186      545F4741 
 5186      505F454E 
 5186      43525950 
 5187              	.LASF91:
 5188 01aa 4765744C 		.ascii	"GetLR\000"
 5188      5200
 5189              	.LASF6:
 5190 01b0 6C6F6E67 		.ascii	"long long int\000"
 5190      206C6F6E 
 5190      6720696E 
 5190      7400
 5191              	.LASF0:
 5192 01be 7369676E 		.ascii	"signed char\000"
 5192      65642063 
 5192      68617200 
 5193              	.LASF105:
 5194 01ca 50435F31 		.ascii	"PC_1\000"
 5194      00
 5195              	.LASF106:
 5196 01cf 50435F32 		.ascii	"PC_2\000"
 5196      00
 5197              	.LASF73:
 5198 01d4 62756666 		.ascii	"buff\000"
 5198      00
 5199              	.LASF30:
 5200 01d9 4359424C 		.ascii	"CYBLE_EVT_GAPC_SCAN_START_STOP\000"
 5200      455F4556 
 5200      545F4741 
 5200      50435F53 
 5200      43414E5F 
 5201              	.LASF20:
 5202 01f8 4359424C 		.ascii	"CYBLE_EVT_GAP_AUTH_REQ\000"
 5202      455F4556 
 5202      545F4741 
 5202      505F4155 
 5202      54485F52 
 5203              	.LASF72:
 5204 020f 42797465 		.ascii	"ByteToBit\000"
 5204      546F4269 
 5204      7400
 5205              	.LASF41:
 5206 0219 4359424C 		.ascii	"CYBLE_EVT_GATTC_READ_RSP\000"
ARM GAS  C:\Users\ADMINI~1\AppData\Local\Temp\ccv1PMEE.s 			page 103


 5206      455F4556 
 5206      545F4741 
 5206      5454435F 
 5206      52454144 
 5207              	.LASF77:
 5208 0232 74656D32 		.ascii	"tem2\000"
 5208      00
 5209              	.LASF46:
 5210 0237 4359424C 		.ascii	"CYBLE_EVT_GATTS_WRITE_CMD_REQ\000"
 5210      455F4556 
 5210      545F4741 
 5210      5454535F 
 5210      57524954 
 5211              	.LASF25:
 5212 0255 4359424C 		.ascii	"CYBLE_EVT_GAPP_ADVERTISEMENT_START_STOP\000"
 5212      455F4556 
 5212      545F4741 
 5212      50505F41 
 5212      44564552 
 5213              	.LASF110:
 5214 027d 75696E74 		.ascii	"uint8\000"
 5214      3800
 5215              	.LASF111:
 5216 0283 42697454 		.ascii	"BitToByte\000"
 5216      6F427974 
 5216      6500
 5217              	.LASF49:
 5218 028d 4359424C 		.ascii	"CYBLE_EVT_GATTC_EXEC_WRITE_RSP\000"
 5218      455F4556 
 5218      545F4741 
 5218      5454435F 
 5218      45584543 
 5219              	.LASF10:
 5220 02ac 646F7562 		.ascii	"double\000"
 5220      6C6500
 5221              	.LASF69:
 5222 02b3 4359424C 		.ascii	"CYBLE_EVT_MAX\000"
 5222      455F4556 
 5222      545F4D41 
 5222      5800
 5223              	.LASF66:
 5224 02c1 4359424C 		.ascii	"CYBLE_EVT_L2CAP_CBFC_DATA_WRITE_IND\000"
 5224      455F4556 
 5224      545F4C32 
 5224      4341505F 
 5224      43424643 
 5225              	.LASF75:
 5226 02e5 74656D70 		.ascii	"temp\000"
 5226      00
 5227              	.LASF54:
 5228 02ea 4359424C 		.ascii	"CYBLE_EVT_GATTC_STOP_CMD_COMPLETE\000"
 5228      455F4556 
 5228      545F4741 
 5228      5454435F 
 5228      53544F50 
 5229              	.LASF84:
 5230 030c 5365636F 		.ascii	"SecondXOR\000"
ARM GAS  C:\Users\ADMINI~1\AppData\Local\Temp\ccv1PMEE.s 			page 104


 5230      6E64584F 
 5230      5200
 5231              	.LASF8:
 5232 0316 756E7369 		.ascii	"unsigned int\000"
 5232      676E6564 
 5232      20696E74 
 5232      00
 5233              	.LASF68:
 5234 0323 4359424C 		.ascii	"CYBLE_EVT_LE_PING_AUTH_TIMEOUT\000"
 5234      455F4556 
 5234      545F4C45 
 5234      5F50494E 
 5234      475F4155 
 5235              	.LASF82:
 5236 0342 65787465 		.ascii	"extension\000"
 5236      6E73696F 
 5236      6E00
 5237              	.LASF90:
 5238 034c 4261636B 		.ascii	"BackChange\000"
 5238      4368616E 
 5238      676500
 5239              	.LASF5:
 5240 0357 6C6F6E67 		.ascii	"long unsigned int\000"
 5240      20756E73 
 5240      69676E65 
 5240      6420696E 
 5240      7400
 5241              	.LASF36:
 5242 0369 4359424C 		.ascii	"CYBLE_EVT_GATTC_XCHNG_MTU_RSP\000"
 5242      455F4556 
 5242      545F4741 
 5242      5454435F 
 5242      5843484E 
 5243              	.LASF53:
 5244 0387 4359424C 		.ascii	"CYBLE_EVT_GATTS_DATA_SIGNED_CMD_REQ\000"
 5244      455F4556 
 5244      545F4741 
 5244      5454535F 
 5244      44415441 
 5245              	.LASF86:
 5246 03ab 64617461 		.ascii	"data\000"
 5246      00
 5247              	.LASF3:
 5248 03b0 73686F72 		.ascii	"short unsigned int\000"
 5248      7420756E 
 5248      7369676E 
 5248      65642069 
 5248      6E7400
 5249              	.LASF13:
 5250 03c3 4359424C 		.ascii	"CYBLE_EVT_HOST_INVALID\000"
 5250      455F4556 
 5250      545F484F 
 5250      53545F49 
 5250      4E56414C 
 5251              	.LASF39:
 5252 03da 4359424C 		.ascii	"CYBLE_EVT_GATTC_FIND_INFO_RSP\000"
 5252      455F4556 
ARM GAS  C:\Users\ADMINI~1\AppData\Local\Temp\ccv1PMEE.s 			page 105


 5252      545F4741 
 5252      5454435F 
 5252      46494E44 
 5253              	.LASF21:
 5254 03f8 4359424C 		.ascii	"CYBLE_EVT_GAP_PASSKEY_ENTRY_REQUEST\000"
 5254      455F4556 
 5254      545F4741 
 5254      505F5041 
 5254      53534B45 
 5255              	.LASF26:
 5256 041c 4359424C 		.ascii	"CYBLE_EVT_GAP_DEVICE_CONNECTED\000"
 5256      455F4556 
 5256      545F4741 
 5256      505F4445 
 5256      56494345 
 5257              	.LASF51:
 5258 043b 4359424C 		.ascii	"CYBLE_EVT_GATTC_HANDLE_VALUE_IND\000"
 5258      455F4556 
 5258      545F4741 
 5258      5454435F 
 5258      48414E44 
 5259              	.LASF44:
 5260 045c 4359424C 		.ascii	"CYBLE_EVT_GATTS_WRITE_REQ\000"
 5260      455F4556 
 5260      545F4741 
 5260      5454535F 
 5260      57524954 
 5261              	.LASF96:
 5262 0476 44617461 		.ascii	"Data_Key\000"
 5262      5F4B6579 
 5262      00
 5263              	.LASF38:
 5264 047f 4359424C 		.ascii	"CYBLE_EVT_GATTC_READ_BY_TYPE_RSP\000"
 5264      455F4556 
 5264      545F4741 
 5264      5454435F 
 5264      52454144 
 5265              	.LASF2:
 5266 04a0 73686F72 		.ascii	"short int\000"
 5266      7420696E 
 5266      7400
 5267              	.LASF22:
 5268 04aa 4359424C 		.ascii	"CYBLE_EVT_GAP_PASSKEY_DISPLAY_REQUEST\000"
 5268      455F4556 
 5268      545F4741 
 5268      505F5041 
 5268      53534B45 
 5269              	.LASF33:
 5270 04d0 4359424C 		.ascii	"CYBLE_EVT_GATT_CONNECT_IND\000"
 5270      455F4556 
 5270      545F4741 
 5270      54545F43 
 5270      4F4E4E45 
 5271              	.LASF109:
 5272 04eb 443A5C58 		.ascii	"D:\\XJP\\lxs_cyp\\Design02.cydsn\000"
 5272      4A505C6C 
 5272      78735F63 
ARM GAS  C:\Users\ADMINI~1\AppData\Local\Temp\ccv1PMEE.s 			page 106


 5272      79705C44 
 5272      65736967 
 5273              	.LASF58:
 5274 0509 4359424C 		.ascii	"CYBLE_EVT_L2CAP_COMMAND_REJ\000"
 5274      455F4556 
 5274      545F4C32 
 5274      4341505F 
 5274      434F4D4D 
 5275              	.LASF19:
 5276 0525 4359424C 		.ascii	"CYBLE_EVT_GAPC_SCAN_PROGRESS_RESULT\000"
 5276      455F4556 
 5276      545F4741 
 5276      50435F53 
 5276      43414E5F 
 5277              	.LASF98:
 5278 0549 73656372 		.ascii	"secret\000"
 5278      657400
 5279              	.LASF59:
 5280 0550 4359424C 		.ascii	"CYBLE_EVT_L2CAP_CBFC_CONN_IND\000"
 5280      455F4556 
 5280      545F4C32 
 5280      4341505F 
 5280      43424643 
 5281              	.LASF81:
 5282 056e 50636861 		.ascii	"Pchange\000"
 5282      6E676500 
 5283              	.LASF12:
 5284 0576 73697A65 		.ascii	"sizetype\000"
 5284      74797065 
 5284      00
 5285              	.LASF97:
 5286 057f 44617461 		.ascii	"Data_Cipher\000"
 5286      5F436970 
 5286      68657200 
 5287              	.LASF24:
 5288 058b 4359424C 		.ascii	"CYBLE_EVT_GAP_AUTH_FAILED\000"
 5288      455F4556 
 5288      545F4741 
 5288      505F4155 
 5288      54485F46 
 5289              	.LASF45:
 5290 05a5 4359424C 		.ascii	"CYBLE_EVT_GATTC_WRITE_RSP\000"
 5290      455F4556 
 5290      545F4741 
 5290      5454435F 
 5290      57524954 
 5291              	.LASF92:
 5292 05bf 6D696E77 		.ascii	"minwen\000"
 5292      656E00
 5293              	.LASF23:
 5294 05c6 4359424C 		.ascii	"CYBLE_EVT_GAP_AUTH_COMPLETE\000"
 5294      455F4556 
 5294      545F4741 
 5294      505F4155 
 5294      54485F43 
 5295              	.LASF101:
 5296 05e2 49505F54 		.ascii	"IP_Table\000"
ARM GAS  C:\Users\ADMINI~1\AppData\Local\Temp\ccv1PMEE.s 			page 107


 5296      61626C65 
 5296      00
 5297              	.LASF50:
 5298 05eb 4359424C 		.ascii	"CYBLE_EVT_GATTC_HANDLE_VALUE_NTF\000"
 5298      455F4556 
 5298      545F4741 
 5298      5454435F 
 5298      48414E44 
 5299              	.LASF108:
 5300 060c 2E5C6465 		.ascii	".\\des.c\000"
 5300      732E6300 
 5301              	.LASF60:
 5302 0614 4359424C 		.ascii	"CYBLE_EVT_L2CAP_CBFC_CONN_CNF\000"
 5302      455F4556 
 5302      545F4C32 
 5302      4341505F 
 5302      43424643 
 5303              	.LASF37:
 5304 0632 4359424C 		.ascii	"CYBLE_EVT_GATTC_READ_BY_GROUP_TYPE_RSP\000"
 5304      455F4556 
 5304      545F4741 
 5304      5454435F 
 5304      52454144 
 5305              	.LASF9:
 5306 0659 666C6F61 		.ascii	"float\000"
 5306      7400
 5307              	.LASF100:
 5308 065f 526F6F74 		.ascii	"RootKey\000"
 5308      4B657900 
 5309              	.LASF14:
 5310 0667 4359424C 		.ascii	"CYBLE_EVT_STACK_ON\000"
 5310      455F4556 
 5310      545F5354 
 5310      41434B5F 
 5310      4F4E00
 5311              	.LASF79:
 5312 067a 66697273 		.ascii	"firstXOR\000"
 5312      74584F52 
 5312      00
 5313              	.LASF95:
 5314 0683 44617461 		.ascii	"Data_Mw\000"
 5314      5F4D7700 
 5315              	.LASF80:
 5316 068b 53636861 		.ascii	"Schange\000"
 5316      6E676500 
 5317              	.LASF1:
 5318 0693 756E7369 		.ascii	"unsigned char\000"
 5318      676E6564 
 5318      20636861 
 5318      7200
 5319              	.LASF87:
 5320 06a1 64617461 		.ascii	"data_L\000"
 5320      5F4C00
 5321              	.LASF47:
 5322 06a8 4359424C 		.ascii	"CYBLE_EVT_GATTS_PREP_WRITE_REQ\000"
 5322      455F4556 
 5322      545F4741 
ARM GAS  C:\Users\ADMINI~1\AppData\Local\Temp\ccv1PMEE.s 			page 108


 5322      5454535F 
 5322      50524550 
 5323              	.LASF52:
 5324 06c7 4359424C 		.ascii	"CYBLE_EVT_GATTS_HANDLE_VALUE_CNF\000"
 5324      455F4556 
 5324      545F4741 
 5324      5454535F 
 5324      48414E44 
 5325              	.LASF32:
 5326 06e8 4359424C 		.ascii	"CYBLE_EVT_GATTC_ERROR_RSP\000"
 5326      455F4556 
 5326      545F4741 
 5326      5454435F 
 5326      4552524F 
 5327              	.LASF11:
 5328 0702 63686172 		.ascii	"char\000"
 5328      00
 5329              	.LASF27:
 5330 0707 4359424C 		.ascii	"CYBLE_EVT_GAP_DEVICE_DISCONNECTED\000"
 5330      455F4556 
 5330      545F4741 
 5330      505F4445 
 5330      56494345 
 5331              	.LASF55:
 5332 0729 4359424C 		.ascii	"CYBLE_EVT_GATTS_READ_CHAR_VAL_ACCESS_REQ\000"
 5332      455F4556 
 5332      545F4741 
 5332      5454535F 
 5332      52454144 
 5333              	.LASF99:
 5334 0752 4445535F 		.ascii	"DES_Decrypt\000"
 5334      44656372 
 5334      79707400 
 5335              	.LASF93:
 5336 075e 62756666 		.ascii	"buffer\000"
 5336      657200
 5337              	.LASF65:
 5338 0765 4359424C 		.ascii	"CYBLE_EVT_L2CAP_CBFC_TX_CREDIT_IND\000"
 5338      455F4556 
 5338      545F4C32 
 5338      4341505F 
 5338      43424643 
 5339              	.LASF89:
 5340 0788 53776170 		.ascii	"Swap\000"
 5340      00
 5341              	.LASF16:
 5342 078d 4359424C 		.ascii	"CYBLE_EVT_HARDWARE_ERROR\000"
 5342      455F4556 
 5342      545F4841 
 5342      52445741 
 5342      52455F45 
 5343              	.LASF76:
 5344 07a6 43726561 		.ascii	"CreatKey\000"
 5344      744B6579 
 5344      00
 5345              	.LASF35:
 5346 07af 4359424C 		.ascii	"CYBLE_EVT_GATTS_XCNHG_MTU_REQ\000"
ARM GAS  C:\Users\ADMINI~1\AppData\Local\Temp\ccv1PMEE.s 			page 109


 5346      455F4556 
 5346      545F4741 
 5346      5454535F 
 5346      58434E48 
 5347              	.LASF42:
 5348 07cd 4359424C 		.ascii	"CYBLE_EVT_GATTC_READ_BLOB_RSP\000"
 5348      455F4556 
 5348      545F4741 
 5348      5454435F 
 5348      52454144 
 5349              	.LASF74:
 5350 07eb 42656769 		.ascii	"BeginChange\000"
 5350      6E436861 
 5350      6E676500 
 5351              	.LASF107:
 5352 07f7 474E5520 		.ascii	"GNU C 4.9.3 20150303 (release) [ARM/embedded-4_9-br"
 5352      4320342E 
 5352      392E3320 
 5352      32303135 
 5352      30333033 
 5353 082a 616E6368 		.ascii	"anch revision 221220] -mcpu=cortex-m0 -mthumb -g -O"
 5353      20726576 
 5353      6973696F 
 5353      6E203232 
 5353      31323230 
 5354 085d 30202D66 		.ascii	"0 -ffunction-sections -ffat-lto-objects\000"
 5354      66756E63 
 5354      74696F6E 
 5354      2D736563 
 5354      74696F6E 
 5355              	.LASF40:
 5356 0885 4359424C 		.ascii	"CYBLE_EVT_GATTC_FIND_BY_TYPE_VALUE_RSP\000"
 5356      455F4556 
 5356      545F4741 
 5356      5454435F 
 5356      46494E44 
 5357              	.LASF31:
 5358 08ac 4359424C 		.ascii	"CYBLE_EVT_GAP_KEYINFO_EXCHNGE_CMPLT\000"
 5358      455F4556 
 5358      545F4741 
 5358      505F4B45 
 5358      59494E46 
 5359              	.LASF61:
 5360 08d0 4359424C 		.ascii	"CYBLE_EVT_L2CAP_CBFC_DISCONN_IND\000"
 5360      455F4556 
 5360      545F4C32 
 5360      4341505F 
 5360      43424643 
 5361              	.LASF104:
 5362 08f1 505F5461 		.ascii	"P_Table\000"
 5362      626C6500 
 5363              	.LASF70:
 5364 08f9 6368616E 		.ascii	"change1\000"
 5364      67653100 
 5365              	.LASF78:
 5366 0901 6C697374 		.ascii	"list\000"
 5366      00
ARM GAS  C:\Users\ADMINI~1\AppData\Local\Temp\ccv1PMEE.s 			page 110


 5367              	.LASF57:
 5368 0906 4359424C 		.ascii	"CYBLE_EVT_L2CAP_CONN_PARAM_UPDATE_RSP\000"
 5368      455F4556 
 5368      545F4C32 
 5368      4341505F 
 5368      434F4E4E 
 5369              	.LASF88:
 5370 092c 64617461 		.ascii	"data_R\000"
 5370      5F5200
 5371              	.LASF83:
 5372 0933 66656973 		.ascii	"feistel\000"
 5372      74656C00 
 5373              	.LASF34:
 5374 093b 4359424C 		.ascii	"CYBLE_EVT_GATT_DISCONNECT_IND\000"
 5374      455F4556 
 5374      545F4741 
 5374      54545F44 
 5374      4953434F 
 5375              	.LASF103:
 5376 0959 455F5461 		.ascii	"E_Table\000"
 5376      626C6500 
 5377              	.LASF94:
 5378 0961 4445535F 		.ascii	"DES_Encrypt\000"
 5378      456E6372 
 5378      79707400 
 5379              		.ident	"GCC: (GNU Tools for ARM Embedded Processors) 4.9.3 20150303 (release) [ARM/embedded-4_9-br
