ARM GAS  C:\Users\ADMINI~1\AppData\Local\Temp\ccv1PMEE.s 			page 1


   1              		.cpu cortex-m0
   2              		.fpu softvfp
   3              		.eabi_attribute 20, 1
   4              		.eabi_attribute 21, 1
   5              		.eabi_attribute 23, 3
   6              		.eabi_attribute 24, 1
   7              		.eabi_attribute 25, 1
   8              		.eabi_attribute 26, 1
   9              		.eabi_attribute 30, 6
  10              		.eabi_attribute 34, 0
  11              		.eabi_attribute 18, 4
  12              		.code	16
  13              		.file	"des.c"
  14              		.text
  15              	.Ltext0:
  16              		.cfi_sections	.debug_frame
  17              		.comm	RootKey,8,4
  18              		.global	IP_Table
  19              		.section	.rodata
  20              		.align	2
  21              		.type	IP_Table, %object
  22              		.size	IP_Table, 64
  23              	IP_Table:
  24 0000 39       		.byte	57
  25 0001 31       		.byte	49
  26 0002 29       		.byte	41
  27 0003 21       		.byte	33
  28 0004 19       		.byte	25
  29 0005 11       		.byte	17
  30 0006 09       		.byte	9
  31 0007 01       		.byte	1
  32 0008 3B       		.byte	59
  33 0009 33       		.byte	51
  34 000a 2B       		.byte	43
  35 000b 23       		.byte	35
  36 000c 1B       		.byte	27
  37 000d 13       		.byte	19
  38 000e 0B       		.byte	11
  39 000f 03       		.byte	3
  40 0010 3D       		.byte	61
  41 0011 35       		.byte	53
  42 0012 2D       		.byte	45
  43 0013 25       		.byte	37
  44 0014 1D       		.byte	29
  45 0015 15       		.byte	21
  46 0016 0D       		.byte	13
  47 0017 05       		.byte	5
  48 0018 3F       		.byte	63
  49 0019 37       		.byte	55
  50 001a 2F       		.byte	47
  51 001b 27       		.byte	39
  52 001c 1F       		.byte	31
  53 001d 17       		.byte	23
  54 001e 0F       		.byte	15
  55 001f 07       		.byte	7
  56 0020 38       		.byte	56
  57 0021 30       		.byte	48
ARM GAS  C:\Users\ADMINI~1\AppData\Local\Temp\ccv1PMEE.s 			page 2


  58 0022 28       		.byte	40
  59 0023 20       		.byte	32
  60 0024 18       		.byte	24
  61 0025 10       		.byte	16
  62 0026 08       		.byte	8
  63 0027 00       		.byte	0
  64 0028 3A       		.byte	58
  65 0029 32       		.byte	50
  66 002a 2A       		.byte	42
  67 002b 22       		.byte	34
  68 002c 1A       		.byte	26
  69 002d 12       		.byte	18
  70 002e 0A       		.byte	10
  71 002f 02       		.byte	2
  72 0030 3C       		.byte	60
  73 0031 34       		.byte	52
  74 0032 2C       		.byte	44
  75 0033 24       		.byte	36
  76 0034 1C       		.byte	28
  77 0035 14       		.byte	20
  78 0036 0C       		.byte	12
  79 0037 04       		.byte	4
  80 0038 3E       		.byte	62
  81 0039 36       		.byte	54
  82 003a 2E       		.byte	46
  83 003b 26       		.byte	38
  84 003c 1E       		.byte	30
  85 003d 16       		.byte	22
  86 003e 0E       		.byte	14
  87 003f 06       		.byte	6
  88              		.global	IP_1_Table
  89              		.align	2
  90              		.type	IP_1_Table, %object
  91              		.size	IP_1_Table, 64
  92              	IP_1_Table:
  93 0040 27       		.byte	39
  94 0041 07       		.byte	7
  95 0042 2F       		.byte	47
  96 0043 0F       		.byte	15
  97 0044 37       		.byte	55
  98 0045 17       		.byte	23
  99 0046 3F       		.byte	63
 100 0047 1F       		.byte	31
 101 0048 26       		.byte	38
 102 0049 06       		.byte	6
 103 004a 2E       		.byte	46
 104 004b 0E       		.byte	14
 105 004c 36       		.byte	54
 106 004d 16       		.byte	22
 107 004e 3E       		.byte	62
 108 004f 1E       		.byte	30
 109 0050 25       		.byte	37
 110 0051 05       		.byte	5
 111 0052 2D       		.byte	45
 112 0053 0D       		.byte	13
 113 0054 35       		.byte	53
 114 0055 15       		.byte	21
ARM GAS  C:\Users\ADMINI~1\AppData\Local\Temp\ccv1PMEE.s 			page 3


 115 0056 3D       		.byte	61
 116 0057 1D       		.byte	29
 117 0058 24       		.byte	36
 118 0059 04       		.byte	4
 119 005a 2C       		.byte	44
 120 005b 0C       		.byte	12
 121 005c 34       		.byte	52
 122 005d 14       		.byte	20
 123 005e 3C       		.byte	60
 124 005f 1C       		.byte	28
 125 0060 23       		.byte	35
 126 0061 03       		.byte	3
 127 0062 2B       		.byte	43
 128 0063 0B       		.byte	11
 129 0064 33       		.byte	51
 130 0065 13       		.byte	19
 131 0066 3B       		.byte	59
 132 0067 1B       		.byte	27
 133 0068 22       		.byte	34
 134 0069 02       		.byte	2
 135 006a 2A       		.byte	42
 136 006b 0A       		.byte	10
 137 006c 32       		.byte	50
 138 006d 12       		.byte	18
 139 006e 3A       		.byte	58
 140 006f 1A       		.byte	26
 141 0070 21       		.byte	33
 142 0071 01       		.byte	1
 143 0072 29       		.byte	41
 144 0073 09       		.byte	9
 145 0074 31       		.byte	49
 146 0075 11       		.byte	17
 147 0076 39       		.byte	57
 148 0077 19       		.byte	25
 149 0078 20       		.byte	32
 150 0079 00       		.byte	0
 151 007a 28       		.byte	40
 152 007b 08       		.byte	8
 153 007c 30       		.byte	48
 154 007d 10       		.byte	16
 155 007e 38       		.byte	56
 156 007f 18       		.byte	24
 157              		.global	E_Table
 158              		.align	2
 159              		.type	E_Table, %object
 160              		.size	E_Table, 48
 161              	E_Table:
 162 0080 1F       		.byte	31
 163 0081 00       		.byte	0
 164 0082 01       		.byte	1
 165 0083 02       		.byte	2
 166 0084 03       		.byte	3
 167 0085 04       		.byte	4
 168 0086 03       		.byte	3
 169 0087 04       		.byte	4
 170 0088 05       		.byte	5
 171 0089 06       		.byte	6
ARM GAS  C:\Users\ADMINI~1\AppData\Local\Temp\ccv1PMEE.s 			page 4


 172 008a 07       		.byte	7
 173 008b 08       		.byte	8
 174 008c 07       		.byte	7
 175 008d 08       		.byte	8
 176 008e 09       		.byte	9
 177 008f 0A       		.byte	10
 178 0090 0B       		.byte	11
 179 0091 0C       		.byte	12
 180 0092 0B       		.byte	11
 181 0093 0C       		.byte	12
 182 0094 0D       		.byte	13
 183 0095 0E       		.byte	14
 184 0096 0F       		.byte	15
 185 0097 10       		.byte	16
 186 0098 0F       		.byte	15
 187 0099 10       		.byte	16
 188 009a 11       		.byte	17
 189 009b 12       		.byte	18
 190 009c 13       		.byte	19
 191 009d 14       		.byte	20
 192 009e 13       		.byte	19
 193 009f 14       		.byte	20
 194 00a0 15       		.byte	21
 195 00a1 16       		.byte	22
 196 00a2 17       		.byte	23
 197 00a3 18       		.byte	24
 198 00a4 17       		.byte	23
 199 00a5 18       		.byte	24
 200 00a6 19       		.byte	25
 201 00a7 1A       		.byte	26
 202 00a8 1B       		.byte	27
 203 00a9 1C       		.byte	28
 204 00aa 1B       		.byte	27
 205 00ab 1C       		.byte	28
 206 00ac 1D       		.byte	29
 207 00ad 1E       		.byte	30
 208 00ae 1F       		.byte	31
 209 00af 00       		.byte	0
 210              		.global	P_Table
 211              		.align	2
 212              		.type	P_Table, %object
 213              		.size	P_Table, 32
 214              	P_Table:
 215 00b0 0F       		.byte	15
 216 00b1 06       		.byte	6
 217 00b2 13       		.byte	19
 218 00b3 14       		.byte	20
 219 00b4 1C       		.byte	28
 220 00b5 0B       		.byte	11
 221 00b6 1B       		.byte	27
 222 00b7 10       		.byte	16
 223 00b8 00       		.byte	0
 224 00b9 0E       		.byte	14
 225 00ba 16       		.byte	22
 226 00bb 19       		.byte	25
 227 00bc 04       		.byte	4
 228 00bd 11       		.byte	17
ARM GAS  C:\Users\ADMINI~1\AppData\Local\Temp\ccv1PMEE.s 			page 5


 229 00be 1E       		.byte	30
 230 00bf 09       		.byte	9
 231 00c0 01       		.byte	1
 232 00c1 07       		.byte	7
 233 00c2 17       		.byte	23
 234 00c3 0D       		.byte	13
 235 00c4 1F       		.byte	31
 236 00c5 1A       		.byte	26
 237 00c6 02       		.byte	2
 238 00c7 08       		.byte	8
 239 00c8 12       		.byte	18
 240 00c9 0C       		.byte	12
 241 00ca 1D       		.byte	29
 242 00cb 05       		.byte	5
 243 00cc 15       		.byte	21
 244 00cd 0A       		.byte	10
 245 00ce 03       		.byte	3
 246 00cf 18       		.byte	24
 247              		.global	S
 248              		.align	2
 249              		.type	S, %object
 250              		.size	S, 512
 251              	S:
 252 00d0 0E       		.byte	14
 253 00d1 04       		.byte	4
 254 00d2 0D       		.byte	13
 255 00d3 01       		.byte	1
 256 00d4 02       		.byte	2
 257 00d5 0F       		.byte	15
 258 00d6 0B       		.byte	11
 259 00d7 08       		.byte	8
 260 00d8 03       		.byte	3
 261 00d9 0A       		.byte	10
 262 00da 06       		.byte	6
 263 00db 0C       		.byte	12
 264 00dc 05       		.byte	5
 265 00dd 09       		.byte	9
 266 00de 00       		.byte	0
 267 00df 07       		.byte	7
 268 00e0 00       		.byte	0
 269 00e1 0F       		.byte	15
 270 00e2 07       		.byte	7
 271 00e3 04       		.byte	4
 272 00e4 0E       		.byte	14
 273 00e5 02       		.byte	2
 274 00e6 0D       		.byte	13
 275 00e7 01       		.byte	1
 276 00e8 0A       		.byte	10
 277 00e9 06       		.byte	6
 278 00ea 0C       		.byte	12
 279 00eb 0B       		.byte	11
 280 00ec 09       		.byte	9
 281 00ed 05       		.byte	5
 282 00ee 03       		.byte	3
 283 00ef 08       		.byte	8
 284 00f0 04       		.byte	4
 285 00f1 01       		.byte	1
ARM GAS  C:\Users\ADMINI~1\AppData\Local\Temp\ccv1PMEE.s 			page 6


 286 00f2 0E       		.byte	14
 287 00f3 08       		.byte	8
 288 00f4 0D       		.byte	13
 289 00f5 06       		.byte	6
 290 00f6 02       		.byte	2
 291 00f7 0B       		.byte	11
 292 00f8 0F       		.byte	15
 293 00f9 0C       		.byte	12
 294 00fa 09       		.byte	9
 295 00fb 07       		.byte	7
 296 00fc 03       		.byte	3
 297 00fd 0A       		.byte	10
 298 00fe 05       		.byte	5
 299 00ff 00       		.byte	0
 300 0100 0F       		.byte	15
 301 0101 0C       		.byte	12
 302 0102 08       		.byte	8
 303 0103 02       		.byte	2
 304 0104 04       		.byte	4
 305 0105 09       		.byte	9
 306 0106 01       		.byte	1
 307 0107 07       		.byte	7
 308 0108 05       		.byte	5
 309 0109 0B       		.byte	11
 310 010a 03       		.byte	3
 311 010b 0E       		.byte	14
 312 010c 0A       		.byte	10
 313 010d 00       		.byte	0
 314 010e 06       		.byte	6
 315 010f 0D       		.byte	13
 316 0110 0F       		.byte	15
 317 0111 01       		.byte	1
 318 0112 08       		.byte	8
 319 0113 0E       		.byte	14
 320 0114 06       		.byte	6
 321 0115 0B       		.byte	11
 322 0116 03       		.byte	3
 323 0117 04       		.byte	4
 324 0118 09       		.byte	9
 325 0119 07       		.byte	7
 326 011a 02       		.byte	2
 327 011b 0D       		.byte	13
 328 011c 0C       		.byte	12
 329 011d 00       		.byte	0
 330 011e 05       		.byte	5
 331 011f 0A       		.byte	10
 332 0120 03       		.byte	3
 333 0121 0D       		.byte	13
 334 0122 04       		.byte	4
 335 0123 07       		.byte	7
 336 0124 0F       		.byte	15
 337 0125 02       		.byte	2
 338 0126 08       		.byte	8
 339 0127 0E       		.byte	14
 340 0128 0C       		.byte	12
 341 0129 00       		.byte	0
 342 012a 01       		.byte	1
ARM GAS  C:\Users\ADMINI~1\AppData\Local\Temp\ccv1PMEE.s 			page 7


 343 012b 0A       		.byte	10
 344 012c 06       		.byte	6
 345 012d 09       		.byte	9
 346 012e 0B       		.byte	11
 347 012f 05       		.byte	5
 348 0130 00       		.byte	0
 349 0131 0E       		.byte	14
 350 0132 07       		.byte	7
 351 0133 0B       		.byte	11
 352 0134 0A       		.byte	10
 353 0135 04       		.byte	4
 354 0136 0D       		.byte	13
 355 0137 01       		.byte	1
 356 0138 05       		.byte	5
 357 0139 08       		.byte	8
 358 013a 0C       		.byte	12
 359 013b 06       		.byte	6
 360 013c 09       		.byte	9
 361 013d 03       		.byte	3
 362 013e 02       		.byte	2
 363 013f 0F       		.byte	15
 364 0140 0D       		.byte	13
 365 0141 08       		.byte	8
 366 0142 0A       		.byte	10
 367 0143 01       		.byte	1
 368 0144 03       		.byte	3
 369 0145 0F       		.byte	15
 370 0146 04       		.byte	4
 371 0147 02       		.byte	2
 372 0148 0B       		.byte	11
 373 0149 06       		.byte	6
 374 014a 07       		.byte	7
 375 014b 0C       		.byte	12
 376 014c 00       		.byte	0
 377 014d 05       		.byte	5
 378 014e 0E       		.byte	14
 379 014f 09       		.byte	9
 380 0150 0A       		.byte	10
 381 0151 00       		.byte	0
 382 0152 09       		.byte	9
 383 0153 0E       		.byte	14
 384 0154 06       		.byte	6
 385 0155 03       		.byte	3
 386 0156 0F       		.byte	15
 387 0157 05       		.byte	5
 388 0158 01       		.byte	1
 389 0159 0D       		.byte	13
 390 015a 0C       		.byte	12
 391 015b 07       		.byte	7
 392 015c 0B       		.byte	11
 393 015d 04       		.byte	4
 394 015e 02       		.byte	2
 395 015f 08       		.byte	8
 396 0160 0D       		.byte	13
 397 0161 07       		.byte	7
 398 0162 00       		.byte	0
 399 0163 09       		.byte	9
ARM GAS  C:\Users\ADMINI~1\AppData\Local\Temp\ccv1PMEE.s 			page 8


 400 0164 03       		.byte	3
 401 0165 04       		.byte	4
 402 0166 06       		.byte	6
 403 0167 0A       		.byte	10
 404 0168 02       		.byte	2
 405 0169 08       		.byte	8
 406 016a 05       		.byte	5
 407 016b 0E       		.byte	14
 408 016c 0C       		.byte	12
 409 016d 0B       		.byte	11
 410 016e 0F       		.byte	15
 411 016f 01       		.byte	1
 412 0170 0D       		.byte	13
 413 0171 06       		.byte	6
 414 0172 04       		.byte	4
 415 0173 09       		.byte	9
 416 0174 08       		.byte	8
 417 0175 0F       		.byte	15
 418 0176 03       		.byte	3
 419 0177 00       		.byte	0
 420 0178 0B       		.byte	11
 421 0179 01       		.byte	1
 422 017a 02       		.byte	2
 423 017b 0C       		.byte	12
 424 017c 05       		.byte	5
 425 017d 0A       		.byte	10
 426 017e 0E       		.byte	14
 427 017f 07       		.byte	7
 428 0180 01       		.byte	1
 429 0181 0A       		.byte	10
 430 0182 0D       		.byte	13
 431 0183 00       		.byte	0
 432 0184 06       		.byte	6
 433 0185 09       		.byte	9
 434 0186 08       		.byte	8
 435 0187 07       		.byte	7
 436 0188 04       		.byte	4
 437 0189 0F       		.byte	15
 438 018a 0E       		.byte	14
 439 018b 03       		.byte	3
 440 018c 0B       		.byte	11
 441 018d 05       		.byte	5
 442 018e 02       		.byte	2
 443 018f 0C       		.byte	12
 444 0190 07       		.byte	7
 445 0191 0D       		.byte	13
 446 0192 0E       		.byte	14
 447 0193 03       		.byte	3
 448 0194 00       		.byte	0
 449 0195 06       		.byte	6
 450 0196 09       		.byte	9
 451 0197 0A       		.byte	10
 452 0198 01       		.byte	1
 453 0199 02       		.byte	2
 454 019a 08       		.byte	8
 455 019b 05       		.byte	5
 456 019c 0B       		.byte	11
ARM GAS  C:\Users\ADMINI~1\AppData\Local\Temp\ccv1PMEE.s 			page 9


 457 019d 0C       		.byte	12
 458 019e 04       		.byte	4
 459 019f 0F       		.byte	15
 460 01a0 0D       		.byte	13
 461 01a1 08       		.byte	8
 462 01a2 0B       		.byte	11
 463 01a3 05       		.byte	5
 464 01a4 06       		.byte	6
 465 01a5 0F       		.byte	15
 466 01a6 00       		.byte	0
 467 01a7 03       		.byte	3
 468 01a8 04       		.byte	4
 469 01a9 07       		.byte	7
 470 01aa 02       		.byte	2
 471 01ab 0C       		.byte	12
 472 01ac 01       		.byte	1
 473 01ad 0A       		.byte	10
 474 01ae 0E       		.byte	14
 475 01af 09       		.byte	9
 476 01b0 0A       		.byte	10
 477 01b1 06       		.byte	6
 478 01b2 09       		.byte	9
 479 01b3 00       		.byte	0
 480 01b4 0C       		.byte	12
 481 01b5 0B       		.byte	11
 482 01b6 07       		.byte	7
 483 01b7 0D       		.byte	13
 484 01b8 0F       		.byte	15
 485 01b9 01       		.byte	1
 486 01ba 03       		.byte	3
 487 01bb 0E       		.byte	14
 488 01bc 05       		.byte	5
 489 01bd 02       		.byte	2
 490 01be 08       		.byte	8
 491 01bf 04       		.byte	4
 492 01c0 03       		.byte	3
 493 01c1 0F       		.byte	15
 494 01c2 00       		.byte	0
 495 01c3 06       		.byte	6
 496 01c4 0A       		.byte	10
 497 01c5 01       		.byte	1
 498 01c6 0D       		.byte	13
 499 01c7 08       		.byte	8
 500 01c8 09       		.byte	9
 501 01c9 04       		.byte	4
 502 01ca 05       		.byte	5
 503 01cb 0B       		.byte	11
 504 01cc 0C       		.byte	12
 505 01cd 07       		.byte	7
 506 01ce 02       		.byte	2
 507 01cf 0E       		.byte	14
 508 01d0 02       		.byte	2
 509 01d1 0C       		.byte	12
 510 01d2 04       		.byte	4
 511 01d3 01       		.byte	1
 512 01d4 07       		.byte	7
 513 01d5 0A       		.byte	10
ARM GAS  C:\Users\ADMINI~1\AppData\Local\Temp\ccv1PMEE.s 			page 10


 514 01d6 0B       		.byte	11
 515 01d7 06       		.byte	6
 516 01d8 08       		.byte	8
 517 01d9 05       		.byte	5
 518 01da 03       		.byte	3
 519 01db 0F       		.byte	15
 520 01dc 0D       		.byte	13
 521 01dd 00       		.byte	0
 522 01de 0E       		.byte	14
 523 01df 09       		.byte	9
 524 01e0 0E       		.byte	14
 525 01e1 0B       		.byte	11
 526 01e2 02       		.byte	2
 527 01e3 0C       		.byte	12
 528 01e4 04       		.byte	4
 529 01e5 07       		.byte	7
 530 01e6 0D       		.byte	13
 531 01e7 01       		.byte	1
 532 01e8 05       		.byte	5
 533 01e9 00       		.byte	0
 534 01ea 0F       		.byte	15
 535 01eb 0A       		.byte	10
 536 01ec 03       		.byte	3
 537 01ed 09       		.byte	9
 538 01ee 08       		.byte	8
 539 01ef 06       		.byte	6
 540 01f0 04       		.byte	4
 541 01f1 02       		.byte	2
 542 01f2 01       		.byte	1
 543 01f3 0B       		.byte	11
 544 01f4 0A       		.byte	10
 545 01f5 0D       		.byte	13
 546 01f6 07       		.byte	7
 547 01f7 08       		.byte	8
 548 01f8 0F       		.byte	15
 549 01f9 09       		.byte	9
 550 01fa 0C       		.byte	12
 551 01fb 05       		.byte	5
 552 01fc 06       		.byte	6
 553 01fd 03       		.byte	3
 554 01fe 00       		.byte	0
 555 01ff 0E       		.byte	14
 556 0200 0B       		.byte	11
 557 0201 08       		.byte	8
 558 0202 0C       		.byte	12
 559 0203 07       		.byte	7
 560 0204 01       		.byte	1
 561 0205 0E       		.byte	14
 562 0206 02       		.byte	2
 563 0207 0D       		.byte	13
 564 0208 06       		.byte	6
 565 0209 0F       		.byte	15
 566 020a 00       		.byte	0
 567 020b 09       		.byte	9
 568 020c 0A       		.byte	10
 569 020d 04       		.byte	4
 570 020e 05       		.byte	5
ARM GAS  C:\Users\ADMINI~1\AppData\Local\Temp\ccv1PMEE.s 			page 11


 571 020f 03       		.byte	3
 572 0210 0C       		.byte	12
 573 0211 01       		.byte	1
 574 0212 0A       		.byte	10
 575 0213 0F       		.byte	15
 576 0214 09       		.byte	9
 577 0215 02       		.byte	2
 578 0216 06       		.byte	6
 579 0217 08       		.byte	8
 580 0218 00       		.byte	0
 581 0219 0D       		.byte	13
 582 021a 03       		.byte	3
 583 021b 04       		.byte	4
 584 021c 0E       		.byte	14
 585 021d 07       		.byte	7
 586 021e 05       		.byte	5
 587 021f 0B       		.byte	11
 588 0220 0A       		.byte	10
 589 0221 0F       		.byte	15
 590 0222 04       		.byte	4
 591 0223 02       		.byte	2
 592 0224 07       		.byte	7
 593 0225 0C       		.byte	12
 594 0226 09       		.byte	9
 595 0227 05       		.byte	5
 596 0228 06       		.byte	6
 597 0229 01       		.byte	1
 598 022a 0D       		.byte	13
 599 022b 0E       		.byte	14
 600 022c 00       		.byte	0
 601 022d 0B       		.byte	11
 602 022e 03       		.byte	3
 603 022f 08       		.byte	8
 604 0230 09       		.byte	9
 605 0231 0E       		.byte	14
 606 0232 0F       		.byte	15
 607 0233 05       		.byte	5
 608 0234 02       		.byte	2
 609 0235 08       		.byte	8
 610 0236 0C       		.byte	12
 611 0237 03       		.byte	3
 612 0238 07       		.byte	7
 613 0239 00       		.byte	0
 614 023a 04       		.byte	4
 615 023b 0A       		.byte	10
 616 023c 01       		.byte	1
 617 023d 0D       		.byte	13
 618 023e 0B       		.byte	11
 619 023f 06       		.byte	6
 620 0240 04       		.byte	4
 621 0241 03       		.byte	3
 622 0242 02       		.byte	2
 623 0243 0C       		.byte	12
 624 0244 09       		.byte	9
 625 0245 05       		.byte	5
 626 0246 0F       		.byte	15
 627 0247 0A       		.byte	10
ARM GAS  C:\Users\ADMINI~1\AppData\Local\Temp\ccv1PMEE.s 			page 12


 628 0248 0B       		.byte	11
 629 0249 0E       		.byte	14
 630 024a 01       		.byte	1
 631 024b 07       		.byte	7
 632 024c 06       		.byte	6
 633 024d 00       		.byte	0
 634 024e 08       		.byte	8
 635 024f 0D       		.byte	13
 636 0250 04       		.byte	4
 637 0251 0B       		.byte	11
 638 0252 02       		.byte	2
 639 0253 0E       		.byte	14
 640 0254 0F       		.byte	15
 641 0255 00       		.byte	0
 642 0256 08       		.byte	8
 643 0257 0D       		.byte	13
 644 0258 03       		.byte	3
 645 0259 0C       		.byte	12
 646 025a 09       		.byte	9
 647 025b 07       		.byte	7
 648 025c 05       		.byte	5
 649 025d 0A       		.byte	10
 650 025e 06       		.byte	6
 651 025f 01       		.byte	1
 652 0260 0D       		.byte	13
 653 0261 00       		.byte	0
 654 0262 0B       		.byte	11
 655 0263 07       		.byte	7
 656 0264 04       		.byte	4
 657 0265 09       		.byte	9
 658 0266 01       		.byte	1
 659 0267 0A       		.byte	10
 660 0268 0E       		.byte	14
 661 0269 03       		.byte	3
 662 026a 05       		.byte	5
 663 026b 0C       		.byte	12
 664 026c 02       		.byte	2
 665 026d 0F       		.byte	15
 666 026e 08       		.byte	8
 667 026f 06       		.byte	6
 668 0270 01       		.byte	1
 669 0271 04       		.byte	4
 670 0272 0B       		.byte	11
 671 0273 0D       		.byte	13
 672 0274 0C       		.byte	12
 673 0275 03       		.byte	3
 674 0276 07       		.byte	7
 675 0277 0E       		.byte	14
 676 0278 0A       		.byte	10
 677 0279 0F       		.byte	15
 678 027a 06       		.byte	6
 679 027b 08       		.byte	8
 680 027c 00       		.byte	0
 681 027d 05       		.byte	5
 682 027e 09       		.byte	9
 683 027f 02       		.byte	2
 684 0280 06       		.byte	6
ARM GAS  C:\Users\ADMINI~1\AppData\Local\Temp\ccv1PMEE.s 			page 13


 685 0281 0B       		.byte	11
 686 0282 0D       		.byte	13
 687 0283 08       		.byte	8
 688 0284 01       		.byte	1
 689 0285 04       		.byte	4
 690 0286 0A       		.byte	10
 691 0287 07       		.byte	7
 692 0288 09       		.byte	9
 693 0289 05       		.byte	5
 694 028a 00       		.byte	0
 695 028b 0F       		.byte	15
 696 028c 0E       		.byte	14
 697 028d 02       		.byte	2
 698 028e 03       		.byte	3
 699 028f 0C       		.byte	12
 700 0290 0D       		.byte	13
 701 0291 02       		.byte	2
 702 0292 08       		.byte	8
 703 0293 04       		.byte	4
 704 0294 06       		.byte	6
 705 0295 0F       		.byte	15
 706 0296 0B       		.byte	11
 707 0297 01       		.byte	1
 708 0298 0A       		.byte	10
 709 0299 09       		.byte	9
 710 029a 03       		.byte	3
 711 029b 0E       		.byte	14
 712 029c 05       		.byte	5
 713 029d 00       		.byte	0
 714 029e 0C       		.byte	12
 715 029f 07       		.byte	7
 716 02a0 01       		.byte	1
 717 02a1 0F       		.byte	15
 718 02a2 0D       		.byte	13
 719 02a3 08       		.byte	8
 720 02a4 0A       		.byte	10
 721 02a5 03       		.byte	3
 722 02a6 07       		.byte	7
 723 02a7 04       		.byte	4
 724 02a8 0C       		.byte	12
 725 02a9 05       		.byte	5
 726 02aa 06       		.byte	6
 727 02ab 0B       		.byte	11
 728 02ac 00       		.byte	0
 729 02ad 0E       		.byte	14
 730 02ae 09       		.byte	9
 731 02af 02       		.byte	2
 732 02b0 07       		.byte	7
 733 02b1 0B       		.byte	11
 734 02b2 04       		.byte	4
 735 02b3 01       		.byte	1
 736 02b4 09       		.byte	9
 737 02b5 0C       		.byte	12
 738 02b6 0E       		.byte	14
 739 02b7 02       		.byte	2
 740 02b8 00       		.byte	0
 741 02b9 06       		.byte	6
ARM GAS  C:\Users\ADMINI~1\AppData\Local\Temp\ccv1PMEE.s 			page 14


 742 02ba 0A       		.byte	10
 743 02bb 0D       		.byte	13
 744 02bc 0F       		.byte	15
 745 02bd 03       		.byte	3
 746 02be 05       		.byte	5
 747 02bf 08       		.byte	8
 748 02c0 02       		.byte	2
 749 02c1 01       		.byte	1
 750 02c2 0E       		.byte	14
 751 02c3 07       		.byte	7
 752 02c4 04       		.byte	4
 753 02c5 0A       		.byte	10
 754 02c6 08       		.byte	8
 755 02c7 0D       		.byte	13
 756 02c8 0F       		.byte	15
 757 02c9 0C       		.byte	12
 758 02ca 09       		.byte	9
 759 02cb 00       		.byte	0
 760 02cc 03       		.byte	3
 761 02cd 05       		.byte	5
 762 02ce 06       		.byte	6
 763 02cf 0B       		.byte	11
 764              		.global	PC_1
 765              		.align	2
 766              		.type	PC_1, %object
 767              		.size	PC_1, 56
 768              	PC_1:
 769 02d0 38       		.byte	56
 770 02d1 30       		.byte	48
 771 02d2 28       		.byte	40
 772 02d3 20       		.byte	32
 773 02d4 18       		.byte	24
 774 02d5 10       		.byte	16
 775 02d6 08       		.byte	8
 776 02d7 00       		.byte	0
 777 02d8 39       		.byte	57
 778 02d9 31       		.byte	49
 779 02da 29       		.byte	41
 780 02db 21       		.byte	33
 781 02dc 19       		.byte	25
 782 02dd 11       		.byte	17
 783 02de 09       		.byte	9
 784 02df 01       		.byte	1
 785 02e0 3A       		.byte	58
 786 02e1 32       		.byte	50
 787 02e2 2A       		.byte	42
 788 02e3 22       		.byte	34
 789 02e4 1A       		.byte	26
 790 02e5 12       		.byte	18
 791 02e6 0A       		.byte	10
 792 02e7 02       		.byte	2
 793 02e8 3B       		.byte	59
 794 02e9 33       		.byte	51
 795 02ea 2B       		.byte	43
 796 02eb 23       		.byte	35
 797 02ec 3E       		.byte	62
 798 02ed 36       		.byte	54
ARM GAS  C:\Users\ADMINI~1\AppData\Local\Temp\ccv1PMEE.s 			page 15


 799 02ee 2E       		.byte	46
 800 02ef 26       		.byte	38
 801 02f0 1E       		.byte	30
 802 02f1 16       		.byte	22
 803 02f2 0E       		.byte	14
 804 02f3 06       		.byte	6
 805 02f4 3D       		.byte	61
 806 02f5 35       		.byte	53
 807 02f6 2D       		.byte	45
 808 02f7 25       		.byte	37
 809 02f8 1D       		.byte	29
 810 02f9 15       		.byte	21
 811 02fa 0D       		.byte	13
 812 02fb 05       		.byte	5
 813 02fc 3C       		.byte	60
 814 02fd 34       		.byte	52
 815 02fe 2C       		.byte	44
 816 02ff 24       		.byte	36
 817 0300 1C       		.byte	28
 818 0301 14       		.byte	20
 819 0302 0C       		.byte	12
 820 0303 04       		.byte	4
 821 0304 1B       		.byte	27
 822 0305 13       		.byte	19
 823 0306 0B       		.byte	11
 824 0307 03       		.byte	3
 825              		.global	PC_2
 826              		.align	2
 827              		.type	PC_2, %object
 828              		.size	PC_2, 48
 829              	PC_2:
 830 0308 0D       		.byte	13
 831 0309 10       		.byte	16
 832 030a 0A       		.byte	10
 833 030b 17       		.byte	23
 834 030c 00       		.byte	0
 835 030d 04       		.byte	4
 836 030e 02       		.byte	2
 837 030f 1B       		.byte	27
 838 0310 0E       		.byte	14
 839 0311 05       		.byte	5
 840 0312 14       		.byte	20
 841 0313 09       		.byte	9
 842 0314 16       		.byte	22
 843 0315 12       		.byte	18
 844 0316 0B       		.byte	11
 845 0317 03       		.byte	3
 846 0318 19       		.byte	25
 847 0319 07       		.byte	7
 848 031a 0F       		.byte	15
 849 031b 06       		.byte	6
 850 031c 1A       		.byte	26
 851 031d 13       		.byte	19
 852 031e 0C       		.byte	12
 853 031f 01       		.byte	1
 854 0320 28       		.byte	40
 855 0321 33       		.byte	51
ARM GAS  C:\Users\ADMINI~1\AppData\Local\Temp\ccv1PMEE.s 			page 16


 856 0322 1E       		.byte	30
 857 0323 24       		.byte	36
 858 0324 2E       		.byte	46
 859 0325 36       		.byte	54
 860 0326 1D       		.byte	29
 861 0327 27       		.byte	39
 862 0328 32       		.byte	50
 863 0329 2C       		.byte	44
 864 032a 20       		.byte	32
 865 032b 2F       		.byte	47
 866 032c 2B       		.byte	43
 867 032d 30       		.byte	48
 868 032e 26       		.byte	38
 869 032f 37       		.byte	55
 870 0330 21       		.byte	33
 871 0331 34       		.byte	52
 872 0332 2D       		.byte	45
 873 0333 29       		.byte	41
 874 0334 31       		.byte	49
 875 0335 23       		.byte	35
 876 0336 1C       		.byte	28
 877 0337 1F       		.byte	31
 878              		.section	.text.change1,"ax",%progbits
 879              		.align	2
 880              		.global	change1
 881              		.code	16
 882              		.thumb_func
 883              		.type	change1, %function
 884              	change1:
 885              	.LFB37:
 886              		.file 1 ".\\des.c"
   1:.\des.c       **** #include "des.h"
   2:.\des.c       **** uint8 RootKey[8];
   3:.\des.c       **** /* 初始置换表IP */
   4:.\des.c       **** const uint8 IP_Table[64] = { 
   5:.\des.c       ****     57,49,41,33,25,17, 9,1,
   6:.\des.c       ****     59,51,43,35,27,19,11,3,
   7:.\des.c       ****     61,53,45,37,29,21,13,5,
   8:.\des.c       ****     63,55,47,39,31,23,15,7,
   9:.\des.c       ****     56,48,40,32,24,16, 8,0,
  10:.\des.c       ****     58,50,42,34,26,18,10,2,
  11:.\des.c       ****     60,52,44,36,28,20,12,4,
  12:.\des.c       ****     62,54,46,38,30,22,14,6
  13:.\des.c       **** };
  14:.\des.c       **** 
  15:.\des.c       **** /* 逆初始置换表IP */
  16:.\des.c       **** const uint8 IP_1_Table[64] = {
  17:.\des.c       ****     39,7,47,15,55,23,63,31,
  18:.\des.c       ****     38,6,46,14,54,22,62,30,
  19:.\des.c       ****     37,5,45,13,53,21,61,29,
  20:.\des.c       ****     36,4,44,12,52,20,60,28,
  21:.\des.c       ****     35,3,43,11,51,19,59,27,
  22:.\des.c       ****     34,2,42,10,50,18,58,26,
  23:.\des.c       ****     33,1,41, 9,49,17,57,25,
  24:.\des.c       ****     32,0,40, 8,48,16,56,24
  25:.\des.c       **** };
  26:.\des.c       **** 
ARM GAS  C:\Users\ADMINI~1\AppData\Local\Temp\ccv1PMEE.s 			page 17


  27:.\des.c       **** /* 扩充置换表E */
  28:.\des.c       **** const uint8 E_Table[48] = {
  29:.\des.c       ****     31, 0, 1, 2, 3, 4, 3, 4,
  30:.\des.c       ****     5, 6, 7, 8, 7, 8, 9,10,
  31:.\des.c       ****     11,12,11,12,13,14,15,16,
  32:.\des.c       ****     15,16,17,18,19,20,19,20,
  33:.\des.c       ****     21,22,23,24,23,24,25,26,
  34:.\des.c       ****     27,28,27,28,29,30,31, 0
  35:.\des.c       **** };
  36:.\des.c       **** 
  37:.\des.c       **** /* 置换函数P */
  38:.\des.c       **** const uint8 P_Table[32] = {
  39:.\des.c       ****     15, 6,19,20,28,11,27,16,
  40:.\des.c       ****     0,14,22,25, 4,17,30, 9,
  41:.\des.c       ****     1, 7,23,13,31,26, 2, 8,
  42:.\des.c       ****     18,12,29, 5,21,10, 3,24
  43:.\des.c       **** };
  44:.\des.c       **** 
  45:.\des.c       **** /* S盒 */
  46:.\des.c       **** const uint8 S[8][4][16] = {
  47:.\des.c       **** 	/* S1 */
  48:.\des.c       **** 	{	{14,4,13,1,2,15,11,8,3,10,6,12,5,9,0,7},
  49:.\des.c       ****     {0,15,7,4,14,2,13,1,10,6,12,11,9,5,3,8},
  50:.\des.c       ****     {4,1,14,8,13,6,2,11,15,12,9,7,3,10,5,0},
  51:.\des.c       ****     {15,12,8,2,4,9,1,7,5,11,3,14,10,0,6,13} },
  52:.\des.c       **** 	
  53:.\des.c       **** 	/* S2 */
  54:.\des.c       **** 	{	{15,1,8,14,6,11,3,4,9,7,2,13,12,0,5,10},
  55:.\des.c       ****     {3,13,4,7,15,2,8,14,12,0,1,10,6,9,11,5},
  56:.\des.c       ****     {0,14,7,11,10,4,13,1,5,8,12,6,9,3,2,15},
  57:.\des.c       ****     {13,8,10,1,3,15,4,2,11,6,7,12,0,5,14,9} },
  58:.\des.c       **** 	
  59:.\des.c       **** 	/* S3 */
  60:.\des.c       **** 	{	{10,0,9,14,6,3,15,5,1,13,12,7,11,4,2,8},
  61:.\des.c       ****     {13,7,0,9,3,4,6,10,2,8,5,14,12,11,15,1},
  62:.\des.c       ****     {13,6,4,9,8,15,3,0,11,1,2,12,5,10,14,7},
  63:.\des.c       ****     {1,10,13,0,6,9,8,7,4,15,14,3,11,5,2,12} },
  64:.\des.c       **** 	
  65:.\des.c       **** 	/* S4 */
  66:.\des.c       **** 	{	{7,13,14,3,0,6,9,10,1,2,8,5,11,12,4,15},
  67:.\des.c       ****     {13,8,11,5,6,15,0,3,4,7,2,12,1,10,14,9},
  68:.\des.c       ****     {10,6,9,0,12,11,7,13,15,1,3,14,5,2,8,4},
  69:.\des.c       ****     {3,15,0,6,10,1,13,8,9,4,5,11,12,7,2,14} },
  70:.\des.c       **** 	
  71:.\des.c       **** 	/* S5 */
  72:.\des.c       **** 	{	{2,12,4,1,7,10,11,6,8,5,3,15,13,0,14,9},
  73:.\des.c       ****     {14,11,2,12,4,7,13,1,5,0,15,10,3,9,8,6},
  74:.\des.c       ****     {4,2,1,11,10,13,7,8,15,9,12,5,6,3,0,14},
  75:.\des.c       ****     {11,8,12,7,1,14,2,13,6,15,0,9,10,4,5,3} },
  76:.\des.c       **** 	
  77:.\des.c       **** 	/* S6 */
  78:.\des.c       **** 	{	{12,1,10,15,9,2,6,8,0,13,3,4,14,7,5,11},
  79:.\des.c       ****     {10,15,4,2,7,12,9,5,6,1,13,14,0,11,3,8},
  80:.\des.c       ****     {9,14,15,5,2,8,12,3,7,0,4,10,1,13,11,6},
  81:.\des.c       ****     {4,3,2,12,9,5,15,10,11,14,1,7,6,0,8,13} },
  82:.\des.c       **** 	
  83:.\des.c       **** 	/* S7 */
ARM GAS  C:\Users\ADMINI~1\AppData\Local\Temp\ccv1PMEE.s 			page 18


  84:.\des.c       **** 	{	{4,11,2,14,15,0,8,13,3,12,9,7,5,10,6,1},
  85:.\des.c       ****     {13,0,11,7,4,9,1,10,14,3,5,12,2,15,8,6},
  86:.\des.c       ****     {1,4,11,13,12,3,7,14,10,15,6,8,0,5,9,2},
  87:.\des.c       ****     {6,11,13,8,1,4,10,7,9,5,0,15,14,2,3,12} },
  88:.\des.c       **** 	
  89:.\des.c       **** 	/* S8 */
  90:.\des.c       **** 	{	{13,2,8,4,6,15,11,1,10,9,3,14,5,0,12,7},
  91:.\des.c       ****     {1,15,13,8,10,3,7,4,12,5,6,11,0,14,9,2},
  92:.\des.c       ****     {7,11,4,1,9,12,14,2,0,6,10,13,15,3,5,8},
  93:.\des.c       ****     {2,1,14,7,4,10,8,13,15,12,9,0,3,5,6,11} }
  94:.\des.c       **** };
  95:.\des.c       **** 
  96:.\des.c       **** /* 置换选择1 */
  97:.\des.c       **** 
  98:.\des.c       **** const uint8 PC_1[56] = {
  99:.\des.c       ****     56,48,40,32,24,16, 8,
 100:.\des.c       ****     0,57,49,41,33,25,17,
 101:.\des.c       ****     9, 1,58,50,42,34,26,
 102:.\des.c       ****     18,10, 2,59,51,43,35,
 103:.\des.c       ****     62,54,46,38,30,22,14,
 104:.\des.c       ****     6,61,53,45,37,29,21,
 105:.\des.c       ****     13, 5,60,52,44,36,28,
 106:.\des.c       ****     20,12, 4,27,19,11, 3
 107:.\des.c       **** };
 108:.\des.c       **** 
 109:.\des.c       **** /* 置换选择2 */
 110:.\des.c       **** 
 111:.\des.c       **** const uint8 PC_2[48] = {
 112:.\des.c       ****     13,16,10,23,0,4,2,27,
 113:.\des.c       ****     14,5,20,9,22,18,11,3,
 114:.\des.c       ****     25,7,15,6,26,19,12,1,
 115:.\des.c       ****     
 116:.\des.c       ****     40,51,30,36,46,54,29,39,
 117:.\des.c       ****     50,44,32,47,43,48,38,55,
 118:.\des.c       ****     33,52,45,41,49,35,28,31
 119:.\des.c       **** };
 120:.\des.c       **** 
 121:.\des.c       **** //把8X6的数组变成一个一维数组
 122:.\des.c       **** void change1(uint8 E[8][6],uint8 r[48])
 123:.\des.c       **** {
 887              		.loc 1 123 0
 888              		.cfi_startproc
 889 0000 80B5     		push	{r7, lr}
 890              		.cfi_def_cfa_offset 8
 891              		.cfi_offset 7, -8
 892              		.cfi_offset 14, -4
 893 0002 84B0     		sub	sp, sp, #16
 894              		.cfi_def_cfa_offset 24
 895 0004 00AF     		add	r7, sp, #0
 896              		.cfi_def_cfa_register 7
 897 0006 7860     		str	r0, [r7, #4]
 898 0008 3960     		str	r1, [r7]
 124:.\des.c       **** 	uint8 i,j;
 125:.\des.c       **** 	for(i=0;i<8;i++)
 899              		.loc 1 125 0
 900 000a 0F23     		mov	r3, #15
 901 000c FB18     		add	r3, r7, r3
ARM GAS  C:\Users\ADMINI~1\AppData\Local\Temp\ccv1PMEE.s 			page 19


 902 000e 0022     		mov	r2, #0
 903 0010 1A70     		strb	r2, [r3]
 904 0012 35E0     		b	.L2
 905              	.L5:
 126:.\des.c       **** 	{
 127:.\des.c       **** 		for(j=0;j<6;j++)
 906              		.loc 1 127 0
 907 0014 0E23     		mov	r3, #14
 908 0016 FB18     		add	r3, r7, r3
 909 0018 0022     		mov	r2, #0
 910 001a 1A70     		strb	r2, [r3]
 911 001c 24E0     		b	.L3
 912              	.L4:
 128:.\des.c       **** 		{
 129:.\des.c       **** 			r[i*6+j] = E[i][j];
 913              		.loc 1 129 0 discriminator 3
 914 001e 0F23     		mov	r3, #15
 915 0020 FB18     		add	r3, r7, r3
 916 0022 1A78     		ldrb	r2, [r3]
 917 0024 131C     		mov	r3, r2
 918 0026 5B00     		lsl	r3, r3, #1
 919 0028 9B18     		add	r3, r3, r2
 920 002a 5B00     		lsl	r3, r3, #1
 921 002c 1A1C     		mov	r2, r3
 922 002e 0E23     		mov	r3, #14
 923 0030 FB18     		add	r3, r7, r3
 924 0032 1B78     		ldrb	r3, [r3]
 925 0034 D318     		add	r3, r2, r3
 926 0036 1A1C     		mov	r2, r3
 927 0038 3B68     		ldr	r3, [r7]
 928 003a 9918     		add	r1, r3, r2
 929 003c 0F23     		mov	r3, #15
 930 003e FB18     		add	r3, r7, r3
 931 0040 1A78     		ldrb	r2, [r3]
 932 0042 131C     		mov	r3, r2
 933 0044 5B00     		lsl	r3, r3, #1
 934 0046 9B18     		add	r3, r3, r2
 935 0048 5B00     		lsl	r3, r3, #1
 936 004a 1A1C     		mov	r2, r3
 937 004c 7B68     		ldr	r3, [r7, #4]
 938 004e 9A18     		add	r2, r3, r2
 939 0050 0E23     		mov	r3, #14
 940 0052 FB18     		add	r3, r7, r3
 941 0054 1B78     		ldrb	r3, [r3]
 942 0056 D35C     		ldrb	r3, [r2, r3]
 943 0058 0B70     		strb	r3, [r1]
 127:.\des.c       **** 		{
 944              		.loc 1 127 0 discriminator 3
 945 005a 0E23     		mov	r3, #14
 946 005c FB18     		add	r3, r7, r3
 947 005e 1A78     		ldrb	r2, [r3]
 948 0060 0E23     		mov	r3, #14
 949 0062 FB18     		add	r3, r7, r3
 950 0064 0132     		add	r2, r2, #1
 951 0066 1A70     		strb	r2, [r3]
 952              	.L3:
 127:.\des.c       **** 		{
ARM GAS  C:\Users\ADMINI~1\AppData\Local\Temp\ccv1PMEE.s 			page 20


 953              		.loc 1 127 0 is_stmt 0 discriminator 1
 954 0068 0E23     		mov	r3, #14
 955 006a FB18     		add	r3, r7, r3
 956 006c 1B78     		ldrb	r3, [r3]
 957 006e 052B     		cmp	r3, #5
 958 0070 D5D9     		bls	.L4
 125:.\des.c       **** 	{
 959              		.loc 1 125 0 is_stmt 1 discriminator 2
 960 0072 0F23     		mov	r3, #15
 961 0074 FB18     		add	r3, r7, r3
 962 0076 1A78     		ldrb	r2, [r3]
 963 0078 0F23     		mov	r3, #15
 964 007a FB18     		add	r3, r7, r3
 965 007c 0132     		add	r2, r2, #1
 966 007e 1A70     		strb	r2, [r3]
 967              	.L2:
 125:.\des.c       **** 	{
 968              		.loc 1 125 0 is_stmt 0 discriminator 1
 969 0080 0F23     		mov	r3, #15
 970 0082 FB18     		add	r3, r7, r3
 971 0084 1B78     		ldrb	r3, [r3]
 972 0086 072B     		cmp	r3, #7
 973 0088 C4D9     		bls	.L5
 130:.\des.c       **** 		}
 131:.\des.c       **** 	}
 132:.\des.c       **** }
 974              		.loc 1 132 0 is_stmt 1
 975 008a BD46     		mov	sp, r7
 976 008c 04B0     		add	sp, sp, #16
 977              		@ sp needed
 978 008e 80BD     		pop	{r7, pc}
 979              		.cfi_endproc
 980              	.LFE37:
 981              		.size	change1, .-change1
 982              		.section	.text.change2,"ax",%progbits
 983              		.align	2
 984              		.global	change2
 985              		.code	16
 986              		.thumb_func
 987              		.type	change2, %function
 988              	change2:
 989              	.LFB38:
 133:.\des.c       **** //把一维数组变成8X6的矩阵
 134:.\des.c       **** void change2(uint8 r[48],uint8 E[8][6])
 135:.\des.c       **** {
 990              		.loc 1 135 0
 991              		.cfi_startproc
 992 0000 80B5     		push	{r7, lr}
 993              		.cfi_def_cfa_offset 8
 994              		.cfi_offset 7, -8
 995              		.cfi_offset 14, -4
 996 0002 84B0     		sub	sp, sp, #16
 997              		.cfi_def_cfa_offset 24
 998 0004 00AF     		add	r7, sp, #0
 999              		.cfi_def_cfa_register 7
 1000 0006 7860     		str	r0, [r7, #4]
 1001 0008 3960     		str	r1, [r7]
ARM GAS  C:\Users\ADMINI~1\AppData\Local\Temp\ccv1PMEE.s 			page 21


 136:.\des.c       **** 	uint8 i,j;
 137:.\des.c       **** 	for(i=0;i<8;i++)
 1002              		.loc 1 137 0
 1003 000a 0F23     		mov	r3, #15
 1004 000c FB18     		add	r3, r7, r3
 1005 000e 0022     		mov	r2, #0
 1006 0010 1A70     		strb	r2, [r3]
 1007 0012 35E0     		b	.L7
 1008              	.L10:
 138:.\des.c       **** 	{
 139:.\des.c       **** 		for(j=0;j<6;j++)
 1009              		.loc 1 139 0
 1010 0014 0E23     		mov	r3, #14
 1011 0016 FB18     		add	r3, r7, r3
 1012 0018 0022     		mov	r2, #0
 1013 001a 1A70     		strb	r2, [r3]
 1014 001c 24E0     		b	.L8
 1015              	.L9:
 140:.\des.c       **** 		{
 141:.\des.c       **** 			E[i][j]= r[i*6+j];
 1016              		.loc 1 141 0 discriminator 3
 1017 001e 0F23     		mov	r3, #15
 1018 0020 FB18     		add	r3, r7, r3
 1019 0022 1A78     		ldrb	r2, [r3]
 1020 0024 131C     		mov	r3, r2
 1021 0026 5B00     		lsl	r3, r3, #1
 1022 0028 9B18     		add	r3, r3, r2
 1023 002a 5B00     		lsl	r3, r3, #1
 1024 002c 1A1C     		mov	r2, r3
 1025 002e 3B68     		ldr	r3, [r7]
 1026 0030 9818     		add	r0, r3, r2
 1027 0032 0E23     		mov	r3, #14
 1028 0034 FB18     		add	r3, r7, r3
 1029 0036 1978     		ldrb	r1, [r3]
 1030 0038 0F23     		mov	r3, #15
 1031 003a FB18     		add	r3, r7, r3
 1032 003c 1A78     		ldrb	r2, [r3]
 1033 003e 131C     		mov	r3, r2
 1034 0040 5B00     		lsl	r3, r3, #1
 1035 0042 9B18     		add	r3, r3, r2
 1036 0044 5B00     		lsl	r3, r3, #1
 1037 0046 1A1C     		mov	r2, r3
 1038 0048 0E23     		mov	r3, #14
 1039 004a FB18     		add	r3, r7, r3
 1040 004c 1B78     		ldrb	r3, [r3]
 1041 004e D318     		add	r3, r2, r3
 1042 0050 1A1C     		mov	r2, r3
 1043 0052 7B68     		ldr	r3, [r7, #4]
 1044 0054 9B18     		add	r3, r3, r2
 1045 0056 1B78     		ldrb	r3, [r3]
 1046 0058 4354     		strb	r3, [r0, r1]
 139:.\des.c       **** 		{
 1047              		.loc 1 139 0 discriminator 3
 1048 005a 0E23     		mov	r3, #14
 1049 005c FB18     		add	r3, r7, r3
 1050 005e 1A78     		ldrb	r2, [r3]
 1051 0060 0E23     		mov	r3, #14
ARM GAS  C:\Users\ADMINI~1\AppData\Local\Temp\ccv1PMEE.s 			page 22


 1052 0062 FB18     		add	r3, r7, r3
 1053 0064 0132     		add	r2, r2, #1
 1054 0066 1A70     		strb	r2, [r3]
 1055              	.L8:
 139:.\des.c       **** 		{
 1056              		.loc 1 139 0 is_stmt 0 discriminator 1
 1057 0068 0E23     		mov	r3, #14
 1058 006a FB18     		add	r3, r7, r3
 1059 006c 1B78     		ldrb	r3, [r3]
 1060 006e 052B     		cmp	r3, #5
 1061 0070 D5D9     		bls	.L9
 137:.\des.c       **** 	{
 1062              		.loc 1 137 0 is_stmt 1 discriminator 2
 1063 0072 0F23     		mov	r3, #15
 1064 0074 FB18     		add	r3, r7, r3
 1065 0076 1A78     		ldrb	r2, [r3]
 1066 0078 0F23     		mov	r3, #15
 1067 007a FB18     		add	r3, r7, r3
 1068 007c 0132     		add	r2, r2, #1
 1069 007e 1A70     		strb	r2, [r3]
 1070              	.L7:
 137:.\des.c       **** 	{
 1071              		.loc 1 137 0 is_stmt 0 discriminator 1
 1072 0080 0F23     		mov	r3, #15
 1073 0082 FB18     		add	r3, r7, r3
 1074 0084 1B78     		ldrb	r3, [r3]
 1075 0086 072B     		cmp	r3, #7
 1076 0088 C4D9     		bls	.L10
 142:.\des.c       **** 		}
 143:.\des.c       **** 	}
 144:.\des.c       **** }
 1077              		.loc 1 144 0 is_stmt 1
 1078 008a BD46     		mov	sp, r7
 1079 008c 04B0     		add	sp, sp, #16
 1080              		@ sp needed
 1081 008e 80BD     		pop	{r7, pc}
 1082              		.cfi_endproc
 1083              	.LFE38:
 1084              		.size	change2, .-change2
 1085              		.section	.text.ByteToBit,"ax",%progbits
 1086              		.align	2
 1087              		.global	ByteToBit
 1088              		.code	16
 1089              		.thumb_func
 1090              		.type	ByteToBit, %function
 1091              	ByteToBit:
 1092              	.LFB39:
 145:.\des.c       **** //输入16进制明文
 146:.\des.c       **** void ByteToBit(uint8 buff[8],uint8 M[64])
 147:.\des.c       **** {   
 1093              		.loc 1 147 0
 1094              		.cfi_startproc
 1095 0000 80B5     		push	{r7, lr}
 1096              		.cfi_def_cfa_offset 8
 1097              		.cfi_offset 7, -8
 1098              		.cfi_offset 14, -4
 1099 0002 84B0     		sub	sp, sp, #16
ARM GAS  C:\Users\ADMINI~1\AppData\Local\Temp\ccv1PMEE.s 			page 23


 1100              		.cfi_def_cfa_offset 24
 1101 0004 00AF     		add	r7, sp, #0
 1102              		.cfi_def_cfa_register 7
 1103 0006 7860     		str	r0, [r7, #4]
 1104 0008 3960     		str	r1, [r7]
 148:.\des.c       **** 	uint8 i,j;
 149:.\des.c       **** 	for(i=0; i<8; i++)
 1105              		.loc 1 149 0
 1106 000a 0F23     		mov	r3, #15
 1107 000c FB18     		add	r3, r7, r3
 1108 000e 0022     		mov	r2, #0
 1109 0010 1A70     		strb	r2, [r3]
 1110 0012 34E0     		b	.L12
 1111              	.L15:
 150:.\des.c       **** 	{
 151:.\des.c       **** 		for(j=0; j<8; j++)
 1112              		.loc 1 151 0
 1113 0014 0E23     		mov	r3, #14
 1114 0016 FB18     		add	r3, r7, r3
 1115 0018 0022     		mov	r2, #0
 1116 001a 1A70     		strb	r2, [r3]
 1117 001c 23E0     		b	.L13
 1118              	.L14:
 152:.\des.c       **** 		{
 153:.\des.c       **** 			M[i*8 + 7 - j] = (buff[i] >> j) & 1;
 1119              		.loc 1 153 0 discriminator 3
 1120 001e 0F23     		mov	r3, #15
 1121 0020 FB18     		add	r3, r7, r3
 1122 0022 1B78     		ldrb	r3, [r3]
 1123 0024 DB00     		lsl	r3, r3, #3
 1124 0026 DA1D     		add	r2, r3, #7
 1125 0028 0E23     		mov	r3, #14
 1126 002a FB18     		add	r3, r7, r3
 1127 002c 1B78     		ldrb	r3, [r3]
 1128 002e D31A     		sub	r3, r2, r3
 1129 0030 1A1C     		mov	r2, r3
 1130 0032 3B68     		ldr	r3, [r7]
 1131 0034 9B18     		add	r3, r3, r2
 1132 0036 0F22     		mov	r2, #15
 1133 0038 BA18     		add	r2, r7, r2
 1134 003a 1278     		ldrb	r2, [r2]
 1135 003c 7968     		ldr	r1, [r7, #4]
 1136 003e 8A18     		add	r2, r1, r2
 1137 0040 1278     		ldrb	r2, [r2]
 1138 0042 111C     		mov	r1, r2
 1139 0044 0E22     		mov	r2, #14
 1140 0046 BA18     		add	r2, r7, r2
 1141 0048 1278     		ldrb	r2, [r2]
 1142 004a 1141     		asr	r1, r1, r2
 1143 004c 0A1C     		mov	r2, r1
 1144 004e D2B2     		uxtb	r2, r2
 1145 0050 0121     		mov	r1, #1
 1146 0052 0A40     		and	r2, r1
 1147 0054 D2B2     		uxtb	r2, r2
 1148 0056 1A70     		strb	r2, [r3]
 151:.\des.c       **** 		{
 1149              		.loc 1 151 0 discriminator 3
ARM GAS  C:\Users\ADMINI~1\AppData\Local\Temp\ccv1PMEE.s 			page 24


 1150 0058 0E23     		mov	r3, #14
 1151 005a FB18     		add	r3, r7, r3
 1152 005c 1A78     		ldrb	r2, [r3]
 1153 005e 0E23     		mov	r3, #14
 1154 0060 FB18     		add	r3, r7, r3
 1155 0062 0132     		add	r2, r2, #1
 1156 0064 1A70     		strb	r2, [r3]
 1157              	.L13:
 151:.\des.c       **** 		{
 1158              		.loc 1 151 0 is_stmt 0 discriminator 1
 1159 0066 0E23     		mov	r3, #14
 1160 0068 FB18     		add	r3, r7, r3
 1161 006a 1B78     		ldrb	r3, [r3]
 1162 006c 072B     		cmp	r3, #7
 1163 006e D6D9     		bls	.L14
 149:.\des.c       **** 	{
 1164              		.loc 1 149 0 is_stmt 1 discriminator 2
 1165 0070 0F23     		mov	r3, #15
 1166 0072 FB18     		add	r3, r7, r3
 1167 0074 1A78     		ldrb	r2, [r3]
 1168 0076 0F23     		mov	r3, #15
 1169 0078 FB18     		add	r3, r7, r3
 1170 007a 0132     		add	r2, r2, #1
 1171 007c 1A70     		strb	r2, [r3]
 1172              	.L12:
 149:.\des.c       **** 	{
 1173              		.loc 1 149 0 is_stmt 0 discriminator 1
 1174 007e 0F23     		mov	r3, #15
 1175 0080 FB18     		add	r3, r7, r3
 1176 0082 1B78     		ldrb	r3, [r3]
 1177 0084 072B     		cmp	r3, #7
 1178 0086 C5D9     		bls	.L15
 154:.\des.c       **** 		}
 155:.\des.c       **** 	}
 156:.\des.c       **** }
 1179              		.loc 1 156 0 is_stmt 1
 1180 0088 BD46     		mov	sp, r7
 1181 008a 04B0     		add	sp, sp, #16
 1182              		@ sp needed
 1183 008c 80BD     		pop	{r7, pc}
 1184              		.cfi_endproc
 1185              	.LFE39:
 1186              		.size	ByteToBit, .-ByteToBit
 1187 008e C046     		.section	.text.BeginChange,"ax",%progbits
 1188              		.align	2
 1189              		.global	BeginChange
 1190              		.code	16
 1191              		.thumb_func
 1192              		.type	BeginChange, %function
 1193              	BeginChange:
 1194              	.LFB40:
 157:.\des.c       **** 
 158:.\des.c       **** /*初始置换*/
 159:.\des.c       **** void BeginChange(uint8 buff[64],uint8 temp[64])
 160:.\des.c       **** {
 1195              		.loc 1 160 0
 1196              		.cfi_startproc
ARM GAS  C:\Users\ADMINI~1\AppData\Local\Temp\ccv1PMEE.s 			page 25


 1197 0000 80B5     		push	{r7, lr}
 1198              		.cfi_def_cfa_offset 8
 1199              		.cfi_offset 7, -8
 1200              		.cfi_offset 14, -4
 1201 0002 84B0     		sub	sp, sp, #16
 1202              		.cfi_def_cfa_offset 24
 1203 0004 00AF     		add	r7, sp, #0
 1204              		.cfi_def_cfa_register 7
 1205 0006 7860     		str	r0, [r7, #4]
 1206 0008 3960     		str	r1, [r7]
 161:.\des.c       **** 	uint8 i;
 162:.\des.c       ****     
 163:.\des.c       **** 	for(i=0;i<64;i++)
 1207              		.loc 1 163 0
 1208 000a 0F23     		mov	r3, #15
 1209 000c FB18     		add	r3, r7, r3
 1210 000e 0022     		mov	r2, #0
 1211 0010 1A70     		strb	r2, [r3]
 1212 0012 15E0     		b	.L17
 1213              	.L18:
 164:.\des.c       ****  	{
 165:.\des.c       ****     	temp[i] = buff[IP_Table[i]];
 1214              		.loc 1 165 0 discriminator 3
 1215 0014 0F23     		mov	r3, #15
 1216 0016 FB18     		add	r3, r7, r3
 1217 0018 1B78     		ldrb	r3, [r3]
 1218 001a 3A68     		ldr	r2, [r7]
 1219 001c D318     		add	r3, r2, r3
 1220 001e 0F22     		mov	r2, #15
 1221 0020 BA18     		add	r2, r7, r2
 1222 0022 1278     		ldrb	r2, [r2]
 1223 0024 0A49     		ldr	r1, .L19
 1224 0026 8A5C     		ldrb	r2, [r1, r2]
 1225 0028 111C     		mov	r1, r2
 1226 002a 7A68     		ldr	r2, [r7, #4]
 1227 002c 5218     		add	r2, r2, r1
 1228 002e 1278     		ldrb	r2, [r2]
 1229 0030 1A70     		strb	r2, [r3]
 163:.\des.c       ****  	{
 1230              		.loc 1 163 0 discriminator 3
 1231 0032 0F23     		mov	r3, #15
 1232 0034 FB18     		add	r3, r7, r3
 1233 0036 1A78     		ldrb	r2, [r3]
 1234 0038 0F23     		mov	r3, #15
 1235 003a FB18     		add	r3, r7, r3
 1236 003c 0132     		add	r2, r2, #1
 1237 003e 1A70     		strb	r2, [r3]
 1238              	.L17:
 163:.\des.c       ****  	{
 1239              		.loc 1 163 0 is_stmt 0 discriminator 1
 1240 0040 0F23     		mov	r3, #15
 1241 0042 FB18     		add	r3, r7, r3
 1242 0044 1B78     		ldrb	r3, [r3]
 1243 0046 3F2B     		cmp	r3, #63
 1244 0048 E4D9     		bls	.L18
 166:.\des.c       ****  	}
 167:.\des.c       **** }
ARM GAS  C:\Users\ADMINI~1\AppData\Local\Temp\ccv1PMEE.s 			page 26


 1245              		.loc 1 167 0 is_stmt 1
 1246 004a BD46     		mov	sp, r7
 1247 004c 04B0     		add	sp, sp, #16
 1248              		@ sp needed
 1249 004e 80BD     		pop	{r7, pc}
 1250              	.L20:
 1251              		.align	2
 1252              	.L19:
 1253 0050 00000000 		.word	IP_Table
 1254              		.cfi_endproc
 1255              	.LFE40:
 1256              		.size	BeginChange, .-BeginChange
 1257              		.section	.rodata
 1258              		.align	2
 1259              	.LC0:
 1260 0338 01       		.byte	1
 1261 0339 01       		.byte	1
 1262 033a 02       		.byte	2
 1263 033b 02       		.byte	2
 1264 033c 02       		.byte	2
 1265 033d 02       		.byte	2
 1266 033e 02       		.byte	2
 1267 033f 02       		.byte	2
 1268 0340 01       		.byte	1
 1269 0341 02       		.byte	2
 1270 0342 02       		.byte	2
 1271 0343 02       		.byte	2
 1272 0344 02       		.byte	2
 1273 0345 02       		.byte	2
 1274 0346 02       		.byte	2
 1275 0347 01       		.byte	1
 1276              		.section	.text.CreatKey,"ax",%progbits
 1277              		.align	2
 1278              		.global	CreatKey
 1279              		.code	16
 1280              		.thumb_func
 1281              		.type	CreatKey, %function
 1282              	CreatKey:
 1283              	.LFB41:
 168:.\des.c       **** 
 169:.\des.c       **** /*生成秘钥*/
 170:.\des.c       **** void CreatKey(uint8 My[64],uint8 n,uint8 key [48])
 171:.\des.c       **** {   
 1284              		.loc 1 171 0
 1285              		.cfi_startproc
 1286 0000 90B5     		push	{r4, r7, lr}
 1287              		.cfi_def_cfa_offset 12
 1288              		.cfi_offset 4, -12
 1289              		.cfi_offset 7, -8
 1290              		.cfi_offset 14, -4
 1291 0002 B5B0     		sub	sp, sp, #212
 1292              		.cfi_def_cfa_offset 224
 1293 0004 00AF     		add	r7, sp, #0
 1294              		.cfi_def_cfa_register 7
 1295 0006 F860     		str	r0, [r7, #12]
 1296 0008 7A60     		str	r2, [r7, #4]
 1297 000a 0B23     		mov	r3, #11
ARM GAS  C:\Users\ADMINI~1\AppData\Local\Temp\ccv1PMEE.s 			page 27


 1298 000c FB18     		add	r3, r7, r3
 1299 000e 0A1C     		add	r2, r1, #0
 1300 0010 1A70     		strb	r2, [r3]
 172:.\des.c       **** 	uint8 i,j,m;
 173:.\des.c       ****  	uint8 tem,tem2;
 174:.\des.c       **** 	uint8 k[56];
 175:.\des.c       **** 	uint8 a[8][7];
 176:.\des.c       **** 	uint8 c[28],d[28];
 177:.\des.c       **** 	uint8 list[16]={1,1,2,2,2,2,2,2,1,2,2,2,2,2,2,1};
 1301              		.loc 1 177 0
 1302 0012 1023     		mov	r3, #16
 1303 0014 FA18     		add	r2, r7, r3
 1304 0016 B44B     		ldr	r3, .L40
 1305 0018 111C     		mov	r1, r2
 1306 001a 1A1C     		mov	r2, r3
 1307 001c 1023     		mov	r3, #16
 1308 001e 081C     		mov	r0, r1
 1309 0020 111C     		mov	r1, r2
 1310 0022 1A1C     		mov	r2, r3
 1311 0024 FFF7FEFF 		bl	memcpy
 178:.\des.c       **** 	
 179:.\des.c       **** 	for(i=0;i<8;i++)
 1312              		.loc 1 179 0
 1313 0028 CF23     		mov	r3, #207
 1314 002a FB18     		add	r3, r7, r3
 1315 002c 0022     		mov	r2, #0
 1316 002e 1A70     		strb	r2, [r3]
 1317 0030 35E0     		b	.L22
 1318              	.L25:
 180:.\des.c       **** 	{
 181:.\des.c       ****     	for(j=0;j<7;j++)
 1319              		.loc 1 181 0
 1320 0032 CE23     		mov	r3, #206
 1321 0034 FB18     		add	r3, r7, r3
 1322 0036 0022     		mov	r2, #0
 1323 0038 1A70     		strb	r2, [r3]
 1324 003a 24E0     		b	.L23
 1325              	.L24:
 182:.\des.c       ****       	{
 183:.\des.c       ****         	a[i][j] = My[PC_1[i*7+j]];
 1326              		.loc 1 183 0 discriminator 3
 1327 003c CF23     		mov	r3, #207
 1328 003e FB18     		add	r3, r7, r3
 1329 0040 1A78     		ldrb	r2, [r3]
 1330 0042 CE23     		mov	r3, #206
 1331 0044 FB18     		add	r3, r7, r3
 1332 0046 1878     		ldrb	r0, [r3]
 1333 0048 CF23     		mov	r3, #207
 1334 004a FB18     		add	r3, r7, r3
 1335 004c 1978     		ldrb	r1, [r3]
 1336 004e 0B1C     		mov	r3, r1
 1337 0050 DB00     		lsl	r3, r3, #3
 1338 0052 591A     		sub	r1, r3, r1
 1339 0054 CE23     		mov	r3, #206
 1340 0056 FB18     		add	r3, r7, r3
 1341 0058 1B78     		ldrb	r3, [r3]
 1342 005a CB18     		add	r3, r1, r3
ARM GAS  C:\Users\ADMINI~1\AppData\Local\Temp\ccv1PMEE.s 			page 28


 1343 005c A349     		ldr	r1, .L40+4
 1344 005e CB5C     		ldrb	r3, [r1, r3]
 1345 0060 191C     		mov	r1, r3
 1346 0062 FB68     		ldr	r3, [r7, #12]
 1347 0064 5B18     		add	r3, r3, r1
 1348 0066 1C78     		ldrb	r4, [r3]
 1349 0068 5823     		mov	r3, #88
 1350 006a F918     		add	r1, r7, r3
 1351 006c 131C     		mov	r3, r2
 1352 006e DB00     		lsl	r3, r3, #3
 1353 0070 9B1A     		sub	r3, r3, r2
 1354 0072 1B18     		add	r3, r3, r0
 1355 0074 221C     		add	r2, r4, #0
 1356 0076 5A54     		strb	r2, [r3, r1]
 181:.\des.c       ****       	{
 1357              		.loc 1 181 0 discriminator 3
 1358 0078 CE23     		mov	r3, #206
 1359 007a FB18     		add	r3, r7, r3
 1360 007c 1A78     		ldrb	r2, [r3]
 1361 007e CE23     		mov	r3, #206
 1362 0080 FB18     		add	r3, r7, r3
 1363 0082 0132     		add	r2, r2, #1
 1364 0084 1A70     		strb	r2, [r3]
 1365              	.L23:
 181:.\des.c       ****       	{
 1366              		.loc 1 181 0 is_stmt 0 discriminator 1
 1367 0086 CE23     		mov	r3, #206
 1368 0088 FB18     		add	r3, r7, r3
 1369 008a 1B78     		ldrb	r3, [r3]
 1370 008c 062B     		cmp	r3, #6
 1371 008e D5D9     		bls	.L24
 179:.\des.c       **** 	{
 1372              		.loc 1 179 0 is_stmt 1 discriminator 2
 1373 0090 CF23     		mov	r3, #207
 1374 0092 FB18     		add	r3, r7, r3
 1375 0094 1A78     		ldrb	r2, [r3]
 1376 0096 CF23     		mov	r3, #207
 1377 0098 FB18     		add	r3, r7, r3
 1378 009a 0132     		add	r2, r2, #1
 1379 009c 1A70     		strb	r2, [r3]
 1380              	.L22:
 179:.\des.c       **** 	{
 1381              		.loc 1 179 0 is_stmt 0 discriminator 1
 1382 009e CF23     		mov	r3, #207
 1383 00a0 FB18     		add	r3, r7, r3
 1384 00a2 1B78     		ldrb	r3, [r3]
 1385 00a4 072B     		cmp	r3, #7
 1386 00a6 C4D9     		bls	.L25
 184:.\des.c       ****      	}
 185:.\des.c       **** 	}
 186:.\des.c       ****     
 187:.\des.c       **** 	for(i=0;i<4;i++)
 1387              		.loc 1 187 0 is_stmt 1
 1388 00a8 CF23     		mov	r3, #207
 1389 00aa FB18     		add	r3, r7, r3
 1390 00ac 0022     		mov	r2, #0
 1391 00ae 1A70     		strb	r2, [r3]
ARM GAS  C:\Users\ADMINI~1\AppData\Local\Temp\ccv1PMEE.s 			page 29


 1392 00b0 4CE0     		b	.L26
 1393              	.L29:
 188:.\des.c       **** 	{
 189:.\des.c       ****      	for(j=0;j<7;j++)
 1394              		.loc 1 189 0
 1395 00b2 CE23     		mov	r3, #206
 1396 00b4 FB18     		add	r3, r7, r3
 1397 00b6 0022     		mov	r2, #0
 1398 00b8 1A70     		strb	r2, [r3]
 1399 00ba 3BE0     		b	.L27
 1400              	.L28:
 190:.\des.c       ****      	{
 191:.\des.c       ****          	c[i*7+j] = a[i][j];
 1401              		.loc 1 191 0 discriminator 3
 1402 00bc CF23     		mov	r3, #207
 1403 00be FB18     		add	r3, r7, r3
 1404 00c0 1A78     		ldrb	r2, [r3]
 1405 00c2 131C     		mov	r3, r2
 1406 00c4 DB00     		lsl	r3, r3, #3
 1407 00c6 9A1A     		sub	r2, r3, r2
 1408 00c8 CE23     		mov	r3, #206
 1409 00ca FB18     		add	r3, r7, r3
 1410 00cc 1B78     		ldrb	r3, [r3]
 1411 00ce D118     		add	r1, r2, r3
 1412 00d0 CF23     		mov	r3, #207
 1413 00d2 FB18     		add	r3, r7, r3
 1414 00d4 1A78     		ldrb	r2, [r3]
 1415 00d6 CE23     		mov	r3, #206
 1416 00d8 FB18     		add	r3, r7, r3
 1417 00da 1C78     		ldrb	r4, [r3]
 1418 00dc 5823     		mov	r3, #88
 1419 00de F818     		add	r0, r7, r3
 1420 00e0 131C     		mov	r3, r2
 1421 00e2 DB00     		lsl	r3, r3, #3
 1422 00e4 9B1A     		sub	r3, r3, r2
 1423 00e6 1B19     		add	r3, r3, r4
 1424 00e8 1A5C     		ldrb	r2, [r3, r0]
 1425 00ea 3C23     		mov	r3, #60
 1426 00ec FB18     		add	r3, r7, r3
 1427 00ee 5A54     		strb	r2, [r3, r1]
 192:.\des.c       ****          	d[i*7+j] = a[i+4][j];
 1428              		.loc 1 192 0 discriminator 3
 1429 00f0 CF23     		mov	r3, #207
 1430 00f2 FB18     		add	r3, r7, r3
 1431 00f4 1A78     		ldrb	r2, [r3]
 1432 00f6 131C     		mov	r3, r2
 1433 00f8 DB00     		lsl	r3, r3, #3
 1434 00fa 9A1A     		sub	r2, r3, r2
 1435 00fc CE23     		mov	r3, #206
 1436 00fe FB18     		add	r3, r7, r3
 1437 0100 1B78     		ldrb	r3, [r3]
 1438 0102 D118     		add	r1, r2, r3
 1439 0104 CF23     		mov	r3, #207
 1440 0106 FB18     		add	r3, r7, r3
 1441 0108 1B78     		ldrb	r3, [r3]
 1442 010a 1A1D     		add	r2, r3, #4
 1443 010c CE23     		mov	r3, #206
ARM GAS  C:\Users\ADMINI~1\AppData\Local\Temp\ccv1PMEE.s 			page 30


 1444 010e FB18     		add	r3, r7, r3
 1445 0110 1C78     		ldrb	r4, [r3]
 1446 0112 5823     		mov	r3, #88
 1447 0114 F818     		add	r0, r7, r3
 1448 0116 131C     		mov	r3, r2
 1449 0118 DB00     		lsl	r3, r3, #3
 1450 011a 9B1A     		sub	r3, r3, r2
 1451 011c 1B19     		add	r3, r3, r4
 1452 011e 1A5C     		ldrb	r2, [r3, r0]
 1453 0120 2023     		mov	r3, #32
 1454 0122 FB18     		add	r3, r7, r3
 1455 0124 5A54     		strb	r2, [r3, r1]
 189:.\des.c       ****      	{
 1456              		.loc 1 189 0 discriminator 3
 1457 0126 CE23     		mov	r3, #206
 1458 0128 FB18     		add	r3, r7, r3
 1459 012a 1A78     		ldrb	r2, [r3]
 1460 012c CE23     		mov	r3, #206
 1461 012e FB18     		add	r3, r7, r3
 1462 0130 0132     		add	r2, r2, #1
 1463 0132 1A70     		strb	r2, [r3]
 1464              	.L27:
 189:.\des.c       ****      	{
 1465              		.loc 1 189 0 is_stmt 0 discriminator 1
 1466 0134 CE23     		mov	r3, #206
 1467 0136 FB18     		add	r3, r7, r3
 1468 0138 1B78     		ldrb	r3, [r3]
 1469 013a 062B     		cmp	r3, #6
 1470 013c BED9     		bls	.L28
 187:.\des.c       **** 	{
 1471              		.loc 1 187 0 is_stmt 1 discriminator 2
 1472 013e CF23     		mov	r3, #207
 1473 0140 FB18     		add	r3, r7, r3
 1474 0142 1A78     		ldrb	r2, [r3]
 1475 0144 CF23     		mov	r3, #207
 1476 0146 FB18     		add	r3, r7, r3
 1477 0148 0132     		add	r2, r2, #1
 1478 014a 1A70     		strb	r2, [r3]
 1479              	.L26:
 187:.\des.c       **** 	{
 1480              		.loc 1 187 0 is_stmt 0 discriminator 1
 1481 014c CF23     		mov	r3, #207
 1482 014e FB18     		add	r3, r7, r3
 1483 0150 1B78     		ldrb	r3, [r3]
 1484 0152 032B     		cmp	r3, #3
 1485 0154 ADD9     		bls	.L29
 193:.\des.c       ****    		}
 194:.\des.c       ****   	}
 195:.\des.c       ****     
 196:.\des.c       ****  	//确定左移位数
 197:.\des.c       **** 	m = 0;
 1486              		.loc 1 197 0 is_stmt 1
 1487 0156 CD23     		mov	r3, #205
 1488 0158 FB18     		add	r3, r7, r3
 1489 015a 0022     		mov	r2, #0
 1490 015c 1A70     		strb	r2, [r3]
 198:.\des.c       **** 	for(i=0; i<n; i++)
ARM GAS  C:\Users\ADMINI~1\AppData\Local\Temp\ccv1PMEE.s 			page 31


 1491              		.loc 1 198 0
 1492 015e CF23     		mov	r3, #207
 1493 0160 FB18     		add	r3, r7, r3
 1494 0162 0022     		mov	r2, #0
 1495 0164 1A70     		strb	r2, [r3]
 1496 0166 13E0     		b	.L30
 1497              	.L31:
 199:.\des.c       ****  	{
 200:.\des.c       ****     	m+=list[i];
 1498              		.loc 1 200 0 discriminator 3
 1499 0168 CF23     		mov	r3, #207
 1500 016a FB18     		add	r3, r7, r3
 1501 016c 1B78     		ldrb	r3, [r3]
 1502 016e 1022     		mov	r2, #16
 1503 0170 BA18     		add	r2, r7, r2
 1504 0172 D15C     		ldrb	r1, [r2, r3]
 1505 0174 CD23     		mov	r3, #205
 1506 0176 FB18     		add	r3, r7, r3
 1507 0178 CD22     		mov	r2, #205
 1508 017a BA18     		add	r2, r7, r2
 1509 017c 1278     		ldrb	r2, [r2]
 1510 017e 8A18     		add	r2, r1, r2
 1511 0180 1A70     		strb	r2, [r3]
 198:.\des.c       **** 	for(i=0; i<n; i++)
 1512              		.loc 1 198 0 discriminator 3
 1513 0182 CF23     		mov	r3, #207
 1514 0184 FB18     		add	r3, r7, r3
 1515 0186 1A78     		ldrb	r2, [r3]
 1516 0188 CF23     		mov	r3, #207
 1517 018a FB18     		add	r3, r7, r3
 1518 018c 0132     		add	r2, r2, #1
 1519 018e 1A70     		strb	r2, [r3]
 1520              	.L30:
 198:.\des.c       **** 	for(i=0; i<n; i++)
 1521              		.loc 1 198 0 is_stmt 0 discriminator 1
 1522 0190 CF23     		mov	r3, #207
 1523 0192 FA18     		add	r2, r7, r3
 1524 0194 0B23     		mov	r3, #11
 1525 0196 FB18     		add	r3, r7, r3
 1526 0198 1278     		ldrb	r2, [r2]
 1527 019a 1B78     		ldrb	r3, [r3]
 1528 019c 9A42     		cmp	r2, r3
 1529 019e E3D3     		bcc	.L31
 201:.\des.c       **** 	}
 202:.\des.c       ****     //循环左移处理
 203:.\des.c       **** 	for(i=0; i<m; i++)
 1530              		.loc 1 203 0 is_stmt 1
 1531 01a0 CF23     		mov	r3, #207
 1532 01a2 FB18     		add	r3, r7, r3
 1533 01a4 0022     		mov	r2, #0
 1534 01a6 1A70     		strb	r2, [r3]
 1535 01a8 49E0     		b	.L32
 1536              	.L35:
 204:.\des.c       ****   	{
 205:.\des.c       ****        	tem=c[0];
 1537              		.loc 1 205 0
 1538 01aa CC23     		mov	r3, #204
ARM GAS  C:\Users\ADMINI~1\AppData\Local\Temp\ccv1PMEE.s 			page 32


 1539 01ac FB18     		add	r3, r7, r3
 1540 01ae 3C22     		mov	r2, #60
 1541 01b0 BA18     		add	r2, r7, r2
 1542 01b2 1278     		ldrb	r2, [r2]
 1543 01b4 1A70     		strb	r2, [r3]
 206:.\des.c       ****        	tem2 = d[0];
 1544              		.loc 1 206 0
 1545 01b6 CB23     		mov	r3, #203
 1546 01b8 FB18     		add	r3, r7, r3
 1547 01ba 2022     		mov	r2, #32
 1548 01bc BA18     		add	r2, r7, r2
 1549 01be 1278     		ldrb	r2, [r2]
 1550 01c0 1A70     		strb	r2, [r3]
 207:.\des.c       ****     	for(j=0;j<27;j++)
 1551              		.loc 1 207 0
 1552 01c2 CE23     		mov	r3, #206
 1553 01c4 FB18     		add	r3, r7, r3
 1554 01c6 0022     		mov	r2, #0
 1555 01c8 1A70     		strb	r2, [r3]
 1556 01ca 20E0     		b	.L33
 1557              	.L34:
 208:.\des.c       ****      	{
 209:.\des.c       ****          	c[j] = c[j+1];
 1558              		.loc 1 209 0 discriminator 3
 1559 01cc CE23     		mov	r3, #206
 1560 01ce FB18     		add	r3, r7, r3
 1561 01d0 1B78     		ldrb	r3, [r3]
 1562 01d2 CE22     		mov	r2, #206
 1563 01d4 BA18     		add	r2, r7, r2
 1564 01d6 1278     		ldrb	r2, [r2]
 1565 01d8 0132     		add	r2, r2, #1
 1566 01da 3C21     		mov	r1, #60
 1567 01dc 7918     		add	r1, r7, r1
 1568 01de 895C     		ldrb	r1, [r1, r2]
 1569 01e0 3C22     		mov	r2, #60
 1570 01e2 BA18     		add	r2, r7, r2
 1571 01e4 D154     		strb	r1, [r2, r3]
 210:.\des.c       ****          	d[j] = d[j+1];
 1572              		.loc 1 210 0 discriminator 3
 1573 01e6 CE23     		mov	r3, #206
 1574 01e8 FB18     		add	r3, r7, r3
 1575 01ea 1B78     		ldrb	r3, [r3]
 1576 01ec CE22     		mov	r2, #206
 1577 01ee BA18     		add	r2, r7, r2
 1578 01f0 1278     		ldrb	r2, [r2]
 1579 01f2 0132     		add	r2, r2, #1
 1580 01f4 2021     		mov	r1, #32
 1581 01f6 7918     		add	r1, r7, r1
 1582 01f8 895C     		ldrb	r1, [r1, r2]
 1583 01fa 2022     		mov	r2, #32
 1584 01fc BA18     		add	r2, r7, r2
 1585 01fe D154     		strb	r1, [r2, r3]
 207:.\des.c       ****     	for(j=0;j<27;j++)
 1586              		.loc 1 207 0 discriminator 3
 1587 0200 CE23     		mov	r3, #206
 1588 0202 FB18     		add	r3, r7, r3
 1589 0204 1A78     		ldrb	r2, [r3]
ARM GAS  C:\Users\ADMINI~1\AppData\Local\Temp\ccv1PMEE.s 			page 33


 1590 0206 CE23     		mov	r3, #206
 1591 0208 FB18     		add	r3, r7, r3
 1592 020a 0132     		add	r2, r2, #1
 1593 020c 1A70     		strb	r2, [r3]
 1594              	.L33:
 207:.\des.c       ****     	for(j=0;j<27;j++)
 1595              		.loc 1 207 0 is_stmt 0 discriminator 1
 1596 020e CE23     		mov	r3, #206
 1597 0210 FB18     		add	r3, r7, r3
 1598 0212 1B78     		ldrb	r3, [r3]
 1599 0214 1A2B     		cmp	r3, #26
 1600 0216 D9D9     		bls	.L34
 211:.\des.c       ****    		}
 212:.\des.c       ****       	c[27] = tem;
 1601              		.loc 1 212 0 is_stmt 1 discriminator 2
 1602 0218 3C23     		mov	r3, #60
 1603 021a FB18     		add	r3, r7, r3
 1604 021c CC22     		mov	r2, #204
 1605 021e BA18     		add	r2, r7, r2
 1606 0220 1278     		ldrb	r2, [r2]
 1607 0222 DA76     		strb	r2, [r3, #27]
 213:.\des.c       ****      	d[27] = tem2;           
 1608              		.loc 1 213 0 discriminator 2
 1609 0224 2023     		mov	r3, #32
 1610 0226 FB18     		add	r3, r7, r3
 1611 0228 CB22     		mov	r2, #203
 1612 022a BA18     		add	r2, r7, r2
 1613 022c 1278     		ldrb	r2, [r2]
 1614 022e DA76     		strb	r2, [r3, #27]
 203:.\des.c       ****   	{
 1615              		.loc 1 203 0 discriminator 2
 1616 0230 CF23     		mov	r3, #207
 1617 0232 FB18     		add	r3, r7, r3
 1618 0234 1A78     		ldrb	r2, [r3]
 1619 0236 CF23     		mov	r3, #207
 1620 0238 FB18     		add	r3, r7, r3
 1621 023a 0132     		add	r2, r2, #1
 1622 023c 1A70     		strb	r2, [r3]
 1623              	.L32:
 203:.\des.c       ****   	{
 1624              		.loc 1 203 0 is_stmt 0 discriminator 1
 1625 023e CF23     		mov	r3, #207
 1626 0240 FA18     		add	r2, r7, r3
 1627 0242 CD23     		mov	r3, #205
 1628 0244 FB18     		add	r3, r7, r3
 1629 0246 1278     		ldrb	r2, [r2]
 1630 0248 1B78     		ldrb	r3, [r3]
 1631 024a 9A42     		cmp	r2, r3
 1632 024c ADD3     		bcc	.L35
 214:.\des.c       **** 	}
 215:.\des.c       ****     
 216:.\des.c       ****     //合并
 217:.\des.c       **** 	for(i=0;i<28;i++)
 1633              		.loc 1 217 0 is_stmt 1
 1634 024e CF23     		mov	r3, #207
 1635 0250 FB18     		add	r3, r7, r3
 1636 0252 0022     		mov	r2, #0
ARM GAS  C:\Users\ADMINI~1\AppData\Local\Temp\ccv1PMEE.s 			page 34


 1637 0254 1A70     		strb	r2, [r3]
 1638 0256 1FE0     		b	.L36
 1639              	.L37:
 218:.\des.c       **** 	{
 219:.\des.c       **** 		k[i] = c[i];
 1640              		.loc 1 219 0 discriminator 3
 1641 0258 CF23     		mov	r3, #207
 1642 025a FB18     		add	r3, r7, r3
 1643 025c 1B78     		ldrb	r3, [r3]
 1644 025e CF22     		mov	r2, #207
 1645 0260 BA18     		add	r2, r7, r2
 1646 0262 1278     		ldrb	r2, [r2]
 1647 0264 3C21     		mov	r1, #60
 1648 0266 7918     		add	r1, r7, r1
 1649 0268 895C     		ldrb	r1, [r1, r2]
 1650 026a 9022     		mov	r2, #144
 1651 026c BA18     		add	r2, r7, r2
 1652 026e D154     		strb	r1, [r2, r3]
 220:.\des.c       **** 		k[28+i] = d[i];
 1653              		.loc 1 220 0 discriminator 3
 1654 0270 CF23     		mov	r3, #207
 1655 0272 FB18     		add	r3, r7, r3
 1656 0274 1B78     		ldrb	r3, [r3]
 1657 0276 1C33     		add	r3, r3, #28
 1658 0278 CF22     		mov	r2, #207
 1659 027a BA18     		add	r2, r7, r2
 1660 027c 1278     		ldrb	r2, [r2]
 1661 027e 2021     		mov	r1, #32
 1662 0280 7918     		add	r1, r7, r1
 1663 0282 895C     		ldrb	r1, [r1, r2]
 1664 0284 9022     		mov	r2, #144
 1665 0286 BA18     		add	r2, r7, r2
 1666 0288 D154     		strb	r1, [r2, r3]
 217:.\des.c       **** 	{
 1667              		.loc 1 217 0 discriminator 3
 1668 028a CF23     		mov	r3, #207
 1669 028c FB18     		add	r3, r7, r3
 1670 028e 1A78     		ldrb	r2, [r3]
 1671 0290 CF23     		mov	r3, #207
 1672 0292 FB18     		add	r3, r7, r3
 1673 0294 0132     		add	r2, r2, #1
 1674 0296 1A70     		strb	r2, [r3]
 1675              	.L36:
 217:.\des.c       **** 	{
 1676              		.loc 1 217 0 is_stmt 0 discriminator 1
 1677 0298 CF23     		mov	r3, #207
 1678 029a FB18     		add	r3, r7, r3
 1679 029c 1B78     		ldrb	r3, [r3]
 1680 029e 1B2B     		cmp	r3, #27
 1681 02a0 DAD9     		bls	.L37
 221:.\des.c       **** 	}
 222:.\des.c       ****     //置换选择2
 223:.\des.c       **** 	for(i=0;i<48;i++)
 1682              		.loc 1 223 0 is_stmt 1
 1683 02a2 CF23     		mov	r3, #207
 1684 02a4 FB18     		add	r3, r7, r3
 1685 02a6 0022     		mov	r2, #0
ARM GAS  C:\Users\ADMINI~1\AppData\Local\Temp\ccv1PMEE.s 			page 35


 1686 02a8 1A70     		strb	r2, [r3]
 1687 02aa 15E0     		b	.L38
 1688              	.L39:
 224:.\des.c       **** 	{
 225:.\des.c       ****  		key[i] = k[PC_2[i]];
 1689              		.loc 1 225 0 discriminator 3
 1690 02ac CF23     		mov	r3, #207
 1691 02ae FB18     		add	r3, r7, r3
 1692 02b0 1B78     		ldrb	r3, [r3]
 1693 02b2 7A68     		ldr	r2, [r7, #4]
 1694 02b4 D318     		add	r3, r2, r3
 1695 02b6 CF22     		mov	r2, #207
 1696 02b8 BA18     		add	r2, r7, r2
 1697 02ba 1278     		ldrb	r2, [r2]
 1698 02bc 0C49     		ldr	r1, .L40+8
 1699 02be 8A5C     		ldrb	r2, [r1, r2]
 1700 02c0 111C     		mov	r1, r2
 1701 02c2 9022     		mov	r2, #144
 1702 02c4 BA18     		add	r2, r7, r2
 1703 02c6 525C     		ldrb	r2, [r2, r1]
 1704 02c8 1A70     		strb	r2, [r3]
 223:.\des.c       **** 	{
 1705              		.loc 1 223 0 discriminator 3
 1706 02ca CF23     		mov	r3, #207
 1707 02cc FB18     		add	r3, r7, r3
 1708 02ce 1A78     		ldrb	r2, [r3]
 1709 02d0 CF23     		mov	r3, #207
 1710 02d2 FB18     		add	r3, r7, r3
 1711 02d4 0132     		add	r2, r2, #1
 1712 02d6 1A70     		strb	r2, [r3]
 1713              	.L38:
 223:.\des.c       **** 	{
 1714              		.loc 1 223 0 is_stmt 0 discriminator 1
 1715 02d8 CF23     		mov	r3, #207
 1716 02da FB18     		add	r3, r7, r3
 1717 02dc 1B78     		ldrb	r3, [r3]
 1718 02de 2F2B     		cmp	r3, #47
 1719 02e0 E4D9     		bls	.L39
 226:.\des.c       ****   	}
 227:.\des.c       **** }
 1720              		.loc 1 227 0 is_stmt 1
 1721 02e2 BD46     		mov	sp, r7
 1722 02e4 35B0     		add	sp, sp, #212
 1723              		@ sp needed
 1724 02e6 90BD     		pop	{r4, r7, pc}
 1725              	.L41:
 1726              		.align	2
 1727              	.L40:
 1728 02e8 38030000 		.word	.LC0
 1729 02ec 00000000 		.word	PC_1
 1730 02f0 00000000 		.word	PC_2
 1731              		.cfi_endproc
 1732              	.LFE41:
 1733              		.size	CreatKey, .-CreatKey
 1734              		.section	.text.firstXOR,"ax",%progbits
 1735              		.align	2
 1736              		.global	firstXOR
ARM GAS  C:\Users\ADMINI~1\AppData\Local\Temp\ccv1PMEE.s 			page 36


 1737              		.code	16
 1738              		.thumb_func
 1739              		.type	firstXOR, %function
 1740              	firstXOR:
 1741              	.LFB42:
 228:.\des.c       **** //第一次异或
 229:.\des.c       **** void firstXOR(uint8 key[48],uint8 R[48],uint8 k2[48])
 230:.\des.c       **** {
 1742              		.loc 1 230 0
 1743              		.cfi_startproc
 1744 0000 80B5     		push	{r7, lr}
 1745              		.cfi_def_cfa_offset 8
 1746              		.cfi_offset 7, -8
 1747              		.cfi_offset 14, -4
 1748 0002 86B0     		sub	sp, sp, #24
 1749              		.cfi_def_cfa_offset 32
 1750 0004 00AF     		add	r7, sp, #0
 1751              		.cfi_def_cfa_register 7
 1752 0006 F860     		str	r0, [r7, #12]
 1753 0008 B960     		str	r1, [r7, #8]
 1754 000a 7A60     		str	r2, [r7, #4]
 231:.\des.c       **** 	uint8 i;
 232:.\des.c       **** 	for(i=0;i<48;i++)
 1755              		.loc 1 232 0
 1756 000c 1723     		mov	r3, #23
 1757 000e FB18     		add	r3, r7, r3
 1758 0010 0022     		mov	r2, #0
 1759 0012 1A70     		strb	r2, [r3]
 1760 0014 23E0     		b	.L43
 1761              	.L46:
 233:.\des.c       **** 	{
 234:.\des.c       ****    		if(R[i]!=key[i])
 1762              		.loc 1 234 0
 1763 0016 1723     		mov	r3, #23
 1764 0018 FB18     		add	r3, r7, r3
 1765 001a 1B78     		ldrb	r3, [r3]
 1766 001c BA68     		ldr	r2, [r7, #8]
 1767 001e D318     		add	r3, r2, r3
 1768 0020 1A78     		ldrb	r2, [r3]
 1769 0022 1723     		mov	r3, #23
 1770 0024 FB18     		add	r3, r7, r3
 1771 0026 1B78     		ldrb	r3, [r3]
 1772 0028 F968     		ldr	r1, [r7, #12]
 1773 002a CB18     		add	r3, r1, r3
 1774 002c 1B78     		ldrb	r3, [r3]
 1775 002e 9A42     		cmp	r2, r3
 1776 0030 07D0     		beq	.L44
 235:.\des.c       ****    		{
 236:.\des.c       ****          	k2[i] = 1;
 1777              		.loc 1 236 0
 1778 0032 1723     		mov	r3, #23
 1779 0034 FB18     		add	r3, r7, r3
 1780 0036 1B78     		ldrb	r3, [r3]
 1781 0038 7A68     		ldr	r2, [r7, #4]
 1782 003a D318     		add	r3, r2, r3
 1783 003c 0122     		mov	r2, #1
 1784 003e 1A70     		strb	r2, [r3]
ARM GAS  C:\Users\ADMINI~1\AppData\Local\Temp\ccv1PMEE.s 			page 37


 1785 0040 06E0     		b	.L45
 1786              	.L44:
 237:.\des.c       ****      	}
 238:.\des.c       ****      	else
 239:.\des.c       ****      	{
 240:.\des.c       **** 	     	k2[i] = 0;
 1787              		.loc 1 240 0
 1788 0042 1723     		mov	r3, #23
 1789 0044 FB18     		add	r3, r7, r3
 1790 0046 1B78     		ldrb	r3, [r3]
 1791 0048 7A68     		ldr	r2, [r7, #4]
 1792 004a D318     		add	r3, r2, r3
 1793 004c 0022     		mov	r2, #0
 1794 004e 1A70     		strb	r2, [r3]
 1795              	.L45:
 232:.\des.c       **** 	{
 1796              		.loc 1 232 0 discriminator 2
 1797 0050 1723     		mov	r3, #23
 1798 0052 FB18     		add	r3, r7, r3
 1799 0054 1A78     		ldrb	r2, [r3]
 1800 0056 1723     		mov	r3, #23
 1801 0058 FB18     		add	r3, r7, r3
 1802 005a 0132     		add	r2, r2, #1
 1803 005c 1A70     		strb	r2, [r3]
 1804              	.L43:
 232:.\des.c       **** 	{
 1805              		.loc 1 232 0 is_stmt 0 discriminator 1
 1806 005e 1723     		mov	r3, #23
 1807 0060 FB18     		add	r3, r7, r3
 1808 0062 1B78     		ldrb	r3, [r3]
 1809 0064 2F2B     		cmp	r3, #47
 1810 0066 D6D9     		bls	.L46
 241:.\des.c       **** 		}
 242:.\des.c       ****  	}
 243:.\des.c       **** }
 1811              		.loc 1 243 0 is_stmt 1
 1812 0068 BD46     		mov	sp, r7
 1813 006a 06B0     		add	sp, sp, #24
 1814              		@ sp needed
 1815 006c 80BD     		pop	{r7, pc}
 1816              		.cfi_endproc
 1817              	.LFE42:
 1818              		.size	firstXOR, .-firstXOR
 1819 006e C046     		.section	.text.Schange,"ax",%progbits
 1820              		.align	2
 1821              		.global	Schange
 1822              		.code	16
 1823              		.thumb_func
 1824              		.type	Schange, %function
 1825              	Schange:
 1826              	.LFB43:
 244:.\des.c       **** //S盒压缩变换
 245:.\des.c       **** void Schange(uint8 k2[48],uint8 k3[32])
 246:.\des.c       **** {
 1827              		.loc 1 246 0
 1828              		.cfi_startproc
 1829 0000 90B5     		push	{r4, r7, lr}
ARM GAS  C:\Users\ADMINI~1\AppData\Local\Temp\ccv1PMEE.s 			page 38


 1830              		.cfi_def_cfa_offset 12
 1831              		.cfi_offset 4, -12
 1832              		.cfi_offset 7, -8
 1833              		.cfi_offset 14, -4
 1834 0002 93B0     		sub	sp, sp, #76
 1835              		.cfi_def_cfa_offset 88
 1836 0004 00AF     		add	r7, sp, #0
 1837              		.cfi_def_cfa_register 7
 1838 0006 7860     		str	r0, [r7, #4]
 1839 0008 3960     		str	r1, [r7]
 247:.\des.c       **** 	uint8 i,h,l,a,temp,m,j;
 248:.\des.c       ****     int k;
 249:.\des.c       ****  	uint8 b[8][6];
 250:.\des.c       ****  	uint8 num[4];
 251:.\des.c       ****     
 252:.\des.c       **** 	change2(k2,b);
 1840              		.loc 1 252 0
 1841 000a 7A68     		ldr	r2, [r7, #4]
 1842 000c 0C23     		mov	r3, #12
 1843 000e FB18     		add	r3, r7, r3
 1844 0010 101C     		mov	r0, r2
 1845 0012 191C     		mov	r1, r3
 1846 0014 FFF7FEFF 		bl	change2
 253:.\des.c       ****  	m=0;
 1847              		.loc 1 253 0
 1848 0018 4523     		mov	r3, #69
 1849 001a FB18     		add	r3, r7, r3
 1850 001c 0022     		mov	r2, #0
 1851 001e 1A70     		strb	r2, [r3]
 254:.\des.c       ****     
 255:.\des.c       **** 	for(i=0;i<8;i++)
 1852              		.loc 1 255 0
 1853 0020 4723     		mov	r3, #71
 1854 0022 FB18     		add	r3, r7, r3
 1855 0024 0022     		mov	r2, #0
 1856 0026 1A70     		strb	r2, [r3]
 1857 0028 C2E0     		b	.L48
 1858              	.L55:
 256:.\des.c       **** 	{
 257:.\des.c       ****       	h=2*b[i][0]+b[i][5];
 1859              		.loc 1 257 0
 1860 002a 4723     		mov	r3, #71
 1861 002c FB18     		add	r3, r7, r3
 1862 002e 1A78     		ldrb	r2, [r3]
 1863 0030 0C23     		mov	r3, #12
 1864 0032 F918     		add	r1, r7, r3
 1865 0034 131C     		mov	r3, r2
 1866 0036 5B00     		lsl	r3, r3, #1
 1867 0038 9B18     		add	r3, r3, r2
 1868 003a 5B00     		lsl	r3, r3, #1
 1869 003c 5B5C     		ldrb	r3, [r3, r1]
 1870 003e DB18     		add	r3, r3, r3
 1871 0040 D9B2     		uxtb	r1, r3
 1872 0042 4723     		mov	r3, #71
 1873 0044 FB18     		add	r3, r7, r3
 1874 0046 1A78     		ldrb	r2, [r3]
 1875 0048 0C23     		mov	r3, #12
ARM GAS  C:\Users\ADMINI~1\AppData\Local\Temp\ccv1PMEE.s 			page 39


 1876 004a F818     		add	r0, r7, r3
 1877 004c 131C     		mov	r3, r2
 1878 004e 5B00     		lsl	r3, r3, #1
 1879 0050 9B18     		add	r3, r3, r2
 1880 0052 5B00     		lsl	r3, r3, #1
 1881 0054 C318     		add	r3, r0, r3
 1882 0056 0533     		add	r3, r3, #5
 1883 0058 1A78     		ldrb	r2, [r3]
 1884 005a 3F23     		mov	r3, #63
 1885 005c FB18     		add	r3, r7, r3
 1886 005e 8A18     		add	r2, r1, r2
 1887 0060 1A70     		strb	r2, [r3]
 258:.\des.c       ****     	l=8*b[i][1]+4*b[i][2]+2*b[i][3]+b[i][4];
 1888              		.loc 1 258 0
 1889 0062 4723     		mov	r3, #71
 1890 0064 FB18     		add	r3, r7, r3
 1891 0066 1A78     		ldrb	r2, [r3]
 1892 0068 0C23     		mov	r3, #12
 1893 006a F918     		add	r1, r7, r3
 1894 006c 131C     		mov	r3, r2
 1895 006e 5B00     		lsl	r3, r3, #1
 1896 0070 9B18     		add	r3, r3, r2
 1897 0072 5B00     		lsl	r3, r3, #1
 1898 0074 CB18     		add	r3, r1, r3
 1899 0076 0133     		add	r3, r3, #1
 1900 0078 1B78     		ldrb	r3, [r3]
 1901 007a 5900     		lsl	r1, r3, #1
 1902 007c 4723     		mov	r3, #71
 1903 007e FB18     		add	r3, r7, r3
 1904 0080 1A78     		ldrb	r2, [r3]
 1905 0082 0C23     		mov	r3, #12
 1906 0084 F818     		add	r0, r7, r3
 1907 0086 131C     		mov	r3, r2
 1908 0088 5B00     		lsl	r3, r3, #1
 1909 008a 9B18     		add	r3, r3, r2
 1910 008c 5B00     		lsl	r3, r3, #1
 1911 008e C318     		add	r3, r0, r3
 1912 0090 0233     		add	r3, r3, #2
 1913 0092 1B78     		ldrb	r3, [r3]
 1914 0094 CB18     		add	r3, r1, r3
 1915 0096 5900     		lsl	r1, r3, #1
 1916 0098 4723     		mov	r3, #71
 1917 009a FB18     		add	r3, r7, r3
 1918 009c 1A78     		ldrb	r2, [r3]
 1919 009e 0C23     		mov	r3, #12
 1920 00a0 F818     		add	r0, r7, r3
 1921 00a2 131C     		mov	r3, r2
 1922 00a4 5B00     		lsl	r3, r3, #1
 1923 00a6 9B18     		add	r3, r3, r2
 1924 00a8 5B00     		lsl	r3, r3, #1
 1925 00aa C318     		add	r3, r0, r3
 1926 00ac 0333     		add	r3, r3, #3
 1927 00ae 1B78     		ldrb	r3, [r3]
 1928 00b0 CB18     		add	r3, r1, r3
 1929 00b2 DBB2     		uxtb	r3, r3
 1930 00b4 DB18     		add	r3, r3, r3
 1931 00b6 D9B2     		uxtb	r1, r3
ARM GAS  C:\Users\ADMINI~1\AppData\Local\Temp\ccv1PMEE.s 			page 40


 1932 00b8 4723     		mov	r3, #71
 1933 00ba FB18     		add	r3, r7, r3
 1934 00bc 1A78     		ldrb	r2, [r3]
 1935 00be 0C23     		mov	r3, #12
 1936 00c0 F818     		add	r0, r7, r3
 1937 00c2 131C     		mov	r3, r2
 1938 00c4 5B00     		lsl	r3, r3, #1
 1939 00c6 9B18     		add	r3, r3, r2
 1940 00c8 5B00     		lsl	r3, r3, #1
 1941 00ca C318     		add	r3, r0, r3
 1942 00cc 0433     		add	r3, r3, #4
 1943 00ce 1A78     		ldrb	r2, [r3]
 1944 00d0 3E23     		mov	r3, #62
 1945 00d2 FB18     		add	r3, r7, r3
 1946 00d4 8A18     		add	r2, r1, r2
 1947 00d6 1A70     		strb	r2, [r3]
 259:.\des.c       ****       	a = S[i][h][l];
 1948              		.loc 1 259 0
 1949 00d8 4723     		mov	r3, #71
 1950 00da FB18     		add	r3, r7, r3
 1951 00dc 1C78     		ldrb	r4, [r3]
 1952 00de 3F23     		mov	r3, #63
 1953 00e0 FB18     		add	r3, r7, r3
 1954 00e2 1878     		ldrb	r0, [r3]
 1955 00e4 3E23     		mov	r3, #62
 1956 00e6 FB18     		add	r3, r7, r3
 1957 00e8 1978     		ldrb	r1, [r3]
 1958 00ea 4623     		mov	r3, #70
 1959 00ec FB18     		add	r3, r7, r3
 1960 00ee 354A     		ldr	r2, .L56
 1961 00f0 A400     		lsl	r4, r4, #2
 1962 00f2 2018     		add	r0, r4, r0
 1963 00f4 0001     		lsl	r0, r0, #4
 1964 00f6 4118     		add	r1, r0, r1
 1965 00f8 8A5C     		ldrb	r2, [r1, r2]
 1966 00fa 1A70     		strb	r2, [r3]
 260:.\des.c       ****         
 261:.\des.c       ****     	k=3;
 1967              		.loc 1 261 0
 1968 00fc 0323     		mov	r3, #3
 1969 00fe 3B64     		str	r3, [r7, #64]
 262:.\des.c       ****        	while(a!=0)
 1970              		.loc 1 262 0
 1971 0100 19E0     		b	.L49
 1972              	.L50:
 263:.\des.c       ****      	{
 264:.\des.c       ****       		temp = a%2;
 1973              		.loc 1 264 0
 1974 0102 3D23     		mov	r3, #61
 1975 0104 FB18     		add	r3, r7, r3
 1976 0106 4622     		mov	r2, #70
 1977 0108 BA18     		add	r2, r7, r2
 1978 010a 1278     		ldrb	r2, [r2]
 1979 010c 0121     		mov	r1, #1
 1980 010e 0A40     		and	r2, r1
 1981 0110 1A70     		strb	r2, [r3]
 265:.\des.c       ****         	a = a/2;
ARM GAS  C:\Users\ADMINI~1\AppData\Local\Temp\ccv1PMEE.s 			page 41


 1982              		.loc 1 265 0
 1983 0112 4623     		mov	r3, #70
 1984 0114 FB18     		add	r3, r7, r3
 1985 0116 4622     		mov	r2, #70
 1986 0118 BA18     		add	r2, r7, r2
 1987 011a 1278     		ldrb	r2, [r2]
 1988 011c 5208     		lsr	r2, r2, #1
 1989 011e 1A70     		strb	r2, [r3]
 266:.\des.c       ****          	num[k] = temp;
 1990              		.loc 1 266 0
 1991 0120 0823     		mov	r3, #8
 1992 0122 FA18     		add	r2, r7, r3
 1993 0124 3B6C     		ldr	r3, [r7, #64]
 1994 0126 D318     		add	r3, r2, r3
 1995 0128 3D22     		mov	r2, #61
 1996 012a BA18     		add	r2, r7, r2
 1997 012c 1278     		ldrb	r2, [r2]
 1998 012e 1A70     		strb	r2, [r3]
 267:.\des.c       ****           	k--;
 1999              		.loc 1 267 0
 2000 0130 3B6C     		ldr	r3, [r7, #64]
 2001 0132 013B     		sub	r3, r3, #1
 2002 0134 3B64     		str	r3, [r7, #64]
 2003              	.L49:
 262:.\des.c       ****      	{
 2004              		.loc 1 262 0
 2005 0136 4623     		mov	r3, #70
 2006 0138 FB18     		add	r3, r7, r3
 2007 013a 1B78     		ldrb	r3, [r3]
 2008 013c 002B     		cmp	r3, #0
 2009 013e E0D1     		bne	.L50
 268:.\des.c       ****       	}
 269:.\des.c       ****      	while(k>=0)
 2010              		.loc 1 269 0
 2011 0140 08E0     		b	.L51
 2012              	.L52:
 270:.\des.c       ****       	{
 271:.\des.c       ****         	num[k]=0;
 2013              		.loc 1 271 0
 2014 0142 0823     		mov	r3, #8
 2015 0144 FA18     		add	r2, r7, r3
 2016 0146 3B6C     		ldr	r3, [r7, #64]
 2017 0148 D318     		add	r3, r2, r3
 2018 014a 0022     		mov	r2, #0
 2019 014c 1A70     		strb	r2, [r3]
 272:.\des.c       ****          	k--;
 2020              		.loc 1 272 0
 2021 014e 3B6C     		ldr	r3, [r7, #64]
 2022 0150 013B     		sub	r3, r3, #1
 2023 0152 3B64     		str	r3, [r7, #64]
 2024              	.L51:
 269:.\des.c       ****       	{
 2025              		.loc 1 269 0
 2026 0154 3B6C     		ldr	r3, [r7, #64]
 2027 0156 002B     		cmp	r3, #0
 2028 0158 F3DA     		bge	.L52
 273:.\des.c       ****        	}
ARM GAS  C:\Users\ADMINI~1\AppData\Local\Temp\ccv1PMEE.s 			page 42


 274:.\des.c       ****   		for(j=0;j<4;j++)
 2029              		.loc 1 274 0
 2030 015a 4423     		mov	r3, #68
 2031 015c FB18     		add	r3, r7, r3
 2032 015e 0022     		mov	r2, #0
 2033 0160 1A70     		strb	r2, [r3]
 2034 0162 19E0     		b	.L53
 2035              	.L54:
 275:.\des.c       ****      	{
 276:.\des.c       ****         	k3[m] = num[j];
 2036              		.loc 1 276 0 discriminator 3
 2037 0164 4523     		mov	r3, #69
 2038 0166 FB18     		add	r3, r7, r3
 2039 0168 1B78     		ldrb	r3, [r3]
 2040 016a 3A68     		ldr	r2, [r7]
 2041 016c D318     		add	r3, r2, r3
 2042 016e 4422     		mov	r2, #68
 2043 0170 BA18     		add	r2, r7, r2
 2044 0172 1278     		ldrb	r2, [r2]
 2045 0174 0821     		mov	r1, #8
 2046 0176 7918     		add	r1, r7, r1
 2047 0178 8A5C     		ldrb	r2, [r1, r2]
 2048 017a 1A70     		strb	r2, [r3]
 277:.\des.c       ****           	m++;
 2049              		.loc 1 277 0 discriminator 3
 2050 017c 4523     		mov	r3, #69
 2051 017e FB18     		add	r3, r7, r3
 2052 0180 1A78     		ldrb	r2, [r3]
 2053 0182 4523     		mov	r3, #69
 2054 0184 FB18     		add	r3, r7, r3
 2055 0186 0132     		add	r2, r2, #1
 2056 0188 1A70     		strb	r2, [r3]
 274:.\des.c       ****      	{
 2057              		.loc 1 274 0 discriminator 3
 2058 018a 4423     		mov	r3, #68
 2059 018c FB18     		add	r3, r7, r3
 2060 018e 1A78     		ldrb	r2, [r3]
 2061 0190 4423     		mov	r3, #68
 2062 0192 FB18     		add	r3, r7, r3
 2063 0194 0132     		add	r2, r2, #1
 2064 0196 1A70     		strb	r2, [r3]
 2065              	.L53:
 274:.\des.c       ****      	{
 2066              		.loc 1 274 0 is_stmt 0 discriminator 1
 2067 0198 4423     		mov	r3, #68
 2068 019a FB18     		add	r3, r7, r3
 2069 019c 1B78     		ldrb	r3, [r3]
 2070 019e 032B     		cmp	r3, #3
 2071 01a0 E0D9     		bls	.L54
 255:.\des.c       **** 	{
 2072              		.loc 1 255 0 is_stmt 1 discriminator 2
 2073 01a2 4723     		mov	r3, #71
 2074 01a4 FB18     		add	r3, r7, r3
 2075 01a6 1A78     		ldrb	r2, [r3]
 2076 01a8 4723     		mov	r3, #71
 2077 01aa FB18     		add	r3, r7, r3
 2078 01ac 0132     		add	r2, r2, #1
ARM GAS  C:\Users\ADMINI~1\AppData\Local\Temp\ccv1PMEE.s 			page 43


 2079 01ae 1A70     		strb	r2, [r3]
 2080              	.L48:
 255:.\des.c       **** 	{
 2081              		.loc 1 255 0 is_stmt 0 discriminator 1
 2082 01b0 4723     		mov	r3, #71
 2083 01b2 FB18     		add	r3, r7, r3
 2084 01b4 1B78     		ldrb	r3, [r3]
 2085 01b6 072B     		cmp	r3, #7
 2086 01b8 00D8     		bhi	.LCB1131
 2087 01ba 36E7     		b	.L55	@long jump
 2088              	.LCB1131:
 278:.\des.c       ****      	}
 279:.\des.c       **** 	}
 280:.\des.c       **** }
 2089              		.loc 1 280 0 is_stmt 1
 2090 01bc BD46     		mov	sp, r7
 2091 01be 13B0     		add	sp, sp, #76
 2092              		@ sp needed
 2093 01c0 90BD     		pop	{r4, r7, pc}
 2094              	.L57:
 2095 01c2 C046     		.align	2
 2096              	.L56:
 2097 01c4 00000000 		.word	S
 2098              		.cfi_endproc
 2099              	.LFE43:
 2100              		.size	Schange, .-Schange
 2101              		.section	.text.Pchange,"ax",%progbits
 2102              		.align	2
 2103              		.global	Pchange
 2104              		.code	16
 2105              		.thumb_func
 2106              		.type	Pchange, %function
 2107              	Pchange:
 2108              	.LFB44:
 281:.\des.c       **** //置换运算P
 282:.\des.c       **** void Pchange(uint8 k3[32],uint8 p[32])
 283:.\des.c       **** {
 2109              		.loc 1 283 0
 2110              		.cfi_startproc
 2111 0000 80B5     		push	{r7, lr}
 2112              		.cfi_def_cfa_offset 8
 2113              		.cfi_offset 7, -8
 2114              		.cfi_offset 14, -4
 2115 0002 84B0     		sub	sp, sp, #16
 2116              		.cfi_def_cfa_offset 24
 2117 0004 00AF     		add	r7, sp, #0
 2118              		.cfi_def_cfa_register 7
 2119 0006 7860     		str	r0, [r7, #4]
 2120 0008 3960     		str	r1, [r7]
 284:.\des.c       ****     uint8 i;
 285:.\des.c       ****     for(i=0;i<32;i++)
 2121              		.loc 1 285 0
 2122 000a 0F23     		mov	r3, #15
 2123 000c FB18     		add	r3, r7, r3
 2124 000e 0022     		mov	r2, #0
 2125 0010 1A70     		strb	r2, [r3]
 2126 0012 15E0     		b	.L59
ARM GAS  C:\Users\ADMINI~1\AppData\Local\Temp\ccv1PMEE.s 			page 44


 2127              	.L60:
 286:.\des.c       ****     {
 287:.\des.c       ****         p[i] = k3[P_Table[i]];
 2128              		.loc 1 287 0 discriminator 3
 2129 0014 0F23     		mov	r3, #15
 2130 0016 FB18     		add	r3, r7, r3
 2131 0018 1B78     		ldrb	r3, [r3]
 2132 001a 3A68     		ldr	r2, [r7]
 2133 001c D318     		add	r3, r2, r3
 2134 001e 0F22     		mov	r2, #15
 2135 0020 BA18     		add	r2, r7, r2
 2136 0022 1278     		ldrb	r2, [r2]
 2137 0024 0A49     		ldr	r1, .L61
 2138 0026 8A5C     		ldrb	r2, [r1, r2]
 2139 0028 111C     		mov	r1, r2
 2140 002a 7A68     		ldr	r2, [r7, #4]
 2141 002c 5218     		add	r2, r2, r1
 2142 002e 1278     		ldrb	r2, [r2]
 2143 0030 1A70     		strb	r2, [r3]
 285:.\des.c       ****     {
 2144              		.loc 1 285 0 discriminator 3
 2145 0032 0F23     		mov	r3, #15
 2146 0034 FB18     		add	r3, r7, r3
 2147 0036 1A78     		ldrb	r2, [r3]
 2148 0038 0F23     		mov	r3, #15
 2149 003a FB18     		add	r3, r7, r3
 2150 003c 0132     		add	r2, r2, #1
 2151 003e 1A70     		strb	r2, [r3]
 2152              	.L59:
 285:.\des.c       ****     {
 2153              		.loc 1 285 0 is_stmt 0 discriminator 1
 2154 0040 0F23     		mov	r3, #15
 2155 0042 FB18     		add	r3, r7, r3
 2156 0044 1B78     		ldrb	r3, [r3]
 2157 0046 1F2B     		cmp	r3, #31
 2158 0048 E4D9     		bls	.L60
 288:.\des.c       ****     }
 289:.\des.c       **** }
 2159              		.loc 1 289 0 is_stmt 1
 2160 004a BD46     		mov	sp, r7
 2161 004c 04B0     		add	sp, sp, #16
 2162              		@ sp needed
 2163 004e 80BD     		pop	{r7, pc}
 2164              	.L62:
 2165              		.align	2
 2166              	.L61:
 2167 0050 00000000 		.word	P_Table
 2168              		.cfi_endproc
 2169              	.LFE44:
 2170              		.size	Pchange, .-Pchange
 2171              		.section	.text.extension,"ax",%progbits
 2172              		.align	2
 2173              		.global	extension
 2174              		.code	16
 2175              		.thumb_func
 2176              		.type	extension, %function
 2177              	extension:
ARM GAS  C:\Users\ADMINI~1\AppData\Local\Temp\ccv1PMEE.s 			page 45


 2178              	.LFB45:
 290:.\des.c       **** //拓展变换
 291:.\des.c       **** void extension(uint8 a[32],uint8 b[48])
 292:.\des.c       **** {
 2179              		.loc 1 292 0
 2180              		.cfi_startproc
 2181 0000 80B5     		push	{r7, lr}
 2182              		.cfi_def_cfa_offset 8
 2183              		.cfi_offset 7, -8
 2184              		.cfi_offset 14, -4
 2185 0002 84B0     		sub	sp, sp, #16
 2186              		.cfi_def_cfa_offset 24
 2187 0004 00AF     		add	r7, sp, #0
 2188              		.cfi_def_cfa_register 7
 2189 0006 7860     		str	r0, [r7, #4]
 2190 0008 3960     		str	r1, [r7]
 293:.\des.c       ****     uint8 i;
 294:.\des.c       ****     for(i=0;i<48;i++)
 2191              		.loc 1 294 0
 2192 000a 0F23     		mov	r3, #15
 2193 000c FB18     		add	r3, r7, r3
 2194 000e 0022     		mov	r2, #0
 2195 0010 1A70     		strb	r2, [r3]
 2196 0012 15E0     		b	.L64
 2197              	.L65:
 295:.\des.c       ****     {      
 296:.\des.c       ****         b[i] = a[E_Table[i]];	    
 2198              		.loc 1 296 0 discriminator 3
 2199 0014 0F23     		mov	r3, #15
 2200 0016 FB18     		add	r3, r7, r3
 2201 0018 1B78     		ldrb	r3, [r3]
 2202 001a 3A68     		ldr	r2, [r7]
 2203 001c D318     		add	r3, r2, r3
 2204 001e 0F22     		mov	r2, #15
 2205 0020 BA18     		add	r2, r7, r2
 2206 0022 1278     		ldrb	r2, [r2]
 2207 0024 0A49     		ldr	r1, .L66
 2208 0026 8A5C     		ldrb	r2, [r1, r2]
 2209 0028 111C     		mov	r1, r2
 2210 002a 7A68     		ldr	r2, [r7, #4]
 2211 002c 5218     		add	r2, r2, r1
 2212 002e 1278     		ldrb	r2, [r2]
 2213 0030 1A70     		strb	r2, [r3]
 294:.\des.c       ****     {      
 2214              		.loc 1 294 0 discriminator 3
 2215 0032 0F23     		mov	r3, #15
 2216 0034 FB18     		add	r3, r7, r3
 2217 0036 1A78     		ldrb	r2, [r3]
 2218 0038 0F23     		mov	r3, #15
 2219 003a FB18     		add	r3, r7, r3
 2220 003c 0132     		add	r2, r2, #1
 2221 003e 1A70     		strb	r2, [r3]
 2222              	.L64:
 294:.\des.c       ****     {      
 2223              		.loc 1 294 0 is_stmt 0 discriminator 1
 2224 0040 0F23     		mov	r3, #15
 2225 0042 FB18     		add	r3, r7, r3
ARM GAS  C:\Users\ADMINI~1\AppData\Local\Temp\ccv1PMEE.s 			page 46


 2226 0044 1B78     		ldrb	r3, [r3]
 2227 0046 2F2B     		cmp	r3, #47
 2228 0048 E4D9     		bls	.L65
 297:.\des.c       ****     }
 298:.\des.c       **** }
 2229              		.loc 1 298 0 is_stmt 1
 2230 004a BD46     		mov	sp, r7
 2231 004c 04B0     		add	sp, sp, #16
 2232              		@ sp needed
 2233 004e 80BD     		pop	{r7, pc}
 2234              	.L67:
 2235              		.align	2
 2236              	.L66:
 2237 0050 00000000 		.word	E_Table
 2238              		.cfi_endproc
 2239              	.LFE45:
 2240              		.size	extension, .-extension
 2241              		.section	.text.feistel,"ax",%progbits
 2242              		.align	2
 2243              		.global	feistel
 2244              		.code	16
 2245              		.thumb_func
 2246              		.type	feistel, %function
 2247              	feistel:
 2248              	.LFB46:
 299:.\des.c       **** 
 300:.\des.c       **** void feistel(uint8 R[32], uint8 key[48],uint8 p[32])
 301:.\des.c       **** {
 2249              		.loc 1 301 0
 2250              		.cfi_startproc
 2251 0000 80B5     		push	{r7, lr}
 2252              		.cfi_def_cfa_offset 8
 2253              		.cfi_offset 7, -8
 2254              		.cfi_offset 14, -4
 2255 0002 A4B0     		sub	sp, sp, #144
 2256              		.cfi_def_cfa_offset 152
 2257 0004 00AF     		add	r7, sp, #0
 2258              		.cfi_def_cfa_register 7
 2259 0006 F860     		str	r0, [r7, #12]
 2260 0008 B960     		str	r1, [r7, #8]
 2261 000a 7A60     		str	r2, [r7, #4]
 302:.\des.c       ****     uint8 b[48],k2[48],k3[32];
 303:.\des.c       ****     extension(R,b);
 2262              		.loc 1 303 0
 2263 000c FA68     		ldr	r2, [r7, #12]
 2264 000e 6023     		mov	r3, #96
 2265 0010 FB18     		add	r3, r7, r3
 2266 0012 101C     		mov	r0, r2
 2267 0014 191C     		mov	r1, r3
 2268 0016 FFF7FEFF 		bl	extension
 304:.\des.c       ****     firstXOR(key,b,k2);
 2269              		.loc 1 304 0
 2270 001a B968     		ldr	r1, [r7, #8]
 2271 001c 6023     		mov	r3, #96
 2272 001e FA18     		add	r2, r7, r3
 2273 0020 3023     		mov	r3, #48
 2274 0022 FB18     		add	r3, r7, r3
ARM GAS  C:\Users\ADMINI~1\AppData\Local\Temp\ccv1PMEE.s 			page 47


 2275 0024 081C     		mov	r0, r1
 2276 0026 111C     		mov	r1, r2
 2277 0028 1A1C     		mov	r2, r3
 2278 002a FFF7FEFF 		bl	firstXOR
 305:.\des.c       ****     
 306:.\des.c       ****     Schange(k2,k3);
 2279              		.loc 1 306 0
 2280 002e 3023     		mov	r3, #48
 2281 0030 FA18     		add	r2, r7, r3
 2282 0032 1023     		mov	r3, #16
 2283 0034 FB18     		add	r3, r7, r3
 2284 0036 101C     		mov	r0, r2
 2285 0038 191C     		mov	r1, r3
 2286 003a FFF7FEFF 		bl	Schange
 307:.\des.c       ****     Pchange(k3,p);
 2287              		.loc 1 307 0
 2288 003e 1023     		mov	r3, #16
 2289 0040 FA18     		add	r2, r7, r3
 2290 0042 7B68     		ldr	r3, [r7, #4]
 2291 0044 101C     		mov	r0, r2
 2292 0046 191C     		mov	r1, r3
 2293 0048 FFF7FEFF 		bl	Pchange
 308:.\des.c       **** }
 2294              		.loc 1 308 0
 2295 004c BD46     		mov	sp, r7
 2296 004e 24B0     		add	sp, sp, #144
 2297              		@ sp needed
 2298 0050 80BD     		pop	{r7, pc}
 2299              		.cfi_endproc
 2300              	.LFE46:
 2301              		.size	feistel, .-feistel
 2302 0052 C046     		.section	.text.SecondXOR,"ax",%progbits
 2303              		.align	2
 2304              		.global	SecondXOR
 2305              		.code	16
 2306              		.thumb_func
 2307              		.type	SecondXOR, %function
 2308              	SecondXOR:
 2309              	.LFB47:
 309:.\des.c       **** //第二次异或
 310:.\des.c       **** void SecondXOR(uint8 L[32],uint8 p[32],uint8 R1[32])
 311:.\des.c       **** {
 2310              		.loc 1 311 0
 2311              		.cfi_startproc
 2312 0000 80B5     		push	{r7, lr}
 2313              		.cfi_def_cfa_offset 8
 2314              		.cfi_offset 7, -8
 2315              		.cfi_offset 14, -4
 2316 0002 86B0     		sub	sp, sp, #24
 2317              		.cfi_def_cfa_offset 32
 2318 0004 00AF     		add	r7, sp, #0
 2319              		.cfi_def_cfa_register 7
 2320 0006 F860     		str	r0, [r7, #12]
 2321 0008 B960     		str	r1, [r7, #8]
 2322 000a 7A60     		str	r2, [r7, #4]
 312:.\des.c       ****     uint8 i;
 313:.\des.c       ****     for(i=0;i<32;i++)
ARM GAS  C:\Users\ADMINI~1\AppData\Local\Temp\ccv1PMEE.s 			page 48


 2323              		.loc 1 313 0
 2324 000c 1723     		mov	r3, #23
 2325 000e FB18     		add	r3, r7, r3
 2326 0010 0022     		mov	r2, #0
 2327 0012 1A70     		strb	r2, [r3]
 2328 0014 23E0     		b	.L70
 2329              	.L73:
 314:.\des.c       ****     {
 315:.\des.c       ****         if(L[i]!=p[i])
 2330              		.loc 1 315 0
 2331 0016 1723     		mov	r3, #23
 2332 0018 FB18     		add	r3, r7, r3
 2333 001a 1B78     		ldrb	r3, [r3]
 2334 001c FA68     		ldr	r2, [r7, #12]
 2335 001e D318     		add	r3, r2, r3
 2336 0020 1A78     		ldrb	r2, [r3]
 2337 0022 1723     		mov	r3, #23
 2338 0024 FB18     		add	r3, r7, r3
 2339 0026 1B78     		ldrb	r3, [r3]
 2340 0028 B968     		ldr	r1, [r7, #8]
 2341 002a CB18     		add	r3, r1, r3
 2342 002c 1B78     		ldrb	r3, [r3]
 2343 002e 9A42     		cmp	r2, r3
 2344 0030 07D0     		beq	.L71
 316:.\des.c       ****         {
 317:.\des.c       ****             R1[i] = 1;
 2345              		.loc 1 317 0
 2346 0032 1723     		mov	r3, #23
 2347 0034 FB18     		add	r3, r7, r3
 2348 0036 1B78     		ldrb	r3, [r3]
 2349 0038 7A68     		ldr	r2, [r7, #4]
 2350 003a D318     		add	r3, r2, r3
 2351 003c 0122     		mov	r2, #1
 2352 003e 1A70     		strb	r2, [r3]
 2353 0040 06E0     		b	.L72
 2354              	.L71:
 318:.\des.c       ****         }
 319:.\des.c       ****         else
 320:.\des.c       ****         {
 321:.\des.c       ****             R1[i] = 0;
 2355              		.loc 1 321 0
 2356 0042 1723     		mov	r3, #23
 2357 0044 FB18     		add	r3, r7, r3
 2358 0046 1B78     		ldrb	r3, [r3]
 2359 0048 7A68     		ldr	r2, [r7, #4]
 2360 004a D318     		add	r3, r2, r3
 2361 004c 0022     		mov	r2, #0
 2362 004e 1A70     		strb	r2, [r3]
 2363              	.L72:
 313:.\des.c       ****     {
 2364              		.loc 1 313 0 discriminator 2
 2365 0050 1723     		mov	r3, #23
 2366 0052 FB18     		add	r3, r7, r3
 2367 0054 1A78     		ldrb	r2, [r3]
 2368 0056 1723     		mov	r3, #23
 2369 0058 FB18     		add	r3, r7, r3
 2370 005a 0132     		add	r2, r2, #1
ARM GAS  C:\Users\ADMINI~1\AppData\Local\Temp\ccv1PMEE.s 			page 49


 2371 005c 1A70     		strb	r2, [r3]
 2372              	.L70:
 313:.\des.c       ****     {
 2373              		.loc 1 313 0 is_stmt 0 discriminator 1
 2374 005e 1723     		mov	r3, #23
 2375 0060 FB18     		add	r3, r7, r3
 2376 0062 1B78     		ldrb	r3, [r3]
 2377 0064 1F2B     		cmp	r3, #31
 2378 0066 D6D9     		bls	.L73
 322:.\des.c       ****         }
 323:.\des.c       ****     }
 324:.\des.c       **** }
 2379              		.loc 1 324 0 is_stmt 1
 2380 0068 BD46     		mov	sp, r7
 2381 006a 06B0     		add	sp, sp, #24
 2382              		@ sp needed
 2383 006c 80BD     		pop	{r7, pc}
 2384              		.cfi_endproc
 2385              	.LFE47:
 2386              		.size	SecondXOR, .-SecondXOR
 2387 006e C046     		.section	.text.Split_LR,"ax",%progbits
 2388              		.align	2
 2389              		.global	Split_LR
 2390              		.code	16
 2391              		.thumb_func
 2392              		.type	Split_LR, %function
 2393              	Split_LR:
 2394              	.LFB48:
 325:.\des.c       **** 
 326:.\des.c       **** 
 327:.\des.c       **** /*把明文分成两部分32+32*/
 328:.\des.c       **** void Split_LR(uint8 data[64],uint8 data_L[32],uint8 data_R[32])
 329:.\des.c       **** {
 2395              		.loc 1 329 0
 2396              		.cfi_startproc
 2397 0000 80B5     		push	{r7, lr}
 2398              		.cfi_def_cfa_offset 8
 2399              		.cfi_offset 7, -8
 2400              		.cfi_offset 14, -4
 2401 0002 86B0     		sub	sp, sp, #24
 2402              		.cfi_def_cfa_offset 32
 2403 0004 00AF     		add	r7, sp, #0
 2404              		.cfi_def_cfa_register 7
 2405 0006 F860     		str	r0, [r7, #12]
 2406 0008 B960     		str	r1, [r7, #8]
 2407 000a 7A60     		str	r2, [r7, #4]
 330:.\des.c       **** 	uint8 i,j;
 331:.\des.c       **** 	for(i=0;i<4;i++)
 2408              		.loc 1 331 0
 2409 000c 1723     		mov	r3, #23
 2410 000e FB18     		add	r3, r7, r3
 2411 0010 0022     		mov	r2, #0
 2412 0012 1A70     		strb	r2, [r3]
 2413 0014 48E0     		b	.L75
 2414              	.L78:
 332:.\des.c       **** 	{
 333:.\des.c       **** 		for(j=0;j<8;j++)
ARM GAS  C:\Users\ADMINI~1\AppData\Local\Temp\ccv1PMEE.s 			page 50


 2415              		.loc 1 333 0
 2416 0016 1623     		mov	r3, #22
 2417 0018 FB18     		add	r3, r7, r3
 2418 001a 0022     		mov	r2, #0
 2419 001c 1A70     		strb	r2, [r3]
 2420 001e 37E0     		b	.L76
 2421              	.L77:
 334:.\des.c       ****    		{
 335:.\des.c       ****      		data_L[i*8+j] = data[i*8 + j];
 2422              		.loc 1 335 0 discriminator 3
 2423 0020 1723     		mov	r3, #23
 2424 0022 FB18     		add	r3, r7, r3
 2425 0024 1B78     		ldrb	r3, [r3]
 2426 0026 DA00     		lsl	r2, r3, #3
 2427 0028 1623     		mov	r3, #22
 2428 002a FB18     		add	r3, r7, r3
 2429 002c 1B78     		ldrb	r3, [r3]
 2430 002e D318     		add	r3, r2, r3
 2431 0030 1A1C     		mov	r2, r3
 2432 0032 BB68     		ldr	r3, [r7, #8]
 2433 0034 9B18     		add	r3, r3, r2
 2434 0036 1722     		mov	r2, #23
 2435 0038 BA18     		add	r2, r7, r2
 2436 003a 1278     		ldrb	r2, [r2]
 2437 003c D100     		lsl	r1, r2, #3
 2438 003e 1622     		mov	r2, #22
 2439 0040 BA18     		add	r2, r7, r2
 2440 0042 1278     		ldrb	r2, [r2]
 2441 0044 8A18     		add	r2, r1, r2
 2442 0046 111C     		mov	r1, r2
 2443 0048 FA68     		ldr	r2, [r7, #12]
 2444 004a 5218     		add	r2, r2, r1
 2445 004c 1278     		ldrb	r2, [r2]
 2446 004e 1A70     		strb	r2, [r3]
 336:.\des.c       ****      		data_R[i*8+j] = data[(i+4)*8 + j];
 2447              		.loc 1 336 0 discriminator 3
 2448 0050 1723     		mov	r3, #23
 2449 0052 FB18     		add	r3, r7, r3
 2450 0054 1B78     		ldrb	r3, [r3]
 2451 0056 DA00     		lsl	r2, r3, #3
 2452 0058 1623     		mov	r3, #22
 2453 005a FB18     		add	r3, r7, r3
 2454 005c 1B78     		ldrb	r3, [r3]
 2455 005e D318     		add	r3, r2, r3
 2456 0060 1A1C     		mov	r2, r3
 2457 0062 7B68     		ldr	r3, [r7, #4]
 2458 0064 9B18     		add	r3, r3, r2
 2459 0066 1722     		mov	r2, #23
 2460 0068 BA18     		add	r2, r7, r2
 2461 006a 1278     		ldrb	r2, [r2]
 2462 006c 0432     		add	r2, r2, #4
 2463 006e D100     		lsl	r1, r2, #3
 2464 0070 1622     		mov	r2, #22
 2465 0072 BA18     		add	r2, r7, r2
 2466 0074 1278     		ldrb	r2, [r2]
 2467 0076 8A18     		add	r2, r1, r2
 2468 0078 111C     		mov	r1, r2
ARM GAS  C:\Users\ADMINI~1\AppData\Local\Temp\ccv1PMEE.s 			page 51


 2469 007a FA68     		ldr	r2, [r7, #12]
 2470 007c 5218     		add	r2, r2, r1
 2471 007e 1278     		ldrb	r2, [r2]
 2472 0080 1A70     		strb	r2, [r3]
 333:.\des.c       ****    		{
 2473              		.loc 1 333 0 discriminator 3
 2474 0082 1623     		mov	r3, #22
 2475 0084 FB18     		add	r3, r7, r3
 2476 0086 1A78     		ldrb	r2, [r3]
 2477 0088 1623     		mov	r3, #22
 2478 008a FB18     		add	r3, r7, r3
 2479 008c 0132     		add	r2, r2, #1
 2480 008e 1A70     		strb	r2, [r3]
 2481              	.L76:
 333:.\des.c       ****    		{
 2482              		.loc 1 333 0 is_stmt 0 discriminator 1
 2483 0090 1623     		mov	r3, #22
 2484 0092 FB18     		add	r3, r7, r3
 2485 0094 1B78     		ldrb	r3, [r3]
 2486 0096 072B     		cmp	r3, #7
 2487 0098 C2D9     		bls	.L77
 331:.\des.c       **** 	{
 2488              		.loc 1 331 0 is_stmt 1 discriminator 2
 2489 009a 1723     		mov	r3, #23
 2490 009c FB18     		add	r3, r7, r3
 2491 009e 1A78     		ldrb	r2, [r3]
 2492 00a0 1723     		mov	r3, #23
 2493 00a2 FB18     		add	r3, r7, r3
 2494 00a4 0132     		add	r2, r2, #1
 2495 00a6 1A70     		strb	r2, [r3]
 2496              	.L75:
 331:.\des.c       **** 	{
 2497              		.loc 1 331 0 is_stmt 0 discriminator 1
 2498 00a8 1723     		mov	r3, #23
 2499 00aa FB18     		add	r3, r7, r3
 2500 00ac 1B78     		ldrb	r3, [r3]
 2501 00ae 032B     		cmp	r3, #3
 2502 00b0 B1D9     		bls	.L78
 337:.\des.c       ****      	}
 338:.\des.c       **** 	}
 339:.\des.c       **** }
 2503              		.loc 1 339 0 is_stmt 1
 2504 00b2 BD46     		mov	sp, r7
 2505 00b4 06B0     		add	sp, sp, #24
 2506              		@ sp needed
 2507 00b6 80BD     		pop	{r7, pc}
 2508              		.cfi_endproc
 2509              	.LFE48:
 2510              		.size	Split_LR, .-Split_LR
 2511              		.section	.text.Swap,"ax",%progbits
 2512              		.align	2
 2513              		.global	Swap
 2514              		.code	16
 2515              		.thumb_func
 2516              		.type	Swap, %function
 2517              	Swap:
 2518              	.LFB49:
ARM GAS  C:\Users\ADMINI~1\AppData\Local\Temp\ccv1PMEE.s 			page 52


 340:.\des.c       **** 
 341:.\des.c       **** void Swap(uint8 data_L[32],uint8 data_R[32])
 342:.\des.c       **** {
 2519              		.loc 1 342 0
 2520              		.cfi_startproc
 2521 0000 80B5     		push	{r7, lr}
 2522              		.cfi_def_cfa_offset 8
 2523              		.cfi_offset 7, -8
 2524              		.cfi_offset 14, -4
 2525 0002 84B0     		sub	sp, sp, #16
 2526              		.cfi_def_cfa_offset 24
 2527 0004 00AF     		add	r7, sp, #0
 2528              		.cfi_def_cfa_register 7
 2529 0006 7860     		str	r0, [r7, #4]
 2530 0008 3960     		str	r1, [r7]
 343:.\des.c       **** 	uint8 i;
 344:.\des.c       **** 	for(i=0;i<32;i++)
 2531              		.loc 1 344 0
 2532 000a 0F23     		mov	r3, #15
 2533 000c FB18     		add	r3, r7, r3
 2534 000e 0022     		mov	r2, #0
 2535 0010 1A70     		strb	r2, [r3]
 2536 0012 12E0     		b	.L80
 2537              	.L81:
 345:.\des.c       **** 	{
 346:.\des.c       ****     	data_L[i] = data_R[i];
 2538              		.loc 1 346 0 discriminator 3
 2539 0014 0F23     		mov	r3, #15
 2540 0016 FB18     		add	r3, r7, r3
 2541 0018 1B78     		ldrb	r3, [r3]
 2542 001a 7A68     		ldr	r2, [r7, #4]
 2543 001c D318     		add	r3, r2, r3
 2544 001e 0F22     		mov	r2, #15
 2545 0020 BA18     		add	r2, r7, r2
 2546 0022 1278     		ldrb	r2, [r2]
 2547 0024 3968     		ldr	r1, [r7]
 2548 0026 8A18     		add	r2, r1, r2
 2549 0028 1278     		ldrb	r2, [r2]
 2550 002a 1A70     		strb	r2, [r3]
 344:.\des.c       **** 	{
 2551              		.loc 1 344 0 discriminator 3
 2552 002c 0F23     		mov	r3, #15
 2553 002e FB18     		add	r3, r7, r3
 2554 0030 1A78     		ldrb	r2, [r3]
 2555 0032 0F23     		mov	r3, #15
 2556 0034 FB18     		add	r3, r7, r3
 2557 0036 0132     		add	r2, r2, #1
 2558 0038 1A70     		strb	r2, [r3]
 2559              	.L80:
 344:.\des.c       **** 	{
 2560              		.loc 1 344 0 is_stmt 0 discriminator 1
 2561 003a 0F23     		mov	r3, #15
 2562 003c FB18     		add	r3, r7, r3
 2563 003e 1B78     		ldrb	r3, [r3]
 2564 0040 1F2B     		cmp	r3, #31
 2565 0042 E7D9     		bls	.L81
 347:.\des.c       ****   	}
ARM GAS  C:\Users\ADMINI~1\AppData\Local\Temp\ccv1PMEE.s 			page 53


 348:.\des.c       **** }
 2566              		.loc 1 348 0 is_stmt 1
 2567 0044 BD46     		mov	sp, r7
 2568 0046 04B0     		add	sp, sp, #16
 2569              		@ sp needed
 2570 0048 80BD     		pop	{r7, pc}
 2571              		.cfi_endproc
 2572              	.LFE49:
 2573              		.size	Swap, .-Swap
 2574 004a C046     		.section	.text.BackChange,"ax",%progbits
 2575              		.align	2
 2576              		.global	BackChange
 2577              		.code	16
 2578              		.thumb_func
 2579              		.type	BackChange, %function
 2580              	BackChange:
 2581              	.LFB50:
 349:.\des.c       **** //逆初始置换
 350:.\des.c       **** void BackChange(uint8 data_L[32],uint8 data_R[32],uint8 data[64])
 351:.\des.c       **** {
 2582              		.loc 1 351 0
 2583              		.cfi_startproc
 2584 0000 80B5     		push	{r7, lr}
 2585              		.cfi_def_cfa_offset 8
 2586              		.cfi_offset 7, -8
 2587              		.cfi_offset 14, -4
 2588 0002 96B0     		sub	sp, sp, #88
 2589              		.cfi_def_cfa_offset 96
 2590 0004 00AF     		add	r7, sp, #0
 2591              		.cfi_def_cfa_register 7
 2592 0006 F860     		str	r0, [r7, #12]
 2593 0008 B960     		str	r1, [r7, #8]
 2594 000a 7A60     		str	r2, [r7, #4]
 352:.\des.c       **** 	uint8 a[64];
 353:.\des.c       **** 	uint8 i;
 354:.\des.c       **** 	for(i=0;i<32;i++)
 2595              		.loc 1 354 0
 2596 000c 5723     		mov	r3, #87
 2597 000e FB18     		add	r3, r7, r3
 2598 0010 0022     		mov	r2, #0
 2599 0012 1A70     		strb	r2, [r3]
 2600 0014 1FE0     		b	.L83
 2601              	.L84:
 355:.\des.c       ****    	{
 356:.\des.c       ****    		a[i] = data_L[i];
 2602              		.loc 1 356 0 discriminator 3
 2603 0016 5723     		mov	r3, #87
 2604 0018 FB18     		add	r3, r7, r3
 2605 001a 1B78     		ldrb	r3, [r3]
 2606 001c 5722     		mov	r2, #87
 2607 001e BA18     		add	r2, r7, r2
 2608 0020 1278     		ldrb	r2, [r2]
 2609 0022 F968     		ldr	r1, [r7, #12]
 2610 0024 8A18     		add	r2, r1, r2
 2611 0026 1178     		ldrb	r1, [r2]
 2612 0028 1422     		mov	r2, #20
 2613 002a BA18     		add	r2, r7, r2
ARM GAS  C:\Users\ADMINI~1\AppData\Local\Temp\ccv1PMEE.s 			page 54


 2614 002c D154     		strb	r1, [r2, r3]
 357:.\des.c       ****     	a[32+i] = data_R[i];
 2615              		.loc 1 357 0 discriminator 3
 2616 002e 5723     		mov	r3, #87
 2617 0030 FB18     		add	r3, r7, r3
 2618 0032 1B78     		ldrb	r3, [r3]
 2619 0034 2033     		add	r3, r3, #32
 2620 0036 5722     		mov	r2, #87
 2621 0038 BA18     		add	r2, r7, r2
 2622 003a 1278     		ldrb	r2, [r2]
 2623 003c B968     		ldr	r1, [r7, #8]
 2624 003e 8A18     		add	r2, r1, r2
 2625 0040 1178     		ldrb	r1, [r2]
 2626 0042 1422     		mov	r2, #20
 2627 0044 BA18     		add	r2, r7, r2
 2628 0046 D154     		strb	r1, [r2, r3]
 354:.\des.c       ****    	{
 2629              		.loc 1 354 0 discriminator 3
 2630 0048 5723     		mov	r3, #87
 2631 004a FB18     		add	r3, r7, r3
 2632 004c 1A78     		ldrb	r2, [r3]
 2633 004e 5723     		mov	r3, #87
 2634 0050 FB18     		add	r3, r7, r3
 2635 0052 0132     		add	r2, r2, #1
 2636 0054 1A70     		strb	r2, [r3]
 2637              	.L83:
 354:.\des.c       ****    	{
 2638              		.loc 1 354 0 is_stmt 0 discriminator 1
 2639 0056 5723     		mov	r3, #87
 2640 0058 FB18     		add	r3, r7, r3
 2641 005a 1B78     		ldrb	r3, [r3]
 2642 005c 1F2B     		cmp	r3, #31
 2643 005e DAD9     		bls	.L84
 358:.\des.c       ****  	}
 359:.\des.c       **** 	for(i=0;i<64;i++)
 2644              		.loc 1 359 0 is_stmt 1
 2645 0060 5723     		mov	r3, #87
 2646 0062 FB18     		add	r3, r7, r3
 2647 0064 0022     		mov	r2, #0
 2648 0066 1A70     		strb	r2, [r3]
 2649 0068 15E0     		b	.L85
 2650              	.L86:
 360:.\des.c       **** 	{
 361:.\des.c       ****  		data[i] = a[IP_1_Table[i]];
 2651              		.loc 1 361 0 discriminator 3
 2652 006a 5723     		mov	r3, #87
 2653 006c FB18     		add	r3, r7, r3
 2654 006e 1B78     		ldrb	r3, [r3]
 2655 0070 7A68     		ldr	r2, [r7, #4]
 2656 0072 D318     		add	r3, r2, r3
 2657 0074 5722     		mov	r2, #87
 2658 0076 BA18     		add	r2, r7, r2
 2659 0078 1278     		ldrb	r2, [r2]
 2660 007a 0B49     		ldr	r1, .L87
 2661 007c 8A5C     		ldrb	r2, [r1, r2]
 2662 007e 111C     		mov	r1, r2
 2663 0080 1422     		mov	r2, #20
ARM GAS  C:\Users\ADMINI~1\AppData\Local\Temp\ccv1PMEE.s 			page 55


 2664 0082 BA18     		add	r2, r7, r2
 2665 0084 525C     		ldrb	r2, [r2, r1]
 2666 0086 1A70     		strb	r2, [r3]
 359:.\des.c       **** 	{
 2667              		.loc 1 359 0 discriminator 3
 2668 0088 5723     		mov	r3, #87
 2669 008a FB18     		add	r3, r7, r3
 2670 008c 1A78     		ldrb	r2, [r3]
 2671 008e 5723     		mov	r3, #87
 2672 0090 FB18     		add	r3, r7, r3
 2673 0092 0132     		add	r2, r2, #1
 2674 0094 1A70     		strb	r2, [r3]
 2675              	.L85:
 359:.\des.c       **** 	{
 2676              		.loc 1 359 0 is_stmt 0 discriminator 1
 2677 0096 5723     		mov	r3, #87
 2678 0098 FB18     		add	r3, r7, r3
 2679 009a 1B78     		ldrb	r3, [r3]
 2680 009c 3F2B     		cmp	r3, #63
 2681 009e E4D9     		bls	.L86
 362:.\des.c       ****   	}
 363:.\des.c       **** }
 2682              		.loc 1 363 0 is_stmt 1
 2683 00a0 BD46     		mov	sp, r7
 2684 00a2 16B0     		add	sp, sp, #88
 2685              		@ sp needed
 2686 00a4 80BD     		pop	{r7, pc}
 2687              	.L88:
 2688 00a6 C046     		.align	2
 2689              	.L87:
 2690 00a8 00000000 		.word	IP_1_Table
 2691              		.cfi_endproc
 2692              	.LFE50:
 2693              		.size	BackChange, .-BackChange
 2694              		.section	.text.BitToByte,"ax",%progbits
 2695              		.align	2
 2696              		.global	BitToByte
 2697              		.code	16
 2698              		.thumb_func
 2699              		.type	BitToByte, %function
 2700              	BitToByte:
 2701              	.LFB51:
 364:.\des.c       **** 
 365:.\des.c       **** //二进制转换成字节  
 366:.\des.c       **** uint8 BitToByte(uint8 *bit)
 367:.\des.c       **** {  
 2702              		.loc 1 367 0
 2703              		.cfi_startproc
 2704 0000 80B5     		push	{r7, lr}
 2705              		.cfi_def_cfa_offset 8
 2706              		.cfi_offset 7, -8
 2707              		.cfi_offset 14, -4
 2708 0002 84B0     		sub	sp, sp, #16
 2709              		.cfi_def_cfa_offset 24
 2710 0004 00AF     		add	r7, sp, #0
 2711              		.cfi_def_cfa_register 7
 2712 0006 7860     		str	r0, [r7, #4]
ARM GAS  C:\Users\ADMINI~1\AppData\Local\Temp\ccv1PMEE.s 			page 56


 368:.\des.c       ****     uint8 cnt;
 369:.\des.c       ****     uint8 data=0;  
 2713              		.loc 1 369 0
 2714 0008 0E23     		mov	r3, #14
 2715 000a FB18     		add	r3, r7, r3
 2716 000c 0022     		mov	r2, #0
 2717 000e 1A70     		strb	r2, [r3]
 370:.\des.c       ****     for(cnt = 0; cnt < 8; cnt++)
 2718              		.loc 1 370 0
 2719 0010 0F23     		mov	r3, #15
 2720 0012 FB18     		add	r3, r7, r3
 2721 0014 0022     		mov	r2, #0
 2722 0016 1A70     		strb	r2, [r3]
 2723 0018 1DE0     		b	.L90
 2724              	.L91:
 371:.\des.c       ****     {  
 372:.\des.c       ****         data |= bit[cnt] << (7 - cnt);  
 2725              		.loc 1 372 0 discriminator 3
 2726 001a 0F23     		mov	r3, #15
 2727 001c FB18     		add	r3, r7, r3
 2728 001e 1B78     		ldrb	r3, [r3]
 2729 0020 7A68     		ldr	r2, [r7, #4]
 2730 0022 D318     		add	r3, r2, r3
 2731 0024 1B78     		ldrb	r3, [r3]
 2732 0026 191C     		mov	r1, r3
 2733 0028 0F23     		mov	r3, #15
 2734 002a FB18     		add	r3, r7, r3
 2735 002c 1B78     		ldrb	r3, [r3]
 2736 002e 0722     		mov	r2, #7
 2737 0030 D31A     		sub	r3, r2, r3
 2738 0032 9940     		lsl	r1, r1, r3
 2739 0034 0B1C     		mov	r3, r1
 2740 0036 DAB2     		uxtb	r2, r3
 2741 0038 0E23     		mov	r3, #14
 2742 003a FB18     		add	r3, r7, r3
 2743 003c 1B78     		ldrb	r3, [r3]
 2744 003e 1343     		orr	r3, r2
 2745 0040 DAB2     		uxtb	r2, r3
 2746 0042 0E23     		mov	r3, #14
 2747 0044 FB18     		add	r3, r7, r3
 2748 0046 1A70     		strb	r2, [r3]
 370:.\des.c       ****     for(cnt = 0; cnt < 8; cnt++)
 2749              		.loc 1 370 0 discriminator 3
 2750 0048 0F23     		mov	r3, #15
 2751 004a FB18     		add	r3, r7, r3
 2752 004c 1A78     		ldrb	r2, [r3]
 2753 004e 0F23     		mov	r3, #15
 2754 0050 FB18     		add	r3, r7, r3
 2755 0052 0132     		add	r2, r2, #1
 2756 0054 1A70     		strb	r2, [r3]
 2757              	.L90:
 370:.\des.c       ****     for(cnt = 0; cnt < 8; cnt++)
 2758              		.loc 1 370 0 is_stmt 0 discriminator 1
 2759 0056 0F23     		mov	r3, #15
 2760 0058 FB18     		add	r3, r7, r3
 2761 005a 1B78     		ldrb	r3, [r3]
 2762 005c 072B     		cmp	r3, #7
ARM GAS  C:\Users\ADMINI~1\AppData\Local\Temp\ccv1PMEE.s 			page 57


 2763 005e DCD9     		bls	.L91
 373:.\des.c       ****     }   
 374:.\des.c       ****     return data;
 2764              		.loc 1 374 0 is_stmt 1
 2765 0060 0E23     		mov	r3, #14
 2766 0062 FB18     		add	r3, r7, r3
 2767 0064 1B78     		ldrb	r3, [r3]
 375:.\des.c       **** }  
 2768              		.loc 1 375 0
 2769 0066 181C     		mov	r0, r3
 2770 0068 BD46     		mov	sp, r7
 2771 006a 04B0     		add	sp, sp, #16
 2772              		@ sp needed
 2773 006c 80BD     		pop	{r7, pc}
 2774              		.cfi_endproc
 2775              	.LFE51:
 2776              		.size	BitToByte, .-BitToByte
 2777 006e C046     		.section	.text.GetLR,"ax",%progbits
 2778              		.align	2
 2779              		.global	GetLR
 2780              		.code	16
 2781              		.thumb_func
 2782              		.type	GetLR, %function
 2783              	GetLR:
 2784              	.LFB52:
 376:.\des.c       **** //提取明文信息,转为左右两部分
 377:.\des.c       **** void GetLR(uint8 data[8],uint8 data_L[32],uint8 data_R[32])
 378:.\des.c       **** {
 2785              		.loc 1 378 0
 2786              		.cfi_startproc
 2787 0000 80B5     		push	{r7, lr}
 2788              		.cfi_def_cfa_offset 8
 2789              		.cfi_offset 7, -8
 2790              		.cfi_offset 14, -4
 2791 0002 A4B0     		sub	sp, sp, #144
 2792              		.cfi_def_cfa_offset 152
 2793 0004 00AF     		add	r7, sp, #0
 2794              		.cfi_def_cfa_register 7
 2795 0006 F860     		str	r0, [r7, #12]
 2796 0008 B960     		str	r1, [r7, #8]
 2797 000a 7A60     		str	r2, [r7, #4]
 379:.\des.c       ****     uint8 minwen[64];
 380:.\des.c       ****     uint8 buffer[64];
 381:.\des.c       ****     
 382:.\des.c       ****     ByteToBit(data,minwen);         //数据转成二进制数组
 2798              		.loc 1 382 0
 2799 000c FA68     		ldr	r2, [r7, #12]
 2800 000e 5023     		mov	r3, #80
 2801 0010 FB18     		add	r3, r7, r3
 2802 0012 101C     		mov	r0, r2
 2803 0014 191C     		mov	r1, r3
 2804 0016 FFF7FEFF 		bl	ByteToBit
 383:.\des.c       ****     BeginChange(minwen,buffer);     //初始化置换
 2805              		.loc 1 383 0
 2806 001a 5023     		mov	r3, #80
 2807 001c FA18     		add	r2, r7, r3
 2808 001e 1023     		mov	r3, #16
ARM GAS  C:\Users\ADMINI~1\AppData\Local\Temp\ccv1PMEE.s 			page 58


 2809 0020 FB18     		add	r3, r7, r3
 2810 0022 101C     		mov	r0, r2
 2811 0024 191C     		mov	r1, r3
 2812 0026 FFF7FEFF 		bl	BeginChange
 384:.\des.c       ****     Split_LR(buffer,data_L,data_R); //将数据拆分为L和R两部分
 2813              		.loc 1 384 0
 2814 002a 1023     		mov	r3, #16
 2815 002c F918     		add	r1, r7, r3
 2816 002e BA68     		ldr	r2, [r7, #8]
 2817 0030 7B68     		ldr	r3, [r7, #4]
 2818 0032 081C     		mov	r0, r1
 2819 0034 111C     		mov	r1, r2
 2820 0036 1A1C     		mov	r2, r3
 2821 0038 FFF7FEFF 		bl	Split_LR
 385:.\des.c       **** }
 2822              		.loc 1 385 0
 2823 003c BD46     		mov	sp, r7
 2824 003e 24B0     		add	sp, sp, #144
 2825              		@ sp needed
 2826 0040 80BD     		pop	{r7, pc}
 2827              		.cfi_endproc
 2828              	.LFE52:
 2829              		.size	GetLR, .-GetLR
 2830 0042 C046     		.section	.text.DES_Encrypt,"ax",%progbits
 2831              		.align	2
 2832              		.global	DES_Encrypt
 2833              		.code	16
 2834              		.thumb_func
 2835              		.type	DES_Encrypt, %function
 2836              	DES_Encrypt:
 2837              	.LFB53:
 386:.\des.c       **** 
 387:.\des.c       **** void DES_Encrypt(uint8 Data_Mw[8],uint8 Data_Key[8],uint8 Data_Cipher[8])
 388:.\des.c       **** {     
 2838              		.loc 1 388 0
 2839              		.cfi_startproc
 2840 0000 90B5     		push	{r4, r7, lr}
 2841              		.cfi_def_cfa_offset 12
 2842              		.cfi_offset 4, -12
 2843              		.cfi_offset 7, -8
 2844              		.cfi_offset 14, -4
 2845 0002 D3B0     		sub	sp, sp, #332
 2846              		.cfi_def_cfa_offset 344
 2847 0004 00AF     		add	r7, sp, #0
 2848              		.cfi_def_cfa_register 7
 2849 0006 F860     		str	r0, [r7, #12]
 2850 0008 B960     		str	r1, [r7, #8]
 2851 000a 7A60     		str	r2, [r7, #4]
 389:.\des.c       ****     uint8 i;
 390:.\des.c       ****     uint8 MY[64];       //秘钥
 391:.\des.c       ****     uint8 L[32];        //左边加密部分
 392:.\des.c       ****     uint8 R[32];        //右边加密部分
 393:.\des.c       ****     uint8 R1[32];       
 394:.\des.c       ****     uint8 key[48];      //生成的秘钥
 395:.\des.c       ****     uint8 p[32];
 396:.\des.c       ****     uint8 secret[64];   //密文二进制表示
 397:.\des.c       ****    
ARM GAS  C:\Users\ADMINI~1\AppData\Local\Temp\ccv1PMEE.s 			page 59


 398:.\des.c       ****     GetLR(Data_Mw,L,R);  //提取明文信息
 2852              		.loc 1 398 0
 2853 000c F968     		ldr	r1, [r7, #12]
 2854 000e E423     		mov	r3, #228
 2855 0010 FA18     		add	r2, r7, r3
 2856 0012 C423     		mov	r3, #196
 2857 0014 FB18     		add	r3, r7, r3
 2858 0016 081C     		mov	r0, r1
 2859 0018 111C     		mov	r1, r2
 2860 001a 1A1C     		mov	r2, r3
 2861 001c FFF7FEFF 		bl	GetLR
 399:.\des.c       ****     ByteToBit(Data_Key,MY);
 2862              		.loc 1 399 0
 2863 0020 BA68     		ldr	r2, [r7, #8]
 2864 0022 7B1D     		add	r3, r7, #5
 2865 0024 FF33     		add	r3, r3, #255
 2866 0026 101C     		mov	r0, r2
 2867 0028 191C     		mov	r1, r3
 2868 002a FFF7FEFF 		bl	ByteToBit
 400:.\des.c       ****     
 401:.\des.c       ****     for(i=1; i <= 16; i++)
 2869              		.loc 1 401 0
 2870 002e 4823     		mov	r3, #72
 2871 0030 FF33     		add	r3, r3, #255
 2872 0032 FB18     		add	r3, r7, r3
 2873 0034 0122     		mov	r2, #1
 2874 0036 1A70     		strb	r2, [r3]
 2875 0038 4AE0     		b	.L95
 2876              	.L98:
 402:.\des.c       ****     {
 403:.\des.c       ****         CreatKey(MY,i,key);//true
 2877              		.loc 1 403 0
 2878 003a 791D     		add	r1, r7, #5
 2879 003c FF31     		add	r1, r1, #255
 2880 003e 4823     		mov	r3, #72
 2881 0040 FF33     		add	r3, r3, #255
 2882 0042 FB18     		add	r3, r7, r3
 2883 0044 1A78     		ldrb	r2, [r3]
 2884 0046 7423     		mov	r3, #116
 2885 0048 FB18     		add	r3, r7, r3
 2886 004a 081C     		mov	r0, r1
 2887 004c 111C     		mov	r1, r2
 2888 004e 1A1C     		mov	r2, r3
 2889 0050 FFF7FEFF 		bl	CreatKey
 404:.\des.c       ****         feistel(R,key,p);
 2890              		.loc 1 404 0
 2891 0054 C423     		mov	r3, #196
 2892 0056 F918     		add	r1, r7, r3
 2893 0058 7423     		mov	r3, #116
 2894 005a FA18     		add	r2, r7, r3
 2895 005c 5423     		mov	r3, #84
 2896 005e FB18     		add	r3, r7, r3
 2897 0060 081C     		mov	r0, r1
 2898 0062 111C     		mov	r1, r2
 2899 0064 1A1C     		mov	r2, r3
 2900 0066 FFF7FEFF 		bl	feistel
 405:.\des.c       ****         SecondXOR(L,p,R1);
ARM GAS  C:\Users\ADMINI~1\AppData\Local\Temp\ccv1PMEE.s 			page 60


 2901              		.loc 1 405 0
 2902 006a E423     		mov	r3, #228
 2903 006c F918     		add	r1, r7, r3
 2904 006e 5423     		mov	r3, #84
 2905 0070 FA18     		add	r2, r7, r3
 2906 0072 A423     		mov	r3, #164
 2907 0074 FB18     		add	r3, r7, r3
 2908 0076 081C     		mov	r0, r1
 2909 0078 111C     		mov	r1, r2
 2910 007a 1A1C     		mov	r2, r3
 2911 007c FFF7FEFF 		bl	SecondXOR
 406:.\des.c       ****         if(i != 16)
 2912              		.loc 1 406 0
 2913 0080 4823     		mov	r3, #72
 2914 0082 FF33     		add	r3, r3, #255
 2915 0084 FB18     		add	r3, r7, r3
 2916 0086 1B78     		ldrb	r3, [r3]
 2917 0088 102B     		cmp	r3, #16
 2918 008a 10D0     		beq	.L96
 407:.\des.c       ****         {
 408:.\des.c       ****             Swap(L,R);
 2919              		.loc 1 408 0
 2920 008c E423     		mov	r3, #228
 2921 008e FA18     		add	r2, r7, r3
 2922 0090 C423     		mov	r3, #196
 2923 0092 FB18     		add	r3, r7, r3
 2924 0094 101C     		mov	r0, r2
 2925 0096 191C     		mov	r1, r3
 2926 0098 FFF7FEFF 		bl	Swap
 409:.\des.c       ****             Swap(R,R1);
 2927              		.loc 1 409 0
 2928 009c C423     		mov	r3, #196
 2929 009e FA18     		add	r2, r7, r3
 2930 00a0 A423     		mov	r3, #164
 2931 00a2 FB18     		add	r3, r7, r3
 2932 00a4 101C     		mov	r0, r2
 2933 00a6 191C     		mov	r1, r3
 2934 00a8 FFF7FEFF 		bl	Swap
 2935 00ac 07E0     		b	.L97
 2936              	.L96:
 410:.\des.c       ****         }
 411:.\des.c       ****         else
 412:.\des.c       ****         {
 413:.\des.c       ****             Swap(L,R1);
 2937              		.loc 1 413 0
 2938 00ae E423     		mov	r3, #228
 2939 00b0 FA18     		add	r2, r7, r3
 2940 00b2 A423     		mov	r3, #164
 2941 00b4 FB18     		add	r3, r7, r3
 2942 00b6 101C     		mov	r0, r2
 2943 00b8 191C     		mov	r1, r3
 2944 00ba FFF7FEFF 		bl	Swap
 2945              	.L97:
 401:.\des.c       ****     {
 2946              		.loc 1 401 0 discriminator 2
 2947 00be 4823     		mov	r3, #72
 2948 00c0 FF33     		add	r3, r3, #255
ARM GAS  C:\Users\ADMINI~1\AppData\Local\Temp\ccv1PMEE.s 			page 61


 2949 00c2 FB18     		add	r3, r7, r3
 2950 00c4 1A78     		ldrb	r2, [r3]
 2951 00c6 4823     		mov	r3, #72
 2952 00c8 FF33     		add	r3, r3, #255
 2953 00ca FB18     		add	r3, r7, r3
 2954 00cc 0132     		add	r2, r2, #1
 2955 00ce 1A70     		strb	r2, [r3]
 2956              	.L95:
 401:.\des.c       ****     {
 2957              		.loc 1 401 0 is_stmt 0 discriminator 1
 2958 00d0 4823     		mov	r3, #72
 2959 00d2 FF33     		add	r3, r3, #255
 2960 00d4 FB18     		add	r3, r7, r3
 2961 00d6 1B78     		ldrb	r3, [r3]
 2962 00d8 102B     		cmp	r3, #16
 2963 00da AED9     		bls	.L98
 414:.\des.c       ****         }
 415:.\des.c       ****     }
 416:.\des.c       ****        
 417:.\des.c       ****     BackChange(L,R,secret);
 2964              		.loc 1 417 0 is_stmt 1
 2965 00dc E423     		mov	r3, #228
 2966 00de F918     		add	r1, r7, r3
 2967 00e0 C423     		mov	r3, #196
 2968 00e2 FA18     		add	r2, r7, r3
 2969 00e4 1423     		mov	r3, #20
 2970 00e6 FB18     		add	r3, r7, r3
 2971 00e8 081C     		mov	r0, r1
 2972 00ea 111C     		mov	r1, r2
 2973 00ec 1A1C     		mov	r2, r3
 2974 00ee FFF7FEFF 		bl	BackChange
 418:.\des.c       ****     for(i=0; i < 8; i++)
 2975              		.loc 1 418 0
 2976 00f2 4823     		mov	r3, #72
 2977 00f4 FF33     		add	r3, r3, #255
 2978 00f6 FB18     		add	r3, r7, r3
 2979 00f8 0022     		mov	r2, #0
 2980 00fa 1A70     		strb	r2, [r3]
 2981 00fc 1CE0     		b	.L99
 2982              	.L100:
 419:.\des.c       ****     {    
 420:.\des.c       ****         Data_Cipher[i] = BitToByte(secret + i*8);
 2983              		.loc 1 420 0 discriminator 3
 2984 00fe 4823     		mov	r3, #72
 2985 0100 FF33     		add	r3, r3, #255
 2986 0102 FB18     		add	r3, r7, r3
 2987 0104 1B78     		ldrb	r3, [r3]
 2988 0106 7A68     		ldr	r2, [r7, #4]
 2989 0108 D418     		add	r4, r2, r3
 2990 010a 4823     		mov	r3, #72
 2991 010c FF33     		add	r3, r3, #255
 2992 010e FB18     		add	r3, r7, r3
 2993 0110 1B78     		ldrb	r3, [r3]
 2994 0112 DB00     		lsl	r3, r3, #3
 2995 0114 1A1C     		mov	r2, r3
 2996 0116 1423     		mov	r3, #20
 2997 0118 FB18     		add	r3, r7, r3
ARM GAS  C:\Users\ADMINI~1\AppData\Local\Temp\ccv1PMEE.s 			page 62


 2998 011a 9B18     		add	r3, r3, r2
 2999 011c 181C     		mov	r0, r3
 3000 011e FFF7FEFF 		bl	BitToByte
 3001 0122 031C     		mov	r3, r0
 3002 0124 2370     		strb	r3, [r4]
 418:.\des.c       ****     for(i=0; i < 8; i++)
 3003              		.loc 1 418 0 discriminator 3
 3004 0126 4823     		mov	r3, #72
 3005 0128 FF33     		add	r3, r3, #255
 3006 012a FB18     		add	r3, r7, r3
 3007 012c 1A78     		ldrb	r2, [r3]
 3008 012e 4823     		mov	r3, #72
 3009 0130 FF33     		add	r3, r3, #255
 3010 0132 FB18     		add	r3, r7, r3
 3011 0134 0132     		add	r2, r2, #1
 3012 0136 1A70     		strb	r2, [r3]
 3013              	.L99:
 418:.\des.c       ****     for(i=0; i < 8; i++)
 3014              		.loc 1 418 0 is_stmt 0 discriminator 1
 3015 0138 4823     		mov	r3, #72
 3016 013a FF33     		add	r3, r3, #255
 3017 013c FB18     		add	r3, r7, r3
 3018 013e 1B78     		ldrb	r3, [r3]
 3019 0140 072B     		cmp	r3, #7
 3020 0142 DCD9     		bls	.L100
 421:.\des.c       ****     }
 422:.\des.c       **** } 
 3021              		.loc 1 422 0 is_stmt 1
 3022 0144 BD46     		mov	sp, r7
 3023 0146 53B0     		add	sp, sp, #332
 3024              		@ sp needed
 3025 0148 90BD     		pop	{r4, r7, pc}
 3026              		.cfi_endproc
 3027              	.LFE53:
 3028              		.size	DES_Encrypt, .-DES_Encrypt
 3029 014a C046     		.section	.text.DES_Decrypt,"ax",%progbits
 3030              		.align	2
 3031              		.global	DES_Decrypt
 3032              		.code	16
 3033              		.thumb_func
 3034              		.type	DES_Decrypt, %function
 3035              	DES_Decrypt:
 3036              	.LFB54:
 423:.\des.c       **** 
 424:.\des.c       **** 
 425:.\des.c       **** void DES_Decrypt(uint8 Data_Cipher[8],uint8 Data_Key[8],uint8 Data_Mw[8])
 426:.\des.c       **** {
 3037              		.loc 1 426 0
 3038              		.cfi_startproc
 3039 0000 90B5     		push	{r4, r7, lr}
 3040              		.cfi_def_cfa_offset 12
 3041              		.cfi_offset 4, -12
 3042              		.cfi_offset 7, -8
 3043              		.cfi_offset 14, -4
 3044 0002 D3B0     		sub	sp, sp, #332
 3045              		.cfi_def_cfa_offset 344
 3046 0004 00AF     		add	r7, sp, #0
ARM GAS  C:\Users\ADMINI~1\AppData\Local\Temp\ccv1PMEE.s 			page 63


 3047              		.cfi_def_cfa_register 7
 3048 0006 F860     		str	r0, [r7, #12]
 3049 0008 B960     		str	r1, [r7, #8]
 3050 000a 7A60     		str	r2, [r7, #4]
 427:.\des.c       ****     uint8 i;
 428:.\des.c       ****     uint8 MY[64];       //秘钥
 429:.\des.c       ****     uint8 L[32];        //左边加密部分
 430:.\des.c       ****     uint8 R[32];        //右边加密部分
 431:.\des.c       ****     uint8 R1[32];       
 432:.\des.c       ****     uint8 key[48];      //生成的秘钥
 433:.\des.c       ****     uint8 p[32];
 434:.\des.c       ****     uint8 minwen[64];   //明文二进制表示    
 435:.\des.c       **** 
 436:.\des.c       ****     GetLR(Data_Cipher,L,R);  //提取明文信息
 3051              		.loc 1 436 0
 3052 000c F968     		ldr	r1, [r7, #12]
 3053 000e E423     		mov	r3, #228
 3054 0010 FA18     		add	r2, r7, r3
 3055 0012 C423     		mov	r3, #196
 3056 0014 FB18     		add	r3, r7, r3
 3057 0016 081C     		mov	r0, r1
 3058 0018 111C     		mov	r1, r2
 3059 001a 1A1C     		mov	r2, r3
 3060 001c FFF7FEFF 		bl	GetLR
 437:.\des.c       ****     ByteToBit(Data_Key,MY);
 3061              		.loc 1 437 0
 3062 0020 BA68     		ldr	r2, [r7, #8]
 3063 0022 7B1D     		add	r3, r7, #5
 3064 0024 FF33     		add	r3, r3, #255
 3065 0026 101C     		mov	r0, r2
 3066 0028 191C     		mov	r1, r3
 3067 002a FFF7FEFF 		bl	ByteToBit
 438:.\des.c       ****     
 439:.\des.c       **** 
 440:.\des.c       ****     for(i=16; i > 0; i--)
 3068              		.loc 1 440 0
 3069 002e 4823     		mov	r3, #72
 3070 0030 FF33     		add	r3, r3, #255
 3071 0032 FB18     		add	r3, r7, r3
 3072 0034 1022     		mov	r2, #16
 3073 0036 1A70     		strb	r2, [r3]
 3074 0038 4AE0     		b	.L102
 3075              	.L105:
 441:.\des.c       ****     {
 442:.\des.c       ****         CreatKey(MY,i,key);//true
 3076              		.loc 1 442 0
 3077 003a 791D     		add	r1, r7, #5
 3078 003c FF31     		add	r1, r1, #255
 3079 003e 4823     		mov	r3, #72
 3080 0040 FF33     		add	r3, r3, #255
 3081 0042 FB18     		add	r3, r7, r3
 3082 0044 1A78     		ldrb	r2, [r3]
 3083 0046 7423     		mov	r3, #116
 3084 0048 FB18     		add	r3, r7, r3
 3085 004a 081C     		mov	r0, r1
 3086 004c 111C     		mov	r1, r2
 3087 004e 1A1C     		mov	r2, r3
ARM GAS  C:\Users\ADMINI~1\AppData\Local\Temp\ccv1PMEE.s 			page 64


 3088 0050 FFF7FEFF 		bl	CreatKey
 443:.\des.c       ****         feistel(R,key,p);
 3089              		.loc 1 443 0
 3090 0054 C423     		mov	r3, #196
 3091 0056 F918     		add	r1, r7, r3
 3092 0058 7423     		mov	r3, #116
 3093 005a FA18     		add	r2, r7, r3
 3094 005c 5423     		mov	r3, #84
 3095 005e FB18     		add	r3, r7, r3
 3096 0060 081C     		mov	r0, r1
 3097 0062 111C     		mov	r1, r2
 3098 0064 1A1C     		mov	r2, r3
 3099 0066 FFF7FEFF 		bl	feistel
 444:.\des.c       ****         SecondXOR(L,p,R1);
 3100              		.loc 1 444 0
 3101 006a E423     		mov	r3, #228
 3102 006c F918     		add	r1, r7, r3
 3103 006e 5423     		mov	r3, #84
 3104 0070 FA18     		add	r2, r7, r3
 3105 0072 A423     		mov	r3, #164
 3106 0074 FB18     		add	r3, r7, r3
 3107 0076 081C     		mov	r0, r1
 3108 0078 111C     		mov	r1, r2
 3109 007a 1A1C     		mov	r2, r3
 3110 007c FFF7FEFF 		bl	SecondXOR
 445:.\des.c       ****         if(i != 1)
 3111              		.loc 1 445 0
 3112 0080 4823     		mov	r3, #72
 3113 0082 FF33     		add	r3, r3, #255
 3114 0084 FB18     		add	r3, r7, r3
 3115 0086 1B78     		ldrb	r3, [r3]
 3116 0088 012B     		cmp	r3, #1
 3117 008a 10D0     		beq	.L103
 446:.\des.c       ****         {
 447:.\des.c       ****             Swap(L,R);
 3118              		.loc 1 447 0
 3119 008c E423     		mov	r3, #228
 3120 008e FA18     		add	r2, r7, r3
 3121 0090 C423     		mov	r3, #196
 3122 0092 FB18     		add	r3, r7, r3
 3123 0094 101C     		mov	r0, r2
 3124 0096 191C     		mov	r1, r3
 3125 0098 FFF7FEFF 		bl	Swap
 448:.\des.c       ****             Swap(R,R1);
 3126              		.loc 1 448 0
 3127 009c C423     		mov	r3, #196
 3128 009e FA18     		add	r2, r7, r3
 3129 00a0 A423     		mov	r3, #164
 3130 00a2 FB18     		add	r3, r7, r3
 3131 00a4 101C     		mov	r0, r2
 3132 00a6 191C     		mov	r1, r3
 3133 00a8 FFF7FEFF 		bl	Swap
 3134 00ac 07E0     		b	.L104
 3135              	.L103:
 449:.\des.c       ****         }
 450:.\des.c       ****         else
 451:.\des.c       ****         {
ARM GAS  C:\Users\ADMINI~1\AppData\Local\Temp\ccv1PMEE.s 			page 65


 452:.\des.c       ****             Swap(L,R1);
 3136              		.loc 1 452 0
 3137 00ae E423     		mov	r3, #228
 3138 00b0 FA18     		add	r2, r7, r3
 3139 00b2 A423     		mov	r3, #164
 3140 00b4 FB18     		add	r3, r7, r3
 3141 00b6 101C     		mov	r0, r2
 3142 00b8 191C     		mov	r1, r3
 3143 00ba FFF7FEFF 		bl	Swap
 3144              	.L104:
 440:.\des.c       ****     {
 3145              		.loc 1 440 0 discriminator 2
 3146 00be 4823     		mov	r3, #72
 3147 00c0 FF33     		add	r3, r3, #255
 3148 00c2 FB18     		add	r3, r7, r3
 3149 00c4 1A78     		ldrb	r2, [r3]
 3150 00c6 4823     		mov	r3, #72
 3151 00c8 FF33     		add	r3, r3, #255
 3152 00ca FB18     		add	r3, r7, r3
 3153 00cc 013A     		sub	r2, r2, #1
 3154 00ce 1A70     		strb	r2, [r3]
 3155              	.L102:
 440:.\des.c       ****     {
 3156              		.loc 1 440 0 is_stmt 0 discriminator 1
 3157 00d0 4823     		mov	r3, #72
 3158 00d2 FF33     		add	r3, r3, #255
 3159 00d4 FB18     		add	r3, r7, r3
 3160 00d6 1B78     		ldrb	r3, [r3]
 3161 00d8 002B     		cmp	r3, #0
 3162 00da AED1     		bne	.L105
 453:.\des.c       ****         }
 454:.\des.c       ****     }
 455:.\des.c       ****     BackChange(L,R,minwen);
 3163              		.loc 1 455 0 is_stmt 1
 3164 00dc E423     		mov	r3, #228
 3165 00de F918     		add	r1, r7, r3
 3166 00e0 C423     		mov	r3, #196
 3167 00e2 FA18     		add	r2, r7, r3
 3168 00e4 1423     		mov	r3, #20
 3169 00e6 FB18     		add	r3, r7, r3
 3170 00e8 081C     		mov	r0, r1
 3171 00ea 111C     		mov	r1, r2
 3172 00ec 1A1C     		mov	r2, r3
 3173 00ee FFF7FEFF 		bl	BackChange
 456:.\des.c       ****     for(i=0; i < 8; i++)
 3174              		.loc 1 456 0
 3175 00f2 4823     		mov	r3, #72
 3176 00f4 FF33     		add	r3, r3, #255
 3177 00f6 FB18     		add	r3, r7, r3
 3178 00f8 0022     		mov	r2, #0
 3179 00fa 1A70     		strb	r2, [r3]
 3180 00fc 1CE0     		b	.L106
 3181              	.L107:
 457:.\des.c       ****     {    
 458:.\des.c       ****         Data_Mw[i] = BitToByte(minwen + i*8);
 3182              		.loc 1 458 0 discriminator 3
 3183 00fe 4823     		mov	r3, #72
ARM GAS  C:\Users\ADMINI~1\AppData\Local\Temp\ccv1PMEE.s 			page 66


 3184 0100 FF33     		add	r3, r3, #255
 3185 0102 FB18     		add	r3, r7, r3
 3186 0104 1B78     		ldrb	r3, [r3]
 3187 0106 7A68     		ldr	r2, [r7, #4]
 3188 0108 D418     		add	r4, r2, r3
 3189 010a 4823     		mov	r3, #72
 3190 010c FF33     		add	r3, r3, #255
 3191 010e FB18     		add	r3, r7, r3
 3192 0110 1B78     		ldrb	r3, [r3]
 3193 0112 DB00     		lsl	r3, r3, #3
 3194 0114 1A1C     		mov	r2, r3
 3195 0116 1423     		mov	r3, #20
 3196 0118 FB18     		add	r3, r7, r3
 3197 011a 9B18     		add	r3, r3, r2
 3198 011c 181C     		mov	r0, r3
 3199 011e FFF7FEFF 		bl	BitToByte
 3200 0122 031C     		mov	r3, r0
 3201 0124 2370     		strb	r3, [r4]
 456:.\des.c       ****     for(i=0; i < 8; i++)
 3202              		.loc 1 456 0 discriminator 3
 3203 0126 4823     		mov	r3, #72
 3204 0128 FF33     		add	r3, r3, #255
 3205 012a FB18     		add	r3, r7, r3
 3206 012c 1A78     		ldrb	r2, [r3]
 3207 012e 4823     		mov	r3, #72
 3208 0130 FF33     		add	r3, r3, #255
 3209 0132 FB18     		add	r3, r7, r3
 3210 0134 0132     		add	r2, r2, #1
 3211 0136 1A70     		strb	r2, [r3]
 3212              	.L106:
 456:.\des.c       ****     for(i=0; i < 8; i++)
 3213              		.loc 1 456 0 is_stmt 0 discriminator 1
 3214 0138 4823     		mov	r3, #72
 3215 013a FF33     		add	r3, r3, #255
 3216 013c FB18     		add	r3, r7, r3
 3217 013e 1B78     		ldrb	r3, [r3]
 3218 0140 072B     		cmp	r3, #7
 3219 0142 DCD9     		bls	.L107
 459:.\des.c       ****     }    
 460:.\des.c       **** }...
 3220              		.loc 1 460 0 is_stmt 1
 3221 0144 BD46     		mov	sp, r7
 3222 0146 53B0     		add	sp, sp, #332
 3223              		@ sp needed
 3224 0148 90BD     		pop	{r4, r7, pc}
 3225              		.cfi_endproc
 3226              	.LFE54:
 3227              		.size	DES_Decrypt, .-DES_Decrypt
 3228 014a C046     		.text
 3229              	.Letext0:
 3230              		.file 2 "Generated_Source\\PSoC4/cytypes.h"
 3231              		.file 3 "Generated_Source\\PSoC4/BLE_Stack.h"