ARM GAS  C:\Users\ADMINI~1.SC-\AppData\Local\Temp\cctjaf5q.s 			page 1


   1              		.cpu cortex-m0
   2              		.fpu softvfp
   3              		.eabi_attribute 20, 1
   4              		.eabi_attribute 21, 1
   5              		.eabi_attribute 23, 3
   6              		.eabi_attribute 24, 1
   7              		.eabi_attribute 25, 1
   8              		.eabi_attribute 26, 1
   9              		.eabi_attribute 30, 6
  10              		.eabi_attribute 34, 0
  11              		.eabi_attribute 18, 4
  12              		.code	16
  13              		.file	"main.c"
  14              		.text
  15              	.Ltext0:
  16              		.cfi_sections	.debug_frame
  17              		.global	BLEDeviceName
  18              		.data
  19              		.align	2
  20              		.type	BLEDeviceName, %object
  21              		.size	BLEDeviceName, 11
  22              	BLEDeviceName:
  23 0000 54       		.byte	84
  24 0001 4C       		.byte	76
  25 0002 2D       		.byte	45
  26 0003 30       		.byte	48
  27 0004 31       		.byte	49
  28 0005 30       		.byte	48
  29 0006 32       		.byte	50
  30 0007 30       		.byte	48
  31 0008 33       		.byte	51
  32 0009 30       		.byte	48
  33 000a 34       		.byte	52
  34 000b 00       		.section	.text.TimerHand,"ax",%progbits
  35              		.align	2
  36              		.global	TimerHand
  37              		.code	16
  38              		.thumb_func
  39              		.type	TimerHand, %function
  40              	TimerHand:
  41              	.LFB35:
  42              		.file 1 "main.c"
   1:main.c        **** #include "main.h"
   2:main.c        **** #include "stdlib.h"
   3:main.c        **** #include "Rc4.h"
   4:main.c        **** #include "app_Com.h"
   5:main.c        **** 
   6:main.c        **** #define BLE_ON     1     //  0:ËìùÁâôÂÖ≥Èó≠Ôºå   1ÔºöËìùÁâôÊâìÂºÄ
   7:main.c        **** 
   8:main.c        **** char8 BLEDeviceName[11] = {0x54,0x4c,0x2d,0x30,0x31,0x30,0x32,0x30,0x33,0x30,0x34};
   9:main.c        **** 
  10:main.c        **** CY_ISR(TimerHand)
  11:main.c        **** {
  43              		.loc 1 11 0
  44              		.cfi_startproc
  45 0000 80B5     		push	{r7, lr}
  46              		.cfi_def_cfa_offset 8
ARM GAS  C:\Users\ADMINI~1.SC-\AppData\Local\Temp\cctjaf5q.s 			page 2


  47              		.cfi_offset 7, -8
  48              		.cfi_offset 14, -4
  49 0002 00AF     		add	r7, sp, #0
  50              		.cfi_def_cfa_register 7
  12:main.c        ****     System_Timer_ClearInterrupt(System_Timer_INTR_MASK_TC);
  51              		.loc 1 12 0
  52 0004 0120     		mov	r0, #1
  53 0006 FFF7FEFF 		bl	System_Timer_ClearInterrupt
  13:main.c        ****     Delay_Time.Delay_1ms = 0;   
  54              		.loc 1 13 0
  55 000a 094B     		ldr	r3, .L3
  56 000c 0022     		mov	r2, #0
  57 000e 5A71     		strb	r2, [r3, #5]
  14:main.c        ****     
  15:main.c        ****     if(Com_Array.Rx_Begin_Flag)
  58              		.loc 1 15 0
  59 0010 084B     		ldr	r3, .L3+4
  60 0012 6722     		mov	r2, #103
  61 0014 9B5C     		ldrb	r3, [r3, r2]
  62 0016 002B     		cmp	r3, #0
  63 0018 07D0     		beq	.L1
  16:main.c        ****     {
  17:main.c        ****         Com_Array.Rx_Delay ++;
  64              		.loc 1 17 0
  65 001a 064B     		ldr	r3, .L3+4
  66 001c 6822     		mov	r2, #104
  67 001e 9B5C     		ldrb	r3, [r3, r2]
  68 0020 0133     		add	r3, r3, #1
  69 0022 D9B2     		uxtb	r1, r3
  70 0024 034B     		ldr	r3, .L3+4
  71 0026 6822     		mov	r2, #104
  72 0028 9954     		strb	r1, [r3, r2]
  73              	.L1:
  18:main.c        ****     }
  19:main.c        **** }
  74              		.loc 1 19 0
  75 002a BD46     		mov	sp, r7
  76              		@ sp needed
  77 002c 80BD     		pop	{r7, pc}
  78              	.L4:
  79 002e C046     		.align	2
  80              	.L3:
  81 0030 00000000 		.word	Delay_Time
  82 0034 00000000 		.word	Com_Array
  83              		.cfi_endproc
  84              	.LFE35:
  85              		.size	TimerHand, .-TimerHand
  86              		.section	.text.MY_UART_SCB_IRQ_Interrupt,"ax",%progbits
  87              		.align	2
  88              		.global	MY_UART_SCB_IRQ_Interrupt
  89              		.code	16
  90              		.thumb_func
  91              		.type	MY_UART_SCB_IRQ_Interrupt, %function
  92              	MY_UART_SCB_IRQ_Interrupt:
  93              	.LFB36:
  20:main.c        **** 
  21:main.c        **** /***********************************************
ARM GAS  C:\Users\ADMINI~1.SC-\AppData\Local\Temp\cctjaf5q.s 			page 3


  22:main.c        ****     ‰∏≤Âè£Êé•Êî∂‰∏≠Êñ≠
  23:main.c        **** ***********************************************/
  24:main.c        **** CY_ISR(MY_UART_SCB_IRQ_Interrupt)
  25:main.c        **** {
  94              		.loc 1 25 0
  95              		.cfi_startproc
  96 0000 98B5     		push	{r3, r4, r7, lr}
  97              		.cfi_def_cfa_offset 16
  98              		.cfi_offset 3, -16
  99              		.cfi_offset 4, -12
 100              		.cfi_offset 7, -8
 101              		.cfi_offset 14, -4
 102 0002 00AF     		add	r7, sp, #0
 103              		.cfi_def_cfa_register 7
  26:main.c        ****     UART_ClearRxInterruptSource(UART_INTR_RX_NOT_EMPTY);
 104              		.loc 1 26 0
 105 0004 374B     		ldr	r3, .L13
 106 0006 0422     		mov	r2, #4
 107 0008 1A60     		str	r2, [r3]
  27:main.c        ****     
  28:main.c        ****     if(Com_Array.Tx_Begin == 0)
 108              		.loc 1 28 0
 109 000a 374B     		ldr	r3, .L13+4
 110 000c 7222     		mov	r2, #114
 111 000e 9B5C     		ldrb	r3, [r3, r2]
 112 0010 002B     		cmp	r3, #0
 113 0012 5FD1     		bne	.L6
  29:main.c        ****     {
  30:main.c        ****        if((Com_Array.Rx_Count % 2) == 0)
 114              		.loc 1 30 0
 115 0014 344B     		ldr	r3, .L13+4
 116 0016 6522     		mov	r2, #101
 117 0018 9B5C     		ldrb	r3, [r3, r2]
 118 001a 0122     		mov	r2, #1
 119 001c 1340     		and	r3, r2
 120 001e DBB2     		uxtb	r3, r3
 121 0020 002B     		cmp	r3, #0
 122 0022 11D1     		bne	.L7
  31:main.c        ****         {
  32:main.c        ****             Com_Array.Rx_Index = Com_Array.Rx_Count / 2 ;
 123              		.loc 1 32 0
 124 0024 304B     		ldr	r3, .L13+4
 125 0026 6522     		mov	r2, #101
 126 0028 9B5C     		ldrb	r3, [r3, r2]
 127 002a 5B08     		lsr	r3, r3, #1
 128 002c D9B2     		uxtb	r1, r3
 129 002e 2E4B     		ldr	r3, .L13+4
 130 0030 6622     		mov	r2, #102
 131 0032 9954     		strb	r1, [r3, r2]
  33:main.c        ****             Com_Array.Rx_buff[Com_Array.Rx_Index] = UART_SpiUartReadRxData();//ËØªÂèñ‰∏≤Âè£Êé•Êî∂Áº
 132              		.loc 1 33 0
 133 0034 2C4B     		ldr	r3, .L13+4
 134 0036 6622     		mov	r2, #102
 135 0038 9B5C     		ldrb	r3, [r3, r2]
 136 003a 1C1C     		mov	r4, r3
 137 003c FFF7FEFF 		bl	UART_SpiUartReadRxData
 138 0040 031C     		mov	r3, r0
ARM GAS  C:\Users\ADMINI~1.SC-\AppData\Local\Temp\cctjaf5q.s 			page 4


 139 0042 DAB2     		uxtb	r2, r3
 140 0044 284B     		ldr	r3, .L13+4
 141 0046 1A55     		strb	r2, [r3, r4]
 142              	.L7:
  34:main.c        ****         }
  35:main.c        ****         Com_Array.Rx_Count ++;
 143              		.loc 1 35 0
 144 0048 274B     		ldr	r3, .L13+4
 145 004a 6522     		mov	r2, #101
 146 004c 9B5C     		ldrb	r3, [r3, r2]
 147 004e 0133     		add	r3, r3, #1
 148 0050 D9B2     		uxtb	r1, r3
 149 0052 254B     		ldr	r3, .L13+4
 150 0054 6522     		mov	r2, #101
 151 0056 9954     		strb	r1, [r3, r2]
  36:main.c        ****         if(Com_Array.Rx_Index > 40)
 152              		.loc 1 36 0
 153 0058 234B     		ldr	r3, .L13+4
 154 005a 6622     		mov	r2, #102
 155 005c 9B5C     		ldrb	r3, [r3, r2]
 156 005e 282B     		cmp	r3, #40
 157 0060 0FD9     		bls	.L8
  37:main.c        ****         {
  38:main.c        ****             Com_Array.Rx_Count = 0;
 158              		.loc 1 38 0
 159 0062 214B     		ldr	r3, .L13+4
 160 0064 6522     		mov	r2, #101
 161 0066 0021     		mov	r1, #0
 162 0068 9954     		strb	r1, [r3, r2]
  39:main.c        ****             Com_Array.Rx_Index = 0;
 163              		.loc 1 39 0
 164 006a 1F4B     		ldr	r3, .L13+4
 165 006c 6622     		mov	r2, #102
 166 006e 0021     		mov	r1, #0
 167 0070 9954     		strb	r1, [r3, r2]
  40:main.c        ****             Com_Array.Rx_Delay = 0;
 168              		.loc 1 40 0
 169 0072 1D4B     		ldr	r3, .L13+4
 170 0074 6822     		mov	r2, #104
 171 0076 0021     		mov	r1, #0
 172 0078 9954     		strb	r1, [r3, r2]
  41:main.c        ****             Com_Array.Rx_Begin_Flag = 0;
 173              		.loc 1 41 0
 174 007a 1B4B     		ldr	r3, .L13+4
 175 007c 6722     		mov	r2, #103
 176 007e 0021     		mov	r1, #0
 177 0080 9954     		strb	r1, [r3, r2]
 178              	.L8:
  42:main.c        ****         }
  43:main.c        ****       
  44:main.c        ****         if(Com_Array.Rx_Count == 1)         //Á¨¨‰∏Ä‰∏™Â≠óÊó∂ÂºÄÂßãË∂ÖÊó∂ËÆ°Êó∂
 179              		.loc 1 44 0
 180 0082 194B     		ldr	r3, .L13+4
 181 0084 6522     		mov	r2, #101
 182 0086 9B5C     		ldrb	r3, [r3, r2]
 183 0088 012B     		cmp	r3, #1
 184 008a 03D1     		bne	.L9
ARM GAS  C:\Users\ADMINI~1.SC-\AppData\Local\Temp\cctjaf5q.s 			page 5


  45:main.c        ****         {
  46:main.c        ****             Com_Array.Rx_Begin_Flag = 1;
 185              		.loc 1 46 0
 186 008c 164B     		ldr	r3, .L13+4
 187 008e 6722     		mov	r2, #103
 188 0090 0121     		mov	r1, #1
 189 0092 9954     		strb	r1, [r3, r2]
 190              	.L9:
  47:main.c        ****         }
  48:main.c        ****         
  49:main.c        ****         if(Com_Array.Rx_Index == 1)         //Êï∞ÊçÆÂåÖÈïøÂ∫¶
 191              		.loc 1 49 0
 192 0094 144B     		ldr	r3, .L13+4
 193 0096 6622     		mov	r2, #102
 194 0098 9B5C     		ldrb	r3, [r3, r2]
 195 009a 012B     		cmp	r3, #1
 196 009c 06D1     		bne	.L10
  50:main.c        ****         {
  51:main.c        ****             Com_Array.Rx_Length = Com_Array.Rx_buff[1] + 4;
 197              		.loc 1 51 0
 198 009e 124B     		ldr	r3, .L13+4
 199 00a0 5B78     		ldrb	r3, [r3, #1]
 200 00a2 0433     		add	r3, r3, #4
 201 00a4 D9B2     		uxtb	r1, r3
 202 00a6 104B     		ldr	r3, .L13+4
 203 00a8 6422     		mov	r2, #100
 204 00aa 9954     		strb	r1, [r3, r2]
 205              	.L10:
  52:main.c        ****         }  
  53:main.c        ****         
  54:main.c        ****         if((Com_Array.Rx_Index > 3) && (Com_Array.Rx_Index == (Com_Array.Rx_Length - 1)))
 206              		.loc 1 54 0
 207 00ac 0E4B     		ldr	r3, .L13+4
 208 00ae 6622     		mov	r2, #102
 209 00b0 9B5C     		ldrb	r3, [r3, r2]
 210 00b2 032B     		cmp	r3, #3
 211 00b4 12D9     		bls	.L12
 212              		.loc 1 54 0 is_stmt 0 discriminator 1
 213 00b6 0C4B     		ldr	r3, .L13+4
 214 00b8 6622     		mov	r2, #102
 215 00ba 9B5C     		ldrb	r3, [r3, r2]
 216 00bc 191C     		mov	r1, r3
 217 00be 0A4B     		ldr	r3, .L13+4
 218 00c0 6422     		mov	r2, #100
 219 00c2 9B5C     		ldrb	r3, [r3, r2]
 220 00c4 013B     		sub	r3, r3, #1
 221 00c6 9942     		cmp	r1, r3
 222 00c8 08D1     		bne	.L12
  55:main.c        ****         {
  56:main.c        ****             Com_Array.Rx_Flag = 1;          //Êé•Êî∂Âà∞Êï¥ÂåÖ
 223              		.loc 1 56 0 is_stmt 1
 224 00ca 074B     		ldr	r3, .L13+4
 225 00cc 6922     		mov	r2, #105
 226 00ce 0121     		mov	r1, #1
 227 00d0 9954     		strb	r1, [r3, r2]
 228 00d2 03E0     		b	.L12
 229              	.L6:
ARM GAS  C:\Users\ADMINI~1.SC-\AppData\Local\Temp\cctjaf5q.s 			page 6


  57:main.c        ****         }
  58:main.c        ****     }
  59:main.c        ****     else
  60:main.c        ****     {
  61:main.c        ****         Com_Array.Rx_Count = 0;
 230              		.loc 1 61 0
 231 00d4 044B     		ldr	r3, .L13+4
 232 00d6 6522     		mov	r2, #101
 233 00d8 0021     		mov	r1, #0
 234 00da 9954     		strb	r1, [r3, r2]
 235              	.L12:
  62:main.c        ****     }
  63:main.c        ****     UART_SpiUartClearRxBuffer();   
 236              		.loc 1 63 0
 237 00dc FFF7FEFF 		bl	UART_SpiUartClearRxBuffer
  64:main.c        **** }
 238              		.loc 1 64 0
 239 00e0 BD46     		mov	sp, r7
 240              		@ sp needed
 241 00e2 98BD     		pop	{r3, r4, r7, pc}
 242              	.L14:
 243              		.align	2
 244              	.L13:
 245 00e4 C00F2540 		.word	1076170688
 246 00e8 00000000 		.word	Com_Array
 247              		.cfi_endproc
 248              	.LFE36:
 249              		.size	MY_UART_SCB_IRQ_Interrupt, .-MY_UART_SCB_IRQ_Interrupt
 250              		.section	.text.InterruptHandler,"ax",%progbits
 251              		.align	2
 252              		.global	InterruptHandler
 253              		.code	16
 254              		.thumb_func
 255              		.type	InterruptHandler, %function
 256              	InterruptHandler:
 257              	.LFB37:
  65:main.c        **** 
  66:main.c        **** #define BRIGHTNESS_DECREASE         (100u)
  67:main.c        **** 
  68:main.c        **** CY_ISR(InterruptHandler)
  69:main.c        **** {
 258              		.loc 1 69 0
 259              		.cfi_startproc
 260 0000 80B5     		push	{r7, lr}
 261              		.cfi_def_cfa_offset 8
 262              		.cfi_offset 7, -8
 263              		.cfi_offset 14, -4
 264 0002 00AF     		add	r7, sp, #0
 265              		.cfi_def_cfa_register 7
  70:main.c        ****     static     uint8 beep = 0;
  71:main.c        **** 	/* Clear TC Inerrupt */
  72:main.c        ****    	PWM_ClearInterrupt(PWM_INTR_MASK_TC);
 266              		.loc 1 72 0
 267 0004 0120     		mov	r0, #1
 268 0006 FFF7FEFF 		bl	PWM_ClearInterrupt
  73:main.c        ****     
  74:main.c        ****     if(beep == 0)
ARM GAS  C:\Users\ADMINI~1.SC-\AppData\Local\Temp\cctjaf5q.s 			page 7


 269              		.loc 1 74 0
 270 000a 094B     		ldr	r3, .L18
 271 000c 1B78     		ldrb	r3, [r3]
 272 000e 002B     		cmp	r3, #0
 273 0010 06D1     		bne	.L16
  75:main.c        ****     {
  76:main.c        ****         beep = 1;
 274              		.loc 1 76 0
 275 0012 074B     		ldr	r3, .L18
 276 0014 0122     		mov	r2, #1
 277 0016 1A70     		strb	r2, [r3]
  77:main.c        ****         BEEP_OPEN;
 278              		.loc 1 77 0
 279 0018 0120     		mov	r0, #1
 280 001a FFF7FEFF 		bl	Beep_Ctrl_Write
 281 001e 05E0     		b	.L15
 282              	.L16:
  78:main.c        ****     }
  79:main.c        ****     else
  80:main.c        ****     {
  81:main.c        ****         beep = 0;
 283              		.loc 1 81 0
 284 0020 034B     		ldr	r3, .L18
 285 0022 0022     		mov	r2, #0
 286 0024 1A70     		strb	r2, [r3]
  82:main.c        ****         BEEP_CLOSE;
 287              		.loc 1 82 0
 288 0026 0020     		mov	r0, #0
 289 0028 FFF7FEFF 		bl	Beep_Ctrl_Write
 290              	.L15:
  83:main.c        ****     }
  84:main.c        **** }
 291              		.loc 1 84 0
 292 002c BD46     		mov	sp, r7
 293              		@ sp needed
 294 002e 80BD     		pop	{r7, pc}
 295              	.L19:
 296              		.align	2
 297              	.L18:
 298 0030 00000000 		.word	beep.7566
 299              		.cfi_endproc
 300              	.LFE37:
 301              		.size	InterruptHandler, .-InterruptHandler
 302              		.section	.text.main,"ax",%progbits
 303              		.align	2
 304              		.global	main
 305              		.code	16
 306              		.thumb_func
 307              		.type	main, %function
 308              	main:
 309              	.LFB38:
  85:main.c        **** 
  86:main.c        **** int main()
  87:main.c        **** {
 310              		.loc 1 87 0
 311              		.cfi_startproc
 312 0000 90B5     		push	{r4, r7, lr}
ARM GAS  C:\Users\ADMINI~1.SC-\AppData\Local\Temp\cctjaf5q.s 			page 8


 313              		.cfi_def_cfa_offset 12
 314              		.cfi_offset 4, -12
 315              		.cfi_offset 7, -8
 316              		.cfi_offset 14, -4
 317 0002 83B0     		sub	sp, sp, #12
 318              		.cfi_def_cfa_offset 24
 319 0004 00AF     		add	r7, sp, #0
 320              		.cfi_def_cfa_register 7
  88:main.c        **** #if BLE_ON
  89:main.c        ****     CYBLE_API_RESULT_T      bleApiResult;
  90:main.c        ****     uint8 i;
  91:main.c        **** #endif
  92:main.c        **** 
  93:main.c        ****     System_Timer_Start();
 321              		.loc 1 93 0
 322 0006 FFF7FEFF 		bl	System_Timer_Start
  94:main.c        ****     Timer_isr_StartEx(TimerHand);    
 323              		.loc 1 94 0
 324 000a 524B     		ldr	r3, .L27
 325 000c 181C     		mov	r0, r3
 326 000e FFF7FEFF 		bl	Timer_isr_StartEx
  95:main.c        **** 
  96:main.c        ****     UART_Start(); 
 327              		.loc 1 96 0
 328 0012 FFF7FEFF 		bl	UART_Start
  97:main.c        ****     UART_SCB_IRQ_Start();
 329              		.loc 1 97 0
 330 0016 FFF7FEFF 		bl	UART_SCB_IRQ_Start
  98:main.c        ****     UART_SCB_IRQ_StartEx(MY_UART_SCB_IRQ_Interrupt);
 331              		.loc 1 98 0
 332 001a 4F4B     		ldr	r3, .L27+4
 333 001c 181C     		mov	r0, r3
 334 001e FFF7FEFF 		bl	UART_SCB_IRQ_StartEx
  99:main.c        ****     POWERON_OUT_Write(HIGH);
 335              		.loc 1 99 0
 336 0022 0120     		mov	r0, #1
 337 0024 FFF7FEFF 		bl	POWERON_OUT_Write
 100:main.c        ****     TC_ISR_StartEx(InterruptHandler);
 338              		.loc 1 100 0
 339 0028 4C4B     		ldr	r3, .L27+8
 340 002a 181C     		mov	r0, r3
 341 002c FFF7FEFF 		bl	TC_ISR_StartEx
 101:main.c        ****     Load_Config();
 342              		.loc 1 101 0
 343 0030 FFF7FEFF 		bl	Load_Config
 102:main.c        ****     ADC_Start();
 344              		.loc 1 102 0
 345 0034 FFF7FEFF 		bl	ADC_Start
 103:main.c        **** 
 104:main.c        **** #if BLE_ON
 105:main.c        ****     if(System_Config.IDChangeFlag)                 //ÂºÄÊú∫Ê£ÄÊµãÔºåÊòØÂê¶Êõ¥Êñ∞ËìùÁâôËÆæÂ§áÂêç
 346              		.loc 1 105 0
 347 0038 494B     		ldr	r3, .L27+12
 348 003a 2422     		mov	r2, #36
 349 003c 9B5C     		ldrb	r3, [r3, r2]
 350 003e 002B     		cmp	r3, #0
 351 0040 35D0     		beq	.L21
ARM GAS  C:\Users\ADMINI~1.SC-\AppData\Local\Temp\cctjaf5q.s 			page 9


 106:main.c        ****     {
 107:main.c        ****         for(i=0; i<4; i++)
 352              		.loc 1 107 0
 353 0042 FB1D     		add	r3, r7, #7
 354 0044 0022     		mov	r2, #0
 355 0046 1A70     		strb	r2, [r3]
 356 0048 29E0     		b	.L22
 357              	.L23:
 108:main.c        ****         {
 109:main.c        ****             BLEDeviceName[3+2*i] = Hex_To_Ascii(System_Config.DeviceID[i] / 16);
 358              		.loc 1 109 0 discriminator 3
 359 004a FB1D     		add	r3, r7, #7
 360 004c 1B78     		ldrb	r3, [r3]
 361 004e 5B00     		lsl	r3, r3, #1
 362 0050 DC1C     		add	r4, r3, #3
 363 0052 FB1D     		add	r3, r7, #7
 364 0054 1B78     		ldrb	r3, [r3]
 365 0056 424A     		ldr	r2, .L27+12
 366 0058 D318     		add	r3, r2, r3
 367 005a 1B7C     		ldrb	r3, [r3, #16]
 368 005c 1B09     		lsr	r3, r3, #4
 369 005e DBB2     		uxtb	r3, r3
 370 0060 181C     		mov	r0, r3
 371 0062 FFF7FEFF 		bl	Hex_To_Ascii
 372 0066 031C     		mov	r3, r0
 373 0068 1A1C     		mov	r2, r3
 374 006a 3E4B     		ldr	r3, .L27+16
 375 006c 1A55     		strb	r2, [r3, r4]
 110:main.c        ****             BLEDeviceName[4+2*i] = Hex_To_Ascii(System_Config.DeviceID[i] % 16);
 376              		.loc 1 110 0 discriminator 3
 377 006e FB1D     		add	r3, r7, #7
 378 0070 1B78     		ldrb	r3, [r3]
 379 0072 0233     		add	r3, r3, #2
 380 0074 5C00     		lsl	r4, r3, #1
 381 0076 FB1D     		add	r3, r7, #7
 382 0078 1B78     		ldrb	r3, [r3]
 383 007a 394A     		ldr	r2, .L27+12
 384 007c D318     		add	r3, r2, r3
 385 007e 1B7C     		ldrb	r3, [r3, #16]
 386 0080 0F22     		mov	r2, #15
 387 0082 1340     		and	r3, r2
 388 0084 DBB2     		uxtb	r3, r3
 389 0086 181C     		mov	r0, r3
 390 0088 FFF7FEFF 		bl	Hex_To_Ascii
 391 008c 031C     		mov	r3, r0
 392 008e 1A1C     		mov	r2, r3
 393 0090 344B     		ldr	r3, .L27+16
 394 0092 1A55     		strb	r2, [r3, r4]
 107:main.c        ****         {
 395              		.loc 1 107 0 discriminator 3
 396 0094 FB1D     		add	r3, r7, #7
 397 0096 1A78     		ldrb	r2, [r3]
 398 0098 FB1D     		add	r3, r7, #7
 399 009a 0132     		add	r2, r2, #1
 400 009c 1A70     		strb	r2, [r3]
 401              	.L22:
 107:main.c        ****         {
ARM GAS  C:\Users\ADMINI~1.SC-\AppData\Local\Temp\cctjaf5q.s 			page 10


 402              		.loc 1 107 0 is_stmt 0 discriminator 1
 403 009e FB1D     		add	r3, r7, #7
 404 00a0 1B78     		ldrb	r3, [r3]
 405 00a2 032B     		cmp	r3, #3
 406 00a4 D1D9     		bls	.L23
 111:main.c        ****         }
 112:main.c        ****         CyBle_GapSetLocalName(BLEDeviceName);       //‰øÆÊîπËìùÁâôËÆæÂ§áÂêç
 407              		.loc 1 112 0 is_stmt 1
 408 00a6 2F4B     		ldr	r3, .L27+16
 409 00a8 181C     		mov	r0, r3
 410 00aa FFF7FEFF 		bl	CyBle_GapSetLocalName
 411              	.L21:
 113:main.c        ****     }
 114:main.c        ****     bleApiResult = CyBle_Start(AppCallBack); 
 412              		.loc 1 114 0
 413 00ae 3C1D     		add	r4, r7, #4
 414 00b0 2D4B     		ldr	r3, .L27+20
 415 00b2 181C     		mov	r0, r3
 416 00b4 FFF7FEFF 		bl	CyBle_Start
 417 00b8 031C     		mov	r3, r0
 418 00ba 2380     		strh	r3, [r4]
 115:main.c        ****     if(bleApiResult == CYBLE_ERROR_OK)
 116:main.c        ****     {
 117:main.c        ****         //
 118:main.c        ****     }
 119:main.c        **** #endif
 120:main.c        ****     CyGlobalIntEnable;
 419              		.loc 1 120 0
 420              	@ 120 "main.c" 1
 421 00bc 62B6     		CPSIE   i
 422              	@ 0 "" 2
 121:main.c        ****     CyDelay(10);
 423              		.loc 1 121 0
 424              		.code	16
 425 00be 0A20     		mov	r0, #10
 426 00c0 FFF7FEFF 		bl	CyDelay
 122:main.c        **** 
 123:main.c        **** #if BLE_ON    
 124:main.c        ****     CyBle_ProcessEvents();
 427              		.loc 1 124 0
 428 00c4 FFF7FEFF 		bl	CyBle_ProcessEvents
 125:main.c        **** #endif
 126:main.c        ****     
 127:main.c        ****     RED_OFF;
 429              		.loc 1 127 0
 430 00c8 0120     		mov	r0, #1
 431 00ca FFF7FEFF 		bl	LED_RED_Write
 128:main.c        ****     GREEN_ON;
 432              		.loc 1 128 0
 433 00ce 0020     		mov	r0, #0
 434 00d0 FFF7FEFF 		bl	LED_GREEN_Write
 129:main.c        ****     Com_Array.Tx_State = RE_REQUEST;
 435              		.loc 1 129 0
 436 00d4 254B     		ldr	r3, .L27+24
 437 00d6 6C22     		mov	r2, #108
 438 00d8 1021     		mov	r1, #16
 439 00da 9954     		strb	r1, [r3, r2]
ARM GAS  C:\Users\ADMINI~1.SC-\AppData\Local\Temp\cctjaf5q.s 			page 11


 440              	.L26:
 130:main.c        ****     while(1)
 131:main.c        ****     {      
 132:main.c        **** #if BLE_ON        
 133:main.c        ****         HandleBleProcessing();//BLEËøûÊé•‰∏éÊñ≠ÂºÄ
 441              		.loc 1 133 0
 442 00dc FFF7FEFF 		bl	HandleBleProcessing
 134:main.c        ****         CyBle_ProcessEvents();    
 443              		.loc 1 134 0
 444 00e0 FFF7FEFF 		bl	CyBle_ProcessEvents
 135:main.c        ****         ReceiveBleCmd();   
 445              		.loc 1 135 0
 446 00e4 FFF7FEFF 		bl	ReceiveBleCmd
 136:main.c        ****         SendBleCmd();
 447              		.loc 1 136 0
 448 00e8 FFF7FEFF 		bl	SendBleCmd
 137:main.c        **** #endif        
 138:main.c        ****         Com_Recv_Prov();     
 449              		.loc 1 138 0
 450 00ec FFF7FEFF 		bl	Com_Recv_Prov
 139:main.c        ****         Com_Send_Prov();
 451              		.loc 1 139 0
 452 00f0 FFF7FEFF 		bl	Com_Send_Prov
 140:main.c        ****         
 141:main.c        ****         if(Com_Array.Tx_Begin)      //Ëá™Âä®ÂÖ≥Èó≠ÂèëÈÄÅ
 453              		.loc 1 141 0
 454 00f4 1D4B     		ldr	r3, .L27+24
 455 00f6 7222     		mov	r2, #114
 456 00f8 9B5C     		ldrb	r3, [r3, r2]
 457 00fa 002B     		cmp	r3, #0
 458 00fc 14D0     		beq	.L24
 142:main.c        ****         {
 143:main.c        ****             Com_Array.Tx_Delay ++;
 459              		.loc 1 143 0
 460 00fe 1B4B     		ldr	r3, .L27+24
 461 0100 7122     		mov	r2, #113
 462 0102 9B5C     		ldrb	r3, [r3, r2]
 463 0104 0133     		add	r3, r3, #1
 464 0106 D9B2     		uxtb	r1, r3
 465 0108 184B     		ldr	r3, .L27+24
 466 010a 7122     		mov	r2, #113
 467 010c 9954     		strb	r1, [r3, r2]
 144:main.c        ****             if(Com_Array.Tx_Delay > 3)
 468              		.loc 1 144 0
 469 010e 174B     		ldr	r3, .L27+24
 470 0110 7122     		mov	r2, #113
 471 0112 9B5C     		ldrb	r3, [r3, r2]
 472 0114 032B     		cmp	r3, #3
 473 0116 07D9     		bls	.L24
 145:main.c        ****             {
 146:main.c        ****                 Com_Array.Tx_Begin = 0;
 474              		.loc 1 146 0
 475 0118 144B     		ldr	r3, .L27+24
 476 011a 7222     		mov	r2, #114
 477 011c 0021     		mov	r1, #0
 478 011e 9954     		strb	r1, [r3, r2]
 147:main.c        ****                 Com_Array.Tx_Delay = 0;
ARM GAS  C:\Users\ADMINI~1.SC-\AppData\Local\Temp\cctjaf5q.s 			page 12


 479              		.loc 1 147 0
 480 0120 124B     		ldr	r3, .L27+24
 481 0122 7122     		mov	r2, #113
 482 0124 0021     		mov	r1, #0
 483 0126 9954     		strb	r1, [r3, r2]
 484              	.L24:
 148:main.c        ****             }
 149:main.c        ****         }
 150:main.c        ****         
 151:main.c        ****         Power_Off();
 485              		.loc 1 151 0
 486 0128 FFF7FEFF 		bl	Power_Off
 152:main.c        ****         
 153:main.c        ****         Alarm_Event(Flag.Alarm_Work_Step);  //Â£∞ÂÖâÊä•Ë≠¶Áä∂ÊÄÅ
 487              		.loc 1 153 0
 488 012c 104B     		ldr	r3, .L27+28
 489 012e 1B78     		ldrb	r3, [r3]
 490 0130 5B07     		lsl	r3, r3, #29
 491 0132 5B0F     		lsr	r3, r3, #29
 492 0134 DBB2     		uxtb	r3, r3
 493 0136 181C     		mov	r0, r3
 494 0138 FFF7FEFF 		bl	Alarm_Event
 154:main.c        ****   
 155:main.c        ****         key_touch_lock_process();
 495              		.loc 1 155 0
 496 013c FFF7FEFF 		bl	key_touch_lock_process
 156:main.c        ****         
 157:main.c        ****         while(Delay_Time.Delay_1ms);        //1MS
 497              		.loc 1 157 0
 498 0140 C046     		mov	r8, r8
 499              	.L25:
 500              		.loc 1 157 0 is_stmt 0 discriminator 1
 501 0142 0C4B     		ldr	r3, .L27+32
 502 0144 5B79     		ldrb	r3, [r3, #5]
 503 0146 002B     		cmp	r3, #0
 504 0148 FBD1     		bne	.L25
 158:main.c        ****         Delay_Time.Delay_1ms = 1;     
 505              		.loc 1 158 0 is_stmt 1
 506 014a 0A4B     		ldr	r3, .L27+32
 507 014c 0122     		mov	r2, #1
 508 014e 5A71     		strb	r2, [r3, #5]
 159:main.c        ****     }
 509              		.loc 1 159 0
 510 0150 C4E7     		b	.L26
 511              	.L28:
 512 0152 C046     		.align	2
 513              	.L27:
 514 0154 00000000 		.word	TimerHand
 515 0158 00000000 		.word	MY_UART_SCB_IRQ_Interrupt
 516 015c 00000000 		.word	InterruptHandler
 517 0160 00000000 		.word	System_Config
 518 0164 00000000 		.word	BLEDeviceName
 519 0168 00000000 		.word	AppCallBack
 520 016c 00000000 		.word	Com_Array
 521 0170 00000000 		.word	Flag
 522 0174 00000000 		.word	Delay_Time
 523              		.cfi_endproc
ARM GAS  C:\Users\ADMINI~1.SC-\AppData\Local\Temp\cctjaf5q.s 			page 13


 524              	.LFE38:
 525              		.size	main, .-main
 526              		.global	__aeabi_idiv
 527              		.section	.text.Get_Adc,"ax",%progbits
 528              		.align	2
 529              		.global	Get_Adc
 530              		.code	16
 531              		.thumb_func
 532              		.type	Get_Adc, %function
 533              	Get_Adc:
 534              	.LFB39:
 160:main.c        **** }
 161:main.c        **** 
 162:main.c        **** 
 163:main.c        **** /***********************************************
 164:main.c        **** * ÂáΩÊï∞ÂêçÔºöuint16 Get_Adc(void)
 165:main.c        **** * ÊèèËø∞  ÔºöÈááÈõÜÁîµÂéã
 166:main.c        **** 1677-3.623V
 167:main.c        **** 1849-4.0V
 168:main.c        **** ***********************************************/
 169:main.c        **** uint16 Get_Adc(void)
 170:main.c        **** {
 535              		.loc 1 170 0
 536              		.cfi_startproc
 537 0000 80B5     		push	{r7, lr}
 538              		.cfi_def_cfa_offset 8
 539              		.cfi_offset 7, -8
 540              		.cfi_offset 14, -4
 541 0002 82B0     		sub	sp, sp, #8
 542              		.cfi_def_cfa_offset 16
 543 0004 00AF     		add	r7, sp, #0
 544              		.cfi_def_cfa_register 7
 171:main.c        ****     uint16 adcResult;
 172:main.c        ****     uint32 mvolts;
 173:main.c        ****     ADC_StartConvert();
 545              		.loc 1 173 0
 546 0006 FFF7FEFF 		bl	ADC_StartConvert
 174:main.c        ****     ADC_IsEndConversion(ADC_WAIT_FOR_RESULT);
 547              		.loc 1 174 0
 548 000a 0220     		mov	r0, #2
 549 000c FFF7FEFF 		bl	ADC_IsEndConversion
 175:main.c        **** 
 176:main.c        ****     adcResult = ADC_GetResult16(0x00);
 550              		.loc 1 176 0
 551 0010 0020     		mov	r0, #0
 552 0012 FFF7FEFF 		bl	ADC_GetResult16
 553 0016 031C     		mov	r3, r0
 554 0018 1A1C     		mov	r2, r3
 555 001a BB1D     		add	r3, r7, #6
 556 001c 1A80     		strh	r2, [r3]
 177:main.c        ****     mvolts = (4000 * adcResult) / 1849;
 557              		.loc 1 177 0
 558 001e BB1D     		add	r3, r7, #6
 559 0020 1B88     		ldrh	r3, [r3]
 560 0022 FA22     		mov	r2, #250
 561 0024 1201     		lsl	r2, r2, #4
 562 0026 5343     		mul	r3, r2
ARM GAS  C:\Users\ADMINI~1.SC-\AppData\Local\Temp\cctjaf5q.s 			page 14


 563 0028 181C     		mov	r0, r3
 564 002a 0549     		ldr	r1, .L31
 565 002c FFF7FEFF 		bl	__aeabi_idiv
 566 0030 031C     		mov	r3, r0
 567 0032 3B60     		str	r3, [r7]
 178:main.c        ****     return (uint16)mvolts;
 568              		.loc 1 178 0
 569 0034 3B68     		ldr	r3, [r7]
 570 0036 9BB2     		uxth	r3, r3
 179:main.c        **** }
 571              		.loc 1 179 0
 572 0038 181C     		mov	r0, r3
 573 003a BD46     		mov	sp, r7
 574 003c 02B0     		add	sp, sp, #8
 575              		@ sp needed
 576 003e 80BD     		pop	{r7, pc}
 577              	.L32:
 578              		.align	2
 579              	.L31:
 580 0040 39070000 		.word	1849
 581              		.cfi_endproc
 582              	.LFE39:
 583              		.size	Get_Adc, .-Get_Adc
 584              		.bss
 585              	beep.7566:
 586 0000 00       		.space	1
 587              		.text
 588              	.Letext0:
 589              		.file 2 "Generated_Source\\PSoC4/cytypes.h"
 590              		.file 3 "Generated_Source\\PSoC4/BLE_Stack.h"
 591              		.file 4 "app_lock.h"
 592              		.file 5 "app_Com.h"