ARM GAS  C:\Users\ADMINI~1.SC-\AppData\Local\Temp\ccuBFnVb.s 			page 1


   1              		.cpu cortex-m0
   2              		.fpu softvfp
   3              		.eabi_attribute 20, 1
   4              		.eabi_attribute 21, 1
   5              		.eabi_attribute 23, 3
   6              		.eabi_attribute 24, 1
   7              		.eabi_attribute 25, 1
   8              		.eabi_attribute 26, 1
   9              		.eabi_attribute 30, 6
  10              		.eabi_attribute 34, 0
  11              		.eabi_attribute 18, 4
  12              		.code	16
  13              		.file	"md5.c"
  14              		.text
  15              	.Ltext0:
  16              		.cfi_sections	.debug_frame
  17              		.global	PADDING
  18              		.data
  19              		.align	2
  20              		.type	PADDING, %object
  21              		.size	PADDING, 64
  22              	PADDING:
  23 0000 80       		.byte	-128
  24 0001 00       		.byte	0
  25 0002 00       		.byte	0
  26 0003 00       		.byte	0
  27 0004 00       		.byte	0
  28 0005 00       		.byte	0
  29 0006 00       		.byte	0
  30 0007 00       		.byte	0
  31 0008 00       		.byte	0
  32 0009 00       		.byte	0
  33 000a 00       		.byte	0
  34 000b 00       		.byte	0
  35 000c 00       		.byte	0
  36 000d 00       		.byte	0
  37 000e 00       		.byte	0
  38 000f 00       		.byte	0
  39 0010 00       		.byte	0
  40 0011 00       		.byte	0
  41 0012 00       		.byte	0
  42 0013 00       		.byte	0
  43 0014 00       		.byte	0
  44 0015 00       		.byte	0
  45 0016 00       		.byte	0
  46 0017 00       		.byte	0
  47 0018 00       		.byte	0
  48 0019 00       		.byte	0
  49 001a 00       		.byte	0
  50 001b 00       		.byte	0
  51 001c 00       		.byte	0
  52 001d 00       		.byte	0
  53 001e 00       		.byte	0
  54 001f 00       		.byte	0
  55 0020 00       		.byte	0
  56 0021 00       		.byte	0
  57 0022 00       		.byte	0
ARM GAS  C:\Users\ADMINI~1.SC-\AppData\Local\Temp\ccuBFnVb.s 			page 2


  58 0023 00       		.byte	0
  59 0024 00       		.byte	0
  60 0025 00       		.byte	0
  61 0026 00       		.byte	0
  62 0027 00       		.byte	0
  63 0028 00       		.byte	0
  64 0029 00       		.byte	0
  65 002a 00       		.byte	0
  66 002b 00       		.byte	0
  67 002c 00       		.byte	0
  68 002d 00       		.byte	0
  69 002e 00       		.byte	0
  70 002f 00       		.byte	0
  71 0030 00       		.byte	0
  72 0031 00       		.byte	0
  73 0032 00       		.byte	0
  74 0033 00       		.byte	0
  75 0034 00       		.byte	0
  76 0035 00       		.byte	0
  77 0036 00       		.byte	0
  78 0037 00       		.byte	0
  79 0038 00       		.byte	0
  80 0039 00       		.byte	0
  81 003a 00       		.byte	0
  82 003b 00       		.byte	0
  83 003c 00       		.byte	0
  84 003d 00       		.byte	0
  85 003e 00       		.byte	0
  86 003f 00       		.byte	0
  87              		.section	.text.MD5Init,"ax",%progbits
  88              		.align	2
  89              		.global	MD5Init
  90              		.code	16
  91              		.thumb_func
  92              		.type	MD5Init, %function
  93              	MD5Init:
  94              	.LFB0:
  95              		.file 1 "E:\\test\\test1\\BLE_OTA_External_Memory_Bootloadable01\\BLE_OTA_External_Memory_Bootload
   1:E:\test\test1\BLE_OTA_External_Memory_Bootloadable01\BLE_OTA_External_Memory_Bootloadable01.cydsn\md5.c **** #include <string.h>
   2:E:\test\test1\BLE_OTA_External_Memory_Bootloadable01\BLE_OTA_External_Memory_Bootloadable01.cydsn\md5.c **** #include <stdlib.h> 
   3:E:\test\test1\BLE_OTA_External_Memory_Bootloadable01\BLE_OTA_External_Memory_Bootloadable01.cydsn\md5.c **** #include "md5.h"  
   4:E:\test\test1\BLE_OTA_External_Memory_Bootloadable01\BLE_OTA_External_Memory_Bootloadable01.cydsn\md5.c ****        
   5:E:\test\test1\BLE_OTA_External_Memory_Bootloadable01\BLE_OTA_External_Memory_Bootloadable01.cydsn\md5.c ****    unsigned char PADDING[]={0x80,0,0,0,0,0,0,0,0,0,0,0,0,0,0,0,  
   6:E:\test\test1\BLE_OTA_External_Memory_Bootloadable01\BLE_OTA_External_Memory_Bootloadable01.cydsn\md5.c ****                              0,0,0,0,0,0,0,0,0,0,0,0,0,0,0,0,  
   7:E:\test\test1\BLE_OTA_External_Memory_Bootloadable01\BLE_OTA_External_Memory_Bootloadable01.cydsn\md5.c ****                              0,0,0,0,0,0,0,0,0,0,0,0,0,0,0,0,  
   8:E:\test\test1\BLE_OTA_External_Memory_Bootloadable01\BLE_OTA_External_Memory_Bootloadable01.cydsn\md5.c ****                              0,0,0,0,0,0,0,0,0,0,0,0,0,0,0,0};  
   9:E:\test\test1\BLE_OTA_External_Memory_Bootloadable01\BLE_OTA_External_Memory_Bootloadable01.cydsn\md5.c ****                              
  10:E:\test\test1\BLE_OTA_External_Memory_Bootloadable01\BLE_OTA_External_Memory_Bootloadable01.cydsn\md5.c ****     void MD5Init(MD5_CTX *context)  
  11:E:\test\test1\BLE_OTA_External_Memory_Bootloadable01\BLE_OTA_External_Memory_Bootloadable01.cydsn\md5.c ****     {  
  96              		.loc 1 11 0
  97              		.cfi_startproc
  98 0000 80B5     		push	{r7, lr}
  99              		.cfi_def_cfa_offset 8
 100              		.cfi_offset 7, -8
 101              		.cfi_offset 14, -4
 102 0002 82B0     		sub	sp, sp, #8
 103              		.cfi_def_cfa_offset 16
ARM GAS  C:\Users\ADMINI~1.SC-\AppData\Local\Temp\ccuBFnVb.s 			page 3


 104 0004 00AF     		add	r7, sp, #0
 105              		.cfi_def_cfa_register 7
 106 0006 7860     		str	r0, [r7, #4]
  12:E:\test\test1\BLE_OTA_External_Memory_Bootloadable01\BLE_OTA_External_Memory_Bootloadable01.cydsn\md5.c ****          context->count[0] = 0;  
 107              		.loc 1 12 0
 108 0008 7B68     		ldr	r3, [r7, #4]
 109 000a 0022     		mov	r2, #0
 110 000c 1A60     		str	r2, [r3]
  13:E:\test\test1\BLE_OTA_External_Memory_Bootloadable01\BLE_OTA_External_Memory_Bootloadable01.cydsn\md5.c ****          context->count[1] = 0;  
 111              		.loc 1 13 0
 112 000e 7B68     		ldr	r3, [r7, #4]
 113 0010 0022     		mov	r2, #0
 114 0012 5A60     		str	r2, [r3, #4]
  14:E:\test\test1\BLE_OTA_External_Memory_Bootloadable01\BLE_OTA_External_Memory_Bootloadable01.cydsn\md5.c ****          context->state[0] = 0x67452301;  
 115              		.loc 1 14 0
 116 0014 7B68     		ldr	r3, [r7, #4]
 117 0016 074A     		ldr	r2, .L2
 118 0018 9A60     		str	r2, [r3, #8]
  15:E:\test\test1\BLE_OTA_External_Memory_Bootloadable01\BLE_OTA_External_Memory_Bootloadable01.cydsn\md5.c ****          context->state[1] = 0xEFCDAB89;  
 119              		.loc 1 15 0
 120 001a 7B68     		ldr	r3, [r7, #4]
 121 001c 064A     		ldr	r2, .L2+4
 122 001e DA60     		str	r2, [r3, #12]
  16:E:\test\test1\BLE_OTA_External_Memory_Bootloadable01\BLE_OTA_External_Memory_Bootloadable01.cydsn\md5.c ****          context->state[2] = 0x98BADCFE;  
 123              		.loc 1 16 0
 124 0020 7B68     		ldr	r3, [r7, #4]
 125 0022 064A     		ldr	r2, .L2+8
 126 0024 1A61     		str	r2, [r3, #16]
  17:E:\test\test1\BLE_OTA_External_Memory_Bootloadable01\BLE_OTA_External_Memory_Bootloadable01.cydsn\md5.c ****          context->state[3] = 0x10325476;  
 127              		.loc 1 17 0
 128 0026 7B68     		ldr	r3, [r7, #4]
 129 0028 054A     		ldr	r2, .L2+12
 130 002a 5A61     		str	r2, [r3, #20]
  18:E:\test\test1\BLE_OTA_External_Memory_Bootloadable01\BLE_OTA_External_Memory_Bootloadable01.cydsn\md5.c ****     }  
 131              		.loc 1 18 0
 132 002c BD46     		mov	sp, r7
 133 002e 02B0     		add	sp, sp, #8
 134              		@ sp needed
 135 0030 80BD     		pop	{r7, pc}
 136              	.L3:
 137 0032 C046     		.align	2
 138              	.L2:
 139 0034 01234567 		.word	1732584193
 140 0038 89ABCDEF 		.word	-271733879
 141 003c FEDCBA98 		.word	-1732584194
 142 0040 76543210 		.word	271733878
 143              		.cfi_endproc
 144              	.LFE0:
 145              		.size	MD5Init, .-MD5Init
 146              		.section	.text.MD5Update,"ax",%progbits
 147              		.align	2
 148              		.global	MD5Update
 149              		.code	16
 150              		.thumb_func
 151              		.type	MD5Update, %function
 152              	MD5Update:
 153              	.LFB1:
ARM GAS  C:\Users\ADMINI~1.SC-\AppData\Local\Temp\ccuBFnVb.s 			page 4


  19:E:\test\test1\BLE_OTA_External_Memory_Bootloadable01\BLE_OTA_External_Memory_Bootloadable01.cydsn\md5.c ****     void MD5Update(MD5_CTX *context,unsigned char *input,unsigned int inputlen)  
  20:E:\test\test1\BLE_OTA_External_Memory_Bootloadable01\BLE_OTA_External_Memory_Bootloadable01.cydsn\md5.c ****     {  
 154              		.loc 1 20 0
 155              		.cfi_startproc
 156 0000 80B5     		push	{r7, lr}
 157              		.cfi_def_cfa_offset 8
 158              		.cfi_offset 7, -8
 159              		.cfi_offset 14, -4
 160 0002 88B0     		sub	sp, sp, #32
 161              		.cfi_def_cfa_offset 40
 162 0004 00AF     		add	r7, sp, #0
 163              		.cfi_def_cfa_register 7
 164 0006 F860     		str	r0, [r7, #12]
 165 0008 B960     		str	r1, [r7, #8]
 166 000a 7A60     		str	r2, [r7, #4]
  21:E:\test\test1\BLE_OTA_External_Memory_Bootloadable01\BLE_OTA_External_Memory_Bootloadable01.cydsn\md5.c ****         unsigned int i = 0,index = 0,partlen = 0;  
 167              		.loc 1 21 0
 168 000c 0023     		mov	r3, #0
 169 000e FB61     		str	r3, [r7, #28]
 170 0010 0023     		mov	r3, #0
 171 0012 BB61     		str	r3, [r7, #24]
 172 0014 0023     		mov	r3, #0
 173 0016 7B61     		str	r3, [r7, #20]
  22:E:\test\test1\BLE_OTA_External_Memory_Bootloadable01\BLE_OTA_External_Memory_Bootloadable01.cydsn\md5.c ****         index = (context->count[0] >> 3) & 0x3F;  
 174              		.loc 1 22 0
 175 0018 FB68     		ldr	r3, [r7, #12]
 176 001a 1B68     		ldr	r3, [r3]
 177 001c DB08     		lsr	r3, r3, #3
 178 001e 3F22     		mov	r2, #63
 179 0020 1340     		and	r3, r2
 180 0022 BB61     		str	r3, [r7, #24]
  23:E:\test\test1\BLE_OTA_External_Memory_Bootloadable01\BLE_OTA_External_Memory_Bootloadable01.cydsn\md5.c ****         partlen = 64 - index;  
 181              		.loc 1 23 0
 182 0024 BB69     		ldr	r3, [r7, #24]
 183 0026 4022     		mov	r2, #64
 184 0028 D31A     		sub	r3, r2, r3
 185 002a 7B61     		str	r3, [r7, #20]
  24:E:\test\test1\BLE_OTA_External_Memory_Bootloadable01\BLE_OTA_External_Memory_Bootloadable01.cydsn\md5.c ****         context->count[0] += inputlen << 3;  
 186              		.loc 1 24 0
 187 002c FB68     		ldr	r3, [r7, #12]
 188 002e 1A68     		ldr	r2, [r3]
 189 0030 7B68     		ldr	r3, [r7, #4]
 190 0032 DB00     		lsl	r3, r3, #3
 191 0034 D218     		add	r2, r2, r3
 192 0036 FB68     		ldr	r3, [r7, #12]
 193 0038 1A60     		str	r2, [r3]
  25:E:\test\test1\BLE_OTA_External_Memory_Bootloadable01\BLE_OTA_External_Memory_Bootloadable01.cydsn\md5.c ****         if(context->count[0] < (inputlen << 3))  
 194              		.loc 1 25 0
 195 003a FB68     		ldr	r3, [r7, #12]
 196 003c 1A68     		ldr	r2, [r3]
 197 003e 7B68     		ldr	r3, [r7, #4]
 198 0040 DB00     		lsl	r3, r3, #3
 199 0042 9A42     		cmp	r2, r3
 200 0044 04D2     		bcs	.L5
  26:E:\test\test1\BLE_OTA_External_Memory_Bootloadable01\BLE_OTA_External_Memory_Bootloadable01.cydsn\md5.c ****            context->count[1]++;  
 201              		.loc 1 26 0
 202 0046 FB68     		ldr	r3, [r7, #12]
ARM GAS  C:\Users\ADMINI~1.SC-\AppData\Local\Temp\ccuBFnVb.s 			page 5


 203 0048 5B68     		ldr	r3, [r3, #4]
 204 004a 5A1C     		add	r2, r3, #1
 205 004c FB68     		ldr	r3, [r7, #12]
 206 004e 5A60     		str	r2, [r3, #4]
 207              	.L5:
  27:E:\test\test1\BLE_OTA_External_Memory_Bootloadable01\BLE_OTA_External_Memory_Bootloadable01.cydsn\md5.c ****         context->count[1] += inputlen >> 29;  
 208              		.loc 1 27 0
 209 0050 FB68     		ldr	r3, [r7, #12]
 210 0052 5A68     		ldr	r2, [r3, #4]
 211 0054 7B68     		ldr	r3, [r7, #4]
 212 0056 5B0F     		lsr	r3, r3, #29
 213 0058 D218     		add	r2, r2, r3
 214 005a FB68     		ldr	r3, [r7, #12]
 215 005c 5A60     		str	r2, [r3, #4]
  28:E:\test\test1\BLE_OTA_External_Memory_Bootloadable01\BLE_OTA_External_Memory_Bootloadable01.cydsn\md5.c ****           
  29:E:\test\test1\BLE_OTA_External_Memory_Bootloadable01\BLE_OTA_External_Memory_Bootloadable01.cydsn\md5.c ****         if(inputlen >= partlen)  
 216              		.loc 1 29 0
 217 005e 7A68     		ldr	r2, [r7, #4]
 218 0060 7B69     		ldr	r3, [r7, #20]
 219 0062 9A42     		cmp	r2, r3
 220 0064 2CD3     		bcc	.L6
  30:E:\test\test1\BLE_OTA_External_Memory_Bootloadable01\BLE_OTA_External_Memory_Bootloadable01.cydsn\md5.c ****         {  
  31:E:\test\test1\BLE_OTA_External_Memory_Bootloadable01\BLE_OTA_External_Memory_Bootloadable01.cydsn\md5.c ****            memcpy(&context->buffer[index],input,partlen);  
 221              		.loc 1 31 0
 222 0066 BB69     		ldr	r3, [r7, #24]
 223 0068 1833     		add	r3, r3, #24
 224 006a FA68     		ldr	r2, [r7, #12]
 225 006c D118     		add	r1, r2, r3
 226 006e BA68     		ldr	r2, [r7, #8]
 227 0070 7B69     		ldr	r3, [r7, #20]
 228 0072 081C     		mov	r0, r1
 229 0074 111C     		mov	r1, r2
 230 0076 1A1C     		mov	r2, r3
 231 0078 FFF7FEFF 		bl	memcpy
  32:E:\test\test1\BLE_OTA_External_Memory_Bootloadable01\BLE_OTA_External_Memory_Bootloadable01.cydsn\md5.c ****            MD5Transform(context->state,context->buffer);  
 232              		.loc 1 32 0
 233 007c FB68     		ldr	r3, [r7, #12]
 234 007e 0833     		add	r3, r3, #8
 235 0080 1A1C     		mov	r2, r3
 236 0082 FB68     		ldr	r3, [r7, #12]
 237 0084 1833     		add	r3, r3, #24
 238 0086 101C     		mov	r0, r2
 239 0088 191C     		mov	r1, r3
 240 008a FFF7FEFF 		bl	MD5Transform
  33:E:\test\test1\BLE_OTA_External_Memory_Bootloadable01\BLE_OTA_External_Memory_Bootloadable01.cydsn\md5.c ****            for(i = partlen;i+64 <= inputlen;i+=64)  
 241              		.loc 1 33 0
 242 008e 7B69     		ldr	r3, [r7, #20]
 243 0090 FB61     		str	r3, [r7, #28]
 244 0092 0CE0     		b	.L7
 245              	.L8:
  34:E:\test\test1\BLE_OTA_External_Memory_Bootloadable01\BLE_OTA_External_Memory_Bootloadable01.cydsn\md5.c ****                MD5Transform(context->state,&input[i]);  
 246              		.loc 1 34 0 discriminator 3
 247 0094 FB68     		ldr	r3, [r7, #12]
 248 0096 0833     		add	r3, r3, #8
 249 0098 191C     		mov	r1, r3
 250 009a BA68     		ldr	r2, [r7, #8]
 251 009c FB69     		ldr	r3, [r7, #28]
ARM GAS  C:\Users\ADMINI~1.SC-\AppData\Local\Temp\ccuBFnVb.s 			page 6


 252 009e D318     		add	r3, r2, r3
 253 00a0 081C     		mov	r0, r1
 254 00a2 191C     		mov	r1, r3
 255 00a4 FFF7FEFF 		bl	MD5Transform
  33:E:\test\test1\BLE_OTA_External_Memory_Bootloadable01\BLE_OTA_External_Memory_Bootloadable01.cydsn\md5.c ****            for(i = partlen;i+64 <= inputlen;i+=64)  
 256              		.loc 1 33 0 discriminator 3
 257 00a8 FB69     		ldr	r3, [r7, #28]
 258 00aa 4033     		add	r3, r3, #64
 259 00ac FB61     		str	r3, [r7, #28]
 260              	.L7:
  33:E:\test\test1\BLE_OTA_External_Memory_Bootloadable01\BLE_OTA_External_Memory_Bootloadable01.cydsn\md5.c ****            for(i = partlen;i+64 <= inputlen;i+=64)  
 261              		.loc 1 33 0 is_stmt 0 discriminator 1
 262 00ae FB69     		ldr	r3, [r7, #28]
 263 00b0 4033     		add	r3, r3, #64
 264 00b2 1A1E     		sub	r2, r3, #0
 265 00b4 7B68     		ldr	r3, [r7, #4]
 266 00b6 9A42     		cmp	r2, r3
 267 00b8 ECD9     		bls	.L8
  35:E:\test\test1\BLE_OTA_External_Memory_Bootloadable01\BLE_OTA_External_Memory_Bootloadable01.cydsn\md5.c ****            index = 0;          
 268              		.loc 1 35 0 is_stmt 1
 269 00ba 0023     		mov	r3, #0
 270 00bc BB61     		str	r3, [r7, #24]
 271 00be 01E0     		b	.L9
 272              	.L6:
  36:E:\test\test1\BLE_OTA_External_Memory_Bootloadable01\BLE_OTA_External_Memory_Bootloadable01.cydsn\md5.c ****         }    
  37:E:\test\test1\BLE_OTA_External_Memory_Bootloadable01\BLE_OTA_External_Memory_Bootloadable01.cydsn\md5.c ****         else  
  38:E:\test\test1\BLE_OTA_External_Memory_Bootloadable01\BLE_OTA_External_Memory_Bootloadable01.cydsn\md5.c ****         {  
  39:E:\test\test1\BLE_OTA_External_Memory_Bootloadable01\BLE_OTA_External_Memory_Bootloadable01.cydsn\md5.c ****             i = 0;  
 273              		.loc 1 39 0
 274 00c0 0023     		mov	r3, #0
 275 00c2 FB61     		str	r3, [r7, #28]
 276              	.L9:
  40:E:\test\test1\BLE_OTA_External_Memory_Bootloadable01\BLE_OTA_External_Memory_Bootloadable01.cydsn\md5.c ****         }  
  41:E:\test\test1\BLE_OTA_External_Memory_Bootloadable01\BLE_OTA_External_Memory_Bootloadable01.cydsn\md5.c ****         memcpy(&context->buffer[index],&input[i],inputlen-i);  
 277              		.loc 1 41 0
 278 00c4 BB69     		ldr	r3, [r7, #24]
 279 00c6 1833     		add	r3, r3, #24
 280 00c8 FA68     		ldr	r2, [r7, #12]
 281 00ca D018     		add	r0, r2, r3
 282 00cc BA68     		ldr	r2, [r7, #8]
 283 00ce FB69     		ldr	r3, [r7, #28]
 284 00d0 D118     		add	r1, r2, r3
 285 00d2 7A68     		ldr	r2, [r7, #4]
 286 00d4 FB69     		ldr	r3, [r7, #28]
 287 00d6 D31A     		sub	r3, r2, r3
 288 00d8 1A1C     		mov	r2, r3
 289 00da FFF7FEFF 		bl	memcpy
  42:E:\test\test1\BLE_OTA_External_Memory_Bootloadable01\BLE_OTA_External_Memory_Bootloadable01.cydsn\md5.c ****     }  
 290              		.loc 1 42 0
 291 00de BD46     		mov	sp, r7
 292 00e0 08B0     		add	sp, sp, #32
 293              		@ sp needed
 294 00e2 80BD     		pop	{r7, pc}
 295              		.cfi_endproc
 296              	.LFE1:
 297              		.size	MD5Update, .-MD5Update
 298              		.section	.text.MD5Final,"ax",%progbits
ARM GAS  C:\Users\ADMINI~1.SC-\AppData\Local\Temp\ccuBFnVb.s 			page 7


 299              		.align	2
 300              		.global	MD5Final
 301              		.code	16
 302              		.thumb_func
 303              		.type	MD5Final, %function
 304              	MD5Final:
 305              	.LFB2:
  43:E:\test\test1\BLE_OTA_External_Memory_Bootloadable01\BLE_OTA_External_Memory_Bootloadable01.cydsn\md5.c ****     void MD5Final(MD5_CTX *context,unsigned char digest[16])  
  44:E:\test\test1\BLE_OTA_External_Memory_Bootloadable01\BLE_OTA_External_Memory_Bootloadable01.cydsn\md5.c ****     {  
 306              		.loc 1 44 0
 307              		.cfi_startproc
 308 0000 80B5     		push	{r7, lr}
 309              		.cfi_def_cfa_offset 8
 310              		.cfi_offset 7, -8
 311              		.cfi_offset 14, -4
 312 0002 86B0     		sub	sp, sp, #24
 313              		.cfi_def_cfa_offset 32
 314 0004 00AF     		add	r7, sp, #0
 315              		.cfi_def_cfa_register 7
 316 0006 7860     		str	r0, [r7, #4]
 317 0008 3960     		str	r1, [r7]
  45:E:\test\test1\BLE_OTA_External_Memory_Bootloadable01\BLE_OTA_External_Memory_Bootloadable01.cydsn\md5.c ****         unsigned int index = 0,padlen = 0;  
 318              		.loc 1 45 0
 319 000a 0023     		mov	r3, #0
 320 000c 7B61     		str	r3, [r7, #20]
 321 000e 0023     		mov	r3, #0
 322 0010 3B61     		str	r3, [r7, #16]
  46:E:\test\test1\BLE_OTA_External_Memory_Bootloadable01\BLE_OTA_External_Memory_Bootloadable01.cydsn\md5.c ****         unsigned char bits[8];  
  47:E:\test\test1\BLE_OTA_External_Memory_Bootloadable01\BLE_OTA_External_Memory_Bootloadable01.cydsn\md5.c ****         index = (context->count[0] >> 3) & 0x3F;  
 323              		.loc 1 47 0
 324 0012 7B68     		ldr	r3, [r7, #4]
 325 0014 1B68     		ldr	r3, [r3]
 326 0016 DB08     		lsr	r3, r3, #3
 327 0018 3F22     		mov	r2, #63
 328 001a 1340     		and	r3, r2
 329 001c 7B61     		str	r3, [r7, #20]
  48:E:\test\test1\BLE_OTA_External_Memory_Bootloadable01\BLE_OTA_External_Memory_Bootloadable01.cydsn\md5.c ****         padlen = (index < 56)?(56-index):(120-index);  
 330              		.loc 1 48 0
 331 001e 7B69     		ldr	r3, [r7, #20]
 332 0020 372B     		cmp	r3, #55
 333 0022 03D8     		bhi	.L11
 334              		.loc 1 48 0 is_stmt 0 discriminator 1
 335 0024 7B69     		ldr	r3, [r7, #20]
 336 0026 3822     		mov	r2, #56
 337 0028 D31A     		sub	r3, r2, r3
 338 002a 02E0     		b	.L12
 339              	.L11:
 340              		.loc 1 48 0 discriminator 2
 341 002c 7B69     		ldr	r3, [r7, #20]
 342 002e 7822     		mov	r2, #120
 343 0030 D31A     		sub	r3, r2, r3
 344              	.L12:
 345              		.loc 1 48 0 discriminator 4
 346 0032 3B61     		str	r3, [r7, #16]
  49:E:\test\test1\BLE_OTA_External_Memory_Bootloadable01\BLE_OTA_External_Memory_Bootloadable01.cydsn\md5.c ****         MD5Encode(bits,context->count,8);  
 347              		.loc 1 49 0 is_stmt 1 discriminator 4
 348 0034 7B68     		ldr	r3, [r7, #4]
ARM GAS  C:\Users\ADMINI~1.SC-\AppData\Local\Temp\ccuBFnVb.s 			page 8


 349 0036 0822     		mov	r2, #8
 350 0038 BA18     		add	r2, r7, r2
 351 003a 101C     		mov	r0, r2
 352 003c 191C     		mov	r1, r3
 353 003e 0822     		mov	r2, #8
 354 0040 FFF7FEFF 		bl	MD5Encode
  50:E:\test\test1\BLE_OTA_External_Memory_Bootloadable01\BLE_OTA_External_Memory_Bootloadable01.cydsn\md5.c ****         MD5Update(context,PADDING,padlen);  
 355              		.loc 1 50 0 discriminator 4
 356 0044 7968     		ldr	r1, [r7, #4]
 357 0046 0D4A     		ldr	r2, .L13
 358 0048 3B69     		ldr	r3, [r7, #16]
 359 004a 081C     		mov	r0, r1
 360 004c 111C     		mov	r1, r2
 361 004e 1A1C     		mov	r2, r3
 362 0050 FFF7FEFF 		bl	MD5Update
  51:E:\test\test1\BLE_OTA_External_Memory_Bootloadable01\BLE_OTA_External_Memory_Bootloadable01.cydsn\md5.c ****         MD5Update(context,bits,8);  
 363              		.loc 1 51 0 discriminator 4
 364 0054 7A68     		ldr	r2, [r7, #4]
 365 0056 0823     		mov	r3, #8
 366 0058 FB18     		add	r3, r7, r3
 367 005a 101C     		mov	r0, r2
 368 005c 191C     		mov	r1, r3
 369 005e 0822     		mov	r2, #8
 370 0060 FFF7FEFF 		bl	MD5Update
  52:E:\test\test1\BLE_OTA_External_Memory_Bootloadable01\BLE_OTA_External_Memory_Bootloadable01.cydsn\md5.c ****         MD5Encode(digest,context->state,16);  
 371              		.loc 1 52 0 discriminator 4
 372 0064 7B68     		ldr	r3, [r7, #4]
 373 0066 0833     		add	r3, r3, #8
 374 0068 3A68     		ldr	r2, [r7]
 375 006a 101C     		mov	r0, r2
 376 006c 191C     		mov	r1, r3
 377 006e 1022     		mov	r2, #16
 378 0070 FFF7FEFF 		bl	MD5Encode
  53:E:\test\test1\BLE_OTA_External_Memory_Bootloadable01\BLE_OTA_External_Memory_Bootloadable01.cydsn\md5.c ****     }  
 379              		.loc 1 53 0 discriminator 4
 380 0074 BD46     		mov	sp, r7
 381 0076 06B0     		add	sp, sp, #24
 382              		@ sp needed
 383 0078 80BD     		pop	{r7, pc}
 384              	.L14:
 385 007a C046     		.align	2
 386              	.L13:
 387 007c 00000000 		.word	PADDING
 388              		.cfi_endproc
 389              	.LFE2:
 390              		.size	MD5Final, .-MD5Final
 391              		.section	.text.MD5Encode,"ax",%progbits
 392              		.align	2
 393              		.global	MD5Encode
 394              		.code	16
 395              		.thumb_func
 396              		.type	MD5Encode, %function
 397              	MD5Encode:
 398              	.LFB3:
  54:E:\test\test1\BLE_OTA_External_Memory_Bootloadable01\BLE_OTA_External_Memory_Bootloadable01.cydsn\md5.c ****     void MD5Encode(unsigned char *output,unsigned int *input,unsigned int len)  
  55:E:\test\test1\BLE_OTA_External_Memory_Bootloadable01\BLE_OTA_External_Memory_Bootloadable01.cydsn\md5.c ****     {  
 399              		.loc 1 55 0
ARM GAS  C:\Users\ADMINI~1.SC-\AppData\Local\Temp\ccuBFnVb.s 			page 9


 400              		.cfi_startproc
 401 0000 80B5     		push	{r7, lr}
 402              		.cfi_def_cfa_offset 8
 403              		.cfi_offset 7, -8
 404              		.cfi_offset 14, -4
 405 0002 86B0     		sub	sp, sp, #24
 406              		.cfi_def_cfa_offset 32
 407 0004 00AF     		add	r7, sp, #0
 408              		.cfi_def_cfa_register 7
 409 0006 F860     		str	r0, [r7, #12]
 410 0008 B960     		str	r1, [r7, #8]
 411 000a 7A60     		str	r2, [r7, #4]
  56:E:\test\test1\BLE_OTA_External_Memory_Bootloadable01\BLE_OTA_External_Memory_Bootloadable01.cydsn\md5.c ****         unsigned int i = 0,j = 0;  
 412              		.loc 1 56 0
 413 000c 0023     		mov	r3, #0
 414 000e 7B61     		str	r3, [r7, #20]
 415 0010 0023     		mov	r3, #0
 416 0012 3B61     		str	r3, [r7, #16]
  57:E:\test\test1\BLE_OTA_External_Memory_Bootloadable01\BLE_OTA_External_Memory_Bootloadable01.cydsn\md5.c ****         while(j < len)  
 417              		.loc 1 57 0
 418 0014 33E0     		b	.L16
 419              	.L17:
  58:E:\test\test1\BLE_OTA_External_Memory_Bootloadable01\BLE_OTA_External_Memory_Bootloadable01.cydsn\md5.c ****         {  
  59:E:\test\test1\BLE_OTA_External_Memory_Bootloadable01\BLE_OTA_External_Memory_Bootloadable01.cydsn\md5.c ****              output[j] = input[i] & 0xFF;    
 420              		.loc 1 59 0
 421 0016 FA68     		ldr	r2, [r7, #12]
 422 0018 3B69     		ldr	r3, [r7, #16]
 423 001a D218     		add	r2, r2, r3
 424 001c 7B69     		ldr	r3, [r7, #20]
 425 001e 9B00     		lsl	r3, r3, #2
 426 0020 B968     		ldr	r1, [r7, #8]
 427 0022 CB18     		add	r3, r1, r3
 428 0024 1B68     		ldr	r3, [r3]
 429 0026 DBB2     		uxtb	r3, r3
 430 0028 1370     		strb	r3, [r2]
  60:E:\test\test1\BLE_OTA_External_Memory_Bootloadable01\BLE_OTA_External_Memory_Bootloadable01.cydsn\md5.c ****              output[j+1] = (input[i] >> 8) & 0xFF;  
 431              		.loc 1 60 0
 432 002a 3B69     		ldr	r3, [r7, #16]
 433 002c 0133     		add	r3, r3, #1
 434 002e FA68     		ldr	r2, [r7, #12]
 435 0030 D218     		add	r2, r2, r3
 436 0032 7B69     		ldr	r3, [r7, #20]
 437 0034 9B00     		lsl	r3, r3, #2
 438 0036 B968     		ldr	r1, [r7, #8]
 439 0038 CB18     		add	r3, r1, r3
 440 003a 1B68     		ldr	r3, [r3]
 441 003c 1B0A     		lsr	r3, r3, #8
 442 003e DBB2     		uxtb	r3, r3
 443 0040 1370     		strb	r3, [r2]
  61:E:\test\test1\BLE_OTA_External_Memory_Bootloadable01\BLE_OTA_External_Memory_Bootloadable01.cydsn\md5.c ****              output[j+2] = (input[i] >> 16) & 0xFF;  
 444              		.loc 1 61 0
 445 0042 3B69     		ldr	r3, [r7, #16]
 446 0044 0233     		add	r3, r3, #2
 447 0046 FA68     		ldr	r2, [r7, #12]
 448 0048 D218     		add	r2, r2, r3
 449 004a 7B69     		ldr	r3, [r7, #20]
 450 004c 9B00     		lsl	r3, r3, #2
ARM GAS  C:\Users\ADMINI~1.SC-\AppData\Local\Temp\ccuBFnVb.s 			page 10


 451 004e B968     		ldr	r1, [r7, #8]
 452 0050 CB18     		add	r3, r1, r3
 453 0052 1B68     		ldr	r3, [r3]
 454 0054 1B0C     		lsr	r3, r3, #16
 455 0056 DBB2     		uxtb	r3, r3
 456 0058 1370     		strb	r3, [r2]
  62:E:\test\test1\BLE_OTA_External_Memory_Bootloadable01\BLE_OTA_External_Memory_Bootloadable01.cydsn\md5.c ****              output[j+3] = (input[i] >> 24) & 0xFF;  
 457              		.loc 1 62 0
 458 005a 3B69     		ldr	r3, [r7, #16]
 459 005c 0333     		add	r3, r3, #3
 460 005e FA68     		ldr	r2, [r7, #12]
 461 0060 D218     		add	r2, r2, r3
 462 0062 7B69     		ldr	r3, [r7, #20]
 463 0064 9B00     		lsl	r3, r3, #2
 464 0066 B968     		ldr	r1, [r7, #8]
 465 0068 CB18     		add	r3, r1, r3
 466 006a 1B68     		ldr	r3, [r3]
 467 006c 1B0E     		lsr	r3, r3, #24
 468 006e DBB2     		uxtb	r3, r3
 469 0070 1370     		strb	r3, [r2]
  63:E:\test\test1\BLE_OTA_External_Memory_Bootloadable01\BLE_OTA_External_Memory_Bootloadable01.cydsn\md5.c ****              i++;  
 470              		.loc 1 63 0
 471 0072 7B69     		ldr	r3, [r7, #20]
 472 0074 0133     		add	r3, r3, #1
 473 0076 7B61     		str	r3, [r7, #20]
  64:E:\test\test1\BLE_OTA_External_Memory_Bootloadable01\BLE_OTA_External_Memory_Bootloadable01.cydsn\md5.c ****              j+=4;  
 474              		.loc 1 64 0
 475 0078 3B69     		ldr	r3, [r7, #16]
 476 007a 0433     		add	r3, r3, #4
 477 007c 3B61     		str	r3, [r7, #16]
 478              	.L16:
  57:E:\test\test1\BLE_OTA_External_Memory_Bootloadable01\BLE_OTA_External_Memory_Bootloadable01.cydsn\md5.c ****         {  
 479              		.loc 1 57 0
 480 007e 3A69     		ldr	r2, [r7, #16]
 481 0080 7B68     		ldr	r3, [r7, #4]
 482 0082 9A42     		cmp	r2, r3
 483 0084 C7D3     		bcc	.L17
  65:E:\test\test1\BLE_OTA_External_Memory_Bootloadable01\BLE_OTA_External_Memory_Bootloadable01.cydsn\md5.c ****         }  
  66:E:\test\test1\BLE_OTA_External_Memory_Bootloadable01\BLE_OTA_External_Memory_Bootloadable01.cydsn\md5.c ****     }  
 484              		.loc 1 66 0
 485 0086 BD46     		mov	sp, r7
 486 0088 06B0     		add	sp, sp, #24
 487              		@ sp needed
 488 008a 80BD     		pop	{r7, pc}
 489              		.cfi_endproc
 490              	.LFE3:
 491              		.size	MD5Encode, .-MD5Encode
 492              		.section	.text.MD5Decode,"ax",%progbits
 493              		.align	2
 494              		.global	MD5Decode
 495              		.code	16
 496              		.thumb_func
 497              		.type	MD5Decode, %function
 498              	MD5Decode:
 499              	.LFB4:
  67:E:\test\test1\BLE_OTA_External_Memory_Bootloadable01\BLE_OTA_External_Memory_Bootloadable01.cydsn\md5.c ****     void MD5Decode(unsigned int *output,unsigned char *input,unsigned int len)  
  68:E:\test\test1\BLE_OTA_External_Memory_Bootloadable01\BLE_OTA_External_Memory_Bootloadable01.cydsn\md5.c ****     {  
ARM GAS  C:\Users\ADMINI~1.SC-\AppData\Local\Temp\ccuBFnVb.s 			page 11


 500              		.loc 1 68 0
 501              		.cfi_startproc
 502 0000 80B5     		push	{r7, lr}
 503              		.cfi_def_cfa_offset 8
 504              		.cfi_offset 7, -8
 505              		.cfi_offset 14, -4
 506 0002 86B0     		sub	sp, sp, #24
 507              		.cfi_def_cfa_offset 32
 508 0004 00AF     		add	r7, sp, #0
 509              		.cfi_def_cfa_register 7
 510 0006 F860     		str	r0, [r7, #12]
 511 0008 B960     		str	r1, [r7, #8]
 512 000a 7A60     		str	r2, [r7, #4]
  69:E:\test\test1\BLE_OTA_External_Memory_Bootloadable01\BLE_OTA_External_Memory_Bootloadable01.cydsn\md5.c ****          unsigned int i = 0,j = 0;  
 513              		.loc 1 69 0
 514 000c 0023     		mov	r3, #0
 515 000e 7B61     		str	r3, [r7, #20]
 516 0010 0023     		mov	r3, #0
 517 0012 3B61     		str	r3, [r7, #16]
  70:E:\test\test1\BLE_OTA_External_Memory_Bootloadable01\BLE_OTA_External_Memory_Bootloadable01.cydsn\md5.c ****          while(j < len)  
 518              		.loc 1 70 0
 519 0014 25E0     		b	.L19
 520              	.L20:
  71:E:\test\test1\BLE_OTA_External_Memory_Bootloadable01\BLE_OTA_External_Memory_Bootloadable01.cydsn\md5.c ****          {  
  72:E:\test\test1\BLE_OTA_External_Memory_Bootloadable01\BLE_OTA_External_Memory_Bootloadable01.cydsn\md5.c ****                output[i] = (input[j]) |  
 521              		.loc 1 72 0
 522 0016 7B69     		ldr	r3, [r7, #20]
 523 0018 9B00     		lsl	r3, r3, #2
 524 001a FA68     		ldr	r2, [r7, #12]
 525 001c D318     		add	r3, r2, r3
 526 001e B968     		ldr	r1, [r7, #8]
 527 0020 3A69     		ldr	r2, [r7, #16]
 528 0022 8A18     		add	r2, r1, r2
 529 0024 1278     		ldrb	r2, [r2]
 530 0026 101C     		mov	r0, r2
  73:E:\test\test1\BLE_OTA_External_Memory_Bootloadable01\BLE_OTA_External_Memory_Bootloadable01.cydsn\md5.c ****                            (input[j+1] << 8) |  
 531              		.loc 1 73 0
 532 0028 3A69     		ldr	r2, [r7, #16]
 533 002a 0132     		add	r2, r2, #1
 534 002c B968     		ldr	r1, [r7, #8]
 535 002e 8A18     		add	r2, r1, r2
 536 0030 1278     		ldrb	r2, [r2]
 537 0032 1202     		lsl	r2, r2, #8
  72:E:\test\test1\BLE_OTA_External_Memory_Bootloadable01\BLE_OTA_External_Memory_Bootloadable01.cydsn\md5.c ****                            (input[j+1] << 8) |  
 538              		.loc 1 72 0
 539 0034 011C     		mov	r1, r0
 540 0036 1143     		orr	r1, r2
  74:E:\test\test1\BLE_OTA_External_Memory_Bootloadable01\BLE_OTA_External_Memory_Bootloadable01.cydsn\md5.c ****                            (input[j+2] << 16) |  
 541              		.loc 1 74 0
 542 0038 3A69     		ldr	r2, [r7, #16]
 543 003a 0232     		add	r2, r2, #2
 544 003c B868     		ldr	r0, [r7, #8]
 545 003e 8218     		add	r2, r0, r2
 546 0040 1278     		ldrb	r2, [r2]
 547 0042 1204     		lsl	r2, r2, #16
  73:E:\test\test1\BLE_OTA_External_Memory_Bootloadable01\BLE_OTA_External_Memory_Bootloadable01.cydsn\md5.c ****                            (input[j+1] << 8) |  
 548              		.loc 1 73 0
ARM GAS  C:\Users\ADMINI~1.SC-\AppData\Local\Temp\ccuBFnVb.s 			page 12


 549 0044 1143     		orr	r1, r2
  75:E:\test\test1\BLE_OTA_External_Memory_Bootloadable01\BLE_OTA_External_Memory_Bootloadable01.cydsn\md5.c ****                            (input[j+3] << 24);  
 550              		.loc 1 75 0
 551 0046 3A69     		ldr	r2, [r7, #16]
 552 0048 0332     		add	r2, r2, #3
 553 004a B868     		ldr	r0, [r7, #8]
 554 004c 8218     		add	r2, r0, r2
 555 004e 1278     		ldrb	r2, [r2]
 556 0050 1206     		lsl	r2, r2, #24
  74:E:\test\test1\BLE_OTA_External_Memory_Bootloadable01\BLE_OTA_External_Memory_Bootloadable01.cydsn\md5.c ****                            (input[j+2] << 16) |  
 557              		.loc 1 74 0
 558 0052 0A43     		orr	r2, r1
  72:E:\test\test1\BLE_OTA_External_Memory_Bootloadable01\BLE_OTA_External_Memory_Bootloadable01.cydsn\md5.c ****                            (input[j+1] << 8) |  
 559              		.loc 1 72 0
 560 0054 1A60     		str	r2, [r3]
  76:E:\test\test1\BLE_OTA_External_Memory_Bootloadable01\BLE_OTA_External_Memory_Bootloadable01.cydsn\md5.c ****                i++;  
 561              		.loc 1 76 0
 562 0056 7B69     		ldr	r3, [r7, #20]
 563 0058 0133     		add	r3, r3, #1
 564 005a 7B61     		str	r3, [r7, #20]
  77:E:\test\test1\BLE_OTA_External_Memory_Bootloadable01\BLE_OTA_External_Memory_Bootloadable01.cydsn\md5.c ****                j+=4;   
 565              		.loc 1 77 0
 566 005c 3B69     		ldr	r3, [r7, #16]
 567 005e 0433     		add	r3, r3, #4
 568 0060 3B61     		str	r3, [r7, #16]
 569              	.L19:
  70:E:\test\test1\BLE_OTA_External_Memory_Bootloadable01\BLE_OTA_External_Memory_Bootloadable01.cydsn\md5.c ****          {  
 570              		.loc 1 70 0
 571 0062 3A69     		ldr	r2, [r7, #16]
 572 0064 7B68     		ldr	r3, [r7, #4]
 573 0066 9A42     		cmp	r2, r3
 574 0068 D5D3     		bcc	.L20
  78:E:\test\test1\BLE_OTA_External_Memory_Bootloadable01\BLE_OTA_External_Memory_Bootloadable01.cydsn\md5.c ****          }  
  79:E:\test\test1\BLE_OTA_External_Memory_Bootloadable01\BLE_OTA_External_Memory_Bootloadable01.cydsn\md5.c ****     }  
 575              		.loc 1 79 0
 576 006a BD46     		mov	sp, r7
 577 006c 06B0     		add	sp, sp, #24
 578              		@ sp needed
 579 006e 80BD     		pop	{r7, pc}
 580              		.cfi_endproc
 581              	.LFE4:
 582              		.size	MD5Decode, .-MD5Decode
 583              		.section	.text.MD5Transform,"ax",%progbits
 584              		.align	2
 585              		.global	MD5Transform
 586              		.code	16
 587              		.thumb_func
 588              		.type	MD5Transform, %function
 589              	MD5Transform:
 590              	.LFB5:
  80:E:\test\test1\BLE_OTA_External_Memory_Bootloadable01\BLE_OTA_External_Memory_Bootloadable01.cydsn\md5.c ****     void MD5Transform(unsigned int state[4],unsigned char block[64])  
  81:E:\test\test1\BLE_OTA_External_Memory_Bootloadable01\BLE_OTA_External_Memory_Bootloadable01.cydsn\md5.c ****     {  
 591              		.loc 1 81 0
 592              		.cfi_startproc
 593 0000 80B5     		push	{r7, lr}
 594              		.cfi_def_cfa_offset 8
 595              		.cfi_offset 7, -8
ARM GAS  C:\Users\ADMINI~1.SC-\AppData\Local\Temp\ccuBFnVb.s 			page 13


 596              		.cfi_offset 14, -4
 597 0002 C6B0     		sub	sp, sp, #280
 598              		.cfi_def_cfa_offset 288
 599 0004 00AF     		add	r7, sp, #0
 600              		.cfi_def_cfa_register 7
 601 0006 7860     		str	r0, [r7, #4]
 602 0008 3960     		str	r1, [r7]
  82:E:\test\test1\BLE_OTA_External_Memory_Bootloadable01\BLE_OTA_External_Memory_Bootloadable01.cydsn\md5.c ****          unsigned int a = state[0];  
 603              		.loc 1 82 0
 604 000a 7B68     		ldr	r3, [r7, #4]
 605 000c 1B68     		ldr	r3, [r3]
 606 000e 8A22     		mov	r2, #138
 607 0010 5200     		lsl	r2, r2, #1
 608 0012 BA18     		add	r2, r7, r2
 609 0014 1360     		str	r3, [r2]
  83:E:\test\test1\BLE_OTA_External_Memory_Bootloadable01\BLE_OTA_External_Memory_Bootloadable01.cydsn\md5.c ****          unsigned int b = state[1];  
 610              		.loc 1 83 0
 611 0016 7B68     		ldr	r3, [r7, #4]
 612 0018 5B68     		ldr	r3, [r3, #4]
 613 001a 8822     		mov	r2, #136
 614 001c 5200     		lsl	r2, r2, #1
 615 001e BA18     		add	r2, r7, r2
 616 0020 1360     		str	r3, [r2]
  84:E:\test\test1\BLE_OTA_External_Memory_Bootloadable01\BLE_OTA_External_Memory_Bootloadable01.cydsn\md5.c ****          unsigned int c = state[2];  
 617              		.loc 1 84 0
 618 0022 7B68     		ldr	r3, [r7, #4]
 619 0024 9B68     		ldr	r3, [r3, #8]
 620 0026 8622     		mov	r2, #134
 621 0028 5200     		lsl	r2, r2, #1
 622 002a BA18     		add	r2, r7, r2
 623 002c 1360     		str	r3, [r2]
  85:E:\test\test1\BLE_OTA_External_Memory_Bootloadable01\BLE_OTA_External_Memory_Bootloadable01.cydsn\md5.c ****          unsigned int d = state[3];  
 624              		.loc 1 85 0
 625 002e 7B68     		ldr	r3, [r7, #4]
 626 0030 DB68     		ldr	r3, [r3, #12]
 627 0032 8422     		mov	r2, #132
 628 0034 5200     		lsl	r2, r2, #1
 629 0036 BA18     		add	r2, r7, r2
 630 0038 1360     		str	r3, [r2]
  86:E:\test\test1\BLE_OTA_External_Memory_Bootloadable01\BLE_OTA_External_Memory_Bootloadable01.cydsn\md5.c ****          unsigned int x[64];  
  87:E:\test\test1\BLE_OTA_External_Memory_Bootloadable01\BLE_OTA_External_Memory_Bootloadable01.cydsn\md5.c ****          MD5Decode(x,block,64);  
 631              		.loc 1 87 0
 632 003a 0823     		mov	r3, #8
 633 003c FA18     		add	r2, r7, r3
 634 003e 3B68     		ldr	r3, [r7]
 635 0040 101C     		mov	r0, r2
 636 0042 191C     		mov	r1, r3
 637 0044 4022     		mov	r2, #64
 638 0046 FFF7FEFF 		bl	MD5Decode
  88:E:\test\test1\BLE_OTA_External_Memory_Bootloadable01\BLE_OTA_External_Memory_Bootloadable01.cydsn\md5.c ****          FF(a, b, c, d, x[ 0], 7, 0xd76aa478); /* 1 */  
 639              		.loc 1 88 0
 640 004a 8823     		mov	r3, #136
 641 004c 5B00     		lsl	r3, r3, #1
 642 004e FB18     		add	r3, r7, r3
 643 0050 1B68     		ldr	r3, [r3]
 644 0052 8622     		mov	r2, #134
 645 0054 5200     		lsl	r2, r2, #1
ARM GAS  C:\Users\ADMINI~1.SC-\AppData\Local\Temp\ccuBFnVb.s 			page 14


 646 0056 BA18     		add	r2, r7, r2
 647 0058 1268     		ldr	r2, [r2]
 648 005a 1A40     		and	r2, r3
 649 005c 8823     		mov	r3, #136
 650 005e 5B00     		lsl	r3, r3, #1
 651 0060 FB18     		add	r3, r7, r3
 652 0062 1B68     		ldr	r3, [r3]
 653 0064 DB43     		mvn	r3, r3
 654 0066 8421     		mov	r1, #132
 655 0068 4900     		lsl	r1, r1, #1
 656 006a 7918     		add	r1, r7, r1
 657 006c 0968     		ldr	r1, [r1]
 658 006e 0B40     		and	r3, r1
 659 0070 1A43     		orr	r2, r3
 660 0072 FE4B     		ldr	r3, .L22
 661 0074 8C21     		mov	r1, #140
 662 0076 4900     		lsl	r1, r1, #1
 663 0078 8C46     		mov	ip, r1
 664 007a BC44     		add	ip, ip, r7
 665 007c 6344     		add	r3, r3, ip
 666 007e 1B68     		ldr	r3, [r3]
 667 0080 D218     		add	r2, r2, r3
 668 0082 8A23     		mov	r3, #138
 669 0084 5B00     		lsl	r3, r3, #1
 670 0086 FB18     		add	r3, r7, r3
 671 0088 1B68     		ldr	r3, [r3]
 672 008a D318     		add	r3, r2, r3
 673 008c F84A     		ldr	r2, .L22+4
 674 008e 9446     		mov	ip, r2
 675 0090 6344     		add	r3, r3, ip
 676 0092 8A22     		mov	r2, #138
 677 0094 5200     		lsl	r2, r2, #1
 678 0096 BA18     		add	r2, r7, r2
 679 0098 1360     		str	r3, [r2]
 680 009a 8A23     		mov	r3, #138
 681 009c 5B00     		lsl	r3, r3, #1
 682 009e FB18     		add	r3, r7, r3
 683 00a0 1B68     		ldr	r3, [r3]
 684 00a2 1922     		mov	r2, #25
 685 00a4 D341     		ror	r3, r3, r2
 686 00a6 8A22     		mov	r2, #138
 687 00a8 5200     		lsl	r2, r2, #1
 688 00aa BA18     		add	r2, r7, r2
 689 00ac 1360     		str	r3, [r2]
 690 00ae 8A23     		mov	r3, #138
 691 00b0 5B00     		lsl	r3, r3, #1
 692 00b2 FB18     		add	r3, r7, r3
 693 00b4 1A68     		ldr	r2, [r3]
 694 00b6 8823     		mov	r3, #136
 695 00b8 5B00     		lsl	r3, r3, #1
 696 00ba FB18     		add	r3, r7, r3
 697 00bc 1B68     		ldr	r3, [r3]
 698 00be D318     		add	r3, r2, r3
 699 00c0 8A22     		mov	r2, #138
 700 00c2 5200     		lsl	r2, r2, #1
 701 00c4 BA18     		add	r2, r7, r2
 702 00c6 1360     		str	r3, [r2]
ARM GAS  C:\Users\ADMINI~1.SC-\AppData\Local\Temp\ccuBFnVb.s 			page 15


  89:E:\test\test1\BLE_OTA_External_Memory_Bootloadable01\BLE_OTA_External_Memory_Bootloadable01.cydsn\md5.c ****      FF(d, a, b, c, x[ 1], 12, 0xe8c7b756); /* 2 */  
 703              		.loc 1 89 0
 704 00c8 8A23     		mov	r3, #138
 705 00ca 5B00     		lsl	r3, r3, #1
 706 00cc FB18     		add	r3, r7, r3
 707 00ce 1B68     		ldr	r3, [r3]
 708 00d0 8822     		mov	r2, #136
 709 00d2 5200     		lsl	r2, r2, #1
 710 00d4 BA18     		add	r2, r7, r2
 711 00d6 1268     		ldr	r2, [r2]
 712 00d8 1A40     		and	r2, r3
 713 00da 8A23     		mov	r3, #138
 714 00dc 5B00     		lsl	r3, r3, #1
 715 00de FB18     		add	r3, r7, r3
 716 00e0 1B68     		ldr	r3, [r3]
 717 00e2 DB43     		mvn	r3, r3
 718 00e4 8621     		mov	r1, #134
 719 00e6 4900     		lsl	r1, r1, #1
 720 00e8 7918     		add	r1, r7, r1
 721 00ea 0968     		ldr	r1, [r1]
 722 00ec 0B40     		and	r3, r1
 723 00ee 1A43     		orr	r2, r3
 724 00f0 DE4B     		ldr	r3, .L22
 725 00f2 8C21     		mov	r1, #140
 726 00f4 4900     		lsl	r1, r1, #1
 727 00f6 8C46     		mov	ip, r1
 728 00f8 BC44     		add	ip, ip, r7
 729 00fa 6344     		add	r3, r3, ip
 730 00fc 5B68     		ldr	r3, [r3, #4]
 731 00fe D218     		add	r2, r2, r3
 732 0100 8423     		mov	r3, #132
 733 0102 5B00     		lsl	r3, r3, #1
 734 0104 FB18     		add	r3, r7, r3
 735 0106 1B68     		ldr	r3, [r3]
 736 0108 D318     		add	r3, r2, r3
 737 010a DA4A     		ldr	r2, .L22+8
 738 010c 9446     		mov	ip, r2
 739 010e 6344     		add	r3, r3, ip
 740 0110 8422     		mov	r2, #132
 741 0112 5200     		lsl	r2, r2, #1
 742 0114 BA18     		add	r2, r7, r2
 743 0116 1360     		str	r3, [r2]
 744 0118 8423     		mov	r3, #132
 745 011a 5B00     		lsl	r3, r3, #1
 746 011c FB18     		add	r3, r7, r3
 747 011e 1B68     		ldr	r3, [r3]
 748 0120 1422     		mov	r2, #20
 749 0122 D341     		ror	r3, r3, r2
 750 0124 8422     		mov	r2, #132
 751 0126 5200     		lsl	r2, r2, #1
 752 0128 BA18     		add	r2, r7, r2
 753 012a 1360     		str	r3, [r2]
 754 012c 8423     		mov	r3, #132
 755 012e 5B00     		lsl	r3, r3, #1
 756 0130 FB18     		add	r3, r7, r3
 757 0132 1A68     		ldr	r2, [r3]
 758 0134 8A23     		mov	r3, #138
ARM GAS  C:\Users\ADMINI~1.SC-\AppData\Local\Temp\ccuBFnVb.s 			page 16


 759 0136 5B00     		lsl	r3, r3, #1
 760 0138 FB18     		add	r3, r7, r3
 761 013a 1B68     		ldr	r3, [r3]
 762 013c D318     		add	r3, r2, r3
 763 013e 8422     		mov	r2, #132
 764 0140 5200     		lsl	r2, r2, #1
 765 0142 BA18     		add	r2, r7, r2
 766 0144 1360     		str	r3, [r2]
  90:E:\test\test1\BLE_OTA_External_Memory_Bootloadable01\BLE_OTA_External_Memory_Bootloadable01.cydsn\md5.c ****      FF(c, d, a, b, x[ 2], 17, 0x242070db); /* 3 */  
 767              		.loc 1 90 0
 768 0146 8423     		mov	r3, #132
 769 0148 5B00     		lsl	r3, r3, #1
 770 014a FB18     		add	r3, r7, r3
 771 014c 1B68     		ldr	r3, [r3]
 772 014e 8A22     		mov	r2, #138
 773 0150 5200     		lsl	r2, r2, #1
 774 0152 BA18     		add	r2, r7, r2
 775 0154 1268     		ldr	r2, [r2]
 776 0156 1A40     		and	r2, r3
 777 0158 8423     		mov	r3, #132
 778 015a 5B00     		lsl	r3, r3, #1
 779 015c FB18     		add	r3, r7, r3
 780 015e 1B68     		ldr	r3, [r3]
 781 0160 DB43     		mvn	r3, r3
 782 0162 8821     		mov	r1, #136
 783 0164 4900     		lsl	r1, r1, #1
 784 0166 7918     		add	r1, r7, r1
 785 0168 0968     		ldr	r1, [r1]
 786 016a 0B40     		and	r3, r1
 787 016c 1A43     		orr	r2, r3
 788 016e BF4B     		ldr	r3, .L22
 789 0170 8C21     		mov	r1, #140
 790 0172 4900     		lsl	r1, r1, #1
 791 0174 8C46     		mov	ip, r1
 792 0176 BC44     		add	ip, ip, r7
 793 0178 6344     		add	r3, r3, ip
 794 017a 9B68     		ldr	r3, [r3, #8]
 795 017c D218     		add	r2, r2, r3
 796 017e 8623     		mov	r3, #134
 797 0180 5B00     		lsl	r3, r3, #1
 798 0182 FB18     		add	r3, r7, r3
 799 0184 1B68     		ldr	r3, [r3]
 800 0186 D318     		add	r3, r2, r3
 801 0188 BB4A     		ldr	r2, .L22+12
 802 018a 9446     		mov	ip, r2
 803 018c 6344     		add	r3, r3, ip
 804 018e 8622     		mov	r2, #134
 805 0190 5200     		lsl	r2, r2, #1
 806 0192 BA18     		add	r2, r7, r2
 807 0194 1360     		str	r3, [r2]
 808 0196 8623     		mov	r3, #134
 809 0198 5B00     		lsl	r3, r3, #1
 810 019a FB18     		add	r3, r7, r3
 811 019c 1B68     		ldr	r3, [r3]
 812 019e 0F22     		mov	r2, #15
 813 01a0 D341     		ror	r3, r3, r2
 814 01a2 8622     		mov	r2, #134
ARM GAS  C:\Users\ADMINI~1.SC-\AppData\Local\Temp\ccuBFnVb.s 			page 17


 815 01a4 5200     		lsl	r2, r2, #1
 816 01a6 BA18     		add	r2, r7, r2
 817 01a8 1360     		str	r3, [r2]
 818 01aa 8623     		mov	r3, #134
 819 01ac 5B00     		lsl	r3, r3, #1
 820 01ae FB18     		add	r3, r7, r3
 821 01b0 1A68     		ldr	r2, [r3]
 822 01b2 8423     		mov	r3, #132
 823 01b4 5B00     		lsl	r3, r3, #1
 824 01b6 FB18     		add	r3, r7, r3
 825 01b8 1B68     		ldr	r3, [r3]
 826 01ba D318     		add	r3, r2, r3
 827 01bc 8622     		mov	r2, #134
 828 01be 5200     		lsl	r2, r2, #1
 829 01c0 BA18     		add	r2, r7, r2
 830 01c2 1360     		str	r3, [r2]
  91:E:\test\test1\BLE_OTA_External_Memory_Bootloadable01\BLE_OTA_External_Memory_Bootloadable01.cydsn\md5.c ****      FF(b, c, d, a, x[ 3], 22, 0xc1bdceee); /* 4 */  
 831              		.loc 1 91 0
 832 01c4 8623     		mov	r3, #134
 833 01c6 5B00     		lsl	r3, r3, #1
 834 01c8 FB18     		add	r3, r7, r3
 835 01ca 1B68     		ldr	r3, [r3]
 836 01cc 8422     		mov	r2, #132
 837 01ce 5200     		lsl	r2, r2, #1
 838 01d0 BA18     		add	r2, r7, r2
 839 01d2 1268     		ldr	r2, [r2]
 840 01d4 1A40     		and	r2, r3
 841 01d6 8623     		mov	r3, #134
 842 01d8 5B00     		lsl	r3, r3, #1
 843 01da FB18     		add	r3, r7, r3
 844 01dc 1B68     		ldr	r3, [r3]
 845 01de DB43     		mvn	r3, r3
 846 01e0 8A21     		mov	r1, #138
 847 01e2 4900     		lsl	r1, r1, #1
 848 01e4 7918     		add	r1, r7, r1
 849 01e6 0968     		ldr	r1, [r1]
 850 01e8 0B40     		and	r3, r1
 851 01ea 1A43     		orr	r2, r3
 852 01ec 9F4B     		ldr	r3, .L22
 853 01ee 8C21     		mov	r1, #140
 854 01f0 4900     		lsl	r1, r1, #1
 855 01f2 8C46     		mov	ip, r1
 856 01f4 BC44     		add	ip, ip, r7
 857 01f6 6344     		add	r3, r3, ip
 858 01f8 DB68     		ldr	r3, [r3, #12]
 859 01fa D218     		add	r2, r2, r3
 860 01fc 8823     		mov	r3, #136
 861 01fe 5B00     		lsl	r3, r3, #1
 862 0200 FB18     		add	r3, r7, r3
 863 0202 1B68     		ldr	r3, [r3]
 864 0204 D318     		add	r3, r2, r3
 865 0206 9D4A     		ldr	r2, .L22+16
 866 0208 9446     		mov	ip, r2
 867 020a 6344     		add	r3, r3, ip
 868 020c 8822     		mov	r2, #136
 869 020e 5200     		lsl	r2, r2, #1
 870 0210 BA18     		add	r2, r7, r2
ARM GAS  C:\Users\ADMINI~1.SC-\AppData\Local\Temp\ccuBFnVb.s 			page 18


 871 0212 1360     		str	r3, [r2]
 872 0214 8823     		mov	r3, #136
 873 0216 5B00     		lsl	r3, r3, #1
 874 0218 FB18     		add	r3, r7, r3
 875 021a 1B68     		ldr	r3, [r3]
 876 021c 0A22     		mov	r2, #10
 877 021e D341     		ror	r3, r3, r2
 878 0220 8822     		mov	r2, #136
 879 0222 5200     		lsl	r2, r2, #1
 880 0224 BA18     		add	r2, r7, r2
 881 0226 1360     		str	r3, [r2]
 882 0228 8823     		mov	r3, #136
 883 022a 5B00     		lsl	r3, r3, #1
 884 022c FB18     		add	r3, r7, r3
 885 022e 1A68     		ldr	r2, [r3]
 886 0230 8623     		mov	r3, #134
 887 0232 5B00     		lsl	r3, r3, #1
 888 0234 FB18     		add	r3, r7, r3
 889 0236 1B68     		ldr	r3, [r3]
 890 0238 D318     		add	r3, r2, r3
 891 023a 8822     		mov	r2, #136
 892 023c 5200     		lsl	r2, r2, #1
 893 023e BA18     		add	r2, r7, r2
 894 0240 1360     		str	r3, [r2]
  92:E:\test\test1\BLE_OTA_External_Memory_Bootloadable01\BLE_OTA_External_Memory_Bootloadable01.cydsn\md5.c ****      FF(a, b, c, d, x[ 4], 7, 0xf57c0faf); /* 5 */  
 895              		.loc 1 92 0
 896 0242 8823     		mov	r3, #136
 897 0244 5B00     		lsl	r3, r3, #1
 898 0246 FB18     		add	r3, r7, r3
 899 0248 1B68     		ldr	r3, [r3]
 900 024a 8622     		mov	r2, #134
 901 024c 5200     		lsl	r2, r2, #1
 902 024e BA18     		add	r2, r7, r2
 903 0250 1268     		ldr	r2, [r2]
 904 0252 1A40     		and	r2, r3
 905 0254 8823     		mov	r3, #136
 906 0256 5B00     		lsl	r3, r3, #1
 907 0258 FB18     		add	r3, r7, r3
 908 025a 1B68     		ldr	r3, [r3]
 909 025c DB43     		mvn	r3, r3
 910 025e 8421     		mov	r1, #132
 911 0260 4900     		lsl	r1, r1, #1
 912 0262 7918     		add	r1, r7, r1
 913 0264 0968     		ldr	r1, [r1]
 914 0266 0B40     		and	r3, r1
 915 0268 1A43     		orr	r2, r3
 916 026a 804B     		ldr	r3, .L22
 917 026c 8C21     		mov	r1, #140
 918 026e 4900     		lsl	r1, r1, #1
 919 0270 8C46     		mov	ip, r1
 920 0272 BC44     		add	ip, ip, r7
 921 0274 6344     		add	r3, r3, ip
 922 0276 1B69     		ldr	r3, [r3, #16]
 923 0278 D218     		add	r2, r2, r3
 924 027a 8A23     		mov	r3, #138
 925 027c 5B00     		lsl	r3, r3, #1
 926 027e FB18     		add	r3, r7, r3
ARM GAS  C:\Users\ADMINI~1.SC-\AppData\Local\Temp\ccuBFnVb.s 			page 19


 927 0280 1B68     		ldr	r3, [r3]
 928 0282 D318     		add	r3, r2, r3
 929 0284 7E4A     		ldr	r2, .L22+20
 930 0286 9446     		mov	ip, r2
 931 0288 6344     		add	r3, r3, ip
 932 028a 8A22     		mov	r2, #138
 933 028c 5200     		lsl	r2, r2, #1
 934 028e BA18     		add	r2, r7, r2
 935 0290 1360     		str	r3, [r2]
 936 0292 8A23     		mov	r3, #138
 937 0294 5B00     		lsl	r3, r3, #1
 938 0296 FB18     		add	r3, r7, r3
 939 0298 1B68     		ldr	r3, [r3]
 940 029a 1922     		mov	r2, #25
 941 029c D341     		ror	r3, r3, r2
 942 029e 8A22     		mov	r2, #138
 943 02a0 5200     		lsl	r2, r2, #1
 944 02a2 BA18     		add	r2, r7, r2
 945 02a4 1360     		str	r3, [r2]
 946 02a6 8A23     		mov	r3, #138
 947 02a8 5B00     		lsl	r3, r3, #1
 948 02aa FB18     		add	r3, r7, r3
 949 02ac 1A68     		ldr	r2, [r3]
 950 02ae 8823     		mov	r3, #136
 951 02b0 5B00     		lsl	r3, r3, #1
 952 02b2 FB18     		add	r3, r7, r3
 953 02b4 1B68     		ldr	r3, [r3]
 954 02b6 D318     		add	r3, r2, r3
 955 02b8 8A22     		mov	r2, #138
 956 02ba 5200     		lsl	r2, r2, #1
 957 02bc BA18     		add	r2, r7, r2
 958 02be 1360     		str	r3, [r2]
  93:E:\test\test1\BLE_OTA_External_Memory_Bootloadable01\BLE_OTA_External_Memory_Bootloadable01.cydsn\md5.c ****      FF(d, a, b, c, x[ 5], 12, 0x4787c62a); /* 6 */  
 959              		.loc 1 93 0
 960 02c0 8A23     		mov	r3, #138
 961 02c2 5B00     		lsl	r3, r3, #1
 962 02c4 FB18     		add	r3, r7, r3
 963 02c6 1B68     		ldr	r3, [r3]
 964 02c8 8822     		mov	r2, #136
 965 02ca 5200     		lsl	r2, r2, #1
 966 02cc BA18     		add	r2, r7, r2
 967 02ce 1268     		ldr	r2, [r2]
 968 02d0 1A40     		and	r2, r3
 969 02d2 8A23     		mov	r3, #138
 970 02d4 5B00     		lsl	r3, r3, #1
 971 02d6 FB18     		add	r3, r7, r3
 972 02d8 1B68     		ldr	r3, [r3]
 973 02da DB43     		mvn	r3, r3
 974 02dc 8621     		mov	r1, #134
 975 02de 4900     		lsl	r1, r1, #1
 976 02e0 7918     		add	r1, r7, r1
 977 02e2 0968     		ldr	r1, [r1]
 978 02e4 0B40     		and	r3, r1
 979 02e6 1A43     		orr	r2, r3
 980 02e8 604B     		ldr	r3, .L22
 981 02ea 8C21     		mov	r1, #140
 982 02ec 4900     		lsl	r1, r1, #1
ARM GAS  C:\Users\ADMINI~1.SC-\AppData\Local\Temp\ccuBFnVb.s 			page 20


 983 02ee 8C46     		mov	ip, r1
 984 02f0 BC44     		add	ip, ip, r7
 985 02f2 6344     		add	r3, r3, ip
 986 02f4 5B69     		ldr	r3, [r3, #20]
 987 02f6 D218     		add	r2, r2, r3
 988 02f8 8423     		mov	r3, #132
 989 02fa 5B00     		lsl	r3, r3, #1
 990 02fc FB18     		add	r3, r7, r3
 991 02fe 1B68     		ldr	r3, [r3]
 992 0300 D318     		add	r3, r2, r3
 993 0302 604A     		ldr	r2, .L22+24
 994 0304 9446     		mov	ip, r2
 995 0306 6344     		add	r3, r3, ip
 996 0308 8422     		mov	r2, #132
 997 030a 5200     		lsl	r2, r2, #1
 998 030c BA18     		add	r2, r7, r2
 999 030e 1360     		str	r3, [r2]
 1000 0310 8423     		mov	r3, #132
 1001 0312 5B00     		lsl	r3, r3, #1
 1002 0314 FB18     		add	r3, r7, r3
 1003 0316 1B68     		ldr	r3, [r3]
 1004 0318 1422     		mov	r2, #20
 1005 031a D341     		ror	r3, r3, r2
 1006 031c 8422     		mov	r2, #132
 1007 031e 5200     		lsl	r2, r2, #1
 1008 0320 BA18     		add	r2, r7, r2
 1009 0322 1360     		str	r3, [r2]
 1010 0324 8423     		mov	r3, #132
 1011 0326 5B00     		lsl	r3, r3, #1
 1012 0328 FB18     		add	r3, r7, r3
 1013 032a 1A68     		ldr	r2, [r3]
 1014 032c 8A23     		mov	r3, #138
 1015 032e 5B00     		lsl	r3, r3, #1
 1016 0330 FB18     		add	r3, r7, r3
 1017 0332 1B68     		ldr	r3, [r3]
 1018 0334 D318     		add	r3, r2, r3
 1019 0336 8422     		mov	r2, #132
 1020 0338 5200     		lsl	r2, r2, #1
 1021 033a BA18     		add	r2, r7, r2
 1022 033c 1360     		str	r3, [r2]
  94:E:\test\test1\BLE_OTA_External_Memory_Bootloadable01\BLE_OTA_External_Memory_Bootloadable01.cydsn\md5.c ****      FF(c, d, a, b, x[ 6], 17, 0xa8304613); /* 7 */  
 1023              		.loc 1 94 0
 1024 033e 8423     		mov	r3, #132
 1025 0340 5B00     		lsl	r3, r3, #1
 1026 0342 FB18     		add	r3, r7, r3
 1027 0344 1B68     		ldr	r3, [r3]
 1028 0346 8A22     		mov	r2, #138
 1029 0348 5200     		lsl	r2, r2, #1
 1030 034a BA18     		add	r2, r7, r2
 1031 034c 1268     		ldr	r2, [r2]
 1032 034e 1A40     		and	r2, r3
 1033 0350 8423     		mov	r3, #132
 1034 0352 5B00     		lsl	r3, r3, #1
 1035 0354 FB18     		add	r3, r7, r3
 1036 0356 1B68     		ldr	r3, [r3]
 1037 0358 DB43     		mvn	r3, r3
 1038 035a 8821     		mov	r1, #136
ARM GAS  C:\Users\ADMINI~1.SC-\AppData\Local\Temp\ccuBFnVb.s 			page 21


 1039 035c 4900     		lsl	r1, r1, #1
 1040 035e 7918     		add	r1, r7, r1
 1041 0360 0968     		ldr	r1, [r1]
 1042 0362 0B40     		and	r3, r1
 1043 0364 1A43     		orr	r2, r3
 1044 0366 414B     		ldr	r3, .L22
 1045 0368 8C21     		mov	r1, #140
 1046 036a 4900     		lsl	r1, r1, #1
 1047 036c 8C46     		mov	ip, r1
 1048 036e BC44     		add	ip, ip, r7
 1049 0370 6344     		add	r3, r3, ip
 1050 0372 9B69     		ldr	r3, [r3, #24]
 1051 0374 D218     		add	r2, r2, r3
 1052 0376 8623     		mov	r3, #134
 1053 0378 5B00     		lsl	r3, r3, #1
 1054 037a FB18     		add	r3, r7, r3
 1055 037c 1B68     		ldr	r3, [r3]
 1056 037e D318     		add	r3, r2, r3
 1057 0380 414A     		ldr	r2, .L22+28
 1058 0382 9446     		mov	ip, r2
 1059 0384 6344     		add	r3, r3, ip
 1060 0386 8622     		mov	r2, #134
 1061 0388 5200     		lsl	r2, r2, #1
 1062 038a BA18     		add	r2, r7, r2
 1063 038c 1360     		str	r3, [r2]
 1064 038e 8623     		mov	r3, #134
 1065 0390 5B00     		lsl	r3, r3, #1
 1066 0392 FB18     		add	r3, r7, r3
 1067 0394 1B68     		ldr	r3, [r3]
 1068 0396 0F22     		mov	r2, #15
 1069 0398 D341     		ror	r3, r3, r2
 1070 039a 8622     		mov	r2, #134
 1071 039c 5200     		lsl	r2, r2, #1
 1072 039e BA18     		add	r2, r7, r2
 1073 03a0 1360     		str	r3, [r2]
 1074 03a2 8623     		mov	r3, #134
 1075 03a4 5B00     		lsl	r3, r3, #1
 1076 03a6 FB18     		add	r3, r7, r3
 1077 03a8 1A68     		ldr	r2, [r3]
 1078 03aa 8423     		mov	r3, #132
 1079 03ac 5B00     		lsl	r3, r3, #1
 1080 03ae FB18     		add	r3, r7, r3
 1081 03b0 1B68     		ldr	r3, [r3]
 1082 03b2 D318     		add	r3, r2, r3
 1083 03b4 8622     		mov	r2, #134
 1084 03b6 5200     		lsl	r2, r2, #1
 1085 03b8 BA18     		add	r2, r7, r2
 1086 03ba 1360     		str	r3, [r2]
  95:E:\test\test1\BLE_OTA_External_Memory_Bootloadable01\BLE_OTA_External_Memory_Bootloadable01.cydsn\md5.c ****      FF(b, c, d, a, x[ 7], 22, 0xfd469501); /* 8 */  
 1087              		.loc 1 95 0
 1088 03bc 8623     		mov	r3, #134
 1089 03be 5B00     		lsl	r3, r3, #1
 1090 03c0 FB18     		add	r3, r7, r3
 1091 03c2 1B68     		ldr	r3, [r3]
 1092 03c4 8422     		mov	r2, #132
 1093 03c6 5200     		lsl	r2, r2, #1
 1094 03c8 BA18     		add	r2, r7, r2
ARM GAS  C:\Users\ADMINI~1.SC-\AppData\Local\Temp\ccuBFnVb.s 			page 22


 1095 03ca 1268     		ldr	r2, [r2]
 1096 03cc 1A40     		and	r2, r3
 1097 03ce 8623     		mov	r3, #134
 1098 03d0 5B00     		lsl	r3, r3, #1
 1099 03d2 FB18     		add	r3, r7, r3
 1100 03d4 1B68     		ldr	r3, [r3]
 1101 03d6 DB43     		mvn	r3, r3
 1102 03d8 8A21     		mov	r1, #138
 1103 03da 4900     		lsl	r1, r1, #1
 1104 03dc 7918     		add	r1, r7, r1
 1105 03de 0968     		ldr	r1, [r1]
 1106 03e0 0B40     		and	r3, r1
 1107 03e2 1A43     		orr	r2, r3
 1108 03e4 214B     		ldr	r3, .L22
 1109 03e6 8C21     		mov	r1, #140
 1110 03e8 4900     		lsl	r1, r1, #1
 1111 03ea 8C46     		mov	ip, r1
 1112 03ec BC44     		add	ip, ip, r7
 1113 03ee 6344     		add	r3, r3, ip
 1114 03f0 DB69     		ldr	r3, [r3, #28]
 1115 03f2 D218     		add	r2, r2, r3
 1116 03f4 8823     		mov	r3, #136
 1117 03f6 5B00     		lsl	r3, r3, #1
 1118 03f8 FB18     		add	r3, r7, r3
 1119 03fa 1B68     		ldr	r3, [r3]
 1120 03fc D318     		add	r3, r2, r3
 1121 03fe 234A     		ldr	r2, .L22+32
 1122 0400 9446     		mov	ip, r2
 1123 0402 6344     		add	r3, r3, ip
 1124 0404 8822     		mov	r2, #136
 1125 0406 5200     		lsl	r2, r2, #1
 1126 0408 BA18     		add	r2, r7, r2
 1127 040a 1360     		str	r3, [r2]
 1128 040c 8823     		mov	r3, #136
 1129 040e 5B00     		lsl	r3, r3, #1
 1130 0410 FB18     		add	r3, r7, r3
 1131 0412 1B68     		ldr	r3, [r3]
 1132 0414 0A22     		mov	r2, #10
 1133 0416 D341     		ror	r3, r3, r2
 1134 0418 8822     		mov	r2, #136
 1135 041a 5200     		lsl	r2, r2, #1
 1136 041c BA18     		add	r2, r7, r2
 1137 041e 1360     		str	r3, [r2]
 1138 0420 8823     		mov	r3, #136
 1139 0422 5B00     		lsl	r3, r3, #1
 1140 0424 FB18     		add	r3, r7, r3
 1141 0426 1A68     		ldr	r2, [r3]
 1142 0428 8623     		mov	r3, #134
 1143 042a 5B00     		lsl	r3, r3, #1
 1144 042c FB18     		add	r3, r7, r3
 1145 042e 1B68     		ldr	r3, [r3]
 1146 0430 D318     		add	r3, r2, r3
 1147 0432 8822     		mov	r2, #136
 1148 0434 5200     		lsl	r2, r2, #1
 1149 0436 BA18     		add	r2, r7, r2
 1150 0438 1360     		str	r3, [r2]
  96:E:\test\test1\BLE_OTA_External_Memory_Bootloadable01\BLE_OTA_External_Memory_Bootloadable01.cydsn\md5.c ****      FF(a, b, c, d, x[ 8], 7, 0x698098d8); /* 9 */  
ARM GAS  C:\Users\ADMINI~1.SC-\AppData\Local\Temp\ccuBFnVb.s 			page 23


 1151              		.loc 1 96 0
 1152 043a 8823     		mov	r3, #136
 1153 043c 5B00     		lsl	r3, r3, #1
 1154 043e FB18     		add	r3, r7, r3
 1155 0440 1B68     		ldr	r3, [r3]
 1156 0442 8622     		mov	r2, #134
 1157 0444 5200     		lsl	r2, r2, #1
 1158 0446 BA18     		add	r2, r7, r2
 1159 0448 1268     		ldr	r2, [r2]
 1160 044a 1A40     		and	r2, r3
 1161 044c 8823     		mov	r3, #136
 1162 044e 5B00     		lsl	r3, r3, #1
 1163 0450 FB18     		add	r3, r7, r3
 1164 0452 1B68     		ldr	r3, [r3]
 1165 0454 DB43     		mvn	r3, r3
 1166 0456 8421     		mov	r1, #132
 1167 0458 4900     		lsl	r1, r1, #1
 1168 045a 7918     		add	r1, r7, r1
 1169 045c 0968     		ldr	r1, [r1]
 1170 045e 0B40     		and	r3, r1
 1171 0460 1A43     		orr	r2, r3
 1172 0462 024B     		ldr	r3, .L22
 1173 0464 8C21     		mov	r1, #140
 1174 0466 4900     		lsl	r1, r1, #1
 1175 0468 8C46     		mov	ip, r1
 1176 046a 11E0     		b	.L23
 1177              	.L24:
 1178              		.align	2
 1179              	.L22:
 1180 046c F0FEFFFF 		.word	-272
 1181 0470 78A46AD7 		.word	-680876936
 1182 0474 56B7C7E8 		.word	-389564586
 1183 0478 DB702024 		.word	606105819
 1184 047c EECEBDC1 		.word	-1044525330
 1185 0480 AF0F7CF5 		.word	-176418897
 1186 0484 2AC68747 		.word	1200080426
 1187 0488 134630A8 		.word	-1473231341
 1188 048c 019546FD 		.word	-45705983
 1189              	.L23:
 1190 0490 BC44     		add	ip, ip, r7
 1191 0492 6344     		add	r3, r3, ip
 1192 0494 1B6A     		ldr	r3, [r3, #32]
 1193 0496 D218     		add	r2, r2, r3
 1194 0498 8A23     		mov	r3, #138
 1195 049a 5B00     		lsl	r3, r3, #1
 1196 049c FB18     		add	r3, r7, r3
 1197 049e 1B68     		ldr	r3, [r3]
 1198 04a0 D318     		add	r3, r2, r3
 1199 04a2 FE4A     		ldr	r2, .L25
 1200 04a4 9446     		mov	ip, r2
 1201 04a6 6344     		add	r3, r3, ip
 1202 04a8 8A22     		mov	r2, #138
 1203 04aa 5200     		lsl	r2, r2, #1
 1204 04ac BA18     		add	r2, r7, r2
 1205 04ae 1360     		str	r3, [r2]
 1206 04b0 8A23     		mov	r3, #138
 1207 04b2 5B00     		lsl	r3, r3, #1
ARM GAS  C:\Users\ADMINI~1.SC-\AppData\Local\Temp\ccuBFnVb.s 			page 24


 1208 04b4 FB18     		add	r3, r7, r3
 1209 04b6 1B68     		ldr	r3, [r3]
 1210 04b8 1922     		mov	r2, #25
 1211 04ba D341     		ror	r3, r3, r2
 1212 04bc 8A22     		mov	r2, #138
 1213 04be 5200     		lsl	r2, r2, #1
 1214 04c0 BA18     		add	r2, r7, r2
 1215 04c2 1360     		str	r3, [r2]
 1216 04c4 8A23     		mov	r3, #138
 1217 04c6 5B00     		lsl	r3, r3, #1
 1218 04c8 FB18     		add	r3, r7, r3
 1219 04ca 1A68     		ldr	r2, [r3]
 1220 04cc 8823     		mov	r3, #136
 1221 04ce 5B00     		lsl	r3, r3, #1
 1222 04d0 FB18     		add	r3, r7, r3
 1223 04d2 1B68     		ldr	r3, [r3]
 1224 04d4 D318     		add	r3, r2, r3
 1225 04d6 8A22     		mov	r2, #138
 1226 04d8 5200     		lsl	r2, r2, #1
 1227 04da BA18     		add	r2, r7, r2
 1228 04dc 1360     		str	r3, [r2]
  97:E:\test\test1\BLE_OTA_External_Memory_Bootloadable01\BLE_OTA_External_Memory_Bootloadable01.cydsn\md5.c ****      FF(d, a, b, c, x[ 9], 12, 0x8b44f7af); /* 10 */  
 1229              		.loc 1 97 0
 1230 04de 8A23     		mov	r3, #138
 1231 04e0 5B00     		lsl	r3, r3, #1
 1232 04e2 FB18     		add	r3, r7, r3
 1233 04e4 1B68     		ldr	r3, [r3]
 1234 04e6 8822     		mov	r2, #136
 1235 04e8 5200     		lsl	r2, r2, #1
 1236 04ea BA18     		add	r2, r7, r2
 1237 04ec 1268     		ldr	r2, [r2]
 1238 04ee 1A40     		and	r2, r3
 1239 04f0 8A23     		mov	r3, #138
 1240 04f2 5B00     		lsl	r3, r3, #1
 1241 04f4 FB18     		add	r3, r7, r3
 1242 04f6 1B68     		ldr	r3, [r3]
 1243 04f8 DB43     		mvn	r3, r3
 1244 04fa 8621     		mov	r1, #134
 1245 04fc 4900     		lsl	r1, r1, #1
 1246 04fe 7918     		add	r1, r7, r1
 1247 0500 0968     		ldr	r1, [r1]
 1248 0502 0B40     		and	r3, r1
 1249 0504 1A43     		orr	r2, r3
 1250 0506 E64B     		ldr	r3, .L25+4
 1251 0508 8C21     		mov	r1, #140
 1252 050a 4900     		lsl	r1, r1, #1
 1253 050c 8C46     		mov	ip, r1
 1254 050e BC44     		add	ip, ip, r7
 1255 0510 6344     		add	r3, r3, ip
 1256 0512 5B6A     		ldr	r3, [r3, #36]
 1257 0514 D218     		add	r2, r2, r3
 1258 0516 8423     		mov	r3, #132
 1259 0518 5B00     		lsl	r3, r3, #1
 1260 051a FB18     		add	r3, r7, r3
 1261 051c 1B68     		ldr	r3, [r3]
 1262 051e D318     		add	r3, r2, r3
 1263 0520 E04A     		ldr	r2, .L25+8
ARM GAS  C:\Users\ADMINI~1.SC-\AppData\Local\Temp\ccuBFnVb.s 			page 25


 1264 0522 9446     		mov	ip, r2
 1265 0524 6344     		add	r3, r3, ip
 1266 0526 8422     		mov	r2, #132
 1267 0528 5200     		lsl	r2, r2, #1
 1268 052a BA18     		add	r2, r7, r2
 1269 052c 1360     		str	r3, [r2]
 1270 052e 8423     		mov	r3, #132
 1271 0530 5B00     		lsl	r3, r3, #1
 1272 0532 FB18     		add	r3, r7, r3
 1273 0534 1B68     		ldr	r3, [r3]
 1274 0536 1422     		mov	r2, #20
 1275 0538 D341     		ror	r3, r3, r2
 1276 053a 8422     		mov	r2, #132
 1277 053c 5200     		lsl	r2, r2, #1
 1278 053e BA18     		add	r2, r7, r2
 1279 0540 1360     		str	r3, [r2]
 1280 0542 8423     		mov	r3, #132
 1281 0544 5B00     		lsl	r3, r3, #1
 1282 0546 FB18     		add	r3, r7, r3
 1283 0548 1A68     		ldr	r2, [r3]
 1284 054a 8A23     		mov	r3, #138
 1285 054c 5B00     		lsl	r3, r3, #1
 1286 054e FB18     		add	r3, r7, r3
 1287 0550 1B68     		ldr	r3, [r3]
 1288 0552 D318     		add	r3, r2, r3
 1289 0554 8422     		mov	r2, #132
 1290 0556 5200     		lsl	r2, r2, #1
 1291 0558 BA18     		add	r2, r7, r2
 1292 055a 1360     		str	r3, [r2]
  98:E:\test\test1\BLE_OTA_External_Memory_Bootloadable01\BLE_OTA_External_Memory_Bootloadable01.cydsn\md5.c ****      FF(c, d, a, b, x[10], 17, 0xffff5bb1); /* 11 */  
 1293              		.loc 1 98 0
 1294 055c 8423     		mov	r3, #132
 1295 055e 5B00     		lsl	r3, r3, #1
 1296 0560 FB18     		add	r3, r7, r3
 1297 0562 1B68     		ldr	r3, [r3]
 1298 0564 8A22     		mov	r2, #138
 1299 0566 5200     		lsl	r2, r2, #1
 1300 0568 BA18     		add	r2, r7, r2
 1301 056a 1268     		ldr	r2, [r2]
 1302 056c 1A40     		and	r2, r3
 1303 056e 8423     		mov	r3, #132
 1304 0570 5B00     		lsl	r3, r3, #1
 1305 0572 FB18     		add	r3, r7, r3
 1306 0574 1B68     		ldr	r3, [r3]
 1307 0576 DB43     		mvn	r3, r3
 1308 0578 8821     		mov	r1, #136
 1309 057a 4900     		lsl	r1, r1, #1
 1310 057c 7918     		add	r1, r7, r1
 1311 057e 0968     		ldr	r1, [r1]
 1312 0580 0B40     		and	r3, r1
 1313 0582 1A43     		orr	r2, r3
 1314 0584 C64B     		ldr	r3, .L25+4
 1315 0586 8C21     		mov	r1, #140
 1316 0588 4900     		lsl	r1, r1, #1
 1317 058a 8C46     		mov	ip, r1
 1318 058c BC44     		add	ip, ip, r7
 1319 058e 6344     		add	r3, r3, ip
ARM GAS  C:\Users\ADMINI~1.SC-\AppData\Local\Temp\ccuBFnVb.s 			page 26


 1320 0590 9B6A     		ldr	r3, [r3, #40]
 1321 0592 D218     		add	r2, r2, r3
 1322 0594 8623     		mov	r3, #134
 1323 0596 5B00     		lsl	r3, r3, #1
 1324 0598 FB18     		add	r3, r7, r3
 1325 059a 1B68     		ldr	r3, [r3]
 1326 059c D318     		add	r3, r2, r3
 1327 059e C24A     		ldr	r2, .L25+12
 1328 05a0 9446     		mov	ip, r2
 1329 05a2 6344     		add	r3, r3, ip
 1330 05a4 8622     		mov	r2, #134
 1331 05a6 5200     		lsl	r2, r2, #1
 1332 05a8 BA18     		add	r2, r7, r2
 1333 05aa 1360     		str	r3, [r2]
 1334 05ac 8623     		mov	r3, #134
 1335 05ae 5B00     		lsl	r3, r3, #1
 1336 05b0 FB18     		add	r3, r7, r3
 1337 05b2 1B68     		ldr	r3, [r3]
 1338 05b4 0F22     		mov	r2, #15
 1339 05b6 D341     		ror	r3, r3, r2
 1340 05b8 8622     		mov	r2, #134
 1341 05ba 5200     		lsl	r2, r2, #1
 1342 05bc BA18     		add	r2, r7, r2
 1343 05be 1360     		str	r3, [r2]
 1344 05c0 8623     		mov	r3, #134
 1345 05c2 5B00     		lsl	r3, r3, #1
 1346 05c4 FB18     		add	r3, r7, r3
 1347 05c6 1A68     		ldr	r2, [r3]
 1348 05c8 8423     		mov	r3, #132
 1349 05ca 5B00     		lsl	r3, r3, #1
 1350 05cc FB18     		add	r3, r7, r3
 1351 05ce 1B68     		ldr	r3, [r3]
 1352 05d0 D318     		add	r3, r2, r3
 1353 05d2 8622     		mov	r2, #134
 1354 05d4 5200     		lsl	r2, r2, #1
 1355 05d6 BA18     		add	r2, r7, r2
 1356 05d8 1360     		str	r3, [r2]
  99:E:\test\test1\BLE_OTA_External_Memory_Bootloadable01\BLE_OTA_External_Memory_Bootloadable01.cydsn\md5.c ****      FF(b, c, d, a, x[11], 22, 0x895cd7be); /* 12 */  
 1357              		.loc 1 99 0
 1358 05da 8623     		mov	r3, #134
 1359 05dc 5B00     		lsl	r3, r3, #1
 1360 05de FB18     		add	r3, r7, r3
 1361 05e0 1B68     		ldr	r3, [r3]
 1362 05e2 8422     		mov	r2, #132
 1363 05e4 5200     		lsl	r2, r2, #1
 1364 05e6 BA18     		add	r2, r7, r2
 1365 05e8 1268     		ldr	r2, [r2]
 1366 05ea 1A40     		and	r2, r3
 1367 05ec 8623     		mov	r3, #134
 1368 05ee 5B00     		lsl	r3, r3, #1
 1369 05f0 FB18     		add	r3, r7, r3
 1370 05f2 1B68     		ldr	r3, [r3]
 1371 05f4 DB43     		mvn	r3, r3
 1372 05f6 8A21     		mov	r1, #138
 1373 05f8 4900     		lsl	r1, r1, #1
 1374 05fa 7918     		add	r1, r7, r1
 1375 05fc 0968     		ldr	r1, [r1]
ARM GAS  C:\Users\ADMINI~1.SC-\AppData\Local\Temp\ccuBFnVb.s 			page 27


 1376 05fe 0B40     		and	r3, r1
 1377 0600 1A43     		orr	r2, r3
 1378 0602 A74B     		ldr	r3, .L25+4
 1379 0604 8C21     		mov	r1, #140
 1380 0606 4900     		lsl	r1, r1, #1
 1381 0608 8C46     		mov	ip, r1
 1382 060a BC44     		add	ip, ip, r7
 1383 060c 6344     		add	r3, r3, ip
 1384 060e DB6A     		ldr	r3, [r3, #44]
 1385 0610 D218     		add	r2, r2, r3
 1386 0612 8823     		mov	r3, #136
 1387 0614 5B00     		lsl	r3, r3, #1
 1388 0616 FB18     		add	r3, r7, r3
 1389 0618 1B68     		ldr	r3, [r3]
 1390 061a D318     		add	r3, r2, r3
 1391 061c A34A     		ldr	r2, .L25+16
 1392 061e 9446     		mov	ip, r2
 1393 0620 6344     		add	r3, r3, ip
 1394 0622 8822     		mov	r2, #136
 1395 0624 5200     		lsl	r2, r2, #1
 1396 0626 BA18     		add	r2, r7, r2
 1397 0628 1360     		str	r3, [r2]
 1398 062a 8823     		mov	r3, #136
 1399 062c 5B00     		lsl	r3, r3, #1
 1400 062e FB18     		add	r3, r7, r3
 1401 0630 1B68     		ldr	r3, [r3]
 1402 0632 0A22     		mov	r2, #10
 1403 0634 D341     		ror	r3, r3, r2
 1404 0636 8822     		mov	r2, #136
 1405 0638 5200     		lsl	r2, r2, #1
 1406 063a BA18     		add	r2, r7, r2
 1407 063c 1360     		str	r3, [r2]
 1408 063e 8823     		mov	r3, #136
 1409 0640 5B00     		lsl	r3, r3, #1
 1410 0642 FB18     		add	r3, r7, r3
 1411 0644 1A68     		ldr	r2, [r3]
 1412 0646 8623     		mov	r3, #134
 1413 0648 5B00     		lsl	r3, r3, #1
 1414 064a FB18     		add	r3, r7, r3
 1415 064c 1B68     		ldr	r3, [r3]
 1416 064e D318     		add	r3, r2, r3
 1417 0650 8822     		mov	r2, #136
 1418 0652 5200     		lsl	r2, r2, #1
 1419 0654 BA18     		add	r2, r7, r2
 1420 0656 1360     		str	r3, [r2]
 100:E:\test\test1\BLE_OTA_External_Memory_Bootloadable01\BLE_OTA_External_Memory_Bootloadable01.cydsn\md5.c ****      FF(a, b, c, d, x[12], 7, 0x6b901122); /* 13 */  
 1421              		.loc 1 100 0
 1422 0658 8823     		mov	r3, #136
 1423 065a 5B00     		lsl	r3, r3, #1
 1424 065c FB18     		add	r3, r7, r3
 1425 065e 1B68     		ldr	r3, [r3]
 1426 0660 8622     		mov	r2, #134
 1427 0662 5200     		lsl	r2, r2, #1
 1428 0664 BA18     		add	r2, r7, r2
 1429 0666 1268     		ldr	r2, [r2]
 1430 0668 1A40     		and	r2, r3
 1431 066a 8823     		mov	r3, #136
ARM GAS  C:\Users\ADMINI~1.SC-\AppData\Local\Temp\ccuBFnVb.s 			page 28


 1432 066c 5B00     		lsl	r3, r3, #1
 1433 066e FB18     		add	r3, r7, r3
 1434 0670 1B68     		ldr	r3, [r3]
 1435 0672 DB43     		mvn	r3, r3
 1436 0674 8421     		mov	r1, #132
 1437 0676 4900     		lsl	r1, r1, #1
 1438 0678 7918     		add	r1, r7, r1
 1439 067a 0968     		ldr	r1, [r1]
 1440 067c 0B40     		and	r3, r1
 1441 067e 1A43     		orr	r2, r3
 1442 0680 874B     		ldr	r3, .L25+4
 1443 0682 8C21     		mov	r1, #140
 1444 0684 4900     		lsl	r1, r1, #1
 1445 0686 8C46     		mov	ip, r1
 1446 0688 BC44     		add	ip, ip, r7
 1447 068a 6344     		add	r3, r3, ip
 1448 068c 1B6B     		ldr	r3, [r3, #48]
 1449 068e D218     		add	r2, r2, r3
 1450 0690 8A23     		mov	r3, #138
 1451 0692 5B00     		lsl	r3, r3, #1
 1452 0694 FB18     		add	r3, r7, r3
 1453 0696 1B68     		ldr	r3, [r3]
 1454 0698 D318     		add	r3, r2, r3
 1455 069a 854A     		ldr	r2, .L25+20
 1456 069c 9446     		mov	ip, r2
 1457 069e 6344     		add	r3, r3, ip
 1458 06a0 8A22     		mov	r2, #138
 1459 06a2 5200     		lsl	r2, r2, #1
 1460 06a4 BA18     		add	r2, r7, r2
 1461 06a6 1360     		str	r3, [r2]
 1462 06a8 8A23     		mov	r3, #138
 1463 06aa 5B00     		lsl	r3, r3, #1
 1464 06ac FB18     		add	r3, r7, r3
 1465 06ae 1B68     		ldr	r3, [r3]
 1466 06b0 1922     		mov	r2, #25
 1467 06b2 D341     		ror	r3, r3, r2
 1468 06b4 8A22     		mov	r2, #138
 1469 06b6 5200     		lsl	r2, r2, #1
 1470 06b8 BA18     		add	r2, r7, r2
 1471 06ba 1360     		str	r3, [r2]
 1472 06bc 8A23     		mov	r3, #138
 1473 06be 5B00     		lsl	r3, r3, #1
 1474 06c0 FB18     		add	r3, r7, r3
 1475 06c2 1A68     		ldr	r2, [r3]
 1476 06c4 8823     		mov	r3, #136
 1477 06c6 5B00     		lsl	r3, r3, #1
 1478 06c8 FB18     		add	r3, r7, r3
 1479 06ca 1B68     		ldr	r3, [r3]
 1480 06cc D318     		add	r3, r2, r3
 1481 06ce 8A22     		mov	r2, #138
 1482 06d0 5200     		lsl	r2, r2, #1
 1483 06d2 BA18     		add	r2, r7, r2
 1484 06d4 1360     		str	r3, [r2]
 101:E:\test\test1\BLE_OTA_External_Memory_Bootloadable01\BLE_OTA_External_Memory_Bootloadable01.cydsn\md5.c ****      FF(d, a, b, c, x[13], 12, 0xfd987193); /* 14 */  
 1485              		.loc 1 101 0
 1486 06d6 8A23     		mov	r3, #138
 1487 06d8 5B00     		lsl	r3, r3, #1
ARM GAS  C:\Users\ADMINI~1.SC-\AppData\Local\Temp\ccuBFnVb.s 			page 29


 1488 06da FB18     		add	r3, r7, r3
 1489 06dc 1B68     		ldr	r3, [r3]
 1490 06de 8822     		mov	r2, #136
 1491 06e0 5200     		lsl	r2, r2, #1
 1492 06e2 BA18     		add	r2, r7, r2
 1493 06e4 1268     		ldr	r2, [r2]
 1494 06e6 1A40     		and	r2, r3
 1495 06e8 8A23     		mov	r3, #138
 1496 06ea 5B00     		lsl	r3, r3, #1
 1497 06ec FB18     		add	r3, r7, r3
 1498 06ee 1B68     		ldr	r3, [r3]
 1499 06f0 DB43     		mvn	r3, r3
 1500 06f2 8621     		mov	r1, #134
 1501 06f4 4900     		lsl	r1, r1, #1
 1502 06f6 7918     		add	r1, r7, r1
 1503 06f8 0968     		ldr	r1, [r1]
 1504 06fa 0B40     		and	r3, r1
 1505 06fc 1A43     		orr	r2, r3
 1506 06fe 684B     		ldr	r3, .L25+4
 1507 0700 8C21     		mov	r1, #140
 1508 0702 4900     		lsl	r1, r1, #1
 1509 0704 8C46     		mov	ip, r1
 1510 0706 BC44     		add	ip, ip, r7
 1511 0708 6344     		add	r3, r3, ip
 1512 070a 5B6B     		ldr	r3, [r3, #52]
 1513 070c D218     		add	r2, r2, r3
 1514 070e 8423     		mov	r3, #132
 1515 0710 5B00     		lsl	r3, r3, #1
 1516 0712 FB18     		add	r3, r7, r3
 1517 0714 1B68     		ldr	r3, [r3]
 1518 0716 D318     		add	r3, r2, r3
 1519 0718 664A     		ldr	r2, .L25+24
 1520 071a 9446     		mov	ip, r2
 1521 071c 6344     		add	r3, r3, ip
 1522 071e 8422     		mov	r2, #132
 1523 0720 5200     		lsl	r2, r2, #1
 1524 0722 BA18     		add	r2, r7, r2
 1525 0724 1360     		str	r3, [r2]
 1526 0726 8423     		mov	r3, #132
 1527 0728 5B00     		lsl	r3, r3, #1
 1528 072a FB18     		add	r3, r7, r3
 1529 072c 1B68     		ldr	r3, [r3]
 1530 072e 1422     		mov	r2, #20
 1531 0730 D341     		ror	r3, r3, r2
 1532 0732 8422     		mov	r2, #132
 1533 0734 5200     		lsl	r2, r2, #1
 1534 0736 BA18     		add	r2, r7, r2
 1535 0738 1360     		str	r3, [r2]
 1536 073a 8423     		mov	r3, #132
 1537 073c 5B00     		lsl	r3, r3, #1
 1538 073e FB18     		add	r3, r7, r3
 1539 0740 1A68     		ldr	r2, [r3]
 1540 0742 8A23     		mov	r3, #138
 1541 0744 5B00     		lsl	r3, r3, #1
 1542 0746 FB18     		add	r3, r7, r3
 1543 0748 1B68     		ldr	r3, [r3]
 1544 074a D318     		add	r3, r2, r3
ARM GAS  C:\Users\ADMINI~1.SC-\AppData\Local\Temp\ccuBFnVb.s 			page 30


 1545 074c 8422     		mov	r2, #132
 1546 074e 5200     		lsl	r2, r2, #1
 1547 0750 BA18     		add	r2, r7, r2
 1548 0752 1360     		str	r3, [r2]
 102:E:\test\test1\BLE_OTA_External_Memory_Bootloadable01\BLE_OTA_External_Memory_Bootloadable01.cydsn\md5.c ****      FF(c, d, a, b, x[14], 17, 0xa679438e); /* 15 */  
 1549              		.loc 1 102 0
 1550 0754 8423     		mov	r3, #132
 1551 0756 5B00     		lsl	r3, r3, #1
 1552 0758 FB18     		add	r3, r7, r3
 1553 075a 1B68     		ldr	r3, [r3]
 1554 075c 8A22     		mov	r2, #138
 1555 075e 5200     		lsl	r2, r2, #1
 1556 0760 BA18     		add	r2, r7, r2
 1557 0762 1268     		ldr	r2, [r2]
 1558 0764 1A40     		and	r2, r3
 1559 0766 8423     		mov	r3, #132
 1560 0768 5B00     		lsl	r3, r3, #1
 1561 076a FB18     		add	r3, r7, r3
 1562 076c 1B68     		ldr	r3, [r3]
 1563 076e DB43     		mvn	r3, r3
 1564 0770 8821     		mov	r1, #136
 1565 0772 4900     		lsl	r1, r1, #1
 1566 0774 7918     		add	r1, r7, r1
 1567 0776 0968     		ldr	r1, [r1]
 1568 0778 0B40     		and	r3, r1
 1569 077a 1A43     		orr	r2, r3
 1570 077c 484B     		ldr	r3, .L25+4
 1571 077e 8C21     		mov	r1, #140
 1572 0780 4900     		lsl	r1, r1, #1
 1573 0782 8C46     		mov	ip, r1
 1574 0784 BC44     		add	ip, ip, r7
 1575 0786 6344     		add	r3, r3, ip
 1576 0788 9B6B     		ldr	r3, [r3, #56]
 1577 078a D218     		add	r2, r2, r3
 1578 078c 8623     		mov	r3, #134
 1579 078e 5B00     		lsl	r3, r3, #1
 1580 0790 FB18     		add	r3, r7, r3
 1581 0792 1B68     		ldr	r3, [r3]
 1582 0794 D318     		add	r3, r2, r3
 1583 0796 484A     		ldr	r2, .L25+28
 1584 0798 9446     		mov	ip, r2
 1585 079a 6344     		add	r3, r3, ip
 1586 079c 8622     		mov	r2, #134
 1587 079e 5200     		lsl	r2, r2, #1
 1588 07a0 BA18     		add	r2, r7, r2
 1589 07a2 1360     		str	r3, [r2]
 1590 07a4 8623     		mov	r3, #134
 1591 07a6 5B00     		lsl	r3, r3, #1
 1592 07a8 FB18     		add	r3, r7, r3
 1593 07aa 1B68     		ldr	r3, [r3]
 1594 07ac 0F22     		mov	r2, #15
 1595 07ae D341     		ror	r3, r3, r2
 1596 07b0 8622     		mov	r2, #134
 1597 07b2 5200     		lsl	r2, r2, #1
 1598 07b4 BA18     		add	r2, r7, r2
 1599 07b6 1360     		str	r3, [r2]
 1600 07b8 8623     		mov	r3, #134
ARM GAS  C:\Users\ADMINI~1.SC-\AppData\Local\Temp\ccuBFnVb.s 			page 31


 1601 07ba 5B00     		lsl	r3, r3, #1
 1602 07bc FB18     		add	r3, r7, r3
 1603 07be 1A68     		ldr	r2, [r3]
 1604 07c0 8423     		mov	r3, #132
 1605 07c2 5B00     		lsl	r3, r3, #1
 1606 07c4 FB18     		add	r3, r7, r3
 1607 07c6 1B68     		ldr	r3, [r3]
 1608 07c8 D318     		add	r3, r2, r3
 1609 07ca 8622     		mov	r2, #134
 1610 07cc 5200     		lsl	r2, r2, #1
 1611 07ce BA18     		add	r2, r7, r2
 1612 07d0 1360     		str	r3, [r2]
 103:E:\test\test1\BLE_OTA_External_Memory_Bootloadable01\BLE_OTA_External_Memory_Bootloadable01.cydsn\md5.c ****      FF(b, c, d, a, x[15], 22, 0x49b40821); /* 16 */  
 1613              		.loc 1 103 0
 1614 07d2 8623     		mov	r3, #134
 1615 07d4 5B00     		lsl	r3, r3, #1
 1616 07d6 FB18     		add	r3, r7, r3
 1617 07d8 1B68     		ldr	r3, [r3]
 1618 07da 8422     		mov	r2, #132
 1619 07dc 5200     		lsl	r2, r2, #1
 1620 07de BA18     		add	r2, r7, r2
 1621 07e0 1268     		ldr	r2, [r2]
 1622 07e2 1A40     		and	r2, r3
 1623 07e4 8623     		mov	r3, #134
 1624 07e6 5B00     		lsl	r3, r3, #1
 1625 07e8 FB18     		add	r3, r7, r3
 1626 07ea 1B68     		ldr	r3, [r3]
 1627 07ec DB43     		mvn	r3, r3
 1628 07ee 8A21     		mov	r1, #138
 1629 07f0 4900     		lsl	r1, r1, #1
 1630 07f2 7918     		add	r1, r7, r1
 1631 07f4 0968     		ldr	r1, [r1]
 1632 07f6 0B40     		and	r3, r1
 1633 07f8 1A43     		orr	r2, r3
 1634 07fa 294B     		ldr	r3, .L25+4
 1635 07fc 8C21     		mov	r1, #140
 1636 07fe 4900     		lsl	r1, r1, #1
 1637 0800 8C46     		mov	ip, r1
 1638 0802 BC44     		add	ip, ip, r7
 1639 0804 6344     		add	r3, r3, ip
 1640 0806 DB6B     		ldr	r3, [r3, #60]
 1641 0808 D218     		add	r2, r2, r3
 1642 080a 8823     		mov	r3, #136
 1643 080c 5B00     		lsl	r3, r3, #1
 1644 080e FB18     		add	r3, r7, r3
 1645 0810 1B68     		ldr	r3, [r3]
 1646 0812 D318     		add	r3, r2, r3
 1647 0814 294A     		ldr	r2, .L25+32
 1648 0816 9446     		mov	ip, r2
 1649 0818 6344     		add	r3, r3, ip
 1650 081a 8822     		mov	r2, #136
 1651 081c 5200     		lsl	r2, r2, #1
 1652 081e BA18     		add	r2, r7, r2
 1653 0820 1360     		str	r3, [r2]
 1654 0822 8823     		mov	r3, #136
 1655 0824 5B00     		lsl	r3, r3, #1
 1656 0826 FB18     		add	r3, r7, r3
ARM GAS  C:\Users\ADMINI~1.SC-\AppData\Local\Temp\ccuBFnVb.s 			page 32


 1657 0828 1B68     		ldr	r3, [r3]
 1658 082a 0A22     		mov	r2, #10
 1659 082c D341     		ror	r3, r3, r2
 1660 082e 8822     		mov	r2, #136
 1661 0830 5200     		lsl	r2, r2, #1
 1662 0832 BA18     		add	r2, r7, r2
 1663 0834 1360     		str	r3, [r2]
 1664 0836 8823     		mov	r3, #136
 1665 0838 5B00     		lsl	r3, r3, #1
 1666 083a FB18     		add	r3, r7, r3
 1667 083c 1A68     		ldr	r2, [r3]
 1668 083e 8623     		mov	r3, #134
 1669 0840 5B00     		lsl	r3, r3, #1
 1670 0842 FB18     		add	r3, r7, r3
 1671 0844 1B68     		ldr	r3, [r3]
 1672 0846 D318     		add	r3, r2, r3
 1673 0848 8822     		mov	r2, #136
 1674 084a 5200     		lsl	r2, r2, #1
 1675 084c BA18     		add	r2, r7, r2
 1676 084e 1360     		str	r3, [r2]
 104:E:\test\test1\BLE_OTA_External_Memory_Bootloadable01\BLE_OTA_External_Memory_Bootloadable01.cydsn\md5.c ****        
 105:E:\test\test1\BLE_OTA_External_Memory_Bootloadable01\BLE_OTA_External_Memory_Bootloadable01.cydsn\md5.c ****      /* Round 2 */  
 106:E:\test\test1\BLE_OTA_External_Memory_Bootloadable01\BLE_OTA_External_Memory_Bootloadable01.cydsn\md5.c ****      GG(a, b, c, d, x[ 1], 5, 0xf61e2562); /* 17 */  
 1677              		.loc 1 106 0
 1678 0850 8823     		mov	r3, #136
 1679 0852 5B00     		lsl	r3, r3, #1
 1680 0854 FB18     		add	r3, r7, r3
 1681 0856 1B68     		ldr	r3, [r3]
 1682 0858 8422     		mov	r2, #132
 1683 085a 5200     		lsl	r2, r2, #1
 1684 085c BA18     		add	r2, r7, r2
 1685 085e 1268     		ldr	r2, [r2]
 1686 0860 1A40     		and	r2, r3
 1687 0862 8423     		mov	r3, #132
 1688 0864 5B00     		lsl	r3, r3, #1
 1689 0866 FB18     		add	r3, r7, r3
 1690 0868 1B68     		ldr	r3, [r3]
 1691 086a DB43     		mvn	r3, r3
 1692 086c 8621     		mov	r1, #134
 1693 086e 4900     		lsl	r1, r1, #1
 1694 0870 7918     		add	r1, r7, r1
 1695 0872 0968     		ldr	r1, [r1]
 1696 0874 0B40     		and	r3, r1
 1697 0876 1A43     		orr	r2, r3
 1698 0878 094B     		ldr	r3, .L25+4
 1699 087a 8C21     		mov	r1, #140
 1700 087c 4900     		lsl	r1, r1, #1
 1701 087e 8C46     		mov	ip, r1
 1702 0880 BC44     		add	ip, ip, r7
 1703 0882 6344     		add	r3, r3, ip
 1704 0884 5B68     		ldr	r3, [r3, #4]
 1705 0886 D218     		add	r2, r2, r3
 1706 0888 8A23     		mov	r3, #138
 1707 088a 5B00     		lsl	r3, r3, #1
 1708 088c FB18     		add	r3, r7, r3
 1709 088e 1B68     		ldr	r3, [r3]
 1710 0890 D318     		add	r3, r2, r3
ARM GAS  C:\Users\ADMINI~1.SC-\AppData\Local\Temp\ccuBFnVb.s 			page 33


 1711 0892 0B4A     		ldr	r2, .L25+36
 1712 0894 9446     		mov	ip, r2
 1713 0896 6344     		add	r3, r3, ip
 1714 0898 8A22     		mov	r2, #138
 1715 089a 13E0     		b	.L26
 1716              	.L27:
 1717              		.align	2
 1718              	.L25:
 1719 089c D8988069 		.word	1770035416
 1720 08a0 F0FEFFFF 		.word	-272
 1721 08a4 AFF7448B 		.word	-1958414417
 1722 08a8 B15BFFFF 		.word	-42063
 1723 08ac BED75C89 		.word	-1990404162
 1724 08b0 2211906B 		.word	1804603682
 1725 08b4 937198FD 		.word	-40341101
 1726 08b8 8E4379A6 		.word	-1502002290
 1727 08bc 2108B449 		.word	1236535329
 1728 08c0 62251EF6 		.word	-165796510
 1729              	.L26:
 1730 08c4 5200     		lsl	r2, r2, #1
 1731 08c6 BA18     		add	r2, r7, r2
 1732 08c8 1360     		str	r3, [r2]
 1733 08ca 8A23     		mov	r3, #138
 1734 08cc 5B00     		lsl	r3, r3, #1
 1735 08ce FB18     		add	r3, r7, r3
 1736 08d0 1B68     		ldr	r3, [r3]
 1737 08d2 1B22     		mov	r2, #27
 1738 08d4 D341     		ror	r3, r3, r2
 1739 08d6 8A22     		mov	r2, #138
 1740 08d8 5200     		lsl	r2, r2, #1
 1741 08da BA18     		add	r2, r7, r2
 1742 08dc 1360     		str	r3, [r2]
 1743 08de 8A23     		mov	r3, #138
 1744 08e0 5B00     		lsl	r3, r3, #1
 1745 08e2 FB18     		add	r3, r7, r3
 1746 08e4 1A68     		ldr	r2, [r3]
 1747 08e6 8823     		mov	r3, #136
 1748 08e8 5B00     		lsl	r3, r3, #1
 1749 08ea FB18     		add	r3, r7, r3
 1750 08ec 1B68     		ldr	r3, [r3]
 1751 08ee D318     		add	r3, r2, r3
 1752 08f0 8A22     		mov	r2, #138
 1753 08f2 5200     		lsl	r2, r2, #1
 1754 08f4 BA18     		add	r2, r7, r2
 1755 08f6 1360     		str	r3, [r2]
 107:E:\test\test1\BLE_OTA_External_Memory_Bootloadable01\BLE_OTA_External_Memory_Bootloadable01.cydsn\md5.c ****      GG(d, a, b, c, x[ 6], 9, 0xc040b340); /* 18 */  
 1756              		.loc 1 107 0
 1757 08f8 8A23     		mov	r3, #138
 1758 08fa 5B00     		lsl	r3, r3, #1
 1759 08fc FB18     		add	r3, r7, r3
 1760 08fe 1B68     		ldr	r3, [r3]
 1761 0900 8622     		mov	r2, #134
 1762 0902 5200     		lsl	r2, r2, #1
 1763 0904 BA18     		add	r2, r7, r2
 1764 0906 1268     		ldr	r2, [r2]
 1765 0908 1A40     		and	r2, r3
 1766 090a 8623     		mov	r3, #134
ARM GAS  C:\Users\ADMINI~1.SC-\AppData\Local\Temp\ccuBFnVb.s 			page 34


 1767 090c 5B00     		lsl	r3, r3, #1
 1768 090e FB18     		add	r3, r7, r3
 1769 0910 1B68     		ldr	r3, [r3]
 1770 0912 DB43     		mvn	r3, r3
 1771 0914 8821     		mov	r1, #136
 1772 0916 4900     		lsl	r1, r1, #1
 1773 0918 7918     		add	r1, r7, r1
 1774 091a 0968     		ldr	r1, [r1]
 1775 091c 0B40     		and	r3, r1
 1776 091e 1A43     		orr	r2, r3
 1777 0920 FE4B     		ldr	r3, .L28
 1778 0922 8C21     		mov	r1, #140
 1779 0924 4900     		lsl	r1, r1, #1
 1780 0926 8C46     		mov	ip, r1
 1781 0928 BC44     		add	ip, ip, r7
 1782 092a 6344     		add	r3, r3, ip
 1783 092c 9B69     		ldr	r3, [r3, #24]
 1784 092e D218     		add	r2, r2, r3
 1785 0930 8423     		mov	r3, #132
 1786 0932 5B00     		lsl	r3, r3, #1
 1787 0934 FB18     		add	r3, r7, r3
 1788 0936 1B68     		ldr	r3, [r3]
 1789 0938 D318     		add	r3, r2, r3
 1790 093a F94A     		ldr	r2, .L28+4
 1791 093c 9446     		mov	ip, r2
 1792 093e 6344     		add	r3, r3, ip
 1793 0940 8422     		mov	r2, #132
 1794 0942 5200     		lsl	r2, r2, #1
 1795 0944 BA18     		add	r2, r7, r2
 1796 0946 1360     		str	r3, [r2]
 1797 0948 8423     		mov	r3, #132
 1798 094a 5B00     		lsl	r3, r3, #1
 1799 094c FB18     		add	r3, r7, r3
 1800 094e 1B68     		ldr	r3, [r3]
 1801 0950 1722     		mov	r2, #23
 1802 0952 D341     		ror	r3, r3, r2
 1803 0954 8422     		mov	r2, #132
 1804 0956 5200     		lsl	r2, r2, #1
 1805 0958 BA18     		add	r2, r7, r2
 1806 095a 1360     		str	r3, [r2]
 1807 095c 8423     		mov	r3, #132
 1808 095e 5B00     		lsl	r3, r3, #1
 1809 0960 FB18     		add	r3, r7, r3
 1810 0962 1A68     		ldr	r2, [r3]
 1811 0964 8A23     		mov	r3, #138
 1812 0966 5B00     		lsl	r3, r3, #1
 1813 0968 FB18     		add	r3, r7, r3
 1814 096a 1B68     		ldr	r3, [r3]
 1815 096c D318     		add	r3, r2, r3
 1816 096e 8422     		mov	r2, #132
 1817 0970 5200     		lsl	r2, r2, #1
 1818 0972 BA18     		add	r2, r7, r2
 1819 0974 1360     		str	r3, [r2]
 108:E:\test\test1\BLE_OTA_External_Memory_Bootloadable01\BLE_OTA_External_Memory_Bootloadable01.cydsn\md5.c ****      GG(c, d, a, b, x[11], 14, 0x265e5a51); /* 19 */  
 1820              		.loc 1 108 0
 1821 0976 8423     		mov	r3, #132
 1822 0978 5B00     		lsl	r3, r3, #1
ARM GAS  C:\Users\ADMINI~1.SC-\AppData\Local\Temp\ccuBFnVb.s 			page 35


 1823 097a FB18     		add	r3, r7, r3
 1824 097c 1B68     		ldr	r3, [r3]
 1825 097e 8822     		mov	r2, #136
 1826 0980 5200     		lsl	r2, r2, #1
 1827 0982 BA18     		add	r2, r7, r2
 1828 0984 1268     		ldr	r2, [r2]
 1829 0986 1A40     		and	r2, r3
 1830 0988 8823     		mov	r3, #136
 1831 098a 5B00     		lsl	r3, r3, #1
 1832 098c FB18     		add	r3, r7, r3
 1833 098e 1B68     		ldr	r3, [r3]
 1834 0990 DB43     		mvn	r3, r3
 1835 0992 8A21     		mov	r1, #138
 1836 0994 4900     		lsl	r1, r1, #1
 1837 0996 7918     		add	r1, r7, r1
 1838 0998 0968     		ldr	r1, [r1]
 1839 099a 0B40     		and	r3, r1
 1840 099c 1A43     		orr	r2, r3
 1841 099e DF4B     		ldr	r3, .L28
 1842 09a0 8C21     		mov	r1, #140
 1843 09a2 4900     		lsl	r1, r1, #1
 1844 09a4 8C46     		mov	ip, r1
 1845 09a6 BC44     		add	ip, ip, r7
 1846 09a8 6344     		add	r3, r3, ip
 1847 09aa DB6A     		ldr	r3, [r3, #44]
 1848 09ac D218     		add	r2, r2, r3
 1849 09ae 8623     		mov	r3, #134
 1850 09b0 5B00     		lsl	r3, r3, #1
 1851 09b2 FB18     		add	r3, r7, r3
 1852 09b4 1B68     		ldr	r3, [r3]
 1853 09b6 D318     		add	r3, r2, r3
 1854 09b8 DA4A     		ldr	r2, .L28+8
 1855 09ba 9446     		mov	ip, r2
 1856 09bc 6344     		add	r3, r3, ip
 1857 09be 8622     		mov	r2, #134
 1858 09c0 5200     		lsl	r2, r2, #1
 1859 09c2 BA18     		add	r2, r7, r2
 1860 09c4 1360     		str	r3, [r2]
 1861 09c6 8623     		mov	r3, #134
 1862 09c8 5B00     		lsl	r3, r3, #1
 1863 09ca FB18     		add	r3, r7, r3
 1864 09cc 1B68     		ldr	r3, [r3]
 1865 09ce 1222     		mov	r2, #18
 1866 09d0 D341     		ror	r3, r3, r2
 1867 09d2 8622     		mov	r2, #134
 1868 09d4 5200     		lsl	r2, r2, #1
 1869 09d6 BA18     		add	r2, r7, r2
 1870 09d8 1360     		str	r3, [r2]
 1871 09da 8623     		mov	r3, #134
 1872 09dc 5B00     		lsl	r3, r3, #1
 1873 09de FB18     		add	r3, r7, r3
 1874 09e0 1A68     		ldr	r2, [r3]
 1875 09e2 8423     		mov	r3, #132
 1876 09e4 5B00     		lsl	r3, r3, #1
 1877 09e6 FB18     		add	r3, r7, r3
 1878 09e8 1B68     		ldr	r3, [r3]
 1879 09ea D318     		add	r3, r2, r3
ARM GAS  C:\Users\ADMINI~1.SC-\AppData\Local\Temp\ccuBFnVb.s 			page 36


 1880 09ec 8622     		mov	r2, #134
 1881 09ee 5200     		lsl	r2, r2, #1
 1882 09f0 BA18     		add	r2, r7, r2
 1883 09f2 1360     		str	r3, [r2]
 109:E:\test\test1\BLE_OTA_External_Memory_Bootloadable01\BLE_OTA_External_Memory_Bootloadable01.cydsn\md5.c ****      GG(b, c, d, a, x[ 0], 20, 0xe9b6c7aa); /* 20 */  
 1884              		.loc 1 109 0
 1885 09f4 8623     		mov	r3, #134
 1886 09f6 5B00     		lsl	r3, r3, #1
 1887 09f8 FB18     		add	r3, r7, r3
 1888 09fa 1B68     		ldr	r3, [r3]
 1889 09fc 8A22     		mov	r2, #138
 1890 09fe 5200     		lsl	r2, r2, #1
 1891 0a00 BA18     		add	r2, r7, r2
 1892 0a02 1268     		ldr	r2, [r2]
 1893 0a04 1A40     		and	r2, r3
 1894 0a06 8A23     		mov	r3, #138
 1895 0a08 5B00     		lsl	r3, r3, #1
 1896 0a0a FB18     		add	r3, r7, r3
 1897 0a0c 1B68     		ldr	r3, [r3]
 1898 0a0e DB43     		mvn	r3, r3
 1899 0a10 8421     		mov	r1, #132
 1900 0a12 4900     		lsl	r1, r1, #1
 1901 0a14 7918     		add	r1, r7, r1
 1902 0a16 0968     		ldr	r1, [r1]
 1903 0a18 0B40     		and	r3, r1
 1904 0a1a 1A43     		orr	r2, r3
 1905 0a1c BF4B     		ldr	r3, .L28
 1906 0a1e 8C21     		mov	r1, #140
 1907 0a20 4900     		lsl	r1, r1, #1
 1908 0a22 8C46     		mov	ip, r1
 1909 0a24 BC44     		add	ip, ip, r7
 1910 0a26 6344     		add	r3, r3, ip
 1911 0a28 1B68     		ldr	r3, [r3]
 1912 0a2a D218     		add	r2, r2, r3
 1913 0a2c 8823     		mov	r3, #136
 1914 0a2e 5B00     		lsl	r3, r3, #1
 1915 0a30 FB18     		add	r3, r7, r3
 1916 0a32 1B68     		ldr	r3, [r3]
 1917 0a34 D318     		add	r3, r2, r3
 1918 0a36 BC4A     		ldr	r2, .L28+12
 1919 0a38 9446     		mov	ip, r2
 1920 0a3a 6344     		add	r3, r3, ip
 1921 0a3c 8822     		mov	r2, #136
 1922 0a3e 5200     		lsl	r2, r2, #1
 1923 0a40 BA18     		add	r2, r7, r2
 1924 0a42 1360     		str	r3, [r2]
 1925 0a44 8823     		mov	r3, #136
 1926 0a46 5B00     		lsl	r3, r3, #1
 1927 0a48 FB18     		add	r3, r7, r3
 1928 0a4a 1B68     		ldr	r3, [r3]
 1929 0a4c 0C22     		mov	r2, #12
 1930 0a4e D341     		ror	r3, r3, r2
 1931 0a50 8822     		mov	r2, #136
 1932 0a52 5200     		lsl	r2, r2, #1
 1933 0a54 BA18     		add	r2, r7, r2
 1934 0a56 1360     		str	r3, [r2]
 1935 0a58 8823     		mov	r3, #136
ARM GAS  C:\Users\ADMINI~1.SC-\AppData\Local\Temp\ccuBFnVb.s 			page 37


 1936 0a5a 5B00     		lsl	r3, r3, #1
 1937 0a5c FB18     		add	r3, r7, r3
 1938 0a5e 1A68     		ldr	r2, [r3]
 1939 0a60 8623     		mov	r3, #134
 1940 0a62 5B00     		lsl	r3, r3, #1
 1941 0a64 FB18     		add	r3, r7, r3
 1942 0a66 1B68     		ldr	r3, [r3]
 1943 0a68 D318     		add	r3, r2, r3
 1944 0a6a 8822     		mov	r2, #136
 1945 0a6c 5200     		lsl	r2, r2, #1
 1946 0a6e BA18     		add	r2, r7, r2
 1947 0a70 1360     		str	r3, [r2]
 110:E:\test\test1\BLE_OTA_External_Memory_Bootloadable01\BLE_OTA_External_Memory_Bootloadable01.cydsn\md5.c ****      GG(a, b, c, d, x[ 5], 5, 0xd62f105d); /* 21 */  
 1948              		.loc 1 110 0
 1949 0a72 8823     		mov	r3, #136
 1950 0a74 5B00     		lsl	r3, r3, #1
 1951 0a76 FB18     		add	r3, r7, r3
 1952 0a78 1B68     		ldr	r3, [r3]
 1953 0a7a 8422     		mov	r2, #132
 1954 0a7c 5200     		lsl	r2, r2, #1
 1955 0a7e BA18     		add	r2, r7, r2
 1956 0a80 1268     		ldr	r2, [r2]
 1957 0a82 1A40     		and	r2, r3
 1958 0a84 8423     		mov	r3, #132
 1959 0a86 5B00     		lsl	r3, r3, #1
 1960 0a88 FB18     		add	r3, r7, r3
 1961 0a8a 1B68     		ldr	r3, [r3]
 1962 0a8c DB43     		mvn	r3, r3
 1963 0a8e 8621     		mov	r1, #134
 1964 0a90 4900     		lsl	r1, r1, #1
 1965 0a92 7918     		add	r1, r7, r1
 1966 0a94 0968     		ldr	r1, [r1]
 1967 0a96 0B40     		and	r3, r1
 1968 0a98 1A43     		orr	r2, r3
 1969 0a9a A04B     		ldr	r3, .L28
 1970 0a9c 8C21     		mov	r1, #140
 1971 0a9e 4900     		lsl	r1, r1, #1
 1972 0aa0 8C46     		mov	ip, r1
 1973 0aa2 BC44     		add	ip, ip, r7
 1974 0aa4 6344     		add	r3, r3, ip
 1975 0aa6 5B69     		ldr	r3, [r3, #20]
 1976 0aa8 D218     		add	r2, r2, r3
 1977 0aaa 8A23     		mov	r3, #138
 1978 0aac 5B00     		lsl	r3, r3, #1
 1979 0aae FB18     		add	r3, r7, r3
 1980 0ab0 1B68     		ldr	r3, [r3]
 1981 0ab2 D318     		add	r3, r2, r3
 1982 0ab4 9D4A     		ldr	r2, .L28+16
 1983 0ab6 9446     		mov	ip, r2
 1984 0ab8 6344     		add	r3, r3, ip
 1985 0aba 8A22     		mov	r2, #138
 1986 0abc 5200     		lsl	r2, r2, #1
 1987 0abe BA18     		add	r2, r7, r2
 1988 0ac0 1360     		str	r3, [r2]
 1989 0ac2 8A23     		mov	r3, #138
 1990 0ac4 5B00     		lsl	r3, r3, #1
 1991 0ac6 FB18     		add	r3, r7, r3
ARM GAS  C:\Users\ADMINI~1.SC-\AppData\Local\Temp\ccuBFnVb.s 			page 38


 1992 0ac8 1B68     		ldr	r3, [r3]
 1993 0aca 1B22     		mov	r2, #27
 1994 0acc D341     		ror	r3, r3, r2
 1995 0ace 8A22     		mov	r2, #138
 1996 0ad0 5200     		lsl	r2, r2, #1
 1997 0ad2 BA18     		add	r2, r7, r2
 1998 0ad4 1360     		str	r3, [r2]
 1999 0ad6 8A23     		mov	r3, #138
 2000 0ad8 5B00     		lsl	r3, r3, #1
 2001 0ada FB18     		add	r3, r7, r3
 2002 0adc 1A68     		ldr	r2, [r3]
 2003 0ade 8823     		mov	r3, #136
 2004 0ae0 5B00     		lsl	r3, r3, #1
 2005 0ae2 FB18     		add	r3, r7, r3
 2006 0ae4 1B68     		ldr	r3, [r3]
 2007 0ae6 D318     		add	r3, r2, r3
 2008 0ae8 8A22     		mov	r2, #138
 2009 0aea 5200     		lsl	r2, r2, #1
 2010 0aec BA18     		add	r2, r7, r2
 2011 0aee 1360     		str	r3, [r2]
 111:E:\test\test1\BLE_OTA_External_Memory_Bootloadable01\BLE_OTA_External_Memory_Bootloadable01.cydsn\md5.c ****      GG(d, a, b, c, x[10], 9,  0x2441453); /* 22 */  
 2012              		.loc 1 111 0
 2013 0af0 8A23     		mov	r3, #138
 2014 0af2 5B00     		lsl	r3, r3, #1
 2015 0af4 FB18     		add	r3, r7, r3
 2016 0af6 1B68     		ldr	r3, [r3]
 2017 0af8 8622     		mov	r2, #134
 2018 0afa 5200     		lsl	r2, r2, #1
 2019 0afc BA18     		add	r2, r7, r2
 2020 0afe 1268     		ldr	r2, [r2]
 2021 0b00 1A40     		and	r2, r3
 2022 0b02 8623     		mov	r3, #134
 2023 0b04 5B00     		lsl	r3, r3, #1
 2024 0b06 FB18     		add	r3, r7, r3
 2025 0b08 1B68     		ldr	r3, [r3]
 2026 0b0a DB43     		mvn	r3, r3
 2027 0b0c 8821     		mov	r1, #136
 2028 0b0e 4900     		lsl	r1, r1, #1
 2029 0b10 7918     		add	r1, r7, r1
 2030 0b12 0968     		ldr	r1, [r1]
 2031 0b14 0B40     		and	r3, r1
 2032 0b16 1A43     		orr	r2, r3
 2033 0b18 804B     		ldr	r3, .L28
 2034 0b1a 8C21     		mov	r1, #140
 2035 0b1c 4900     		lsl	r1, r1, #1
 2036 0b1e 8C46     		mov	ip, r1
 2037 0b20 BC44     		add	ip, ip, r7
 2038 0b22 6344     		add	r3, r3, ip
 2039 0b24 9B6A     		ldr	r3, [r3, #40]
 2040 0b26 D218     		add	r2, r2, r3
 2041 0b28 8423     		mov	r3, #132
 2042 0b2a 5B00     		lsl	r3, r3, #1
 2043 0b2c FB18     		add	r3, r7, r3
 2044 0b2e 1B68     		ldr	r3, [r3]
 2045 0b30 D318     		add	r3, r2, r3
 2046 0b32 7F4A     		ldr	r2, .L28+20
 2047 0b34 9446     		mov	ip, r2
ARM GAS  C:\Users\ADMINI~1.SC-\AppData\Local\Temp\ccuBFnVb.s 			page 39


 2048 0b36 6344     		add	r3, r3, ip
 2049 0b38 8422     		mov	r2, #132
 2050 0b3a 5200     		lsl	r2, r2, #1
 2051 0b3c BA18     		add	r2, r7, r2
 2052 0b3e 1360     		str	r3, [r2]
 2053 0b40 8423     		mov	r3, #132
 2054 0b42 5B00     		lsl	r3, r3, #1
 2055 0b44 FB18     		add	r3, r7, r3
 2056 0b46 1B68     		ldr	r3, [r3]
 2057 0b48 1722     		mov	r2, #23
 2058 0b4a D341     		ror	r3, r3, r2
 2059 0b4c 8422     		mov	r2, #132
 2060 0b4e 5200     		lsl	r2, r2, #1
 2061 0b50 BA18     		add	r2, r7, r2
 2062 0b52 1360     		str	r3, [r2]
 2063 0b54 8423     		mov	r3, #132
 2064 0b56 5B00     		lsl	r3, r3, #1
 2065 0b58 FB18     		add	r3, r7, r3
 2066 0b5a 1A68     		ldr	r2, [r3]
 2067 0b5c 8A23     		mov	r3, #138
 2068 0b5e 5B00     		lsl	r3, r3, #1
 2069 0b60 FB18     		add	r3, r7, r3
 2070 0b62 1B68     		ldr	r3, [r3]
 2071 0b64 D318     		add	r3, r2, r3
 2072 0b66 8422     		mov	r2, #132
 2073 0b68 5200     		lsl	r2, r2, #1
 2074 0b6a BA18     		add	r2, r7, r2
 2075 0b6c 1360     		str	r3, [r2]
 112:E:\test\test1\BLE_OTA_External_Memory_Bootloadable01\BLE_OTA_External_Memory_Bootloadable01.cydsn\md5.c ****      GG(c, d, a, b, x[15], 14, 0xd8a1e681); /* 23 */  
 2076              		.loc 1 112 0
 2077 0b6e 8423     		mov	r3, #132
 2078 0b70 5B00     		lsl	r3, r3, #1
 2079 0b72 FB18     		add	r3, r7, r3
 2080 0b74 1B68     		ldr	r3, [r3]
 2081 0b76 8822     		mov	r2, #136
 2082 0b78 5200     		lsl	r2, r2, #1
 2083 0b7a BA18     		add	r2, r7, r2
 2084 0b7c 1268     		ldr	r2, [r2]
 2085 0b7e 1A40     		and	r2, r3
 2086 0b80 8823     		mov	r3, #136
 2087 0b82 5B00     		lsl	r3, r3, #1
 2088 0b84 FB18     		add	r3, r7, r3
 2089 0b86 1B68     		ldr	r3, [r3]
 2090 0b88 DB43     		mvn	r3, r3
 2091 0b8a 8A21     		mov	r1, #138
 2092 0b8c 4900     		lsl	r1, r1, #1
 2093 0b8e 7918     		add	r1, r7, r1
 2094 0b90 0968     		ldr	r1, [r1]
 2095 0b92 0B40     		and	r3, r1
 2096 0b94 1A43     		orr	r2, r3
 2097 0b96 614B     		ldr	r3, .L28
 2098 0b98 8C21     		mov	r1, #140
 2099 0b9a 4900     		lsl	r1, r1, #1
 2100 0b9c 8C46     		mov	ip, r1
 2101 0b9e BC44     		add	ip, ip, r7
 2102 0ba0 6344     		add	r3, r3, ip
 2103 0ba2 DB6B     		ldr	r3, [r3, #60]
ARM GAS  C:\Users\ADMINI~1.SC-\AppData\Local\Temp\ccuBFnVb.s 			page 40


 2104 0ba4 D218     		add	r2, r2, r3
 2105 0ba6 8623     		mov	r3, #134
 2106 0ba8 5B00     		lsl	r3, r3, #1
 2107 0baa FB18     		add	r3, r7, r3
 2108 0bac 1B68     		ldr	r3, [r3]
 2109 0bae D318     		add	r3, r2, r3
 2110 0bb0 604A     		ldr	r2, .L28+24
 2111 0bb2 9446     		mov	ip, r2
 2112 0bb4 6344     		add	r3, r3, ip
 2113 0bb6 8622     		mov	r2, #134
 2114 0bb8 5200     		lsl	r2, r2, #1
 2115 0bba BA18     		add	r2, r7, r2
 2116 0bbc 1360     		str	r3, [r2]
 2117 0bbe 8623     		mov	r3, #134
 2118 0bc0 5B00     		lsl	r3, r3, #1
 2119 0bc2 FB18     		add	r3, r7, r3
 2120 0bc4 1B68     		ldr	r3, [r3]
 2121 0bc6 1222     		mov	r2, #18
 2122 0bc8 D341     		ror	r3, r3, r2
 2123 0bca 8622     		mov	r2, #134
 2124 0bcc 5200     		lsl	r2, r2, #1
 2125 0bce BA18     		add	r2, r7, r2
 2126 0bd0 1360     		str	r3, [r2]
 2127 0bd2 8623     		mov	r3, #134
 2128 0bd4 5B00     		lsl	r3, r3, #1
 2129 0bd6 FB18     		add	r3, r7, r3
 2130 0bd8 1A68     		ldr	r2, [r3]
 2131 0bda 8423     		mov	r3, #132
 2132 0bdc 5B00     		lsl	r3, r3, #1
 2133 0bde FB18     		add	r3, r7, r3
 2134 0be0 1B68     		ldr	r3, [r3]
 2135 0be2 D318     		add	r3, r2, r3
 2136 0be4 8622     		mov	r2, #134
 2137 0be6 5200     		lsl	r2, r2, #1
 2138 0be8 BA18     		add	r2, r7, r2
 2139 0bea 1360     		str	r3, [r2]
 113:E:\test\test1\BLE_OTA_External_Memory_Bootloadable01\BLE_OTA_External_Memory_Bootloadable01.cydsn\md5.c ****      GG(b, c, d, a, x[ 4], 20, 0xe7d3fbc8); /* 24 */  
 2140              		.loc 1 113 0
 2141 0bec 8623     		mov	r3, #134
 2142 0bee 5B00     		lsl	r3, r3, #1
 2143 0bf0 FB18     		add	r3, r7, r3
 2144 0bf2 1B68     		ldr	r3, [r3]
 2145 0bf4 8A22     		mov	r2, #138
 2146 0bf6 5200     		lsl	r2, r2, #1
 2147 0bf8 BA18     		add	r2, r7, r2
 2148 0bfa 1268     		ldr	r2, [r2]
 2149 0bfc 1A40     		and	r2, r3
 2150 0bfe 8A23     		mov	r3, #138
 2151 0c00 5B00     		lsl	r3, r3, #1
 2152 0c02 FB18     		add	r3, r7, r3
 2153 0c04 1B68     		ldr	r3, [r3]
 2154 0c06 DB43     		mvn	r3, r3
 2155 0c08 8421     		mov	r1, #132
 2156 0c0a 4900     		lsl	r1, r1, #1
 2157 0c0c 7918     		add	r1, r7, r1
 2158 0c0e 0968     		ldr	r1, [r1]
 2159 0c10 0B40     		and	r3, r1
ARM GAS  C:\Users\ADMINI~1.SC-\AppData\Local\Temp\ccuBFnVb.s 			page 41


 2160 0c12 1A43     		orr	r2, r3
 2161 0c14 414B     		ldr	r3, .L28
 2162 0c16 8C21     		mov	r1, #140
 2163 0c18 4900     		lsl	r1, r1, #1
 2164 0c1a 8C46     		mov	ip, r1
 2165 0c1c BC44     		add	ip, ip, r7
 2166 0c1e 6344     		add	r3, r3, ip
 2167 0c20 1B69     		ldr	r3, [r3, #16]
 2168 0c22 D218     		add	r2, r2, r3
 2169 0c24 8823     		mov	r3, #136
 2170 0c26 5B00     		lsl	r3, r3, #1
 2171 0c28 FB18     		add	r3, r7, r3
 2172 0c2a 1B68     		ldr	r3, [r3]
 2173 0c2c D318     		add	r3, r2, r3
 2174 0c2e 424A     		ldr	r2, .L28+28
 2175 0c30 9446     		mov	ip, r2
 2176 0c32 6344     		add	r3, r3, ip
 2177 0c34 8822     		mov	r2, #136
 2178 0c36 5200     		lsl	r2, r2, #1
 2179 0c38 BA18     		add	r2, r7, r2
 2180 0c3a 1360     		str	r3, [r2]
 2181 0c3c 8823     		mov	r3, #136
 2182 0c3e 5B00     		lsl	r3, r3, #1
 2183 0c40 FB18     		add	r3, r7, r3
 2184 0c42 1B68     		ldr	r3, [r3]
 2185 0c44 0C22     		mov	r2, #12
 2186 0c46 D341     		ror	r3, r3, r2
 2187 0c48 8822     		mov	r2, #136
 2188 0c4a 5200     		lsl	r2, r2, #1
 2189 0c4c BA18     		add	r2, r7, r2
 2190 0c4e 1360     		str	r3, [r2]
 2191 0c50 8823     		mov	r3, #136
 2192 0c52 5B00     		lsl	r3, r3, #1
 2193 0c54 FB18     		add	r3, r7, r3
 2194 0c56 1A68     		ldr	r2, [r3]
 2195 0c58 8623     		mov	r3, #134
 2196 0c5a 5B00     		lsl	r3, r3, #1
 2197 0c5c FB18     		add	r3, r7, r3
 2198 0c5e 1B68     		ldr	r3, [r3]
 2199 0c60 D318     		add	r3, r2, r3
 2200 0c62 8822     		mov	r2, #136
 2201 0c64 5200     		lsl	r2, r2, #1
 2202 0c66 BA18     		add	r2, r7, r2
 2203 0c68 1360     		str	r3, [r2]
 114:E:\test\test1\BLE_OTA_External_Memory_Bootloadable01\BLE_OTA_External_Memory_Bootloadable01.cydsn\md5.c ****      GG(a, b, c, d, x[ 9], 5, 0x21e1cde6); /* 25 */  
 2204              		.loc 1 114 0
 2205 0c6a 8823     		mov	r3, #136
 2206 0c6c 5B00     		lsl	r3, r3, #1
 2207 0c6e FB18     		add	r3, r7, r3
 2208 0c70 1B68     		ldr	r3, [r3]
 2209 0c72 8422     		mov	r2, #132
 2210 0c74 5200     		lsl	r2, r2, #1
 2211 0c76 BA18     		add	r2, r7, r2
 2212 0c78 1268     		ldr	r2, [r2]
 2213 0c7a 1A40     		and	r2, r3
 2214 0c7c 8423     		mov	r3, #132
 2215 0c7e 5B00     		lsl	r3, r3, #1
ARM GAS  C:\Users\ADMINI~1.SC-\AppData\Local\Temp\ccuBFnVb.s 			page 42


 2216 0c80 FB18     		add	r3, r7, r3
 2217 0c82 1B68     		ldr	r3, [r3]
 2218 0c84 DB43     		mvn	r3, r3
 2219 0c86 8621     		mov	r1, #134
 2220 0c88 4900     		lsl	r1, r1, #1
 2221 0c8a 7918     		add	r1, r7, r1
 2222 0c8c 0968     		ldr	r1, [r1]
 2223 0c8e 0B40     		and	r3, r1
 2224 0c90 1A43     		orr	r2, r3
 2225 0c92 224B     		ldr	r3, .L28
 2226 0c94 8C21     		mov	r1, #140
 2227 0c96 4900     		lsl	r1, r1, #1
 2228 0c98 8C46     		mov	ip, r1
 2229 0c9a BC44     		add	ip, ip, r7
 2230 0c9c 6344     		add	r3, r3, ip
 2231 0c9e 5B6A     		ldr	r3, [r3, #36]
 2232 0ca0 D218     		add	r2, r2, r3
 2233 0ca2 8A23     		mov	r3, #138
 2234 0ca4 5B00     		lsl	r3, r3, #1
 2235 0ca6 FB18     		add	r3, r7, r3
 2236 0ca8 1B68     		ldr	r3, [r3]
 2237 0caa D318     		add	r3, r2, r3
 2238 0cac 234A     		ldr	r2, .L28+32
 2239 0cae 9446     		mov	ip, r2
 2240 0cb0 6344     		add	r3, r3, ip
 2241 0cb2 8A22     		mov	r2, #138
 2242 0cb4 5200     		lsl	r2, r2, #1
 2243 0cb6 BA18     		add	r2, r7, r2
 2244 0cb8 1360     		str	r3, [r2]
 2245 0cba 8A23     		mov	r3, #138
 2246 0cbc 5B00     		lsl	r3, r3, #1
 2247 0cbe FB18     		add	r3, r7, r3
 2248 0cc0 1B68     		ldr	r3, [r3]
 2249 0cc2 1B22     		mov	r2, #27
 2250 0cc4 D341     		ror	r3, r3, r2
 2251 0cc6 8A22     		mov	r2, #138
 2252 0cc8 5200     		lsl	r2, r2, #1
 2253 0cca BA18     		add	r2, r7, r2
 2254 0ccc 1360     		str	r3, [r2]
 2255 0cce 8A23     		mov	r3, #138
 2256 0cd0 5B00     		lsl	r3, r3, #1
 2257 0cd2 FB18     		add	r3, r7, r3
 2258 0cd4 1A68     		ldr	r2, [r3]
 2259 0cd6 8823     		mov	r3, #136
 2260 0cd8 5B00     		lsl	r3, r3, #1
 2261 0cda FB18     		add	r3, r7, r3
 2262 0cdc 1B68     		ldr	r3, [r3]
 2263 0cde D318     		add	r3, r2, r3
 2264 0ce0 8A22     		mov	r2, #138
 2265 0ce2 5200     		lsl	r2, r2, #1
 2266 0ce4 BA18     		add	r2, r7, r2
 2267 0ce6 1360     		str	r3, [r2]
 115:E:\test\test1\BLE_OTA_External_Memory_Bootloadable01\BLE_OTA_External_Memory_Bootloadable01.cydsn\md5.c ****      GG(d, a, b, c, x[14], 9, 0xc33707d6); /* 26 */  
 2268              		.loc 1 115 0
 2269 0ce8 8A23     		mov	r3, #138
 2270 0cea 5B00     		lsl	r3, r3, #1
 2271 0cec FB18     		add	r3, r7, r3
ARM GAS  C:\Users\ADMINI~1.SC-\AppData\Local\Temp\ccuBFnVb.s 			page 43


 2272 0cee 1B68     		ldr	r3, [r3]
 2273 0cf0 8622     		mov	r2, #134
 2274 0cf2 5200     		lsl	r2, r2, #1
 2275 0cf4 BA18     		add	r2, r7, r2
 2276 0cf6 1268     		ldr	r2, [r2]
 2277 0cf8 1A40     		and	r2, r3
 2278 0cfa 8623     		mov	r3, #134
 2279 0cfc 5B00     		lsl	r3, r3, #1
 2280 0cfe FB18     		add	r3, r7, r3
 2281 0d00 1B68     		ldr	r3, [r3]
 2282 0d02 DB43     		mvn	r3, r3
 2283 0d04 8821     		mov	r1, #136
 2284 0d06 4900     		lsl	r1, r1, #1
 2285 0d08 7918     		add	r1, r7, r1
 2286 0d0a 0968     		ldr	r1, [r1]
 2287 0d0c 0B40     		and	r3, r1
 2288 0d0e 1A43     		orr	r2, r3
 2289 0d10 024B     		ldr	r3, .L28
 2290 0d12 8C21     		mov	r1, #140
 2291 0d14 4900     		lsl	r1, r1, #1
 2292 0d16 8C46     		mov	ip, r1
 2293 0d18 12E0     		b	.L29
 2294              	.L30:
 2295 0d1a C046     		.align	2
 2296              	.L28:
 2297 0d1c F0FEFFFF 		.word	-272
 2298 0d20 40B340C0 		.word	-1069501632
 2299 0d24 515A5E26 		.word	643717713
 2300 0d28 AAC7B6E9 		.word	-373897302
 2301 0d2c 5D102FD6 		.word	-701558691
 2302 0d30 53144402 		.word	38016083
 2303 0d34 81E6A1D8 		.word	-660478335
 2304 0d38 C8FBD3E7 		.word	-405537848
 2305 0d3c E6CDE121 		.word	568446438
 2306              	.L29:
 2307 0d40 BC44     		add	ip, ip, r7
 2308 0d42 6344     		add	r3, r3, ip
 2309 0d44 9B6B     		ldr	r3, [r3, #56]
 2310 0d46 D218     		add	r2, r2, r3
 2311 0d48 8423     		mov	r3, #132
 2312 0d4a 5B00     		lsl	r3, r3, #1
 2313 0d4c FB18     		add	r3, r7, r3
 2314 0d4e 1B68     		ldr	r3, [r3]
 2315 0d50 D318     		add	r3, r2, r3
 2316 0d52 FE4A     		ldr	r2, .L31
 2317 0d54 9446     		mov	ip, r2
 2318 0d56 6344     		add	r3, r3, ip
 2319 0d58 8422     		mov	r2, #132
 2320 0d5a 5200     		lsl	r2, r2, #1
 2321 0d5c BA18     		add	r2, r7, r2
 2322 0d5e 1360     		str	r3, [r2]
 2323 0d60 8423     		mov	r3, #132
 2324 0d62 5B00     		lsl	r3, r3, #1
 2325 0d64 FB18     		add	r3, r7, r3
 2326 0d66 1B68     		ldr	r3, [r3]
 2327 0d68 1722     		mov	r2, #23
 2328 0d6a D341     		ror	r3, r3, r2
ARM GAS  C:\Users\ADMINI~1.SC-\AppData\Local\Temp\ccuBFnVb.s 			page 44


 2329 0d6c 8422     		mov	r2, #132
 2330 0d6e 5200     		lsl	r2, r2, #1
 2331 0d70 BA18     		add	r2, r7, r2
 2332 0d72 1360     		str	r3, [r2]
 2333 0d74 8423     		mov	r3, #132
 2334 0d76 5B00     		lsl	r3, r3, #1
 2335 0d78 FB18     		add	r3, r7, r3
 2336 0d7a 1A68     		ldr	r2, [r3]
 2337 0d7c 8A23     		mov	r3, #138
 2338 0d7e 5B00     		lsl	r3, r3, #1
 2339 0d80 FB18     		add	r3, r7, r3
 2340 0d82 1B68     		ldr	r3, [r3]
 2341 0d84 D318     		add	r3, r2, r3
 2342 0d86 8422     		mov	r2, #132
 2343 0d88 5200     		lsl	r2, r2, #1
 2344 0d8a BA18     		add	r2, r7, r2
 2345 0d8c 1360     		str	r3, [r2]
 116:E:\test\test1\BLE_OTA_External_Memory_Bootloadable01\BLE_OTA_External_Memory_Bootloadable01.cydsn\md5.c ****      GG(c, d, a, b, x[ 3], 14, 0xf4d50d87); /* 27 */  
 2346              		.loc 1 116 0
 2347 0d8e 8423     		mov	r3, #132
 2348 0d90 5B00     		lsl	r3, r3, #1
 2349 0d92 FB18     		add	r3, r7, r3
 2350 0d94 1B68     		ldr	r3, [r3]
 2351 0d96 8822     		mov	r2, #136
 2352 0d98 5200     		lsl	r2, r2, #1
 2353 0d9a BA18     		add	r2, r7, r2
 2354 0d9c 1268     		ldr	r2, [r2]
 2355 0d9e 1A40     		and	r2, r3
 2356 0da0 8823     		mov	r3, #136
 2357 0da2 5B00     		lsl	r3, r3, #1
 2358 0da4 FB18     		add	r3, r7, r3
 2359 0da6 1B68     		ldr	r3, [r3]
 2360 0da8 DB43     		mvn	r3, r3
 2361 0daa 8A21     		mov	r1, #138
 2362 0dac 4900     		lsl	r1, r1, #1
 2363 0dae 7918     		add	r1, r7, r1
 2364 0db0 0968     		ldr	r1, [r1]
 2365 0db2 0B40     		and	r3, r1
 2366 0db4 1A43     		orr	r2, r3
 2367 0db6 E64B     		ldr	r3, .L31+4
 2368 0db8 8C21     		mov	r1, #140
 2369 0dba 4900     		lsl	r1, r1, #1
 2370 0dbc 8C46     		mov	ip, r1
 2371 0dbe BC44     		add	ip, ip, r7
 2372 0dc0 6344     		add	r3, r3, ip
 2373 0dc2 DB68     		ldr	r3, [r3, #12]
 2374 0dc4 D218     		add	r2, r2, r3
 2375 0dc6 8623     		mov	r3, #134
 2376 0dc8 5B00     		lsl	r3, r3, #1
 2377 0dca FB18     		add	r3, r7, r3
 2378 0dcc 1B68     		ldr	r3, [r3]
 2379 0dce D318     		add	r3, r2, r3
 2380 0dd0 E04A     		ldr	r2, .L31+8
 2381 0dd2 9446     		mov	ip, r2
 2382 0dd4 6344     		add	r3, r3, ip
 2383 0dd6 8622     		mov	r2, #134
 2384 0dd8 5200     		lsl	r2, r2, #1
ARM GAS  C:\Users\ADMINI~1.SC-\AppData\Local\Temp\ccuBFnVb.s 			page 45


 2385 0dda BA18     		add	r2, r7, r2
 2386 0ddc 1360     		str	r3, [r2]
 2387 0dde 8623     		mov	r3, #134
 2388 0de0 5B00     		lsl	r3, r3, #1
 2389 0de2 FB18     		add	r3, r7, r3
 2390 0de4 1B68     		ldr	r3, [r3]
 2391 0de6 1222     		mov	r2, #18
 2392 0de8 D341     		ror	r3, r3, r2
 2393 0dea 8622     		mov	r2, #134
 2394 0dec 5200     		lsl	r2, r2, #1
 2395 0dee BA18     		add	r2, r7, r2
 2396 0df0 1360     		str	r3, [r2]
 2397 0df2 8623     		mov	r3, #134
 2398 0df4 5B00     		lsl	r3, r3, #1
 2399 0df6 FB18     		add	r3, r7, r3
 2400 0df8 1A68     		ldr	r2, [r3]
 2401 0dfa 8423     		mov	r3, #132
 2402 0dfc 5B00     		lsl	r3, r3, #1
 2403 0dfe FB18     		add	r3, r7, r3
 2404 0e00 1B68     		ldr	r3, [r3]
 2405 0e02 D318     		add	r3, r2, r3
 2406 0e04 8622     		mov	r2, #134
 2407 0e06 5200     		lsl	r2, r2, #1
 2408 0e08 BA18     		add	r2, r7, r2
 2409 0e0a 1360     		str	r3, [r2]
 117:E:\test\test1\BLE_OTA_External_Memory_Bootloadable01\BLE_OTA_External_Memory_Bootloadable01.cydsn\md5.c ****      GG(b, c, d, a, x[ 8], 20, 0x455a14ed); /* 28 */  
 2410              		.loc 1 117 0
 2411 0e0c 8623     		mov	r3, #134
 2412 0e0e 5B00     		lsl	r3, r3, #1
 2413 0e10 FB18     		add	r3, r7, r3
 2414 0e12 1B68     		ldr	r3, [r3]
 2415 0e14 8A22     		mov	r2, #138
 2416 0e16 5200     		lsl	r2, r2, #1
 2417 0e18 BA18     		add	r2, r7, r2
 2418 0e1a 1268     		ldr	r2, [r2]
 2419 0e1c 1A40     		and	r2, r3
 2420 0e1e 8A23     		mov	r3, #138
 2421 0e20 5B00     		lsl	r3, r3, #1
 2422 0e22 FB18     		add	r3, r7, r3
 2423 0e24 1B68     		ldr	r3, [r3]
 2424 0e26 DB43     		mvn	r3, r3
 2425 0e28 8421     		mov	r1, #132
 2426 0e2a 4900     		lsl	r1, r1, #1
 2427 0e2c 7918     		add	r1, r7, r1
 2428 0e2e 0968     		ldr	r1, [r1]
 2429 0e30 0B40     		and	r3, r1
 2430 0e32 1A43     		orr	r2, r3
 2431 0e34 C64B     		ldr	r3, .L31+4
 2432 0e36 8C21     		mov	r1, #140
 2433 0e38 4900     		lsl	r1, r1, #1
 2434 0e3a 8C46     		mov	ip, r1
 2435 0e3c BC44     		add	ip, ip, r7
 2436 0e3e 6344     		add	r3, r3, ip
 2437 0e40 1B6A     		ldr	r3, [r3, #32]
 2438 0e42 D218     		add	r2, r2, r3
 2439 0e44 8823     		mov	r3, #136
 2440 0e46 5B00     		lsl	r3, r3, #1
ARM GAS  C:\Users\ADMINI~1.SC-\AppData\Local\Temp\ccuBFnVb.s 			page 46


 2441 0e48 FB18     		add	r3, r7, r3
 2442 0e4a 1B68     		ldr	r3, [r3]
 2443 0e4c D318     		add	r3, r2, r3
 2444 0e4e C24A     		ldr	r2, .L31+12
 2445 0e50 9446     		mov	ip, r2
 2446 0e52 6344     		add	r3, r3, ip
 2447 0e54 8822     		mov	r2, #136
 2448 0e56 5200     		lsl	r2, r2, #1
 2449 0e58 BA18     		add	r2, r7, r2
 2450 0e5a 1360     		str	r3, [r2]
 2451 0e5c 8823     		mov	r3, #136
 2452 0e5e 5B00     		lsl	r3, r3, #1
 2453 0e60 FB18     		add	r3, r7, r3
 2454 0e62 1B68     		ldr	r3, [r3]
 2455 0e64 0C22     		mov	r2, #12
 2456 0e66 D341     		ror	r3, r3, r2
 2457 0e68 8822     		mov	r2, #136
 2458 0e6a 5200     		lsl	r2, r2, #1
 2459 0e6c BA18     		add	r2, r7, r2
 2460 0e6e 1360     		str	r3, [r2]
 2461 0e70 8823     		mov	r3, #136
 2462 0e72 5B00     		lsl	r3, r3, #1
 2463 0e74 FB18     		add	r3, r7, r3
 2464 0e76 1A68     		ldr	r2, [r3]
 2465 0e78 8623     		mov	r3, #134
 2466 0e7a 5B00     		lsl	r3, r3, #1
 2467 0e7c FB18     		add	r3, r7, r3
 2468 0e7e 1B68     		ldr	r3, [r3]
 2469 0e80 D318     		add	r3, r2, r3
 2470 0e82 8822     		mov	r2, #136
 2471 0e84 5200     		lsl	r2, r2, #1
 2472 0e86 BA18     		add	r2, r7, r2
 2473 0e88 1360     		str	r3, [r2]
 118:E:\test\test1\BLE_OTA_External_Memory_Bootloadable01\BLE_OTA_External_Memory_Bootloadable01.cydsn\md5.c ****      GG(a, b, c, d, x[13], 5, 0xa9e3e905); /* 29 */  
 2474              		.loc 1 118 0
 2475 0e8a 8823     		mov	r3, #136
 2476 0e8c 5B00     		lsl	r3, r3, #1
 2477 0e8e FB18     		add	r3, r7, r3
 2478 0e90 1B68     		ldr	r3, [r3]
 2479 0e92 8422     		mov	r2, #132
 2480 0e94 5200     		lsl	r2, r2, #1
 2481 0e96 BA18     		add	r2, r7, r2
 2482 0e98 1268     		ldr	r2, [r2]
 2483 0e9a 1A40     		and	r2, r3
 2484 0e9c 8423     		mov	r3, #132
 2485 0e9e 5B00     		lsl	r3, r3, #1
 2486 0ea0 FB18     		add	r3, r7, r3
 2487 0ea2 1B68     		ldr	r3, [r3]
 2488 0ea4 DB43     		mvn	r3, r3
 2489 0ea6 8621     		mov	r1, #134
 2490 0ea8 4900     		lsl	r1, r1, #1
 2491 0eaa 7918     		add	r1, r7, r1
 2492 0eac 0968     		ldr	r1, [r1]
 2493 0eae 0B40     		and	r3, r1
 2494 0eb0 1A43     		orr	r2, r3
 2495 0eb2 A74B     		ldr	r3, .L31+4
 2496 0eb4 8C21     		mov	r1, #140
ARM GAS  C:\Users\ADMINI~1.SC-\AppData\Local\Temp\ccuBFnVb.s 			page 47


 2497 0eb6 4900     		lsl	r1, r1, #1
 2498 0eb8 8C46     		mov	ip, r1
 2499 0eba BC44     		add	ip, ip, r7
 2500 0ebc 6344     		add	r3, r3, ip
 2501 0ebe 5B6B     		ldr	r3, [r3, #52]
 2502 0ec0 D218     		add	r2, r2, r3
 2503 0ec2 8A23     		mov	r3, #138
 2504 0ec4 5B00     		lsl	r3, r3, #1
 2505 0ec6 FB18     		add	r3, r7, r3
 2506 0ec8 1B68     		ldr	r3, [r3]
 2507 0eca D318     		add	r3, r2, r3
 2508 0ecc A34A     		ldr	r2, .L31+16
 2509 0ece 9446     		mov	ip, r2
 2510 0ed0 6344     		add	r3, r3, ip
 2511 0ed2 8A22     		mov	r2, #138
 2512 0ed4 5200     		lsl	r2, r2, #1
 2513 0ed6 BA18     		add	r2, r7, r2
 2514 0ed8 1360     		str	r3, [r2]
 2515 0eda 8A23     		mov	r3, #138
 2516 0edc 5B00     		lsl	r3, r3, #1
 2517 0ede FB18     		add	r3, r7, r3
 2518 0ee0 1B68     		ldr	r3, [r3]
 2519 0ee2 1B22     		mov	r2, #27
 2520 0ee4 D341     		ror	r3, r3, r2
 2521 0ee6 8A22     		mov	r2, #138
 2522 0ee8 5200     		lsl	r2, r2, #1
 2523 0eea BA18     		add	r2, r7, r2
 2524 0eec 1360     		str	r3, [r2]
 2525 0eee 8A23     		mov	r3, #138
 2526 0ef0 5B00     		lsl	r3, r3, #1
 2527 0ef2 FB18     		add	r3, r7, r3
 2528 0ef4 1A68     		ldr	r2, [r3]
 2529 0ef6 8823     		mov	r3, #136
 2530 0ef8 5B00     		lsl	r3, r3, #1
 2531 0efa FB18     		add	r3, r7, r3
 2532 0efc 1B68     		ldr	r3, [r3]
 2533 0efe D318     		add	r3, r2, r3
 2534 0f00 8A22     		mov	r2, #138
 2535 0f02 5200     		lsl	r2, r2, #1
 2536 0f04 BA18     		add	r2, r7, r2
 2537 0f06 1360     		str	r3, [r2]
 119:E:\test\test1\BLE_OTA_External_Memory_Bootloadable01\BLE_OTA_External_Memory_Bootloadable01.cydsn\md5.c ****      GG(d, a, b, c, x[ 2], 9, 0xfcefa3f8); /* 30 */  
 2538              		.loc 1 119 0
 2539 0f08 8A23     		mov	r3, #138
 2540 0f0a 5B00     		lsl	r3, r3, #1
 2541 0f0c FB18     		add	r3, r7, r3
 2542 0f0e 1B68     		ldr	r3, [r3]
 2543 0f10 8622     		mov	r2, #134
 2544 0f12 5200     		lsl	r2, r2, #1
 2545 0f14 BA18     		add	r2, r7, r2
 2546 0f16 1268     		ldr	r2, [r2]
 2547 0f18 1A40     		and	r2, r3
 2548 0f1a 8623     		mov	r3, #134
 2549 0f1c 5B00     		lsl	r3, r3, #1
 2550 0f1e FB18     		add	r3, r7, r3
 2551 0f20 1B68     		ldr	r3, [r3]
 2552 0f22 DB43     		mvn	r3, r3
ARM GAS  C:\Users\ADMINI~1.SC-\AppData\Local\Temp\ccuBFnVb.s 			page 48


 2553 0f24 8821     		mov	r1, #136
 2554 0f26 4900     		lsl	r1, r1, #1
 2555 0f28 7918     		add	r1, r7, r1
 2556 0f2a 0968     		ldr	r1, [r1]
 2557 0f2c 0B40     		and	r3, r1
 2558 0f2e 1A43     		orr	r2, r3
 2559 0f30 874B     		ldr	r3, .L31+4
 2560 0f32 8C21     		mov	r1, #140
 2561 0f34 4900     		lsl	r1, r1, #1
 2562 0f36 8C46     		mov	ip, r1
 2563 0f38 BC44     		add	ip, ip, r7
 2564 0f3a 6344     		add	r3, r3, ip
 2565 0f3c 9B68     		ldr	r3, [r3, #8]
 2566 0f3e D218     		add	r2, r2, r3
 2567 0f40 8423     		mov	r3, #132
 2568 0f42 5B00     		lsl	r3, r3, #1
 2569 0f44 FB18     		add	r3, r7, r3
 2570 0f46 1B68     		ldr	r3, [r3]
 2571 0f48 D318     		add	r3, r2, r3
 2572 0f4a 854A     		ldr	r2, .L31+20
 2573 0f4c 9446     		mov	ip, r2
 2574 0f4e 6344     		add	r3, r3, ip
 2575 0f50 8422     		mov	r2, #132
 2576 0f52 5200     		lsl	r2, r2, #1
 2577 0f54 BA18     		add	r2, r7, r2
 2578 0f56 1360     		str	r3, [r2]
 2579 0f58 8423     		mov	r3, #132
 2580 0f5a 5B00     		lsl	r3, r3, #1
 2581 0f5c FB18     		add	r3, r7, r3
 2582 0f5e 1B68     		ldr	r3, [r3]
 2583 0f60 1722     		mov	r2, #23
 2584 0f62 D341     		ror	r3, r3, r2
 2585 0f64 8422     		mov	r2, #132
 2586 0f66 5200     		lsl	r2, r2, #1
 2587 0f68 BA18     		add	r2, r7, r2
 2588 0f6a 1360     		str	r3, [r2]
 2589 0f6c 8423     		mov	r3, #132
 2590 0f6e 5B00     		lsl	r3, r3, #1
 2591 0f70 FB18     		add	r3, r7, r3
 2592 0f72 1A68     		ldr	r2, [r3]
 2593 0f74 8A23     		mov	r3, #138
 2594 0f76 5B00     		lsl	r3, r3, #1
 2595 0f78 FB18     		add	r3, r7, r3
 2596 0f7a 1B68     		ldr	r3, [r3]
 2597 0f7c D318     		add	r3, r2, r3
 2598 0f7e 8422     		mov	r2, #132
 2599 0f80 5200     		lsl	r2, r2, #1
 2600 0f82 BA18     		add	r2, r7, r2
 2601 0f84 1360     		str	r3, [r2]
 120:E:\test\test1\BLE_OTA_External_Memory_Bootloadable01\BLE_OTA_External_Memory_Bootloadable01.cydsn\md5.c ****      GG(c, d, a, b, x[ 7], 14, 0x676f02d9); /* 31 */  
 2602              		.loc 1 120 0
 2603 0f86 8423     		mov	r3, #132
 2604 0f88 5B00     		lsl	r3, r3, #1
 2605 0f8a FB18     		add	r3, r7, r3
 2606 0f8c 1B68     		ldr	r3, [r3]
 2607 0f8e 8822     		mov	r2, #136
 2608 0f90 5200     		lsl	r2, r2, #1
ARM GAS  C:\Users\ADMINI~1.SC-\AppData\Local\Temp\ccuBFnVb.s 			page 49


 2609 0f92 BA18     		add	r2, r7, r2
 2610 0f94 1268     		ldr	r2, [r2]
 2611 0f96 1A40     		and	r2, r3
 2612 0f98 8823     		mov	r3, #136
 2613 0f9a 5B00     		lsl	r3, r3, #1
 2614 0f9c FB18     		add	r3, r7, r3
 2615 0f9e 1B68     		ldr	r3, [r3]
 2616 0fa0 DB43     		mvn	r3, r3
 2617 0fa2 8A21     		mov	r1, #138
 2618 0fa4 4900     		lsl	r1, r1, #1
 2619 0fa6 7918     		add	r1, r7, r1
 2620 0fa8 0968     		ldr	r1, [r1]
 2621 0faa 0B40     		and	r3, r1
 2622 0fac 1A43     		orr	r2, r3
 2623 0fae 684B     		ldr	r3, .L31+4
 2624 0fb0 8C21     		mov	r1, #140
 2625 0fb2 4900     		lsl	r1, r1, #1
 2626 0fb4 8C46     		mov	ip, r1
 2627 0fb6 BC44     		add	ip, ip, r7
 2628 0fb8 6344     		add	r3, r3, ip
 2629 0fba DB69     		ldr	r3, [r3, #28]
 2630 0fbc D218     		add	r2, r2, r3
 2631 0fbe 8623     		mov	r3, #134
 2632 0fc0 5B00     		lsl	r3, r3, #1
 2633 0fc2 FB18     		add	r3, r7, r3
 2634 0fc4 1B68     		ldr	r3, [r3]
 2635 0fc6 D318     		add	r3, r2, r3
 2636 0fc8 664A     		ldr	r2, .L31+24
 2637 0fca 9446     		mov	ip, r2
 2638 0fcc 6344     		add	r3, r3, ip
 2639 0fce 8622     		mov	r2, #134
 2640 0fd0 5200     		lsl	r2, r2, #1
 2641 0fd2 BA18     		add	r2, r7, r2
 2642 0fd4 1360     		str	r3, [r2]
 2643 0fd6 8623     		mov	r3, #134
 2644 0fd8 5B00     		lsl	r3, r3, #1
 2645 0fda FB18     		add	r3, r7, r3
 2646 0fdc 1B68     		ldr	r3, [r3]
 2647 0fde 1222     		mov	r2, #18
 2648 0fe0 D341     		ror	r3, r3, r2
 2649 0fe2 8622     		mov	r2, #134
 2650 0fe4 5200     		lsl	r2, r2, #1
 2651 0fe6 BA18     		add	r2, r7, r2
 2652 0fe8 1360     		str	r3, [r2]
 2653 0fea 8623     		mov	r3, #134
 2654 0fec 5B00     		lsl	r3, r3, #1
 2655 0fee FB18     		add	r3, r7, r3
 2656 0ff0 1A68     		ldr	r2, [r3]
 2657 0ff2 8423     		mov	r3, #132
 2658 0ff4 5B00     		lsl	r3, r3, #1
 2659 0ff6 FB18     		add	r3, r7, r3
 2660 0ff8 1B68     		ldr	r3, [r3]
 2661 0ffa D318     		add	r3, r2, r3
 2662 0ffc 8622     		mov	r2, #134
 2663 0ffe 5200     		lsl	r2, r2, #1
 2664 1000 BA18     		add	r2, r7, r2
 2665 1002 1360     		str	r3, [r2]
ARM GAS  C:\Users\ADMINI~1.SC-\AppData\Local\Temp\ccuBFnVb.s 			page 50


 121:E:\test\test1\BLE_OTA_External_Memory_Bootloadable01\BLE_OTA_External_Memory_Bootloadable01.cydsn\md5.c ****      GG(b, c, d, a, x[12], 20, 0x8d2a4c8a); /* 32 */  
 2666              		.loc 1 121 0
 2667 1004 8623     		mov	r3, #134
 2668 1006 5B00     		lsl	r3, r3, #1
 2669 1008 FB18     		add	r3, r7, r3
 2670 100a 1B68     		ldr	r3, [r3]
 2671 100c 8A22     		mov	r2, #138
 2672 100e 5200     		lsl	r2, r2, #1
 2673 1010 BA18     		add	r2, r7, r2
 2674 1012 1268     		ldr	r2, [r2]
 2675 1014 1A40     		and	r2, r3
 2676 1016 8A23     		mov	r3, #138
 2677 1018 5B00     		lsl	r3, r3, #1
 2678 101a FB18     		add	r3, r7, r3
 2679 101c 1B68     		ldr	r3, [r3]
 2680 101e DB43     		mvn	r3, r3
 2681 1020 8421     		mov	r1, #132
 2682 1022 4900     		lsl	r1, r1, #1
 2683 1024 7918     		add	r1, r7, r1
 2684 1026 0968     		ldr	r1, [r1]
 2685 1028 0B40     		and	r3, r1
 2686 102a 1A43     		orr	r2, r3
 2687 102c 484B     		ldr	r3, .L31+4
 2688 102e 8C21     		mov	r1, #140
 2689 1030 4900     		lsl	r1, r1, #1
 2690 1032 8C46     		mov	ip, r1
 2691 1034 BC44     		add	ip, ip, r7
 2692 1036 6344     		add	r3, r3, ip
 2693 1038 1B6B     		ldr	r3, [r3, #48]
 2694 103a D218     		add	r2, r2, r3
 2695 103c 8823     		mov	r3, #136
 2696 103e 5B00     		lsl	r3, r3, #1
 2697 1040 FB18     		add	r3, r7, r3
 2698 1042 1B68     		ldr	r3, [r3]
 2699 1044 D318     		add	r3, r2, r3
 2700 1046 484A     		ldr	r2, .L31+28
 2701 1048 9446     		mov	ip, r2
 2702 104a 6344     		add	r3, r3, ip
 2703 104c 8822     		mov	r2, #136
 2704 104e 5200     		lsl	r2, r2, #1
 2705 1050 BA18     		add	r2, r7, r2
 2706 1052 1360     		str	r3, [r2]
 2707 1054 8823     		mov	r3, #136
 2708 1056 5B00     		lsl	r3, r3, #1
 2709 1058 FB18     		add	r3, r7, r3
 2710 105a 1B68     		ldr	r3, [r3]
 2711 105c 0C22     		mov	r2, #12
 2712 105e D341     		ror	r3, r3, r2
 2713 1060 8822     		mov	r2, #136
 2714 1062 5200     		lsl	r2, r2, #1
 2715 1064 BA18     		add	r2, r7, r2
 2716 1066 1360     		str	r3, [r2]
 2717 1068 8823     		mov	r3, #136
 2718 106a 5B00     		lsl	r3, r3, #1
 2719 106c FB18     		add	r3, r7, r3
 2720 106e 1A68     		ldr	r2, [r3]
 2721 1070 8623     		mov	r3, #134
ARM GAS  C:\Users\ADMINI~1.SC-\AppData\Local\Temp\ccuBFnVb.s 			page 51


 2722 1072 5B00     		lsl	r3, r3, #1
 2723 1074 FB18     		add	r3, r7, r3
 2724 1076 1B68     		ldr	r3, [r3]
 2725 1078 D318     		add	r3, r2, r3
 2726 107a 8822     		mov	r2, #136
 2727 107c 5200     		lsl	r2, r2, #1
 2728 107e BA18     		add	r2, r7, r2
 2729 1080 1360     		str	r3, [r2]
 122:E:\test\test1\BLE_OTA_External_Memory_Bootloadable01\BLE_OTA_External_Memory_Bootloadable01.cydsn\md5.c ****        
 123:E:\test\test1\BLE_OTA_External_Memory_Bootloadable01\BLE_OTA_External_Memory_Bootloadable01.cydsn\md5.c ****      /* Round 3 */  
 124:E:\test\test1\BLE_OTA_External_Memory_Bootloadable01\BLE_OTA_External_Memory_Bootloadable01.cydsn\md5.c ****      HH(a, b, c, d, x[ 5], 4, 0xfffa3942); /* 33 */  
 2730              		.loc 1 124 0
 2731 1082 8823     		mov	r3, #136
 2732 1084 5B00     		lsl	r3, r3, #1
 2733 1086 FB18     		add	r3, r7, r3
 2734 1088 1A68     		ldr	r2, [r3]
 2735 108a 8623     		mov	r3, #134
 2736 108c 5B00     		lsl	r3, r3, #1
 2737 108e FB18     		add	r3, r7, r3
 2738 1090 1B68     		ldr	r3, [r3]
 2739 1092 5A40     		eor	r2, r3
 2740 1094 8423     		mov	r3, #132
 2741 1096 5B00     		lsl	r3, r3, #1
 2742 1098 FB18     		add	r3, r7, r3
 2743 109a 1B68     		ldr	r3, [r3]
 2744 109c 5A40     		eor	r2, r3
 2745 109e 2C4B     		ldr	r3, .L31+4
 2746 10a0 8C21     		mov	r1, #140
 2747 10a2 4900     		lsl	r1, r1, #1
 2748 10a4 8C46     		mov	ip, r1
 2749 10a6 BC44     		add	ip, ip, r7
 2750 10a8 6344     		add	r3, r3, ip
 2751 10aa 5B69     		ldr	r3, [r3, #20]
 2752 10ac D218     		add	r2, r2, r3
 2753 10ae 8A23     		mov	r3, #138
 2754 10b0 5B00     		lsl	r3, r3, #1
 2755 10b2 FB18     		add	r3, r7, r3
 2756 10b4 1B68     		ldr	r3, [r3]
 2757 10b6 D318     		add	r3, r2, r3
 2758 10b8 2C4A     		ldr	r2, .L31+32
 2759 10ba 9446     		mov	ip, r2
 2760 10bc 6344     		add	r3, r3, ip
 2761 10be 8A22     		mov	r2, #138
 2762 10c0 5200     		lsl	r2, r2, #1
 2763 10c2 BA18     		add	r2, r7, r2
 2764 10c4 1360     		str	r3, [r2]
 2765 10c6 8A23     		mov	r3, #138
 2766 10c8 5B00     		lsl	r3, r3, #1
 2767 10ca FB18     		add	r3, r7, r3
 2768 10cc 1B68     		ldr	r3, [r3]
 2769 10ce 1C22     		mov	r2, #28
 2770 10d0 D341     		ror	r3, r3, r2
 2771 10d2 8A22     		mov	r2, #138
 2772 10d4 5200     		lsl	r2, r2, #1
 2773 10d6 BA18     		add	r2, r7, r2
 2774 10d8 1360     		str	r3, [r2]
 2775 10da 8A23     		mov	r3, #138
ARM GAS  C:\Users\ADMINI~1.SC-\AppData\Local\Temp\ccuBFnVb.s 			page 52


 2776 10dc 5B00     		lsl	r3, r3, #1
 2777 10de FB18     		add	r3, r7, r3
 2778 10e0 1A68     		ldr	r2, [r3]
 2779 10e2 8823     		mov	r3, #136
 2780 10e4 5B00     		lsl	r3, r3, #1
 2781 10e6 FB18     		add	r3, r7, r3
 2782 10e8 1B68     		ldr	r3, [r3]
 2783 10ea D318     		add	r3, r2, r3
 2784 10ec 8A22     		mov	r2, #138
 2785 10ee 5200     		lsl	r2, r2, #1
 2786 10f0 BA18     		add	r2, r7, r2
 2787 10f2 1360     		str	r3, [r2]
 125:E:\test\test1\BLE_OTA_External_Memory_Bootloadable01\BLE_OTA_External_Memory_Bootloadable01.cydsn\md5.c ****      HH(d, a, b, c, x[ 8], 11, 0x8771f681); /* 34 */  
 2788              		.loc 1 125 0
 2789 10f4 8A23     		mov	r3, #138
 2790 10f6 5B00     		lsl	r3, r3, #1
 2791 10f8 FB18     		add	r3, r7, r3
 2792 10fa 1A68     		ldr	r2, [r3]
 2793 10fc 8823     		mov	r3, #136
 2794 10fe 5B00     		lsl	r3, r3, #1
 2795 1100 FB18     		add	r3, r7, r3
 2796 1102 1B68     		ldr	r3, [r3]
 2797 1104 5A40     		eor	r2, r3
 2798 1106 8623     		mov	r3, #134
 2799 1108 5B00     		lsl	r3, r3, #1
 2800 110a FB18     		add	r3, r7, r3
 2801 110c 1B68     		ldr	r3, [r3]
 2802 110e 5A40     		eor	r2, r3
 2803 1110 0F4B     		ldr	r3, .L31+4
 2804 1112 8C21     		mov	r1, #140
 2805 1114 4900     		lsl	r1, r1, #1
 2806 1116 8C46     		mov	ip, r1
 2807 1118 BC44     		add	ip, ip, r7
 2808 111a 6344     		add	r3, r3, ip
 2809 111c 1B6A     		ldr	r3, [r3, #32]
 2810 111e D218     		add	r2, r2, r3
 2811 1120 8423     		mov	r3, #132
 2812 1122 5B00     		lsl	r3, r3, #1
 2813 1124 FB18     		add	r3, r7, r3
 2814 1126 1B68     		ldr	r3, [r3]
 2815 1128 D318     		add	r3, r2, r3
 2816 112a 114A     		ldr	r2, .L31+36
 2817 112c 9446     		mov	ip, r2
 2818 112e 6344     		add	r3, r3, ip
 2819 1130 8422     		mov	r2, #132
 2820 1132 5200     		lsl	r2, r2, #1
 2821 1134 BA18     		add	r2, r7, r2
 2822 1136 1360     		str	r3, [r2]
 2823 1138 8423     		mov	r3, #132
 2824 113a 5B00     		lsl	r3, r3, #1
 2825 113c FB18     		add	r3, r7, r3
 2826 113e 1B68     		ldr	r3, [r3]
 2827 1140 1522     		mov	r2, #21
 2828 1142 D341     		ror	r3, r3, r2
 2829 1144 8422     		mov	r2, #132
 2830 1146 5200     		lsl	r2, r2, #1
 2831 1148 BA18     		add	r2, r7, r2
ARM GAS  C:\Users\ADMINI~1.SC-\AppData\Local\Temp\ccuBFnVb.s 			page 53


 2832 114a 13E0     		b	.L32
 2833              	.L33:
 2834              		.align	2
 2835              	.L31:
 2836 114c D60737C3 		.word	-1019803690
 2837 1150 F0FEFFFF 		.word	-272
 2838 1154 870DD5F4 		.word	-187363961
 2839 1158 ED145A45 		.word	1163531501
 2840 115c 05E9E3A9 		.word	-1444681467
 2841 1160 F8A3EFFC 		.word	-51403784
 2842 1164 D9026F67 		.word	1735328473
 2843 1168 8A4C2A8D 		.word	-1926607734
 2844 116c 4239FAFF 		.word	-378558
 2845 1170 81F67187 		.word	-2022574463
 2846              	.L32:
 2847 1174 1360     		str	r3, [r2]
 2848 1176 8423     		mov	r3, #132
 2849 1178 5B00     		lsl	r3, r3, #1
 2850 117a FB18     		add	r3, r7, r3
 2851 117c 1A68     		ldr	r2, [r3]
 2852 117e 8A23     		mov	r3, #138
 2853 1180 5B00     		lsl	r3, r3, #1
 2854 1182 FB18     		add	r3, r7, r3
 2855 1184 1B68     		ldr	r3, [r3]
 2856 1186 D318     		add	r3, r2, r3
 2857 1188 8422     		mov	r2, #132
 2858 118a 5200     		lsl	r2, r2, #1
 2859 118c BA18     		add	r2, r7, r2
 2860 118e 1360     		str	r3, [r2]
 126:E:\test\test1\BLE_OTA_External_Memory_Bootloadable01\BLE_OTA_External_Memory_Bootloadable01.cydsn\md5.c ****      HH(c, d, a, b, x[11], 16, 0x6d9d6122); /* 35 */  
 2861              		.loc 1 126 0
 2862 1190 8423     		mov	r3, #132
 2863 1192 5B00     		lsl	r3, r3, #1
 2864 1194 FB18     		add	r3, r7, r3
 2865 1196 1A68     		ldr	r2, [r3]
 2866 1198 8A23     		mov	r3, #138
 2867 119a 5B00     		lsl	r3, r3, #1
 2868 119c FB18     		add	r3, r7, r3
 2869 119e 1B68     		ldr	r3, [r3]
 2870 11a0 5A40     		eor	r2, r3
 2871 11a2 8823     		mov	r3, #136
 2872 11a4 5B00     		lsl	r3, r3, #1
 2873 11a6 FB18     		add	r3, r7, r3
 2874 11a8 1B68     		ldr	r3, [r3]
 2875 11aa 5A40     		eor	r2, r3
 2876 11ac FE4B     		ldr	r3, .L34
 2877 11ae 8C21     		mov	r1, #140
 2878 11b0 4900     		lsl	r1, r1, #1
 2879 11b2 8C46     		mov	ip, r1
 2880 11b4 BC44     		add	ip, ip, r7
 2881 11b6 6344     		add	r3, r3, ip
 2882 11b8 DB6A     		ldr	r3, [r3, #44]
 2883 11ba D218     		add	r2, r2, r3
 2884 11bc 8623     		mov	r3, #134
 2885 11be 5B00     		lsl	r3, r3, #1
 2886 11c0 FB18     		add	r3, r7, r3
 2887 11c2 1B68     		ldr	r3, [r3]
ARM GAS  C:\Users\ADMINI~1.SC-\AppData\Local\Temp\ccuBFnVb.s 			page 54


 2888 11c4 D318     		add	r3, r2, r3
 2889 11c6 F94A     		ldr	r2, .L34+4
 2890 11c8 9446     		mov	ip, r2
 2891 11ca 6344     		add	r3, r3, ip
 2892 11cc 8622     		mov	r2, #134
 2893 11ce 5200     		lsl	r2, r2, #1
 2894 11d0 BA18     		add	r2, r7, r2
 2895 11d2 1360     		str	r3, [r2]
 2896 11d4 8623     		mov	r3, #134
 2897 11d6 5B00     		lsl	r3, r3, #1
 2898 11d8 FB18     		add	r3, r7, r3
 2899 11da 1B68     		ldr	r3, [r3]
 2900 11dc 1022     		mov	r2, #16
 2901 11de D341     		ror	r3, r3, r2
 2902 11e0 8622     		mov	r2, #134
 2903 11e2 5200     		lsl	r2, r2, #1
 2904 11e4 BA18     		add	r2, r7, r2
 2905 11e6 1360     		str	r3, [r2]
 2906 11e8 8623     		mov	r3, #134
 2907 11ea 5B00     		lsl	r3, r3, #1
 2908 11ec FB18     		add	r3, r7, r3
 2909 11ee 1A68     		ldr	r2, [r3]
 2910 11f0 8423     		mov	r3, #132
 2911 11f2 5B00     		lsl	r3, r3, #1
 2912 11f4 FB18     		add	r3, r7, r3
 2913 11f6 1B68     		ldr	r3, [r3]
 2914 11f8 D318     		add	r3, r2, r3
 2915 11fa 8622     		mov	r2, #134
 2916 11fc 5200     		lsl	r2, r2, #1
 2917 11fe BA18     		add	r2, r7, r2
 2918 1200 1360     		str	r3, [r2]
 127:E:\test\test1\BLE_OTA_External_Memory_Bootloadable01\BLE_OTA_External_Memory_Bootloadable01.cydsn\md5.c ****      HH(b, c, d, a, x[14], 23, 0xfde5380c); /* 36 */  
 2919              		.loc 1 127 0
 2920 1202 8623     		mov	r3, #134
 2921 1204 5B00     		lsl	r3, r3, #1
 2922 1206 FB18     		add	r3, r7, r3
 2923 1208 1A68     		ldr	r2, [r3]
 2924 120a 8423     		mov	r3, #132
 2925 120c 5B00     		lsl	r3, r3, #1
 2926 120e FB18     		add	r3, r7, r3
 2927 1210 1B68     		ldr	r3, [r3]
 2928 1212 5A40     		eor	r2, r3
 2929 1214 8A23     		mov	r3, #138
 2930 1216 5B00     		lsl	r3, r3, #1
 2931 1218 FB18     		add	r3, r7, r3
 2932 121a 1B68     		ldr	r3, [r3]
 2933 121c 5A40     		eor	r2, r3
 2934 121e E24B     		ldr	r3, .L34
 2935 1220 8C21     		mov	r1, #140
 2936 1222 4900     		lsl	r1, r1, #1
 2937 1224 8C46     		mov	ip, r1
 2938 1226 BC44     		add	ip, ip, r7
 2939 1228 6344     		add	r3, r3, ip
 2940 122a 9B6B     		ldr	r3, [r3, #56]
 2941 122c D218     		add	r2, r2, r3
 2942 122e 8823     		mov	r3, #136
 2943 1230 5B00     		lsl	r3, r3, #1
ARM GAS  C:\Users\ADMINI~1.SC-\AppData\Local\Temp\ccuBFnVb.s 			page 55


 2944 1232 FB18     		add	r3, r7, r3
 2945 1234 1B68     		ldr	r3, [r3]
 2946 1236 D318     		add	r3, r2, r3
 2947 1238 DD4A     		ldr	r2, .L34+8
 2948 123a 9446     		mov	ip, r2
 2949 123c 6344     		add	r3, r3, ip
 2950 123e 8822     		mov	r2, #136
 2951 1240 5200     		lsl	r2, r2, #1
 2952 1242 BA18     		add	r2, r7, r2
 2953 1244 1360     		str	r3, [r2]
 2954 1246 8823     		mov	r3, #136
 2955 1248 5B00     		lsl	r3, r3, #1
 2956 124a FB18     		add	r3, r7, r3
 2957 124c 1B68     		ldr	r3, [r3]
 2958 124e 0922     		mov	r2, #9
 2959 1250 D341     		ror	r3, r3, r2
 2960 1252 8822     		mov	r2, #136
 2961 1254 5200     		lsl	r2, r2, #1
 2962 1256 BA18     		add	r2, r7, r2
 2963 1258 1360     		str	r3, [r2]
 2964 125a 8823     		mov	r3, #136
 2965 125c 5B00     		lsl	r3, r3, #1
 2966 125e FB18     		add	r3, r7, r3
 2967 1260 1A68     		ldr	r2, [r3]
 2968 1262 8623     		mov	r3, #134
 2969 1264 5B00     		lsl	r3, r3, #1
 2970 1266 FB18     		add	r3, r7, r3
 2971 1268 1B68     		ldr	r3, [r3]
 2972 126a D318     		add	r3, r2, r3
 2973 126c 8822     		mov	r2, #136
 2974 126e 5200     		lsl	r2, r2, #1
 2975 1270 BA18     		add	r2, r7, r2
 2976 1272 1360     		str	r3, [r2]
 128:E:\test\test1\BLE_OTA_External_Memory_Bootloadable01\BLE_OTA_External_Memory_Bootloadable01.cydsn\md5.c ****      HH(a, b, c, d, x[ 1], 4, 0xa4beea44); /* 37 */  
 2977              		.loc 1 128 0
 2978 1274 8823     		mov	r3, #136
 2979 1276 5B00     		lsl	r3, r3, #1
 2980 1278 FB18     		add	r3, r7, r3
 2981 127a 1A68     		ldr	r2, [r3]
 2982 127c 8623     		mov	r3, #134
 2983 127e 5B00     		lsl	r3, r3, #1
 2984 1280 FB18     		add	r3, r7, r3
 2985 1282 1B68     		ldr	r3, [r3]
 2986 1284 5A40     		eor	r2, r3
 2987 1286 8423     		mov	r3, #132
 2988 1288 5B00     		lsl	r3, r3, #1
 2989 128a FB18     		add	r3, r7, r3
 2990 128c 1B68     		ldr	r3, [r3]
 2991 128e 5A40     		eor	r2, r3
 2992 1290 C54B     		ldr	r3, .L34
 2993 1292 8C21     		mov	r1, #140
 2994 1294 4900     		lsl	r1, r1, #1
 2995 1296 8C46     		mov	ip, r1
 2996 1298 BC44     		add	ip, ip, r7
 2997 129a 6344     		add	r3, r3, ip
 2998 129c 5B68     		ldr	r3, [r3, #4]
 2999 129e D218     		add	r2, r2, r3
ARM GAS  C:\Users\ADMINI~1.SC-\AppData\Local\Temp\ccuBFnVb.s 			page 56


 3000 12a0 8A23     		mov	r3, #138
 3001 12a2 5B00     		lsl	r3, r3, #1
 3002 12a4 FB18     		add	r3, r7, r3
 3003 12a6 1B68     		ldr	r3, [r3]
 3004 12a8 D318     		add	r3, r2, r3
 3005 12aa C24A     		ldr	r2, .L34+12
 3006 12ac 9446     		mov	ip, r2
 3007 12ae 6344     		add	r3, r3, ip
 3008 12b0 8A22     		mov	r2, #138
 3009 12b2 5200     		lsl	r2, r2, #1
 3010 12b4 BA18     		add	r2, r7, r2
 3011 12b6 1360     		str	r3, [r2]
 3012 12b8 8A23     		mov	r3, #138
 3013 12ba 5B00     		lsl	r3, r3, #1
 3014 12bc FB18     		add	r3, r7, r3
 3015 12be 1B68     		ldr	r3, [r3]
 3016 12c0 1C22     		mov	r2, #28
 3017 12c2 D341     		ror	r3, r3, r2
 3018 12c4 8A22     		mov	r2, #138
 3019 12c6 5200     		lsl	r2, r2, #1
 3020 12c8 BA18     		add	r2, r7, r2
 3021 12ca 1360     		str	r3, [r2]
 3022 12cc 8A23     		mov	r3, #138
 3023 12ce 5B00     		lsl	r3, r3, #1
 3024 12d0 FB18     		add	r3, r7, r3
 3025 12d2 1A68     		ldr	r2, [r3]
 3026 12d4 8823     		mov	r3, #136
 3027 12d6 5B00     		lsl	r3, r3, #1
 3028 12d8 FB18     		add	r3, r7, r3
 3029 12da 1B68     		ldr	r3, [r3]
 3030 12dc D318     		add	r3, r2, r3
 3031 12de 8A22     		mov	r2, #138
 3032 12e0 5200     		lsl	r2, r2, #1
 3033 12e2 BA18     		add	r2, r7, r2
 3034 12e4 1360     		str	r3, [r2]
 129:E:\test\test1\BLE_OTA_External_Memory_Bootloadable01\BLE_OTA_External_Memory_Bootloadable01.cydsn\md5.c ****      HH(d, a, b, c, x[ 4], 11, 0x4bdecfa9); /* 38 */  
 3035              		.loc 1 129 0
 3036 12e6 8A23     		mov	r3, #138
 3037 12e8 5B00     		lsl	r3, r3, #1
 3038 12ea FB18     		add	r3, r7, r3
 3039 12ec 1A68     		ldr	r2, [r3]
 3040 12ee 8823     		mov	r3, #136
 3041 12f0 5B00     		lsl	r3, r3, #1
 3042 12f2 FB18     		add	r3, r7, r3
 3043 12f4 1B68     		ldr	r3, [r3]
 3044 12f6 5A40     		eor	r2, r3
 3045 12f8 8623     		mov	r3, #134
 3046 12fa 5B00     		lsl	r3, r3, #1
 3047 12fc FB18     		add	r3, r7, r3
 3048 12fe 1B68     		ldr	r3, [r3]
 3049 1300 5A40     		eor	r2, r3
 3050 1302 A94B     		ldr	r3, .L34
 3051 1304 8C21     		mov	r1, #140
 3052 1306 4900     		lsl	r1, r1, #1
 3053 1308 8C46     		mov	ip, r1
 3054 130a BC44     		add	ip, ip, r7
 3055 130c 6344     		add	r3, r3, ip
ARM GAS  C:\Users\ADMINI~1.SC-\AppData\Local\Temp\ccuBFnVb.s 			page 57


 3056 130e 1B69     		ldr	r3, [r3, #16]
 3057 1310 D218     		add	r2, r2, r3
 3058 1312 8423     		mov	r3, #132
 3059 1314 5B00     		lsl	r3, r3, #1
 3060 1316 FB18     		add	r3, r7, r3
 3061 1318 1B68     		ldr	r3, [r3]
 3062 131a D318     		add	r3, r2, r3
 3063 131c A64A     		ldr	r2, .L34+16
 3064 131e 9446     		mov	ip, r2
 3065 1320 6344     		add	r3, r3, ip
 3066 1322 8422     		mov	r2, #132
 3067 1324 5200     		lsl	r2, r2, #1
 3068 1326 BA18     		add	r2, r7, r2
 3069 1328 1360     		str	r3, [r2]
 3070 132a 8423     		mov	r3, #132
 3071 132c 5B00     		lsl	r3, r3, #1
 3072 132e FB18     		add	r3, r7, r3
 3073 1330 1B68     		ldr	r3, [r3]
 3074 1332 1522     		mov	r2, #21
 3075 1334 D341     		ror	r3, r3, r2
 3076 1336 8422     		mov	r2, #132
 3077 1338 5200     		lsl	r2, r2, #1
 3078 133a BA18     		add	r2, r7, r2
 3079 133c 1360     		str	r3, [r2]
 3080 133e 8423     		mov	r3, #132
 3081 1340 5B00     		lsl	r3, r3, #1
 3082 1342 FB18     		add	r3, r7, r3
 3083 1344 1A68     		ldr	r2, [r3]
 3084 1346 8A23     		mov	r3, #138
 3085 1348 5B00     		lsl	r3, r3, #1
 3086 134a FB18     		add	r3, r7, r3
 3087 134c 1B68     		ldr	r3, [r3]
 3088 134e D318     		add	r3, r2, r3
 3089 1350 8422     		mov	r2, #132
 3090 1352 5200     		lsl	r2, r2, #1
 3091 1354 BA18     		add	r2, r7, r2
 3092 1356 1360     		str	r3, [r2]
 130:E:\test\test1\BLE_OTA_External_Memory_Bootloadable01\BLE_OTA_External_Memory_Bootloadable01.cydsn\md5.c ****      HH(c, d, a, b, x[ 7], 16, 0xf6bb4b60); /* 39 */  
 3093              		.loc 1 130 0
 3094 1358 8423     		mov	r3, #132
 3095 135a 5B00     		lsl	r3, r3, #1
 3096 135c FB18     		add	r3, r7, r3
 3097 135e 1A68     		ldr	r2, [r3]
 3098 1360 8A23     		mov	r3, #138
 3099 1362 5B00     		lsl	r3, r3, #1
 3100 1364 FB18     		add	r3, r7, r3
 3101 1366 1B68     		ldr	r3, [r3]
 3102 1368 5A40     		eor	r2, r3
 3103 136a 8823     		mov	r3, #136
 3104 136c 5B00     		lsl	r3, r3, #1
 3105 136e FB18     		add	r3, r7, r3
 3106 1370 1B68     		ldr	r3, [r3]
 3107 1372 5A40     		eor	r2, r3
 3108 1374 8C4B     		ldr	r3, .L34
 3109 1376 8C21     		mov	r1, #140
 3110 1378 4900     		lsl	r1, r1, #1
 3111 137a 8C46     		mov	ip, r1
ARM GAS  C:\Users\ADMINI~1.SC-\AppData\Local\Temp\ccuBFnVb.s 			page 58


 3112 137c BC44     		add	ip, ip, r7
 3113 137e 6344     		add	r3, r3, ip
 3114 1380 DB69     		ldr	r3, [r3, #28]
 3115 1382 D218     		add	r2, r2, r3
 3116 1384 8623     		mov	r3, #134
 3117 1386 5B00     		lsl	r3, r3, #1
 3118 1388 FB18     		add	r3, r7, r3
 3119 138a 1B68     		ldr	r3, [r3]
 3120 138c D318     		add	r3, r2, r3
 3121 138e 8B4A     		ldr	r2, .L34+20
 3122 1390 9446     		mov	ip, r2
 3123 1392 6344     		add	r3, r3, ip
 3124 1394 8622     		mov	r2, #134
 3125 1396 5200     		lsl	r2, r2, #1
 3126 1398 BA18     		add	r2, r7, r2
 3127 139a 1360     		str	r3, [r2]
 3128 139c 8623     		mov	r3, #134
 3129 139e 5B00     		lsl	r3, r3, #1
 3130 13a0 FB18     		add	r3, r7, r3
 3131 13a2 1B68     		ldr	r3, [r3]
 3132 13a4 1022     		mov	r2, #16
 3133 13a6 D341     		ror	r3, r3, r2
 3134 13a8 8622     		mov	r2, #134
 3135 13aa 5200     		lsl	r2, r2, #1
 3136 13ac BA18     		add	r2, r7, r2
 3137 13ae 1360     		str	r3, [r2]
 3138 13b0 8623     		mov	r3, #134
 3139 13b2 5B00     		lsl	r3, r3, #1
 3140 13b4 FB18     		add	r3, r7, r3
 3141 13b6 1A68     		ldr	r2, [r3]
 3142 13b8 8423     		mov	r3, #132
 3143 13ba 5B00     		lsl	r3, r3, #1
 3144 13bc FB18     		add	r3, r7, r3
 3145 13be 1B68     		ldr	r3, [r3]
 3146 13c0 D318     		add	r3, r2, r3
 3147 13c2 8622     		mov	r2, #134
 3148 13c4 5200     		lsl	r2, r2, #1
 3149 13c6 BA18     		add	r2, r7, r2
 3150 13c8 1360     		str	r3, [r2]
 131:E:\test\test1\BLE_OTA_External_Memory_Bootloadable01\BLE_OTA_External_Memory_Bootloadable01.cydsn\md5.c ****      HH(b, c, d, a, x[10], 23, 0xbebfbc70); /* 40 */  
 3151              		.loc 1 131 0
 3152 13ca 8623     		mov	r3, #134
 3153 13cc 5B00     		lsl	r3, r3, #1
 3154 13ce FB18     		add	r3, r7, r3
 3155 13d0 1A68     		ldr	r2, [r3]
 3156 13d2 8423     		mov	r3, #132
 3157 13d4 5B00     		lsl	r3, r3, #1
 3158 13d6 FB18     		add	r3, r7, r3
 3159 13d8 1B68     		ldr	r3, [r3]
 3160 13da 5A40     		eor	r2, r3
 3161 13dc 8A23     		mov	r3, #138
 3162 13de 5B00     		lsl	r3, r3, #1
 3163 13e0 FB18     		add	r3, r7, r3
 3164 13e2 1B68     		ldr	r3, [r3]
 3165 13e4 5A40     		eor	r2, r3
 3166 13e6 704B     		ldr	r3, .L34
 3167 13e8 8C21     		mov	r1, #140
ARM GAS  C:\Users\ADMINI~1.SC-\AppData\Local\Temp\ccuBFnVb.s 			page 59


 3168 13ea 4900     		lsl	r1, r1, #1
 3169 13ec 8C46     		mov	ip, r1
 3170 13ee BC44     		add	ip, ip, r7
 3171 13f0 6344     		add	r3, r3, ip
 3172 13f2 9B6A     		ldr	r3, [r3, #40]
 3173 13f4 D218     		add	r2, r2, r3
 3174 13f6 8823     		mov	r3, #136
 3175 13f8 5B00     		lsl	r3, r3, #1
 3176 13fa FB18     		add	r3, r7, r3
 3177 13fc 1B68     		ldr	r3, [r3]
 3178 13fe D318     		add	r3, r2, r3
 3179 1400 6F4A     		ldr	r2, .L34+24
 3180 1402 9446     		mov	ip, r2
 3181 1404 6344     		add	r3, r3, ip
 3182 1406 8822     		mov	r2, #136
 3183 1408 5200     		lsl	r2, r2, #1
 3184 140a BA18     		add	r2, r7, r2
 3185 140c 1360     		str	r3, [r2]
 3186 140e 8823     		mov	r3, #136
 3187 1410 5B00     		lsl	r3, r3, #1
 3188 1412 FB18     		add	r3, r7, r3
 3189 1414 1B68     		ldr	r3, [r3]
 3190 1416 0922     		mov	r2, #9
 3191 1418 D341     		ror	r3, r3, r2
 3192 141a 8822     		mov	r2, #136
 3193 141c 5200     		lsl	r2, r2, #1
 3194 141e BA18     		add	r2, r7, r2
 3195 1420 1360     		str	r3, [r2]
 3196 1422 8823     		mov	r3, #136
 3197 1424 5B00     		lsl	r3, r3, #1
 3198 1426 FB18     		add	r3, r7, r3
 3199 1428 1A68     		ldr	r2, [r3]
 3200 142a 8623     		mov	r3, #134
 3201 142c 5B00     		lsl	r3, r3, #1
 3202 142e FB18     		add	r3, r7, r3
 3203 1430 1B68     		ldr	r3, [r3]
 3204 1432 D318     		add	r3, r2, r3
 3205 1434 8822     		mov	r2, #136
 3206 1436 5200     		lsl	r2, r2, #1
 3207 1438 BA18     		add	r2, r7, r2
 3208 143a 1360     		str	r3, [r2]
 132:E:\test\test1\BLE_OTA_External_Memory_Bootloadable01\BLE_OTA_External_Memory_Bootloadable01.cydsn\md5.c ****      HH(a, b, c, d, x[13], 4, 0x289b7ec6); /* 41 */  
 3209              		.loc 1 132 0
 3210 143c 8823     		mov	r3, #136
 3211 143e 5B00     		lsl	r3, r3, #1
 3212 1440 FB18     		add	r3, r7, r3
 3213 1442 1A68     		ldr	r2, [r3]
 3214 1444 8623     		mov	r3, #134
 3215 1446 5B00     		lsl	r3, r3, #1
 3216 1448 FB18     		add	r3, r7, r3
 3217 144a 1B68     		ldr	r3, [r3]
 3218 144c 5A40     		eor	r2, r3
 3219 144e 8423     		mov	r3, #132
 3220 1450 5B00     		lsl	r3, r3, #1
 3221 1452 FB18     		add	r3, r7, r3
 3222 1454 1B68     		ldr	r3, [r3]
 3223 1456 5A40     		eor	r2, r3
ARM GAS  C:\Users\ADMINI~1.SC-\AppData\Local\Temp\ccuBFnVb.s 			page 60


 3224 1458 534B     		ldr	r3, .L34
 3225 145a 8C21     		mov	r1, #140
 3226 145c 4900     		lsl	r1, r1, #1
 3227 145e 8C46     		mov	ip, r1
 3228 1460 BC44     		add	ip, ip, r7
 3229 1462 6344     		add	r3, r3, ip
 3230 1464 5B6B     		ldr	r3, [r3, #52]
 3231 1466 D218     		add	r2, r2, r3
 3232 1468 8A23     		mov	r3, #138
 3233 146a 5B00     		lsl	r3, r3, #1
 3234 146c FB18     		add	r3, r7, r3
 3235 146e 1B68     		ldr	r3, [r3]
 3236 1470 D318     		add	r3, r2, r3
 3237 1472 544A     		ldr	r2, .L34+28
 3238 1474 9446     		mov	ip, r2
 3239 1476 6344     		add	r3, r3, ip
 3240 1478 8A22     		mov	r2, #138
 3241 147a 5200     		lsl	r2, r2, #1
 3242 147c BA18     		add	r2, r7, r2
 3243 147e 1360     		str	r3, [r2]
 3244 1480 8A23     		mov	r3, #138
 3245 1482 5B00     		lsl	r3, r3, #1
 3246 1484 FB18     		add	r3, r7, r3
 3247 1486 1B68     		ldr	r3, [r3]
 3248 1488 1C22     		mov	r2, #28
 3249 148a D341     		ror	r3, r3, r2
 3250 148c 8A22     		mov	r2, #138
 3251 148e 5200     		lsl	r2, r2, #1
 3252 1490 BA18     		add	r2, r7, r2
 3253 1492 1360     		str	r3, [r2]
 3254 1494 8A23     		mov	r3, #138
 3255 1496 5B00     		lsl	r3, r3, #1
 3256 1498 FB18     		add	r3, r7, r3
 3257 149a 1A68     		ldr	r2, [r3]
 3258 149c 8823     		mov	r3, #136
 3259 149e 5B00     		lsl	r3, r3, #1
 3260 14a0 FB18     		add	r3, r7, r3
 3261 14a2 1B68     		ldr	r3, [r3]
 3262 14a4 D318     		add	r3, r2, r3
 3263 14a6 8A22     		mov	r2, #138
 3264 14a8 5200     		lsl	r2, r2, #1
 3265 14aa BA18     		add	r2, r7, r2
 3266 14ac 1360     		str	r3, [r2]
 133:E:\test\test1\BLE_OTA_External_Memory_Bootloadable01\BLE_OTA_External_Memory_Bootloadable01.cydsn\md5.c ****      HH(d, a, b, c, x[ 0], 11, 0xeaa127fa); /* 42 */  
 3267              		.loc 1 133 0
 3268 14ae 8A23     		mov	r3, #138
 3269 14b0 5B00     		lsl	r3, r3, #1
 3270 14b2 FB18     		add	r3, r7, r3
 3271 14b4 1A68     		ldr	r2, [r3]
 3272 14b6 8823     		mov	r3, #136
 3273 14b8 5B00     		lsl	r3, r3, #1
 3274 14ba FB18     		add	r3, r7, r3
 3275 14bc 1B68     		ldr	r3, [r3]
 3276 14be 5A40     		eor	r2, r3
 3277 14c0 8623     		mov	r3, #134
 3278 14c2 5B00     		lsl	r3, r3, #1
 3279 14c4 FB18     		add	r3, r7, r3
ARM GAS  C:\Users\ADMINI~1.SC-\AppData\Local\Temp\ccuBFnVb.s 			page 61


 3280 14c6 1B68     		ldr	r3, [r3]
 3281 14c8 5A40     		eor	r2, r3
 3282 14ca 374B     		ldr	r3, .L34
 3283 14cc 8C21     		mov	r1, #140
 3284 14ce 4900     		lsl	r1, r1, #1
 3285 14d0 8C46     		mov	ip, r1
 3286 14d2 BC44     		add	ip, ip, r7
 3287 14d4 6344     		add	r3, r3, ip
 3288 14d6 1B68     		ldr	r3, [r3]
 3289 14d8 D218     		add	r2, r2, r3
 3290 14da 8423     		mov	r3, #132
 3291 14dc 5B00     		lsl	r3, r3, #1
 3292 14de FB18     		add	r3, r7, r3
 3293 14e0 1B68     		ldr	r3, [r3]
 3294 14e2 D318     		add	r3, r2, r3
 3295 14e4 384A     		ldr	r2, .L34+32
 3296 14e6 9446     		mov	ip, r2
 3297 14e8 6344     		add	r3, r3, ip
 3298 14ea 8422     		mov	r2, #132
 3299 14ec 5200     		lsl	r2, r2, #1
 3300 14ee BA18     		add	r2, r7, r2
 3301 14f0 1360     		str	r3, [r2]
 3302 14f2 8423     		mov	r3, #132
 3303 14f4 5B00     		lsl	r3, r3, #1
 3304 14f6 FB18     		add	r3, r7, r3
 3305 14f8 1B68     		ldr	r3, [r3]
 3306 14fa 1522     		mov	r2, #21
 3307 14fc D341     		ror	r3, r3, r2
 3308 14fe 8422     		mov	r2, #132
 3309 1500 5200     		lsl	r2, r2, #1
 3310 1502 BA18     		add	r2, r7, r2
 3311 1504 1360     		str	r3, [r2]
 3312 1506 8423     		mov	r3, #132
 3313 1508 5B00     		lsl	r3, r3, #1
 3314 150a FB18     		add	r3, r7, r3
 3315 150c 1A68     		ldr	r2, [r3]
 3316 150e 8A23     		mov	r3, #138
 3317 1510 5B00     		lsl	r3, r3, #1
 3318 1512 FB18     		add	r3, r7, r3
 3319 1514 1B68     		ldr	r3, [r3]
 3320 1516 D318     		add	r3, r2, r3
 3321 1518 8422     		mov	r2, #132
 3322 151a 5200     		lsl	r2, r2, #1
 3323 151c BA18     		add	r2, r7, r2
 3324 151e 1360     		str	r3, [r2]
 134:E:\test\test1\BLE_OTA_External_Memory_Bootloadable01\BLE_OTA_External_Memory_Bootloadable01.cydsn\md5.c ****      HH(c, d, a, b, x[ 3], 16, 0xd4ef3085); /* 43 */  
 3325              		.loc 1 134 0
 3326 1520 8423     		mov	r3, #132
 3327 1522 5B00     		lsl	r3, r3, #1
 3328 1524 FB18     		add	r3, r7, r3
 3329 1526 1A68     		ldr	r2, [r3]
 3330 1528 8A23     		mov	r3, #138
 3331 152a 5B00     		lsl	r3, r3, #1
 3332 152c FB18     		add	r3, r7, r3
 3333 152e 1B68     		ldr	r3, [r3]
 3334 1530 5A40     		eor	r2, r3
 3335 1532 8823     		mov	r3, #136
ARM GAS  C:\Users\ADMINI~1.SC-\AppData\Local\Temp\ccuBFnVb.s 			page 62


 3336 1534 5B00     		lsl	r3, r3, #1
 3337 1536 FB18     		add	r3, r7, r3
 3338 1538 1B68     		ldr	r3, [r3]
 3339 153a 5A40     		eor	r2, r3
 3340 153c 1A4B     		ldr	r3, .L34
 3341 153e 8C21     		mov	r1, #140
 3342 1540 4900     		lsl	r1, r1, #1
 3343 1542 8C46     		mov	ip, r1
 3344 1544 BC44     		add	ip, ip, r7
 3345 1546 6344     		add	r3, r3, ip
 3346 1548 DB68     		ldr	r3, [r3, #12]
 3347 154a D218     		add	r2, r2, r3
 3348 154c 8623     		mov	r3, #134
 3349 154e 5B00     		lsl	r3, r3, #1
 3350 1550 FB18     		add	r3, r7, r3
 3351 1552 1B68     		ldr	r3, [r3]
 3352 1554 D318     		add	r3, r2, r3
 3353 1556 1D4A     		ldr	r2, .L34+36
 3354 1558 9446     		mov	ip, r2
 3355 155a 6344     		add	r3, r3, ip
 3356 155c 8622     		mov	r2, #134
 3357 155e 5200     		lsl	r2, r2, #1
 3358 1560 BA18     		add	r2, r7, r2
 3359 1562 1360     		str	r3, [r2]
 3360 1564 8623     		mov	r3, #134
 3361 1566 5B00     		lsl	r3, r3, #1
 3362 1568 FB18     		add	r3, r7, r3
 3363 156a 1B68     		ldr	r3, [r3]
 3364 156c 1022     		mov	r2, #16
 3365 156e D341     		ror	r3, r3, r2
 3366 1570 8622     		mov	r2, #134
 3367 1572 5200     		lsl	r2, r2, #1
 3368 1574 BA18     		add	r2, r7, r2
 3369 1576 1360     		str	r3, [r2]
 3370 1578 8623     		mov	r3, #134
 3371 157a 5B00     		lsl	r3, r3, #1
 3372 157c FB18     		add	r3, r7, r3
 3373 157e 1A68     		ldr	r2, [r3]
 3374 1580 8423     		mov	r3, #132
 3375 1582 5B00     		lsl	r3, r3, #1
 3376 1584 FB18     		add	r3, r7, r3
 3377 1586 1B68     		ldr	r3, [r3]
 3378 1588 D318     		add	r3, r2, r3
 3379 158a 8622     		mov	r2, #134
 3380 158c 5200     		lsl	r2, r2, #1
 3381 158e BA18     		add	r2, r7, r2
 3382 1590 1360     		str	r3, [r2]
 135:E:\test\test1\BLE_OTA_External_Memory_Bootloadable01\BLE_OTA_External_Memory_Bootloadable01.cydsn\md5.c ****      HH(b, c, d, a, x[ 6], 23,  0x4881d05); /* 44 */  
 3383              		.loc 1 135 0
 3384 1592 8623     		mov	r3, #134
 3385 1594 5B00     		lsl	r3, r3, #1
 3386 1596 FB18     		add	r3, r7, r3
 3387 1598 1A68     		ldr	r2, [r3]
 3388 159a 8423     		mov	r3, #132
 3389 159c 5B00     		lsl	r3, r3, #1
 3390 159e FB18     		add	r3, r7, r3
 3391 15a0 1B68     		ldr	r3, [r3]
ARM GAS  C:\Users\ADMINI~1.SC-\AppData\Local\Temp\ccuBFnVb.s 			page 63


 3392 15a2 5A40     		eor	r2, r3
 3393 15a4 14E0     		b	.L35
 3394              	.L36:
 3395 15a6 C046     		.align	2
 3396              	.L34:
 3397 15a8 F0FEFFFF 		.word	-272
 3398 15ac 22619D6D 		.word	1839030562
 3399 15b0 0C38E5FD 		.word	-35309556
 3400 15b4 44EABEA4 		.word	-1530992060
 3401 15b8 A9CFDE4B 		.word	1272893353
 3402 15bc 604BBBF6 		.word	-155497632
 3403 15c0 70BCBFBE 		.word	-1094730640
 3404 15c4 C67E9B28 		.word	681279174
 3405 15c8 FA27A1EA 		.word	-358537222
 3406 15cc 8530EFD4 		.word	-722521979
 3407              	.L35:
 3408 15d0 8A23     		mov	r3, #138
 3409 15d2 5B00     		lsl	r3, r3, #1
 3410 15d4 FB18     		add	r3, r7, r3
 3411 15d6 1B68     		ldr	r3, [r3]
 3412 15d8 5A40     		eor	r2, r3
 3413 15da FE4B     		ldr	r3, .L37
 3414 15dc 8C21     		mov	r1, #140
 3415 15de 4900     		lsl	r1, r1, #1
 3416 15e0 8C46     		mov	ip, r1
 3417 15e2 BC44     		add	ip, ip, r7
 3418 15e4 6344     		add	r3, r3, ip
 3419 15e6 9B69     		ldr	r3, [r3, #24]
 3420 15e8 D218     		add	r2, r2, r3
 3421 15ea 8823     		mov	r3, #136
 3422 15ec 5B00     		lsl	r3, r3, #1
 3423 15ee FB18     		add	r3, r7, r3
 3424 15f0 1B68     		ldr	r3, [r3]
 3425 15f2 D318     		add	r3, r2, r3
 3426 15f4 F84A     		ldr	r2, .L37+4
 3427 15f6 9446     		mov	ip, r2
 3428 15f8 6344     		add	r3, r3, ip
 3429 15fa 8822     		mov	r2, #136
 3430 15fc 5200     		lsl	r2, r2, #1
 3431 15fe BA18     		add	r2, r7, r2
 3432 1600 1360     		str	r3, [r2]
 3433 1602 8823     		mov	r3, #136
 3434 1604 5B00     		lsl	r3, r3, #1
 3435 1606 FB18     		add	r3, r7, r3
 3436 1608 1B68     		ldr	r3, [r3]
 3437 160a 0922     		mov	r2, #9
 3438 160c D341     		ror	r3, r3, r2
 3439 160e 8822     		mov	r2, #136
 3440 1610 5200     		lsl	r2, r2, #1
 3441 1612 BA18     		add	r2, r7, r2
 3442 1614 1360     		str	r3, [r2]
 3443 1616 8823     		mov	r3, #136
 3444 1618 5B00     		lsl	r3, r3, #1
 3445 161a FB18     		add	r3, r7, r3
 3446 161c 1A68     		ldr	r2, [r3]
 3447 161e 8623     		mov	r3, #134
 3448 1620 5B00     		lsl	r3, r3, #1
ARM GAS  C:\Users\ADMINI~1.SC-\AppData\Local\Temp\ccuBFnVb.s 			page 64


 3449 1622 FB18     		add	r3, r7, r3
 3450 1624 1B68     		ldr	r3, [r3]
 3451 1626 D318     		add	r3, r2, r3
 3452 1628 8822     		mov	r2, #136
 3453 162a 5200     		lsl	r2, r2, #1
 3454 162c BA18     		add	r2, r7, r2
 3455 162e 1360     		str	r3, [r2]
 136:E:\test\test1\BLE_OTA_External_Memory_Bootloadable01\BLE_OTA_External_Memory_Bootloadable01.cydsn\md5.c ****      HH(a, b, c, d, x[ 9], 4, 0xd9d4d039); /* 45 */  
 3456              		.loc 1 136 0
 3457 1630 8823     		mov	r3, #136
 3458 1632 5B00     		lsl	r3, r3, #1
 3459 1634 FB18     		add	r3, r7, r3
 3460 1636 1A68     		ldr	r2, [r3]
 3461 1638 8623     		mov	r3, #134
 3462 163a 5B00     		lsl	r3, r3, #1
 3463 163c FB18     		add	r3, r7, r3
 3464 163e 1B68     		ldr	r3, [r3]
 3465 1640 5A40     		eor	r2, r3
 3466 1642 8423     		mov	r3, #132
 3467 1644 5B00     		lsl	r3, r3, #1
 3468 1646 FB18     		add	r3, r7, r3
 3469 1648 1B68     		ldr	r3, [r3]
 3470 164a 5A40     		eor	r2, r3
 3471 164c E14B     		ldr	r3, .L37
 3472 164e 8C21     		mov	r1, #140
 3473 1650 4900     		lsl	r1, r1, #1
 3474 1652 8C46     		mov	ip, r1
 3475 1654 BC44     		add	ip, ip, r7
 3476 1656 6344     		add	r3, r3, ip
 3477 1658 5B6A     		ldr	r3, [r3, #36]
 3478 165a D218     		add	r2, r2, r3
 3479 165c 8A23     		mov	r3, #138
 3480 165e 5B00     		lsl	r3, r3, #1
 3481 1660 FB18     		add	r3, r7, r3
 3482 1662 1B68     		ldr	r3, [r3]
 3483 1664 D318     		add	r3, r2, r3
 3484 1666 DD4A     		ldr	r2, .L37+8
 3485 1668 9446     		mov	ip, r2
 3486 166a 6344     		add	r3, r3, ip
 3487 166c 8A22     		mov	r2, #138
 3488 166e 5200     		lsl	r2, r2, #1
 3489 1670 BA18     		add	r2, r7, r2
 3490 1672 1360     		str	r3, [r2]
 3491 1674 8A23     		mov	r3, #138
 3492 1676 5B00     		lsl	r3, r3, #1
 3493 1678 FB18     		add	r3, r7, r3
 3494 167a 1B68     		ldr	r3, [r3]
 3495 167c 1C22     		mov	r2, #28
 3496 167e D341     		ror	r3, r3, r2
 3497 1680 8A22     		mov	r2, #138
 3498 1682 5200     		lsl	r2, r2, #1
 3499 1684 BA18     		add	r2, r7, r2
 3500 1686 1360     		str	r3, [r2]
 3501 1688 8A23     		mov	r3, #138
 3502 168a 5B00     		lsl	r3, r3, #1
 3503 168c FB18     		add	r3, r7, r3
 3504 168e 1A68     		ldr	r2, [r3]
ARM GAS  C:\Users\ADMINI~1.SC-\AppData\Local\Temp\ccuBFnVb.s 			page 65


 3505 1690 8823     		mov	r3, #136
 3506 1692 5B00     		lsl	r3, r3, #1
 3507 1694 FB18     		add	r3, r7, r3
 3508 1696 1B68     		ldr	r3, [r3]
 3509 1698 D318     		add	r3, r2, r3
 3510 169a 8A22     		mov	r2, #138
 3511 169c 5200     		lsl	r2, r2, #1
 3512 169e BA18     		add	r2, r7, r2
 3513 16a0 1360     		str	r3, [r2]
 137:E:\test\test1\BLE_OTA_External_Memory_Bootloadable01\BLE_OTA_External_Memory_Bootloadable01.cydsn\md5.c ****      HH(d, a, b, c, x[12], 11, 0xe6db99e5); /* 46 */  
 3514              		.loc 1 137 0
 3515 16a2 8A23     		mov	r3, #138
 3516 16a4 5B00     		lsl	r3, r3, #1
 3517 16a6 FB18     		add	r3, r7, r3
 3518 16a8 1A68     		ldr	r2, [r3]
 3519 16aa 8823     		mov	r3, #136
 3520 16ac 5B00     		lsl	r3, r3, #1
 3521 16ae FB18     		add	r3, r7, r3
 3522 16b0 1B68     		ldr	r3, [r3]
 3523 16b2 5A40     		eor	r2, r3
 3524 16b4 8623     		mov	r3, #134
 3525 16b6 5B00     		lsl	r3, r3, #1
 3526 16b8 FB18     		add	r3, r7, r3
 3527 16ba 1B68     		ldr	r3, [r3]
 3528 16bc 5A40     		eor	r2, r3
 3529 16be C54B     		ldr	r3, .L37
 3530 16c0 8C21     		mov	r1, #140
 3531 16c2 4900     		lsl	r1, r1, #1
 3532 16c4 8C46     		mov	ip, r1
 3533 16c6 BC44     		add	ip, ip, r7
 3534 16c8 6344     		add	r3, r3, ip
 3535 16ca 1B6B     		ldr	r3, [r3, #48]
 3536 16cc D218     		add	r2, r2, r3
 3537 16ce 8423     		mov	r3, #132
 3538 16d0 5B00     		lsl	r3, r3, #1
 3539 16d2 FB18     		add	r3, r7, r3
 3540 16d4 1B68     		ldr	r3, [r3]
 3541 16d6 D318     		add	r3, r2, r3
 3542 16d8 C14A     		ldr	r2, .L37+12
 3543 16da 9446     		mov	ip, r2
 3544 16dc 6344     		add	r3, r3, ip
 3545 16de 8422     		mov	r2, #132
 3546 16e0 5200     		lsl	r2, r2, #1
 3547 16e2 BA18     		add	r2, r7, r2
 3548 16e4 1360     		str	r3, [r2]
 3549 16e6 8423     		mov	r3, #132
 3550 16e8 5B00     		lsl	r3, r3, #1
 3551 16ea FB18     		add	r3, r7, r3
 3552 16ec 1B68     		ldr	r3, [r3]
 3553 16ee 1522     		mov	r2, #21
 3554 16f0 D341     		ror	r3, r3, r2
 3555 16f2 8422     		mov	r2, #132
 3556 16f4 5200     		lsl	r2, r2, #1
 3557 16f6 BA18     		add	r2, r7, r2
 3558 16f8 1360     		str	r3, [r2]
 3559 16fa 8423     		mov	r3, #132
 3560 16fc 5B00     		lsl	r3, r3, #1
ARM GAS  C:\Users\ADMINI~1.SC-\AppData\Local\Temp\ccuBFnVb.s 			page 66


 3561 16fe FB18     		add	r3, r7, r3
 3562 1700 1A68     		ldr	r2, [r3]
 3563 1702 8A23     		mov	r3, #138
 3564 1704 5B00     		lsl	r3, r3, #1
 3565 1706 FB18     		add	r3, r7, r3
 3566 1708 1B68     		ldr	r3, [r3]
 3567 170a D318     		add	r3, r2, r3
 3568 170c 8422     		mov	r2, #132
 3569 170e 5200     		lsl	r2, r2, #1
 3570 1710 BA18     		add	r2, r7, r2
 3571 1712 1360     		str	r3, [r2]
 138:E:\test\test1\BLE_OTA_External_Memory_Bootloadable01\BLE_OTA_External_Memory_Bootloadable01.cydsn\md5.c ****      HH(c, d, a, b, x[15], 16, 0x1fa27cf8); /* 47 */  
 3572              		.loc 1 138 0
 3573 1714 8423     		mov	r3, #132
 3574 1716 5B00     		lsl	r3, r3, #1
 3575 1718 FB18     		add	r3, r7, r3
 3576 171a 1A68     		ldr	r2, [r3]
 3577 171c 8A23     		mov	r3, #138
 3578 171e 5B00     		lsl	r3, r3, #1
 3579 1720 FB18     		add	r3, r7, r3
 3580 1722 1B68     		ldr	r3, [r3]
 3581 1724 5A40     		eor	r2, r3
 3582 1726 8823     		mov	r3, #136
 3583 1728 5B00     		lsl	r3, r3, #1
 3584 172a FB18     		add	r3, r7, r3
 3585 172c 1B68     		ldr	r3, [r3]
 3586 172e 5A40     		eor	r2, r3
 3587 1730 A84B     		ldr	r3, .L37
 3588 1732 8C21     		mov	r1, #140
 3589 1734 4900     		lsl	r1, r1, #1
 3590 1736 8C46     		mov	ip, r1
 3591 1738 BC44     		add	ip, ip, r7
 3592 173a 6344     		add	r3, r3, ip
 3593 173c DB6B     		ldr	r3, [r3, #60]
 3594 173e D218     		add	r2, r2, r3
 3595 1740 8623     		mov	r3, #134
 3596 1742 5B00     		lsl	r3, r3, #1
 3597 1744 FB18     		add	r3, r7, r3
 3598 1746 1B68     		ldr	r3, [r3]
 3599 1748 D318     		add	r3, r2, r3
 3600 174a A64A     		ldr	r2, .L37+16
 3601 174c 9446     		mov	ip, r2
 3602 174e 6344     		add	r3, r3, ip
 3603 1750 8622     		mov	r2, #134
 3604 1752 5200     		lsl	r2, r2, #1
 3605 1754 BA18     		add	r2, r7, r2
 3606 1756 1360     		str	r3, [r2]
 3607 1758 8623     		mov	r3, #134
 3608 175a 5B00     		lsl	r3, r3, #1
 3609 175c FB18     		add	r3, r7, r3
 3610 175e 1B68     		ldr	r3, [r3]
 3611 1760 1022     		mov	r2, #16
 3612 1762 D341     		ror	r3, r3, r2
 3613 1764 8622     		mov	r2, #134
 3614 1766 5200     		lsl	r2, r2, #1
 3615 1768 BA18     		add	r2, r7, r2
 3616 176a 1360     		str	r3, [r2]
ARM GAS  C:\Users\ADMINI~1.SC-\AppData\Local\Temp\ccuBFnVb.s 			page 67


 3617 176c 8623     		mov	r3, #134
 3618 176e 5B00     		lsl	r3, r3, #1
 3619 1770 FB18     		add	r3, r7, r3
 3620 1772 1A68     		ldr	r2, [r3]
 3621 1774 8423     		mov	r3, #132
 3622 1776 5B00     		lsl	r3, r3, #1
 3623 1778 FB18     		add	r3, r7, r3
 3624 177a 1B68     		ldr	r3, [r3]
 3625 177c D318     		add	r3, r2, r3
 3626 177e 8622     		mov	r2, #134
 3627 1780 5200     		lsl	r2, r2, #1
 3628 1782 BA18     		add	r2, r7, r2
 3629 1784 1360     		str	r3, [r2]
 139:E:\test\test1\BLE_OTA_External_Memory_Bootloadable01\BLE_OTA_External_Memory_Bootloadable01.cydsn\md5.c ****      HH(b, c, d, a, x[ 2], 23, 0xc4ac5665); /* 48 */  
 3630              		.loc 1 139 0
 3631 1786 8623     		mov	r3, #134
 3632 1788 5B00     		lsl	r3, r3, #1
 3633 178a FB18     		add	r3, r7, r3
 3634 178c 1A68     		ldr	r2, [r3]
 3635 178e 8423     		mov	r3, #132
 3636 1790 5B00     		lsl	r3, r3, #1
 3637 1792 FB18     		add	r3, r7, r3
 3638 1794 1B68     		ldr	r3, [r3]
 3639 1796 5A40     		eor	r2, r3
 3640 1798 8A23     		mov	r3, #138
 3641 179a 5B00     		lsl	r3, r3, #1
 3642 179c FB18     		add	r3, r7, r3
 3643 179e 1B68     		ldr	r3, [r3]
 3644 17a0 5A40     		eor	r2, r3
 3645 17a2 8C4B     		ldr	r3, .L37
 3646 17a4 8C21     		mov	r1, #140
 3647 17a6 4900     		lsl	r1, r1, #1
 3648 17a8 8C46     		mov	ip, r1
 3649 17aa BC44     		add	ip, ip, r7
 3650 17ac 6344     		add	r3, r3, ip
 3651 17ae 9B68     		ldr	r3, [r3, #8]
 3652 17b0 D218     		add	r2, r2, r3
 3653 17b2 8823     		mov	r3, #136
 3654 17b4 5B00     		lsl	r3, r3, #1
 3655 17b6 FB18     		add	r3, r7, r3
 3656 17b8 1B68     		ldr	r3, [r3]
 3657 17ba D318     		add	r3, r2, r3
 3658 17bc 8A4A     		ldr	r2, .L37+20
 3659 17be 9446     		mov	ip, r2
 3660 17c0 6344     		add	r3, r3, ip
 3661 17c2 8822     		mov	r2, #136
 3662 17c4 5200     		lsl	r2, r2, #1
 3663 17c6 BA18     		add	r2, r7, r2
 3664 17c8 1360     		str	r3, [r2]
 3665 17ca 8823     		mov	r3, #136
 3666 17cc 5B00     		lsl	r3, r3, #1
 3667 17ce FB18     		add	r3, r7, r3
 3668 17d0 1B68     		ldr	r3, [r3]
 3669 17d2 0922     		mov	r2, #9
 3670 17d4 D341     		ror	r3, r3, r2
 3671 17d6 8822     		mov	r2, #136
 3672 17d8 5200     		lsl	r2, r2, #1
ARM GAS  C:\Users\ADMINI~1.SC-\AppData\Local\Temp\ccuBFnVb.s 			page 68


 3673 17da BA18     		add	r2, r7, r2
 3674 17dc 1360     		str	r3, [r2]
 3675 17de 8823     		mov	r3, #136
 3676 17e0 5B00     		lsl	r3, r3, #1
 3677 17e2 FB18     		add	r3, r7, r3
 3678 17e4 1A68     		ldr	r2, [r3]
 3679 17e6 8623     		mov	r3, #134
 3680 17e8 5B00     		lsl	r3, r3, #1
 3681 17ea FB18     		add	r3, r7, r3
 3682 17ec 1B68     		ldr	r3, [r3]
 3683 17ee D318     		add	r3, r2, r3
 3684 17f0 8822     		mov	r2, #136
 3685 17f2 5200     		lsl	r2, r2, #1
 3686 17f4 BA18     		add	r2, r7, r2
 3687 17f6 1360     		str	r3, [r2]
 140:E:\test\test1\BLE_OTA_External_Memory_Bootloadable01\BLE_OTA_External_Memory_Bootloadable01.cydsn\md5.c ****        
 141:E:\test\test1\BLE_OTA_External_Memory_Bootloadable01\BLE_OTA_External_Memory_Bootloadable01.cydsn\md5.c ****      /* Round 4 */  
 142:E:\test\test1\BLE_OTA_External_Memory_Bootloadable01\BLE_OTA_External_Memory_Bootloadable01.cydsn\md5.c ****      II(a, b, c, d, x[ 0], 6, 0xf4292244); /* 49 */  
 3688              		.loc 1 142 0
 3689 17f8 8423     		mov	r3, #132
 3690 17fa 5B00     		lsl	r3, r3, #1
 3691 17fc FB18     		add	r3, r7, r3
 3692 17fe 1B68     		ldr	r3, [r3]
 3693 1800 DA43     		mvn	r2, r3
 3694 1802 8823     		mov	r3, #136
 3695 1804 5B00     		lsl	r3, r3, #1
 3696 1806 FB18     		add	r3, r7, r3
 3697 1808 1B68     		ldr	r3, [r3]
 3698 180a 1A43     		orr	r2, r3
 3699 180c 8623     		mov	r3, #134
 3700 180e 5B00     		lsl	r3, r3, #1
 3701 1810 FB18     		add	r3, r7, r3
 3702 1812 1B68     		ldr	r3, [r3]
 3703 1814 5A40     		eor	r2, r3
 3704 1816 6F4B     		ldr	r3, .L37
 3705 1818 8C21     		mov	r1, #140
 3706 181a 4900     		lsl	r1, r1, #1
 3707 181c 8C46     		mov	ip, r1
 3708 181e BC44     		add	ip, ip, r7
 3709 1820 6344     		add	r3, r3, ip
 3710 1822 1B68     		ldr	r3, [r3]
 3711 1824 D218     		add	r2, r2, r3
 3712 1826 8A23     		mov	r3, #138
 3713 1828 5B00     		lsl	r3, r3, #1
 3714 182a FB18     		add	r3, r7, r3
 3715 182c 1B68     		ldr	r3, [r3]
 3716 182e D318     		add	r3, r2, r3
 3717 1830 6E4A     		ldr	r2, .L37+24
 3718 1832 9446     		mov	ip, r2
 3719 1834 6344     		add	r3, r3, ip
 3720 1836 8A22     		mov	r2, #138
 3721 1838 5200     		lsl	r2, r2, #1
 3722 183a BA18     		add	r2, r7, r2
 3723 183c 1360     		str	r3, [r2]
 3724 183e 8A23     		mov	r3, #138
 3725 1840 5B00     		lsl	r3, r3, #1
 3726 1842 FB18     		add	r3, r7, r3
ARM GAS  C:\Users\ADMINI~1.SC-\AppData\Local\Temp\ccuBFnVb.s 			page 69


 3727 1844 1B68     		ldr	r3, [r3]
 3728 1846 1A22     		mov	r2, #26
 3729 1848 D341     		ror	r3, r3, r2
 3730 184a 8A22     		mov	r2, #138
 3731 184c 5200     		lsl	r2, r2, #1
 3732 184e BA18     		add	r2, r7, r2
 3733 1850 1360     		str	r3, [r2]
 3734 1852 8A23     		mov	r3, #138
 3735 1854 5B00     		lsl	r3, r3, #1
 3736 1856 FB18     		add	r3, r7, r3
 3737 1858 1A68     		ldr	r2, [r3]
 3738 185a 8823     		mov	r3, #136
 3739 185c 5B00     		lsl	r3, r3, #1
 3740 185e FB18     		add	r3, r7, r3
 3741 1860 1B68     		ldr	r3, [r3]
 3742 1862 D318     		add	r3, r2, r3
 3743 1864 8A22     		mov	r2, #138
 3744 1866 5200     		lsl	r2, r2, #1
 3745 1868 BA18     		add	r2, r7, r2
 3746 186a 1360     		str	r3, [r2]
 143:E:\test\test1\BLE_OTA_External_Memory_Bootloadable01\BLE_OTA_External_Memory_Bootloadable01.cydsn\md5.c ****      II(d, a, b, c, x[ 7], 10, 0x432aff97); /* 50 */  
 3747              		.loc 1 143 0
 3748 186c 8623     		mov	r3, #134
 3749 186e 5B00     		lsl	r3, r3, #1
 3750 1870 FB18     		add	r3, r7, r3
 3751 1872 1B68     		ldr	r3, [r3]
 3752 1874 DA43     		mvn	r2, r3
 3753 1876 8A23     		mov	r3, #138
 3754 1878 5B00     		lsl	r3, r3, #1
 3755 187a FB18     		add	r3, r7, r3
 3756 187c 1B68     		ldr	r3, [r3]
 3757 187e 1A43     		orr	r2, r3
 3758 1880 8823     		mov	r3, #136
 3759 1882 5B00     		lsl	r3, r3, #1
 3760 1884 FB18     		add	r3, r7, r3
 3761 1886 1B68     		ldr	r3, [r3]
 3762 1888 5A40     		eor	r2, r3
 3763 188a 524B     		ldr	r3, .L37
 3764 188c 8C21     		mov	r1, #140
 3765 188e 4900     		lsl	r1, r1, #1
 3766 1890 8C46     		mov	ip, r1
 3767 1892 BC44     		add	ip, ip, r7
 3768 1894 6344     		add	r3, r3, ip
 3769 1896 DB69     		ldr	r3, [r3, #28]
 3770 1898 D218     		add	r2, r2, r3
 3771 189a 8423     		mov	r3, #132
 3772 189c 5B00     		lsl	r3, r3, #1
 3773 189e FB18     		add	r3, r7, r3
 3774 18a0 1B68     		ldr	r3, [r3]
 3775 18a2 D318     		add	r3, r2, r3
 3776 18a4 524A     		ldr	r2, .L37+28
 3777 18a6 9446     		mov	ip, r2
 3778 18a8 6344     		add	r3, r3, ip
 3779 18aa 8422     		mov	r2, #132
 3780 18ac 5200     		lsl	r2, r2, #1
 3781 18ae BA18     		add	r2, r7, r2
 3782 18b0 1360     		str	r3, [r2]
ARM GAS  C:\Users\ADMINI~1.SC-\AppData\Local\Temp\ccuBFnVb.s 			page 70


 3783 18b2 8423     		mov	r3, #132
 3784 18b4 5B00     		lsl	r3, r3, #1
 3785 18b6 FB18     		add	r3, r7, r3
 3786 18b8 1B68     		ldr	r3, [r3]
 3787 18ba 1622     		mov	r2, #22
 3788 18bc D341     		ror	r3, r3, r2
 3789 18be 8422     		mov	r2, #132
 3790 18c0 5200     		lsl	r2, r2, #1
 3791 18c2 BA18     		add	r2, r7, r2
 3792 18c4 1360     		str	r3, [r2]
 3793 18c6 8423     		mov	r3, #132
 3794 18c8 5B00     		lsl	r3, r3, #1
 3795 18ca FB18     		add	r3, r7, r3
 3796 18cc 1A68     		ldr	r2, [r3]
 3797 18ce 8A23     		mov	r3, #138
 3798 18d0 5B00     		lsl	r3, r3, #1
 3799 18d2 FB18     		add	r3, r7, r3
 3800 18d4 1B68     		ldr	r3, [r3]
 3801 18d6 D318     		add	r3, r2, r3
 3802 18d8 8422     		mov	r2, #132
 3803 18da 5200     		lsl	r2, r2, #1
 3804 18dc BA18     		add	r2, r7, r2
 3805 18de 1360     		str	r3, [r2]
 144:E:\test\test1\BLE_OTA_External_Memory_Bootloadable01\BLE_OTA_External_Memory_Bootloadable01.cydsn\md5.c ****      II(c, d, a, b, x[14], 15, 0xab9423a7); /* 51 */  
 3806              		.loc 1 144 0
 3807 18e0 8823     		mov	r3, #136
 3808 18e2 5B00     		lsl	r3, r3, #1
 3809 18e4 FB18     		add	r3, r7, r3
 3810 18e6 1B68     		ldr	r3, [r3]
 3811 18e8 DA43     		mvn	r2, r3
 3812 18ea 8423     		mov	r3, #132
 3813 18ec 5B00     		lsl	r3, r3, #1
 3814 18ee FB18     		add	r3, r7, r3
 3815 18f0 1B68     		ldr	r3, [r3]
 3816 18f2 1A43     		orr	r2, r3
 3817 18f4 8A23     		mov	r3, #138
 3818 18f6 5B00     		lsl	r3, r3, #1
 3819 18f8 FB18     		add	r3, r7, r3
 3820 18fa 1B68     		ldr	r3, [r3]
 3821 18fc 5A40     		eor	r2, r3
 3822 18fe 354B     		ldr	r3, .L37
 3823 1900 8C21     		mov	r1, #140
 3824 1902 4900     		lsl	r1, r1, #1
 3825 1904 8C46     		mov	ip, r1
 3826 1906 BC44     		add	ip, ip, r7
 3827 1908 6344     		add	r3, r3, ip
 3828 190a 9B6B     		ldr	r3, [r3, #56]
 3829 190c D218     		add	r2, r2, r3
 3830 190e 8623     		mov	r3, #134
 3831 1910 5B00     		lsl	r3, r3, #1
 3832 1912 FB18     		add	r3, r7, r3
 3833 1914 1B68     		ldr	r3, [r3]
 3834 1916 D318     		add	r3, r2, r3
 3835 1918 364A     		ldr	r2, .L37+32
 3836 191a 9446     		mov	ip, r2
 3837 191c 6344     		add	r3, r3, ip
 3838 191e 8622     		mov	r2, #134
ARM GAS  C:\Users\ADMINI~1.SC-\AppData\Local\Temp\ccuBFnVb.s 			page 71


 3839 1920 5200     		lsl	r2, r2, #1
 3840 1922 BA18     		add	r2, r7, r2
 3841 1924 1360     		str	r3, [r2]
 3842 1926 8623     		mov	r3, #134
 3843 1928 5B00     		lsl	r3, r3, #1
 3844 192a FB18     		add	r3, r7, r3
 3845 192c 1B68     		ldr	r3, [r3]
 3846 192e 1122     		mov	r2, #17
 3847 1930 D341     		ror	r3, r3, r2
 3848 1932 8622     		mov	r2, #134
 3849 1934 5200     		lsl	r2, r2, #1
 3850 1936 BA18     		add	r2, r7, r2
 3851 1938 1360     		str	r3, [r2]
 3852 193a 8623     		mov	r3, #134
 3853 193c 5B00     		lsl	r3, r3, #1
 3854 193e FB18     		add	r3, r7, r3
 3855 1940 1A68     		ldr	r2, [r3]
 3856 1942 8423     		mov	r3, #132
 3857 1944 5B00     		lsl	r3, r3, #1
 3858 1946 FB18     		add	r3, r7, r3
 3859 1948 1B68     		ldr	r3, [r3]
 3860 194a D318     		add	r3, r2, r3
 3861 194c 8622     		mov	r2, #134
 3862 194e 5200     		lsl	r2, r2, #1
 3863 1950 BA18     		add	r2, r7, r2
 3864 1952 1360     		str	r3, [r2]
 145:E:\test\test1\BLE_OTA_External_Memory_Bootloadable01\BLE_OTA_External_Memory_Bootloadable01.cydsn\md5.c ****      II(b, c, d, a, x[ 5], 21, 0xfc93a039); /* 52 */  
 3865              		.loc 1 145 0
 3866 1954 8A23     		mov	r3, #138
 3867 1956 5B00     		lsl	r3, r3, #1
 3868 1958 FB18     		add	r3, r7, r3
 3869 195a 1B68     		ldr	r3, [r3]
 3870 195c DA43     		mvn	r2, r3
 3871 195e 8623     		mov	r3, #134
 3872 1960 5B00     		lsl	r3, r3, #1
 3873 1962 FB18     		add	r3, r7, r3
 3874 1964 1B68     		ldr	r3, [r3]
 3875 1966 1A43     		orr	r2, r3
 3876 1968 8423     		mov	r3, #132
 3877 196a 5B00     		lsl	r3, r3, #1
 3878 196c FB18     		add	r3, r7, r3
 3879 196e 1B68     		ldr	r3, [r3]
 3880 1970 5A40     		eor	r2, r3
 3881 1972 184B     		ldr	r3, .L37
 3882 1974 8C21     		mov	r1, #140
 3883 1976 4900     		lsl	r1, r1, #1
 3884 1978 8C46     		mov	ip, r1
 3885 197a BC44     		add	ip, ip, r7
 3886 197c 6344     		add	r3, r3, ip
 3887 197e 5B69     		ldr	r3, [r3, #20]
 3888 1980 D218     		add	r2, r2, r3
 3889 1982 8823     		mov	r3, #136
 3890 1984 5B00     		lsl	r3, r3, #1
 3891 1986 FB18     		add	r3, r7, r3
 3892 1988 1B68     		ldr	r3, [r3]
 3893 198a D318     		add	r3, r2, r3
 3894 198c 1A4A     		ldr	r2, .L37+36
ARM GAS  C:\Users\ADMINI~1.SC-\AppData\Local\Temp\ccuBFnVb.s 			page 72


 3895 198e 9446     		mov	ip, r2
 3896 1990 6344     		add	r3, r3, ip
 3897 1992 8822     		mov	r2, #136
 3898 1994 5200     		lsl	r2, r2, #1
 3899 1996 BA18     		add	r2, r7, r2
 3900 1998 1360     		str	r3, [r2]
 3901 199a 8823     		mov	r3, #136
 3902 199c 5B00     		lsl	r3, r3, #1
 3903 199e FB18     		add	r3, r7, r3
 3904 19a0 1B68     		ldr	r3, [r3]
 3905 19a2 0B22     		mov	r2, #11
 3906 19a4 D341     		ror	r3, r3, r2
 3907 19a6 8822     		mov	r2, #136
 3908 19a8 5200     		lsl	r2, r2, #1
 3909 19aa BA18     		add	r2, r7, r2
 3910 19ac 1360     		str	r3, [r2]
 3911 19ae 8823     		mov	r3, #136
 3912 19b0 5B00     		lsl	r3, r3, #1
 3913 19b2 FB18     		add	r3, r7, r3
 3914 19b4 1A68     		ldr	r2, [r3]
 3915 19b6 8623     		mov	r3, #134
 3916 19b8 5B00     		lsl	r3, r3, #1
 3917 19ba FB18     		add	r3, r7, r3
 3918 19bc 1B68     		ldr	r3, [r3]
 3919 19be D318     		add	r3, r2, r3
 3920 19c0 8822     		mov	r2, #136
 3921 19c2 5200     		lsl	r2, r2, #1
 3922 19c4 BA18     		add	r2, r7, r2
 3923 19c6 1360     		str	r3, [r2]
 146:E:\test\test1\BLE_OTA_External_Memory_Bootloadable01\BLE_OTA_External_Memory_Bootloadable01.cydsn\md5.c ****      II(a, b, c, d, x[12], 6, 0x655b59c3); /* 53 */  
 3924              		.loc 1 146 0
 3925 19c8 8423     		mov	r3, #132
 3926 19ca 5B00     		lsl	r3, r3, #1
 3927 19cc FB18     		add	r3, r7, r3
 3928 19ce 1B68     		ldr	r3, [r3]
 3929 19d0 DA43     		mvn	r2, r3
 3930 19d2 13E0     		b	.L38
 3931              	.L39:
 3932              		.align	2
 3933              	.L37:
 3934 19d4 F0FEFFFF 		.word	-272
 3935 19d8 051D8804 		.word	76029189
 3936 19dc 39D0D4D9 		.word	-640364487
 3937 19e0 E599DBE6 		.word	-421815835
 3938 19e4 F87CA21F 		.word	530742520
 3939 19e8 6556ACC4 		.word	-995338651
 3940 19ec 442229F4 		.word	-198630844
 3941 19f0 97FF2A43 		.word	1126891415
 3942 19f4 A72394AB 		.word	-1416354905
 3943 19f8 39A093FC 		.word	-57434055
 3944              	.L38:
 3945 19fc 8823     		mov	r3, #136
 3946 19fe 5B00     		lsl	r3, r3, #1
 3947 1a00 FB18     		add	r3, r7, r3
 3948 1a02 1B68     		ldr	r3, [r3]
 3949 1a04 1A43     		orr	r2, r3
 3950 1a06 8623     		mov	r3, #134
ARM GAS  C:\Users\ADMINI~1.SC-\AppData\Local\Temp\ccuBFnVb.s 			page 73


 3951 1a08 5B00     		lsl	r3, r3, #1
 3952 1a0a FB18     		add	r3, r7, r3
 3953 1a0c 1B68     		ldr	r3, [r3]
 3954 1a0e 5A40     		eor	r2, r3
 3955 1a10 FE4B     		ldr	r3, .L40
 3956 1a12 8C21     		mov	r1, #140
 3957 1a14 4900     		lsl	r1, r1, #1
 3958 1a16 8C46     		mov	ip, r1
 3959 1a18 BC44     		add	ip, ip, r7
 3960 1a1a 6344     		add	r3, r3, ip
 3961 1a1c 1B6B     		ldr	r3, [r3, #48]
 3962 1a1e D218     		add	r2, r2, r3
 3963 1a20 8A23     		mov	r3, #138
 3964 1a22 5B00     		lsl	r3, r3, #1
 3965 1a24 FB18     		add	r3, r7, r3
 3966 1a26 1B68     		ldr	r3, [r3]
 3967 1a28 D318     		add	r3, r2, r3
 3968 1a2a F94A     		ldr	r2, .L40+4
 3969 1a2c 9446     		mov	ip, r2
 3970 1a2e 6344     		add	r3, r3, ip
 3971 1a30 8A22     		mov	r2, #138
 3972 1a32 5200     		lsl	r2, r2, #1
 3973 1a34 BA18     		add	r2, r7, r2
 3974 1a36 1360     		str	r3, [r2]
 3975 1a38 8A23     		mov	r3, #138
 3976 1a3a 5B00     		lsl	r3, r3, #1
 3977 1a3c FB18     		add	r3, r7, r3
 3978 1a3e 1B68     		ldr	r3, [r3]
 3979 1a40 1A22     		mov	r2, #26
 3980 1a42 D341     		ror	r3, r3, r2
 3981 1a44 8A22     		mov	r2, #138
 3982 1a46 5200     		lsl	r2, r2, #1
 3983 1a48 BA18     		add	r2, r7, r2
 3984 1a4a 1360     		str	r3, [r2]
 3985 1a4c 8A23     		mov	r3, #138
 3986 1a4e 5B00     		lsl	r3, r3, #1
 3987 1a50 FB18     		add	r3, r7, r3
 3988 1a52 1A68     		ldr	r2, [r3]
 3989 1a54 8823     		mov	r3, #136
 3990 1a56 5B00     		lsl	r3, r3, #1
 3991 1a58 FB18     		add	r3, r7, r3
 3992 1a5a 1B68     		ldr	r3, [r3]
 3993 1a5c D318     		add	r3, r2, r3
 3994 1a5e 8A22     		mov	r2, #138
 3995 1a60 5200     		lsl	r2, r2, #1
 3996 1a62 BA18     		add	r2, r7, r2
 3997 1a64 1360     		str	r3, [r2]
 147:E:\test\test1\BLE_OTA_External_Memory_Bootloadable01\BLE_OTA_External_Memory_Bootloadable01.cydsn\md5.c ****      II(d, a, b, c, x[ 3], 10, 0x8f0ccc92); /* 54 */  
 3998              		.loc 1 147 0
 3999 1a66 8623     		mov	r3, #134
 4000 1a68 5B00     		lsl	r3, r3, #1
 4001 1a6a FB18     		add	r3, r7, r3
 4002 1a6c 1B68     		ldr	r3, [r3]
 4003 1a6e DA43     		mvn	r2, r3
 4004 1a70 8A23     		mov	r3, #138
 4005 1a72 5B00     		lsl	r3, r3, #1
 4006 1a74 FB18     		add	r3, r7, r3
ARM GAS  C:\Users\ADMINI~1.SC-\AppData\Local\Temp\ccuBFnVb.s 			page 74


 4007 1a76 1B68     		ldr	r3, [r3]
 4008 1a78 1A43     		orr	r2, r3
 4009 1a7a 8823     		mov	r3, #136
 4010 1a7c 5B00     		lsl	r3, r3, #1
 4011 1a7e FB18     		add	r3, r7, r3
 4012 1a80 1B68     		ldr	r3, [r3]
 4013 1a82 5A40     		eor	r2, r3
 4014 1a84 E14B     		ldr	r3, .L40
 4015 1a86 8C21     		mov	r1, #140
 4016 1a88 4900     		lsl	r1, r1, #1
 4017 1a8a 8C46     		mov	ip, r1
 4018 1a8c BC44     		add	ip, ip, r7
 4019 1a8e 6344     		add	r3, r3, ip
 4020 1a90 DB68     		ldr	r3, [r3, #12]
 4021 1a92 D218     		add	r2, r2, r3
 4022 1a94 8423     		mov	r3, #132
 4023 1a96 5B00     		lsl	r3, r3, #1
 4024 1a98 FB18     		add	r3, r7, r3
 4025 1a9a 1B68     		ldr	r3, [r3]
 4026 1a9c D318     		add	r3, r2, r3
 4027 1a9e DD4A     		ldr	r2, .L40+8
 4028 1aa0 9446     		mov	ip, r2
 4029 1aa2 6344     		add	r3, r3, ip
 4030 1aa4 8422     		mov	r2, #132
 4031 1aa6 5200     		lsl	r2, r2, #1
 4032 1aa8 BA18     		add	r2, r7, r2
 4033 1aaa 1360     		str	r3, [r2]
 4034 1aac 8423     		mov	r3, #132
 4035 1aae 5B00     		lsl	r3, r3, #1
 4036 1ab0 FB18     		add	r3, r7, r3
 4037 1ab2 1B68     		ldr	r3, [r3]
 4038 1ab4 1622     		mov	r2, #22
 4039 1ab6 D341     		ror	r3, r3, r2
 4040 1ab8 8422     		mov	r2, #132
 4041 1aba 5200     		lsl	r2, r2, #1
 4042 1abc BA18     		add	r2, r7, r2
 4043 1abe 1360     		str	r3, [r2]
 4044 1ac0 8423     		mov	r3, #132
 4045 1ac2 5B00     		lsl	r3, r3, #1
 4046 1ac4 FB18     		add	r3, r7, r3
 4047 1ac6 1A68     		ldr	r2, [r3]
 4048 1ac8 8A23     		mov	r3, #138
 4049 1aca 5B00     		lsl	r3, r3, #1
 4050 1acc FB18     		add	r3, r7, r3
 4051 1ace 1B68     		ldr	r3, [r3]
 4052 1ad0 D318     		add	r3, r2, r3
 4053 1ad2 8422     		mov	r2, #132
 4054 1ad4 5200     		lsl	r2, r2, #1
 4055 1ad6 BA18     		add	r2, r7, r2
 4056 1ad8 1360     		str	r3, [r2]
 148:E:\test\test1\BLE_OTA_External_Memory_Bootloadable01\BLE_OTA_External_Memory_Bootloadable01.cydsn\md5.c ****      II(c, d, a, b, x[10], 15, 0xffeff47d); /* 55 */  
 4057              		.loc 1 148 0
 4058 1ada 8823     		mov	r3, #136
 4059 1adc 5B00     		lsl	r3, r3, #1
 4060 1ade FB18     		add	r3, r7, r3
 4061 1ae0 1B68     		ldr	r3, [r3]
 4062 1ae2 DA43     		mvn	r2, r3
ARM GAS  C:\Users\ADMINI~1.SC-\AppData\Local\Temp\ccuBFnVb.s 			page 75


 4063 1ae4 8423     		mov	r3, #132
 4064 1ae6 5B00     		lsl	r3, r3, #1
 4065 1ae8 FB18     		add	r3, r7, r3
 4066 1aea 1B68     		ldr	r3, [r3]
 4067 1aec 1A43     		orr	r2, r3
 4068 1aee 8A23     		mov	r3, #138
 4069 1af0 5B00     		lsl	r3, r3, #1
 4070 1af2 FB18     		add	r3, r7, r3
 4071 1af4 1B68     		ldr	r3, [r3]
 4072 1af6 5A40     		eor	r2, r3
 4073 1af8 C44B     		ldr	r3, .L40
 4074 1afa 8C21     		mov	r1, #140
 4075 1afc 4900     		lsl	r1, r1, #1
 4076 1afe 8C46     		mov	ip, r1
 4077 1b00 BC44     		add	ip, ip, r7
 4078 1b02 6344     		add	r3, r3, ip
 4079 1b04 9B6A     		ldr	r3, [r3, #40]
 4080 1b06 D218     		add	r2, r2, r3
 4081 1b08 8623     		mov	r3, #134
 4082 1b0a 5B00     		lsl	r3, r3, #1
 4083 1b0c FB18     		add	r3, r7, r3
 4084 1b0e 1B68     		ldr	r3, [r3]
 4085 1b10 D318     		add	r3, r2, r3
 4086 1b12 C14A     		ldr	r2, .L40+12
 4087 1b14 9446     		mov	ip, r2
 4088 1b16 6344     		add	r3, r3, ip
 4089 1b18 8622     		mov	r2, #134
 4090 1b1a 5200     		lsl	r2, r2, #1
 4091 1b1c BA18     		add	r2, r7, r2
 4092 1b1e 1360     		str	r3, [r2]
 4093 1b20 8623     		mov	r3, #134
 4094 1b22 5B00     		lsl	r3, r3, #1
 4095 1b24 FB18     		add	r3, r7, r3
 4096 1b26 1B68     		ldr	r3, [r3]
 4097 1b28 1122     		mov	r2, #17
 4098 1b2a D341     		ror	r3, r3, r2
 4099 1b2c 8622     		mov	r2, #134
 4100 1b2e 5200     		lsl	r2, r2, #1
 4101 1b30 BA18     		add	r2, r7, r2
 4102 1b32 1360     		str	r3, [r2]
 4103 1b34 8623     		mov	r3, #134
 4104 1b36 5B00     		lsl	r3, r3, #1
 4105 1b38 FB18     		add	r3, r7, r3
 4106 1b3a 1A68     		ldr	r2, [r3]
 4107 1b3c 8423     		mov	r3, #132
 4108 1b3e 5B00     		lsl	r3, r3, #1
 4109 1b40 FB18     		add	r3, r7, r3
 4110 1b42 1B68     		ldr	r3, [r3]
 4111 1b44 D318     		add	r3, r2, r3
 4112 1b46 8622     		mov	r2, #134
 4113 1b48 5200     		lsl	r2, r2, #1
 4114 1b4a BA18     		add	r2, r7, r2
 4115 1b4c 1360     		str	r3, [r2]
 149:E:\test\test1\BLE_OTA_External_Memory_Bootloadable01\BLE_OTA_External_Memory_Bootloadable01.cydsn\md5.c ****      II(b, c, d, a, x[ 1], 21, 0x85845dd1); /* 56 */  
 4116              		.loc 1 149 0
 4117 1b4e 8A23     		mov	r3, #138
 4118 1b50 5B00     		lsl	r3, r3, #1
ARM GAS  C:\Users\ADMINI~1.SC-\AppData\Local\Temp\ccuBFnVb.s 			page 76


 4119 1b52 FB18     		add	r3, r7, r3
 4120 1b54 1B68     		ldr	r3, [r3]
 4121 1b56 DA43     		mvn	r2, r3
 4122 1b58 8623     		mov	r3, #134
 4123 1b5a 5B00     		lsl	r3, r3, #1
 4124 1b5c FB18     		add	r3, r7, r3
 4125 1b5e 1B68     		ldr	r3, [r3]
 4126 1b60 1A43     		orr	r2, r3
 4127 1b62 8423     		mov	r3, #132
 4128 1b64 5B00     		lsl	r3, r3, #1
 4129 1b66 FB18     		add	r3, r7, r3
 4130 1b68 1B68     		ldr	r3, [r3]
 4131 1b6a 5A40     		eor	r2, r3
 4132 1b6c A74B     		ldr	r3, .L40
 4133 1b6e 8C21     		mov	r1, #140
 4134 1b70 4900     		lsl	r1, r1, #1
 4135 1b72 8C46     		mov	ip, r1
 4136 1b74 BC44     		add	ip, ip, r7
 4137 1b76 6344     		add	r3, r3, ip
 4138 1b78 5B68     		ldr	r3, [r3, #4]
 4139 1b7a D218     		add	r2, r2, r3
 4140 1b7c 8823     		mov	r3, #136
 4141 1b7e 5B00     		lsl	r3, r3, #1
 4142 1b80 FB18     		add	r3, r7, r3
 4143 1b82 1B68     		ldr	r3, [r3]
 4144 1b84 D318     		add	r3, r2, r3
 4145 1b86 A54A     		ldr	r2, .L40+16
 4146 1b88 9446     		mov	ip, r2
 4147 1b8a 6344     		add	r3, r3, ip
 4148 1b8c 8822     		mov	r2, #136
 4149 1b8e 5200     		lsl	r2, r2, #1
 4150 1b90 BA18     		add	r2, r7, r2
 4151 1b92 1360     		str	r3, [r2]
 4152 1b94 8823     		mov	r3, #136
 4153 1b96 5B00     		lsl	r3, r3, #1
 4154 1b98 FB18     		add	r3, r7, r3
 4155 1b9a 1B68     		ldr	r3, [r3]
 4156 1b9c 0B22     		mov	r2, #11
 4157 1b9e D341     		ror	r3, r3, r2
 4158 1ba0 8822     		mov	r2, #136
 4159 1ba2 5200     		lsl	r2, r2, #1
 4160 1ba4 BA18     		add	r2, r7, r2
 4161 1ba6 1360     		str	r3, [r2]
 4162 1ba8 8823     		mov	r3, #136
 4163 1baa 5B00     		lsl	r3, r3, #1
 4164 1bac FB18     		add	r3, r7, r3
 4165 1bae 1A68     		ldr	r2, [r3]
 4166 1bb0 8623     		mov	r3, #134
 4167 1bb2 5B00     		lsl	r3, r3, #1
 4168 1bb4 FB18     		add	r3, r7, r3
 4169 1bb6 1B68     		ldr	r3, [r3]
 4170 1bb8 D318     		add	r3, r2, r3
 4171 1bba 8822     		mov	r2, #136
 4172 1bbc 5200     		lsl	r2, r2, #1
 4173 1bbe BA18     		add	r2, r7, r2
 4174 1bc0 1360     		str	r3, [r2]
 150:E:\test\test1\BLE_OTA_External_Memory_Bootloadable01\BLE_OTA_External_Memory_Bootloadable01.cydsn\md5.c ****      II(a, b, c, d, x[ 8], 6, 0x6fa87e4f); /* 57 */  
ARM GAS  C:\Users\ADMINI~1.SC-\AppData\Local\Temp\ccuBFnVb.s 			page 77


 4175              		.loc 1 150 0
 4176 1bc2 8423     		mov	r3, #132
 4177 1bc4 5B00     		lsl	r3, r3, #1
 4178 1bc6 FB18     		add	r3, r7, r3
 4179 1bc8 1B68     		ldr	r3, [r3]
 4180 1bca DA43     		mvn	r2, r3
 4181 1bcc 8823     		mov	r3, #136
 4182 1bce 5B00     		lsl	r3, r3, #1
 4183 1bd0 FB18     		add	r3, r7, r3
 4184 1bd2 1B68     		ldr	r3, [r3]
 4185 1bd4 1A43     		orr	r2, r3
 4186 1bd6 8623     		mov	r3, #134
 4187 1bd8 5B00     		lsl	r3, r3, #1
 4188 1bda FB18     		add	r3, r7, r3
 4189 1bdc 1B68     		ldr	r3, [r3]
 4190 1bde 5A40     		eor	r2, r3
 4191 1be0 8A4B     		ldr	r3, .L40
 4192 1be2 8C21     		mov	r1, #140
 4193 1be4 4900     		lsl	r1, r1, #1
 4194 1be6 8C46     		mov	ip, r1
 4195 1be8 BC44     		add	ip, ip, r7
 4196 1bea 6344     		add	r3, r3, ip
 4197 1bec 1B6A     		ldr	r3, [r3, #32]
 4198 1bee D218     		add	r2, r2, r3
 4199 1bf0 8A23     		mov	r3, #138
 4200 1bf2 5B00     		lsl	r3, r3, #1
 4201 1bf4 FB18     		add	r3, r7, r3
 4202 1bf6 1B68     		ldr	r3, [r3]
 4203 1bf8 D318     		add	r3, r2, r3
 4204 1bfa 894A     		ldr	r2, .L40+20
 4205 1bfc 9446     		mov	ip, r2
 4206 1bfe 6344     		add	r3, r3, ip
 4207 1c00 8A22     		mov	r2, #138
 4208 1c02 5200     		lsl	r2, r2, #1
 4209 1c04 BA18     		add	r2, r7, r2
 4210 1c06 1360     		str	r3, [r2]
 4211 1c08 8A23     		mov	r3, #138
 4212 1c0a 5B00     		lsl	r3, r3, #1
 4213 1c0c FB18     		add	r3, r7, r3
 4214 1c0e 1B68     		ldr	r3, [r3]
 4215 1c10 1A22     		mov	r2, #26
 4216 1c12 D341     		ror	r3, r3, r2
 4217 1c14 8A22     		mov	r2, #138
 4218 1c16 5200     		lsl	r2, r2, #1
 4219 1c18 BA18     		add	r2, r7, r2
 4220 1c1a 1360     		str	r3, [r2]
 4221 1c1c 8A23     		mov	r3, #138
 4222 1c1e 5B00     		lsl	r3, r3, #1
 4223 1c20 FB18     		add	r3, r7, r3
 4224 1c22 1A68     		ldr	r2, [r3]
 4225 1c24 8823     		mov	r3, #136
 4226 1c26 5B00     		lsl	r3, r3, #1
 4227 1c28 FB18     		add	r3, r7, r3
 4228 1c2a 1B68     		ldr	r3, [r3]
 4229 1c2c D318     		add	r3, r2, r3
 4230 1c2e 8A22     		mov	r2, #138
 4231 1c30 5200     		lsl	r2, r2, #1
ARM GAS  C:\Users\ADMINI~1.SC-\AppData\Local\Temp\ccuBFnVb.s 			page 78


 4232 1c32 BA18     		add	r2, r7, r2
 4233 1c34 1360     		str	r3, [r2]
 151:E:\test\test1\BLE_OTA_External_Memory_Bootloadable01\BLE_OTA_External_Memory_Bootloadable01.cydsn\md5.c ****      II(d, a, b, c, x[15], 10, 0xfe2ce6e0); /* 58 */  
 4234              		.loc 1 151 0
 4235 1c36 8623     		mov	r3, #134
 4236 1c38 5B00     		lsl	r3, r3, #1
 4237 1c3a FB18     		add	r3, r7, r3
 4238 1c3c 1B68     		ldr	r3, [r3]
 4239 1c3e DA43     		mvn	r2, r3
 4240 1c40 8A23     		mov	r3, #138
 4241 1c42 5B00     		lsl	r3, r3, #1
 4242 1c44 FB18     		add	r3, r7, r3
 4243 1c46 1B68     		ldr	r3, [r3]
 4244 1c48 1A43     		orr	r2, r3
 4245 1c4a 8823     		mov	r3, #136
 4246 1c4c 5B00     		lsl	r3, r3, #1
 4247 1c4e FB18     		add	r3, r7, r3
 4248 1c50 1B68     		ldr	r3, [r3]
 4249 1c52 5A40     		eor	r2, r3
 4250 1c54 6D4B     		ldr	r3, .L40
 4251 1c56 8C21     		mov	r1, #140
 4252 1c58 4900     		lsl	r1, r1, #1
 4253 1c5a 8C46     		mov	ip, r1
 4254 1c5c BC44     		add	ip, ip, r7
 4255 1c5e 6344     		add	r3, r3, ip
 4256 1c60 DB6B     		ldr	r3, [r3, #60]
 4257 1c62 D218     		add	r2, r2, r3
 4258 1c64 8423     		mov	r3, #132
 4259 1c66 5B00     		lsl	r3, r3, #1
 4260 1c68 FB18     		add	r3, r7, r3
 4261 1c6a 1B68     		ldr	r3, [r3]
 4262 1c6c D318     		add	r3, r2, r3
 4263 1c6e 6D4A     		ldr	r2, .L40+24
 4264 1c70 9446     		mov	ip, r2
 4265 1c72 6344     		add	r3, r3, ip
 4266 1c74 8422     		mov	r2, #132
 4267 1c76 5200     		lsl	r2, r2, #1
 4268 1c78 BA18     		add	r2, r7, r2
 4269 1c7a 1360     		str	r3, [r2]
 4270 1c7c 8423     		mov	r3, #132
 4271 1c7e 5B00     		lsl	r3, r3, #1
 4272 1c80 FB18     		add	r3, r7, r3
 4273 1c82 1B68     		ldr	r3, [r3]
 4274 1c84 1622     		mov	r2, #22
 4275 1c86 D341     		ror	r3, r3, r2
 4276 1c88 8422     		mov	r2, #132
 4277 1c8a 5200     		lsl	r2, r2, #1
 4278 1c8c BA18     		add	r2, r7, r2
 4279 1c8e 1360     		str	r3, [r2]
 4280 1c90 8423     		mov	r3, #132
 4281 1c92 5B00     		lsl	r3, r3, #1
 4282 1c94 FB18     		add	r3, r7, r3
 4283 1c96 1A68     		ldr	r2, [r3]
 4284 1c98 8A23     		mov	r3, #138
 4285 1c9a 5B00     		lsl	r3, r3, #1
 4286 1c9c FB18     		add	r3, r7, r3
 4287 1c9e 1B68     		ldr	r3, [r3]
ARM GAS  C:\Users\ADMINI~1.SC-\AppData\Local\Temp\ccuBFnVb.s 			page 79


 4288 1ca0 D318     		add	r3, r2, r3
 4289 1ca2 8422     		mov	r2, #132
 4290 1ca4 5200     		lsl	r2, r2, #1
 4291 1ca6 BA18     		add	r2, r7, r2
 4292 1ca8 1360     		str	r3, [r2]
 152:E:\test\test1\BLE_OTA_External_Memory_Bootloadable01\BLE_OTA_External_Memory_Bootloadable01.cydsn\md5.c ****      II(c, d, a, b, x[ 6], 15, 0xa3014314); /* 59 */  
 4293              		.loc 1 152 0
 4294 1caa 8823     		mov	r3, #136
 4295 1cac 5B00     		lsl	r3, r3, #1
 4296 1cae FB18     		add	r3, r7, r3
 4297 1cb0 1B68     		ldr	r3, [r3]
 4298 1cb2 DA43     		mvn	r2, r3
 4299 1cb4 8423     		mov	r3, #132
 4300 1cb6 5B00     		lsl	r3, r3, #1
 4301 1cb8 FB18     		add	r3, r7, r3
 4302 1cba 1B68     		ldr	r3, [r3]
 4303 1cbc 1A43     		orr	r2, r3
 4304 1cbe 8A23     		mov	r3, #138
 4305 1cc0 5B00     		lsl	r3, r3, #1
 4306 1cc2 FB18     		add	r3, r7, r3
 4307 1cc4 1B68     		ldr	r3, [r3]
 4308 1cc6 5A40     		eor	r2, r3
 4309 1cc8 504B     		ldr	r3, .L40
 4310 1cca 8C21     		mov	r1, #140
 4311 1ccc 4900     		lsl	r1, r1, #1
 4312 1cce 8C46     		mov	ip, r1
 4313 1cd0 BC44     		add	ip, ip, r7
 4314 1cd2 6344     		add	r3, r3, ip
 4315 1cd4 9B69     		ldr	r3, [r3, #24]
 4316 1cd6 D218     		add	r2, r2, r3
 4317 1cd8 8623     		mov	r3, #134
 4318 1cda 5B00     		lsl	r3, r3, #1
 4319 1cdc FB18     		add	r3, r7, r3
 4320 1cde 1B68     		ldr	r3, [r3]
 4321 1ce0 D318     		add	r3, r2, r3
 4322 1ce2 514A     		ldr	r2, .L40+28
 4323 1ce4 9446     		mov	ip, r2
 4324 1ce6 6344     		add	r3, r3, ip
 4325 1ce8 8622     		mov	r2, #134
 4326 1cea 5200     		lsl	r2, r2, #1
 4327 1cec BA18     		add	r2, r7, r2
 4328 1cee 1360     		str	r3, [r2]
 4329 1cf0 8623     		mov	r3, #134
 4330 1cf2 5B00     		lsl	r3, r3, #1
 4331 1cf4 FB18     		add	r3, r7, r3
 4332 1cf6 1B68     		ldr	r3, [r3]
 4333 1cf8 1122     		mov	r2, #17
 4334 1cfa D341     		ror	r3, r3, r2
 4335 1cfc 8622     		mov	r2, #134
 4336 1cfe 5200     		lsl	r2, r2, #1
 4337 1d00 BA18     		add	r2, r7, r2
 4338 1d02 1360     		str	r3, [r2]
 4339 1d04 8623     		mov	r3, #134
 4340 1d06 5B00     		lsl	r3, r3, #1
 4341 1d08 FB18     		add	r3, r7, r3
 4342 1d0a 1A68     		ldr	r2, [r3]
 4343 1d0c 8423     		mov	r3, #132
ARM GAS  C:\Users\ADMINI~1.SC-\AppData\Local\Temp\ccuBFnVb.s 			page 80


 4344 1d0e 5B00     		lsl	r3, r3, #1
 4345 1d10 FB18     		add	r3, r7, r3
 4346 1d12 1B68     		ldr	r3, [r3]
 4347 1d14 D318     		add	r3, r2, r3
 4348 1d16 8622     		mov	r2, #134
 4349 1d18 5200     		lsl	r2, r2, #1
 4350 1d1a BA18     		add	r2, r7, r2
 4351 1d1c 1360     		str	r3, [r2]
 153:E:\test\test1\BLE_OTA_External_Memory_Bootloadable01\BLE_OTA_External_Memory_Bootloadable01.cydsn\md5.c ****      II(b, c, d, a, x[13], 21, 0x4e0811a1); /* 60 */  
 4352              		.loc 1 153 0
 4353 1d1e 8A23     		mov	r3, #138
 4354 1d20 5B00     		lsl	r3, r3, #1
 4355 1d22 FB18     		add	r3, r7, r3
 4356 1d24 1B68     		ldr	r3, [r3]
 4357 1d26 DA43     		mvn	r2, r3
 4358 1d28 8623     		mov	r3, #134
 4359 1d2a 5B00     		lsl	r3, r3, #1
 4360 1d2c FB18     		add	r3, r7, r3
 4361 1d2e 1B68     		ldr	r3, [r3]
 4362 1d30 1A43     		orr	r2, r3
 4363 1d32 8423     		mov	r3, #132
 4364 1d34 5B00     		lsl	r3, r3, #1
 4365 1d36 FB18     		add	r3, r7, r3
 4366 1d38 1B68     		ldr	r3, [r3]
 4367 1d3a 5A40     		eor	r2, r3
 4368 1d3c 334B     		ldr	r3, .L40
 4369 1d3e 8C21     		mov	r1, #140
 4370 1d40 4900     		lsl	r1, r1, #1
 4371 1d42 8C46     		mov	ip, r1
 4372 1d44 BC44     		add	ip, ip, r7
 4373 1d46 6344     		add	r3, r3, ip
 4374 1d48 5B6B     		ldr	r3, [r3, #52]
 4375 1d4a D218     		add	r2, r2, r3
 4376 1d4c 8823     		mov	r3, #136
 4377 1d4e 5B00     		lsl	r3, r3, #1
 4378 1d50 FB18     		add	r3, r7, r3
 4379 1d52 1B68     		ldr	r3, [r3]
 4380 1d54 D318     		add	r3, r2, r3
 4381 1d56 354A     		ldr	r2, .L40+32
 4382 1d58 9446     		mov	ip, r2
 4383 1d5a 6344     		add	r3, r3, ip
 4384 1d5c 8822     		mov	r2, #136
 4385 1d5e 5200     		lsl	r2, r2, #1
 4386 1d60 BA18     		add	r2, r7, r2
 4387 1d62 1360     		str	r3, [r2]
 4388 1d64 8823     		mov	r3, #136
 4389 1d66 5B00     		lsl	r3, r3, #1
 4390 1d68 FB18     		add	r3, r7, r3
 4391 1d6a 1B68     		ldr	r3, [r3]
 4392 1d6c 0B22     		mov	r2, #11
 4393 1d6e D341     		ror	r3, r3, r2
 4394 1d70 8822     		mov	r2, #136
 4395 1d72 5200     		lsl	r2, r2, #1
 4396 1d74 BA18     		add	r2, r7, r2
 4397 1d76 1360     		str	r3, [r2]
 4398 1d78 8823     		mov	r3, #136
 4399 1d7a 5B00     		lsl	r3, r3, #1
ARM GAS  C:\Users\ADMINI~1.SC-\AppData\Local\Temp\ccuBFnVb.s 			page 81


 4400 1d7c FB18     		add	r3, r7, r3
 4401 1d7e 1A68     		ldr	r2, [r3]
 4402 1d80 8623     		mov	r3, #134
 4403 1d82 5B00     		lsl	r3, r3, #1
 4404 1d84 FB18     		add	r3, r7, r3
 4405 1d86 1B68     		ldr	r3, [r3]
 4406 1d88 D318     		add	r3, r2, r3
 4407 1d8a 8822     		mov	r2, #136
 4408 1d8c 5200     		lsl	r2, r2, #1
 4409 1d8e BA18     		add	r2, r7, r2
 4410 1d90 1360     		str	r3, [r2]
 154:E:\test\test1\BLE_OTA_External_Memory_Bootloadable01\BLE_OTA_External_Memory_Bootloadable01.cydsn\md5.c ****      II(a, b, c, d, x[ 4], 6, 0xf7537e82); /* 61 */  
 4411              		.loc 1 154 0
 4412 1d92 8423     		mov	r3, #132
 4413 1d94 5B00     		lsl	r3, r3, #1
 4414 1d96 FB18     		add	r3, r7, r3
 4415 1d98 1B68     		ldr	r3, [r3]
 4416 1d9a DA43     		mvn	r2, r3
 4417 1d9c 8823     		mov	r3, #136
 4418 1d9e 5B00     		lsl	r3, r3, #1
 4419 1da0 FB18     		add	r3, r7, r3
 4420 1da2 1B68     		ldr	r3, [r3]
 4421 1da4 1A43     		orr	r2, r3
 4422 1da6 8623     		mov	r3, #134
 4423 1da8 5B00     		lsl	r3, r3, #1
 4424 1daa FB18     		add	r3, r7, r3
 4425 1dac 1B68     		ldr	r3, [r3]
 4426 1dae 5A40     		eor	r2, r3
 4427 1db0 164B     		ldr	r3, .L40
 4428 1db2 8C21     		mov	r1, #140
 4429 1db4 4900     		lsl	r1, r1, #1
 4430 1db6 8C46     		mov	ip, r1
 4431 1db8 BC44     		add	ip, ip, r7
 4432 1dba 6344     		add	r3, r3, ip
 4433 1dbc 1B69     		ldr	r3, [r3, #16]
 4434 1dbe D218     		add	r2, r2, r3
 4435 1dc0 8A23     		mov	r3, #138
 4436 1dc2 5B00     		lsl	r3, r3, #1
 4437 1dc4 FB18     		add	r3, r7, r3
 4438 1dc6 1B68     		ldr	r3, [r3]
 4439 1dc8 D318     		add	r3, r2, r3
 4440 1dca 194A     		ldr	r2, .L40+36
 4441 1dcc 9446     		mov	ip, r2
 4442 1dce 6344     		add	r3, r3, ip
 4443 1dd0 8A22     		mov	r2, #138
 4444 1dd2 5200     		lsl	r2, r2, #1
 4445 1dd4 BA18     		add	r2, r7, r2
 4446 1dd6 1360     		str	r3, [r2]
 4447 1dd8 8A23     		mov	r3, #138
 4448 1dda 5B00     		lsl	r3, r3, #1
 4449 1ddc FB18     		add	r3, r7, r3
 4450 1dde 1B68     		ldr	r3, [r3]
 4451 1de0 1A22     		mov	r2, #26
 4452 1de2 D341     		ror	r3, r3, r2
 4453 1de4 8A22     		mov	r2, #138
 4454 1de6 5200     		lsl	r2, r2, #1
 4455 1de8 BA18     		add	r2, r7, r2
ARM GAS  C:\Users\ADMINI~1.SC-\AppData\Local\Temp\ccuBFnVb.s 			page 82


 4456 1dea 1360     		str	r3, [r2]
 4457 1dec 8A23     		mov	r3, #138
 4458 1dee 5B00     		lsl	r3, r3, #1
 4459 1df0 FB18     		add	r3, r7, r3
 4460 1df2 1A68     		ldr	r2, [r3]
 4461 1df4 8823     		mov	r3, #136
 4462 1df6 5B00     		lsl	r3, r3, #1
 4463 1df8 FB18     		add	r3, r7, r3
 4464 1dfa 1B68     		ldr	r3, [r3]
 4465 1dfc D318     		add	r3, r2, r3
 4466 1dfe 8A22     		mov	r2, #138
 4467 1e00 5200     		lsl	r2, r2, #1
 4468 1e02 BA18     		add	r2, r7, r2
 4469 1e04 1360     		str	r3, [r2]
 155:E:\test\test1\BLE_OTA_External_Memory_Bootloadable01\BLE_OTA_External_Memory_Bootloadable01.cydsn\md5.c ****      II(d, a, b, c, x[11], 10, 0xbd3af235); /* 62 */  
 4470              		.loc 1 155 0
 4471 1e06 8623     		mov	r3, #134
 4472 1e08 14E0     		b	.L41
 4473              	.L42:
 4474 1e0a C046     		.align	2
 4475              	.L40:
 4476 1e0c F0FEFFFF 		.word	-272
 4477 1e10 C3595B65 		.word	1700485571
 4478 1e14 92CC0C8F 		.word	-1894986606
 4479 1e18 7DF4EFFF 		.word	-1051523
 4480 1e1c D15D8485 		.word	-2054922799
 4481 1e20 4F7EA86F 		.word	1873313359
 4482 1e24 E0E62CFE 		.word	-30611744
 4483 1e28 144301A3 		.word	-1560198380
 4484 1e2c A111084E 		.word	1309151649
 4485 1e30 827E53F7 		.word	-145523070
 4486              	.L41:
 4487 1e34 5B00     		lsl	r3, r3, #1
 4488 1e36 FB18     		add	r3, r7, r3
 4489 1e38 1B68     		ldr	r3, [r3]
 4490 1e3a DA43     		mvn	r2, r3
 4491 1e3c 8A23     		mov	r3, #138
 4492 1e3e 5B00     		lsl	r3, r3, #1
 4493 1e40 FB18     		add	r3, r7, r3
 4494 1e42 1B68     		ldr	r3, [r3]
 4495 1e44 1A43     		orr	r2, r3
 4496 1e46 8823     		mov	r3, #136
 4497 1e48 5B00     		lsl	r3, r3, #1
 4498 1e4a FB18     		add	r3, r7, r3
 4499 1e4c 1B68     		ldr	r3, [r3]
 4500 1e4e 5A40     		eor	r2, r3
 4501 1e50 654B     		ldr	r3, .L43
 4502 1e52 8C21     		mov	r1, #140
 4503 1e54 4900     		lsl	r1, r1, #1
 4504 1e56 8C46     		mov	ip, r1
 4505 1e58 BC44     		add	ip, ip, r7
 4506 1e5a 6344     		add	r3, r3, ip
 4507 1e5c DB6A     		ldr	r3, [r3, #44]
 4508 1e5e D218     		add	r2, r2, r3
 4509 1e60 8423     		mov	r3, #132
 4510 1e62 5B00     		lsl	r3, r3, #1
 4511 1e64 FB18     		add	r3, r7, r3
ARM GAS  C:\Users\ADMINI~1.SC-\AppData\Local\Temp\ccuBFnVb.s 			page 83


 4512 1e66 1B68     		ldr	r3, [r3]
 4513 1e68 D318     		add	r3, r2, r3
 4514 1e6a 604A     		ldr	r2, .L43+4
 4515 1e6c 9446     		mov	ip, r2
 4516 1e6e 6344     		add	r3, r3, ip
 4517 1e70 8422     		mov	r2, #132
 4518 1e72 5200     		lsl	r2, r2, #1
 4519 1e74 BA18     		add	r2, r7, r2
 4520 1e76 1360     		str	r3, [r2]
 4521 1e78 8423     		mov	r3, #132
 4522 1e7a 5B00     		lsl	r3, r3, #1
 4523 1e7c FB18     		add	r3, r7, r3
 4524 1e7e 1B68     		ldr	r3, [r3]
 4525 1e80 1622     		mov	r2, #22
 4526 1e82 D341     		ror	r3, r3, r2
 4527 1e84 8422     		mov	r2, #132
 4528 1e86 5200     		lsl	r2, r2, #1
 4529 1e88 BA18     		add	r2, r7, r2
 4530 1e8a 1360     		str	r3, [r2]
 4531 1e8c 8423     		mov	r3, #132
 4532 1e8e 5B00     		lsl	r3, r3, #1
 4533 1e90 FB18     		add	r3, r7, r3
 4534 1e92 1A68     		ldr	r2, [r3]
 4535 1e94 8A23     		mov	r3, #138
 4536 1e96 5B00     		lsl	r3, r3, #1
 4537 1e98 FB18     		add	r3, r7, r3
 4538 1e9a 1B68     		ldr	r3, [r3]
 4539 1e9c D318     		add	r3, r2, r3
 4540 1e9e 8422     		mov	r2, #132
 4541 1ea0 5200     		lsl	r2, r2, #1
 4542 1ea2 BA18     		add	r2, r7, r2
 4543 1ea4 1360     		str	r3, [r2]
 156:E:\test\test1\BLE_OTA_External_Memory_Bootloadable01\BLE_OTA_External_Memory_Bootloadable01.cydsn\md5.c ****      II(c, d, a, b, x[ 2], 15, 0x2ad7d2bb); /* 63 */  
 4544              		.loc 1 156 0
 4545 1ea6 8823     		mov	r3, #136
 4546 1ea8 5B00     		lsl	r3, r3, #1
 4547 1eaa FB18     		add	r3, r7, r3
 4548 1eac 1B68     		ldr	r3, [r3]
 4549 1eae DA43     		mvn	r2, r3
 4550 1eb0 8423     		mov	r3, #132
 4551 1eb2 5B00     		lsl	r3, r3, #1
 4552 1eb4 FB18     		add	r3, r7, r3
 4553 1eb6 1B68     		ldr	r3, [r3]
 4554 1eb8 1A43     		orr	r2, r3
 4555 1eba 8A23     		mov	r3, #138
 4556 1ebc 5B00     		lsl	r3, r3, #1
 4557 1ebe FB18     		add	r3, r7, r3
 4558 1ec0 1B68     		ldr	r3, [r3]
 4559 1ec2 5A40     		eor	r2, r3
 4560 1ec4 484B     		ldr	r3, .L43
 4561 1ec6 8C21     		mov	r1, #140
 4562 1ec8 4900     		lsl	r1, r1, #1
 4563 1eca 8C46     		mov	ip, r1
 4564 1ecc BC44     		add	ip, ip, r7
 4565 1ece 6344     		add	r3, r3, ip
 4566 1ed0 9B68     		ldr	r3, [r3, #8]
 4567 1ed2 D218     		add	r2, r2, r3
ARM GAS  C:\Users\ADMINI~1.SC-\AppData\Local\Temp\ccuBFnVb.s 			page 84


 4568 1ed4 8623     		mov	r3, #134
 4569 1ed6 5B00     		lsl	r3, r3, #1
 4570 1ed8 FB18     		add	r3, r7, r3
 4571 1eda 1B68     		ldr	r3, [r3]
 4572 1edc D318     		add	r3, r2, r3
 4573 1ede 444A     		ldr	r2, .L43+8
 4574 1ee0 9446     		mov	ip, r2
 4575 1ee2 6344     		add	r3, r3, ip
 4576 1ee4 8622     		mov	r2, #134
 4577 1ee6 5200     		lsl	r2, r2, #1
 4578 1ee8 BA18     		add	r2, r7, r2
 4579 1eea 1360     		str	r3, [r2]
 4580 1eec 8623     		mov	r3, #134
 4581 1eee 5B00     		lsl	r3, r3, #1
 4582 1ef0 FB18     		add	r3, r7, r3
 4583 1ef2 1B68     		ldr	r3, [r3]
 4584 1ef4 1122     		mov	r2, #17
 4585 1ef6 D341     		ror	r3, r3, r2
 4586 1ef8 8622     		mov	r2, #134
 4587 1efa 5200     		lsl	r2, r2, #1
 4588 1efc BA18     		add	r2, r7, r2
 4589 1efe 1360     		str	r3, [r2]
 4590 1f00 8623     		mov	r3, #134
 4591 1f02 5B00     		lsl	r3, r3, #1
 4592 1f04 FB18     		add	r3, r7, r3
 4593 1f06 1A68     		ldr	r2, [r3]
 4594 1f08 8423     		mov	r3, #132
 4595 1f0a 5B00     		lsl	r3, r3, #1
 4596 1f0c FB18     		add	r3, r7, r3
 4597 1f0e 1B68     		ldr	r3, [r3]
 4598 1f10 D318     		add	r3, r2, r3
 4599 1f12 8622     		mov	r2, #134
 4600 1f14 5200     		lsl	r2, r2, #1
 4601 1f16 BA18     		add	r2, r7, r2
 4602 1f18 1360     		str	r3, [r2]
 157:E:\test\test1\BLE_OTA_External_Memory_Bootloadable01\BLE_OTA_External_Memory_Bootloadable01.cydsn\md5.c ****      II(b, c, d, a, x[ 9], 21, 0xeb86d391); /* 64 */  
 4603              		.loc 1 157 0
 4604 1f1a 8A23     		mov	r3, #138
 4605 1f1c 5B00     		lsl	r3, r3, #1
 4606 1f1e FB18     		add	r3, r7, r3
 4607 1f20 1B68     		ldr	r3, [r3]
 4608 1f22 DA43     		mvn	r2, r3
 4609 1f24 8623     		mov	r3, #134
 4610 1f26 5B00     		lsl	r3, r3, #1
 4611 1f28 FB18     		add	r3, r7, r3
 4612 1f2a 1B68     		ldr	r3, [r3]
 4613 1f2c 1A43     		orr	r2, r3
 4614 1f2e 8423     		mov	r3, #132
 4615 1f30 5B00     		lsl	r3, r3, #1
 4616 1f32 FB18     		add	r3, r7, r3
 4617 1f34 1B68     		ldr	r3, [r3]
 4618 1f36 5A40     		eor	r2, r3
 4619 1f38 2B4B     		ldr	r3, .L43
 4620 1f3a 8C21     		mov	r1, #140
 4621 1f3c 4900     		lsl	r1, r1, #1
 4622 1f3e 8C46     		mov	ip, r1
 4623 1f40 BC44     		add	ip, ip, r7
ARM GAS  C:\Users\ADMINI~1.SC-\AppData\Local\Temp\ccuBFnVb.s 			page 85


 4624 1f42 6344     		add	r3, r3, ip
 4625 1f44 5B6A     		ldr	r3, [r3, #36]
 4626 1f46 D218     		add	r2, r2, r3
 4627 1f48 8823     		mov	r3, #136
 4628 1f4a 5B00     		lsl	r3, r3, #1
 4629 1f4c FB18     		add	r3, r7, r3
 4630 1f4e 1B68     		ldr	r3, [r3]
 4631 1f50 D318     		add	r3, r2, r3
 4632 1f52 284A     		ldr	r2, .L43+12
 4633 1f54 9446     		mov	ip, r2
 4634 1f56 6344     		add	r3, r3, ip
 4635 1f58 8822     		mov	r2, #136
 4636 1f5a 5200     		lsl	r2, r2, #1
 4637 1f5c BA18     		add	r2, r7, r2
 4638 1f5e 1360     		str	r3, [r2]
 4639 1f60 8823     		mov	r3, #136
 4640 1f62 5B00     		lsl	r3, r3, #1
 4641 1f64 FB18     		add	r3, r7, r3
 4642 1f66 1B68     		ldr	r3, [r3]
 4643 1f68 0B22     		mov	r2, #11
 4644 1f6a D341     		ror	r3, r3, r2
 4645 1f6c 8822     		mov	r2, #136
 4646 1f6e 5200     		lsl	r2, r2, #1
 4647 1f70 BA18     		add	r2, r7, r2
 4648 1f72 1360     		str	r3, [r2]
 4649 1f74 8823     		mov	r3, #136
 4650 1f76 5B00     		lsl	r3, r3, #1
 4651 1f78 FB18     		add	r3, r7, r3
 4652 1f7a 1A68     		ldr	r2, [r3]
 4653 1f7c 8623     		mov	r3, #134
 4654 1f7e 5B00     		lsl	r3, r3, #1
 4655 1f80 FB18     		add	r3, r7, r3
 4656 1f82 1B68     		ldr	r3, [r3]
 4657 1f84 D318     		add	r3, r2, r3
 4658 1f86 8822     		mov	r2, #136
 4659 1f88 5200     		lsl	r2, r2, #1
 4660 1f8a BA18     		add	r2, r7, r2
 4661 1f8c 1360     		str	r3, [r2]
 158:E:\test\test1\BLE_OTA_External_Memory_Bootloadable01\BLE_OTA_External_Memory_Bootloadable01.cydsn\md5.c ****          state[0] += a;  
 4662              		.loc 1 158 0
 4663 1f8e 7B68     		ldr	r3, [r7, #4]
 4664 1f90 1A68     		ldr	r2, [r3]
 4665 1f92 8A23     		mov	r3, #138
 4666 1f94 5B00     		lsl	r3, r3, #1
 4667 1f96 FB18     		add	r3, r7, r3
 4668 1f98 1B68     		ldr	r3, [r3]
 4669 1f9a D218     		add	r2, r2, r3
 4670 1f9c 7B68     		ldr	r3, [r7, #4]
 4671 1f9e 1A60     		str	r2, [r3]
 159:E:\test\test1\BLE_OTA_External_Memory_Bootloadable01\BLE_OTA_External_Memory_Bootloadable01.cydsn\md5.c ****          state[1] += b;  
 4672              		.loc 1 159 0
 4673 1fa0 7B68     		ldr	r3, [r7, #4]
 4674 1fa2 0433     		add	r3, r3, #4
 4675 1fa4 7A68     		ldr	r2, [r7, #4]
 4676 1fa6 0432     		add	r2, r2, #4
 4677 1fa8 1168     		ldr	r1, [r2]
 4678 1faa 8822     		mov	r2, #136
ARM GAS  C:\Users\ADMINI~1.SC-\AppData\Local\Temp\ccuBFnVb.s 			page 86


 4679 1fac 5200     		lsl	r2, r2, #1
 4680 1fae BA18     		add	r2, r7, r2
 4681 1fb0 1268     		ldr	r2, [r2]
 4682 1fb2 8A18     		add	r2, r1, r2
 4683 1fb4 1A60     		str	r2, [r3]
 160:E:\test\test1\BLE_OTA_External_Memory_Bootloadable01\BLE_OTA_External_Memory_Bootloadable01.cydsn\md5.c ****          state[2] += c;  
 4684              		.loc 1 160 0
 4685 1fb6 7B68     		ldr	r3, [r7, #4]
 4686 1fb8 0833     		add	r3, r3, #8
 4687 1fba 7A68     		ldr	r2, [r7, #4]
 4688 1fbc 0832     		add	r2, r2, #8
 4689 1fbe 1168     		ldr	r1, [r2]
 4690 1fc0 8622     		mov	r2, #134
 4691 1fc2 5200     		lsl	r2, r2, #1
 4692 1fc4 BA18     		add	r2, r7, r2
 4693 1fc6 1268     		ldr	r2, [r2]
 4694 1fc8 8A18     		add	r2, r1, r2
 4695 1fca 1A60     		str	r2, [r3]
 161:E:\test\test1\BLE_OTA_External_Memory_Bootloadable01\BLE_OTA_External_Memory_Bootloadable01.cydsn\md5.c ****          state[3] += d;  
 4696              		.loc 1 161 0
 4697 1fcc 7B68     		ldr	r3, [r7, #4]
 4698 1fce 0C33     		add	r3, r3, #12
 4699 1fd0 7A68     		ldr	r2, [r7, #4]
 4700 1fd2 0C32     		add	r2, r2, #12
 4701 1fd4 1168     		ldr	r1, [r2]
 4702 1fd6 8422     		mov	r2, #132
 4703 1fd8 5200     		lsl	r2, r2, #1
 4704 1fda BA18     		add	r2, r7, r2
 4705 1fdc 1268     		ldr	r2, [r2]
 4706 1fde 8A18     		add	r2, r1, r2
 4707 1fe0 1A60     		str	r2, [r3]
 162:E:\test\test1\BLE_OTA_External_Memory_Bootloadable01\BLE_OTA_External_Memory_Bootloadable01.cydsn\md5.c ****     }  
 4708              		.loc 1 162 0
 4709 1fe2 BD46     		mov	sp, r7
 4710 1fe4 46B0     		add	sp, sp, #280
 4711              		@ sp needed
 4712 1fe6 80BD     		pop	{r7, pc}
 4713              	.L44:
 4714              		.align	2
 4715              	.L43:
 4716 1fe8 F0FEFFFF 		.word	-272
 4717 1fec 35F23ABD 		.word	-1120210379
 4718 1ff0 BBD2D72A 		.word	718787259
 4719 1ff4 91D386EB 		.word	-343485551
 4720              		.cfi_endproc
 4721              	.LFE5:
 4722              		.size	MD5Transform, .-MD5Transform
 4723              		.text
 4724              	.Letext0:
 4725              		.file 2 "E:\\test\\test1\\BLE_OTA_External_Memory_Bootloadable01\\BLE_OTA_External_Memory_Bootload