ARM GAS  C:\Users\ADMINI~1.SC-\AppData\Local\Temp\ccXEdkAh.s 			page 1


   1              		.cpu cortex-m0
   2              		.fpu softvfp
   3              		.eabi_attribute 20, 1
   4              		.eabi_attribute 21, 1
   5              		.eabi_attribute 23, 3
   6              		.eabi_attribute 24, 1
   7              		.eabi_attribute 25, 1
   8              		.eabi_attribute 26, 1
   9              		.eabi_attribute 30, 6
  10              		.eabi_attribute 34, 0
  11              		.eabi_attribute 18, 4
  12              		.code	16
  13              		.file	"RC4.c"
  14              		.text
  15              	.Ltext0:
  16              		.cfi_sections	.debug_frame
  17              		.comm	Rc4Sbox,32,4
  18              		.comm	Rc4Kbox,32,4
  19              		.section	.text.init_sbox,"ax",%progbits
  20              		.align	2
  21              		.global	init_sbox
  22              		.code	16
  23              		.thumb_func
  24              		.type	init_sbox, %function
  25              	init_sbox:
  26              	.LFB35:
  27              		.file 1 "RC4.c"
   1:RC4.c         **** /* ========================================
   2:RC4.c         ****  *
   3:RC4.c         ****  * Copyright YOUR COMPANY, THE YEAR
   4:RC4.c         ****  * All Rights Reserved
   5:RC4.c         ****  * UNPUBLISHED, LICENSED SOFTWARE.
   6:RC4.c         ****  *
   7:RC4.c         ****  * CONFIDENTIAL AND PROPRIETARY INFORMATION
   8:RC4.c         ****  * WHICH IS THE PROPERTY OF your company.
   9:RC4.c         ****  *
  10:RC4.c         ****  * ========================================
  11:RC4.c         **** */
  12:RC4.c         **** #include"Rc4.h"
  13:RC4.c         **** #include <string.h>
  14:RC4.c         **** #include "main.h"
  15:RC4.c         **** 
  16:RC4.c         **** uint8 Rc4Sbox[SBOX_LEN];
  17:RC4.c         **** uint8 Rc4Kbox[SBOX_LEN];
  18:RC4.c         **** 
  19:RC4.c         **** 
  20:RC4.c         **** 
  21:RC4.c         **** void init_sbox(void)
  22:RC4.c         **** {
  28              		.loc 1 22 0
  29              		.cfi_startproc
  30 0000 80B5     		push	{r7, lr}
  31              		.cfi_def_cfa_offset 8
  32              		.cfi_offset 7, -8
  33              		.cfi_offset 14, -4
  34 0002 84B0     		sub	sp, sp, #16
  35              		.cfi_def_cfa_offset 24
ARM GAS  C:\Users\ADMINI~1.SC-\AppData\Local\Temp\ccXEdkAh.s 			page 2


  36 0004 00AF     		add	r7, sp, #0
  37              		.cfi_def_cfa_register 7
  23:RC4.c         ****     int i, j = 0;
  38              		.loc 1 23 0
  39 0006 0023     		mov	r3, #0
  40 0008 BB60     		str	r3, [r7, #8]
  24:RC4.c         ****     unsigned char tmp;
  25:RC4.c         **** 
  26:RC4.c         ****     for (i = 0; i < SBOX_LEN; i++)
  41              		.loc 1 26 0
  42 000a 0023     		mov	r3, #0
  43 000c FB60     		str	r3, [r7, #12]
  44 000e 09E0     		b	.L2
  45              	.L3:
  27:RC4.c         ****         Rc4Sbox[i] = i;
  46              		.loc 1 27 0 discriminator 3
  47 0010 FB68     		ldr	r3, [r7, #12]
  48 0012 D9B2     		uxtb	r1, r3
  49 0014 204A     		ldr	r2, .L7
  50 0016 FB68     		ldr	r3, [r7, #12]
  51 0018 D318     		add	r3, r2, r3
  52 001a 0A1C     		add	r2, r1, #0
  53 001c 1A70     		strb	r2, [r3]
  26:RC4.c         ****         Rc4Sbox[i] = i;
  54              		.loc 1 26 0 discriminator 3
  55 001e FB68     		ldr	r3, [r7, #12]
  56 0020 0133     		add	r3, r3, #1
  57 0022 FB60     		str	r3, [r7, #12]
  58              	.L2:
  26:RC4.c         ****         Rc4Sbox[i] = i;
  59              		.loc 1 26 0 is_stmt 0 discriminator 1
  60 0024 FB68     		ldr	r3, [r7, #12]
  61 0026 1F2B     		cmp	r3, #31
  62 0028 F2DD     		ble	.L3
  28:RC4.c         **** 
  29:RC4.c         ****     for (i = 0; i < SBOX_LEN; i++)
  63              		.loc 1 29 0 is_stmt 1
  64 002a 0023     		mov	r3, #0
  65 002c FB60     		str	r3, [r7, #12]
  66 002e 2CE0     		b	.L4
  67              	.L6:
  30:RC4.c         ****     {
  31:RC4.c         ****         j = (j + Rc4Sbox[i] + Rc4Kbox[i]) % SBOX_LEN;
  68              		.loc 1 31 0 discriminator 3
  69 0030 194A     		ldr	r2, .L7
  70 0032 FB68     		ldr	r3, [r7, #12]
  71 0034 D318     		add	r3, r2, r3
  72 0036 1B78     		ldrb	r3, [r3]
  73 0038 1A1C     		mov	r2, r3
  74 003a BB68     		ldr	r3, [r7, #8]
  75 003c D318     		add	r3, r2, r3
  76 003e 1749     		ldr	r1, .L7+4
  77 0040 FA68     		ldr	r2, [r7, #12]
  78 0042 8A18     		add	r2, r1, r2
  79 0044 1278     		ldrb	r2, [r2]
  80 0046 9B18     		add	r3, r3, r2
  81 0048 154A     		ldr	r2, .L7+8
ARM GAS  C:\Users\ADMINI~1.SC-\AppData\Local\Temp\ccXEdkAh.s 			page 3


  82 004a 1340     		and	r3, r2
  83 004c 04D5     		bpl	.L5
  84 004e 013B     		sub	r3, r3, #1
  85 0050 2022     		mov	r2, #32
  86 0052 5242     		neg	r2, r2
  87 0054 1343     		orr	r3, r2
  88 0056 0133     		add	r3, r3, #1
  89              	.L5:
  90 0058 BB60     		str	r3, [r7, #8]
  32:RC4.c         ****         tmp = Rc4Sbox[i];
  91              		.loc 1 32 0 discriminator 3
  92 005a FB1D     		add	r3, r7, #7
  93 005c 0E49     		ldr	r1, .L7
  94 005e FA68     		ldr	r2, [r7, #12]
  95 0060 8A18     		add	r2, r1, r2
  96 0062 1278     		ldrb	r2, [r2]
  97 0064 1A70     		strb	r2, [r3]
  33:RC4.c         ****         Rc4Sbox[i] = Rc4Sbox[j];
  98              		.loc 1 33 0 discriminator 3
  99 0066 0C4A     		ldr	r2, .L7
 100 0068 BB68     		ldr	r3, [r7, #8]
 101 006a D318     		add	r3, r2, r3
 102 006c 1978     		ldrb	r1, [r3]
 103 006e 0A4A     		ldr	r2, .L7
 104 0070 FB68     		ldr	r3, [r7, #12]
 105 0072 D318     		add	r3, r2, r3
 106 0074 0A1C     		add	r2, r1, #0
 107 0076 1A70     		strb	r2, [r3]
  34:RC4.c         ****         Rc4Sbox[j] = tmp;
 108              		.loc 1 34 0 discriminator 3
 109 0078 074A     		ldr	r2, .L7
 110 007a BB68     		ldr	r3, [r7, #8]
 111 007c D318     		add	r3, r2, r3
 112 007e FA1D     		add	r2, r7, #7
 113 0080 1278     		ldrb	r2, [r2]
 114 0082 1A70     		strb	r2, [r3]
  29:RC4.c         ****     {
 115              		.loc 1 29 0 discriminator 3
 116 0084 FB68     		ldr	r3, [r7, #12]
 117 0086 0133     		add	r3, r3, #1
 118 0088 FB60     		str	r3, [r7, #12]
 119              	.L4:
  29:RC4.c         ****     {
 120              		.loc 1 29 0 is_stmt 0 discriminator 1
 121 008a FB68     		ldr	r3, [r7, #12]
 122 008c 1F2B     		cmp	r3, #31
 123 008e CFDD     		ble	.L6
  35:RC4.c         ****     }
  36:RC4.c         **** }
 124              		.loc 1 36 0 is_stmt 1
 125 0090 BD46     		mov	sp, r7
 126 0092 04B0     		add	sp, sp, #16
 127              		@ sp needed
 128 0094 80BD     		pop	{r7, pc}
 129              	.L8:
 130 0096 C046     		.align	2
 131              	.L7:
ARM GAS  C:\Users\ADMINI~1.SC-\AppData\Local\Temp\ccXEdkAh.s 			page 4


 132 0098 00000000 		.word	Rc4Sbox
 133 009c 00000000 		.word	Rc4Kbox
 134 00a0 1F000080 		.word	-2147483617
 135              		.cfi_endproc
 136              	.LFE35:
 137              		.size	init_sbox, .-init_sbox
 138              		.global	__aeabi_idivmod
 139              		.section	.text.init_kbox,"ax",%progbits
 140              		.align	2
 141              		.global	init_kbox
 142              		.code	16
 143              		.thumb_func
 144              		.type	init_kbox, %function
 145              	init_kbox:
 146              	.LFB36:
  37:RC4.c         **** 
  38:RC4.c         **** 
  39:RC4.c         **** 
  40:RC4.c         **** 
  41:RC4.c         **** 
  42:RC4.c         **** /*
  43:RC4.c         ****  *******************************************************************************     
  44:RC4.c         ****  * 功能名: init_kbox    
  45:RC4.c         ****  * 说明:  初始化 kbox        
  46:RC4.c         ****  * 输入:  key 密钥    
  47:RC4.c         ****  * 输出: 
  48:RC4.c         ****  * 返回:  
  49:RC4.c         ****  *******************************************************************************     
  50:RC4.c         ****  */
  51:RC4.c         **** void init_kbox(unsigned char *key,unsigned char keyleng)
  52:RC4.c         **** {
 147              		.loc 1 52 0
 148              		.cfi_startproc
 149 0000 80B5     		push	{r7, lr}
 150              		.cfi_def_cfa_offset 8
 151              		.cfi_offset 7, -8
 152              		.cfi_offset 14, -4
 153 0002 84B0     		sub	sp, sp, #16
 154              		.cfi_def_cfa_offset 24
 155 0004 00AF     		add	r7, sp, #0
 156              		.cfi_def_cfa_register 7
 157 0006 7860     		str	r0, [r7, #4]
 158 0008 0A1C     		mov	r2, r1
 159 000a FB1C     		add	r3, r7, #3
 160 000c 1A70     		strb	r2, [r3]
  53:RC4.c         ****     int i;
  54:RC4.c         ****     for (i = 0; i < SBOX_LEN; i++)
 161              		.loc 1 54 0
 162 000e 0023     		mov	r3, #0
 163 0010 FB60     		str	r3, [r7, #12]
 164 0012 13E0     		b	.L10
 165              	.L11:
  55:RC4.c         ****     {
  56:RC4.c         ****         Rc4Kbox[i] = key[i % keyleng];
 166              		.loc 1 56 0 discriminator 3
 167 0014 FB1C     		add	r3, r7, #3
 168 0016 1B78     		ldrb	r3, [r3]
ARM GAS  C:\Users\ADMINI~1.SC-\AppData\Local\Temp\ccXEdkAh.s 			page 5


 169 0018 FA68     		ldr	r2, [r7, #12]
 170 001a 101C     		mov	r0, r2
 171 001c 191C     		mov	r1, r3
 172 001e FFF7FEFF 		bl	__aeabi_idivmod
 173 0022 0B1C     		mov	r3, r1
 174 0024 1A1C     		mov	r2, r3
 175 0026 7B68     		ldr	r3, [r7, #4]
 176 0028 9B18     		add	r3, r3, r2
 177 002a 1978     		ldrb	r1, [r3]
 178 002c 064A     		ldr	r2, .L12
 179 002e FB68     		ldr	r3, [r7, #12]
 180 0030 D318     		add	r3, r2, r3
 181 0032 0A1C     		add	r2, r1, #0
 182 0034 1A70     		strb	r2, [r3]
  54:RC4.c         ****     {
 183              		.loc 1 54 0 discriminator 3
 184 0036 FB68     		ldr	r3, [r7, #12]
 185 0038 0133     		add	r3, r3, #1
 186 003a FB60     		str	r3, [r7, #12]
 187              	.L10:
  54:RC4.c         ****     {
 188              		.loc 1 54 0 is_stmt 0 discriminator 1
 189 003c FB68     		ldr	r3, [r7, #12]
 190 003e 1F2B     		cmp	r3, #31
 191 0040 E8DD     		ble	.L11
  57:RC4.c         ****     }
  58:RC4.c         **** }
 192              		.loc 1 58 0 is_stmt 1
 193 0042 BD46     		mov	sp, r7
 194 0044 04B0     		add	sp, sp, #16
 195              		@ sp needed
 196 0046 80BD     		pop	{r7, pc}
 197              	.L13:
 198              		.align	2
 199              	.L12:
 200 0048 00000000 		.word	Rc4Kbox
 201              		.cfi_endproc
 202              	.LFE36:
 203              		.size	init_kbox, .-init_kbox
 204              		.section	.text.rc4_encrypt,"ax",%progbits
 205              		.align	2
 206              		.global	rc4_encrypt
 207              		.code	16
 208              		.thumb_func
 209              		.type	rc4_encrypt, %function
 210              	rc4_encrypt:
 211              	.LFB37:
  59:RC4.c         **** 
  60:RC4.c         **** /*
  61:RC4.c         ****  *******************************************************************************
  62:RC4.c         ****  * 功能名:  rc4_encrypt
  63:RC4.c         ****  * 说明:  rc4计算
  64:RC4.c         ****  * 输入:  	key 密钥
  65:RC4.c         ****  			buf 数据
  66:RC4.c         ****  			len 长度
  67:RC4.c         ****  * 输出:
  68:RC4.c         ****  * 返回:
ARM GAS  C:\Users\ADMINI~1.SC-\AppData\Local\Temp\ccXEdkAh.s 			page 6


  69:RC4.c         ****  *******************************************************************************
  70:RC4.c         ****  */
  71:RC4.c         **** 
  72:RC4.c         **** void rc4_encrypt(unsigned char *key,unsigned char key_leng, unsigned char *buf, int len)
  73:RC4.c         **** {
 212              		.loc 1 73 0
 213              		.cfi_startproc
 214 0000 80B5     		push	{r7, lr}
 215              		.cfi_def_cfa_offset 8
 216              		.cfi_offset 7, -8
 217              		.cfi_offset 14, -4
 218 0002 8AB0     		sub	sp, sp, #40
 219              		.cfi_def_cfa_offset 48
 220 0004 00AF     		add	r7, sp, #0
 221              		.cfi_def_cfa_register 7
 222 0006 F860     		str	r0, [r7, #12]
 223 0008 7A60     		str	r2, [r7, #4]
 224 000a 3B60     		str	r3, [r7]
 225 000c 0B23     		mov	r3, #11
 226 000e FB18     		add	r3, r7, r3
 227 0010 0A1C     		add	r2, r1, #0
 228 0012 1A70     		strb	r2, [r3]
  74:RC4.c         ****     int i = 0, j = 0, t, index = 0;
 229              		.loc 1 74 0
 230 0014 0023     		mov	r3, #0
 231 0016 7B62     		str	r3, [r7, #36]
 232 0018 0023     		mov	r3, #0
 233 001a 3B62     		str	r3, [r7, #32]
 234 001c 0023     		mov	r3, #0
 235 001e FB61     		str	r3, [r7, #28]
  75:RC4.c         ****     unsigned char tmp;
  76:RC4.c         ****     unsigned char *data;
  77:RC4.c         ****     data=buf;
 236              		.loc 1 77 0
 237 0020 7B68     		ldr	r3, [r7, #4]
 238 0022 BB61     		str	r3, [r7, #24]
  78:RC4.c         **** 
  79:RC4.c         ****     if (buf == NULL || len <= 0)
 239              		.loc 1 79 0
 240 0024 7B68     		ldr	r3, [r7, #4]
 241 0026 002B     		cmp	r3, #0
 242 0028 02D0     		beq	.L15
 243              		.loc 1 79 0 is_stmt 0 discriminator 1
 244 002a 3B68     		ldr	r3, [r7]
 245 002c 002B     		cmp	r3, #0
 246 002e 00DC     		bgt	.L16
 247              	.L15:
  80:RC4.c         ****         return;
 248              		.loc 1 80 0 is_stmt 1
 249 0030 5EE0     		b	.L14
 250              	.L16:
  81:RC4.c         ****     init_kbox(key,key_leng);
 251              		.loc 1 81 0
 252 0032 FA68     		ldr	r2, [r7, #12]
 253 0034 0B23     		mov	r3, #11
 254 0036 FB18     		add	r3, r7, r3
 255 0038 1B78     		ldrb	r3, [r3]
ARM GAS  C:\Users\ADMINI~1.SC-\AppData\Local\Temp\ccXEdkAh.s 			page 7


 256 003a 101C     		mov	r0, r2
 257 003c 191C     		mov	r1, r3
 258 003e FFF7FEFF 		bl	init_kbox
  82:RC4.c         ****     init_sbox();
 259              		.loc 1 82 0
 260 0042 FFF7FEFF 		bl	init_sbox
  83:RC4.c         **** 
  84:RC4.c         **** 
  85:RC4.c         ****     while (index < len)
 261              		.loc 1 85 0
 262 0046 4FE0     		b	.L18
 263              	.L21:
  86:RC4.c         ****     {
  87:RC4.c         ****         i = (i + 1) % SBOX_LEN;
 264              		.loc 1 87 0
 265 0048 7B6A     		ldr	r3, [r7, #36]
 266 004a 0133     		add	r3, r3, #1
 267 004c 2A4A     		ldr	r2, .L22
 268 004e 1340     		and	r3, r2
 269 0050 04D5     		bpl	.L19
 270 0052 013B     		sub	r3, r3, #1
 271 0054 2022     		mov	r2, #32
 272 0056 5242     		neg	r2, r2
 273 0058 1343     		orr	r3, r2
 274 005a 0133     		add	r3, r3, #1
 275              	.L19:
 276 005c 7B62     		str	r3, [r7, #36]
  88:RC4.c         ****         j = (j + Rc4Sbox[i]) % SBOX_LEN;
 277              		.loc 1 88 0
 278 005e 274A     		ldr	r2, .L22+4
 279 0060 7B6A     		ldr	r3, [r7, #36]
 280 0062 D318     		add	r3, r2, r3
 281 0064 1B78     		ldrb	r3, [r3]
 282 0066 1A1C     		mov	r2, r3
 283 0068 3B6A     		ldr	r3, [r7, #32]
 284 006a D318     		add	r3, r2, r3
 285 006c 224A     		ldr	r2, .L22
 286 006e 1340     		and	r3, r2
 287 0070 04D5     		bpl	.L20
 288 0072 013B     		sub	r3, r3, #1
 289 0074 2022     		mov	r2, #32
 290 0076 5242     		neg	r2, r2
 291 0078 1343     		orr	r3, r2
 292 007a 0133     		add	r3, r3, #1
 293              	.L20:
 294 007c 3B62     		str	r3, [r7, #32]
  89:RC4.c         ****         tmp = Rc4Sbox[i];
 295              		.loc 1 89 0
 296 007e 1723     		mov	r3, #23
 297 0080 FB18     		add	r3, r7, r3
 298 0082 1E49     		ldr	r1, .L22+4
 299 0084 7A6A     		ldr	r2, [r7, #36]
 300 0086 8A18     		add	r2, r1, r2
 301 0088 1278     		ldrb	r2, [r2]
 302 008a 1A70     		strb	r2, [r3]
  90:RC4.c         ****         Rc4Sbox[i] = Rc4Sbox[j];
 303              		.loc 1 90 0
ARM GAS  C:\Users\ADMINI~1.SC-\AppData\Local\Temp\ccXEdkAh.s 			page 8


 304 008c 1B4A     		ldr	r2, .L22+4
 305 008e 3B6A     		ldr	r3, [r7, #32]
 306 0090 D318     		add	r3, r2, r3
 307 0092 1978     		ldrb	r1, [r3]
 308 0094 194A     		ldr	r2, .L22+4
 309 0096 7B6A     		ldr	r3, [r7, #36]
 310 0098 D318     		add	r3, r2, r3
 311 009a 0A1C     		add	r2, r1, #0
 312 009c 1A70     		strb	r2, [r3]
  91:RC4.c         ****         Rc4Sbox[j] = tmp;
 313              		.loc 1 91 0
 314 009e 174A     		ldr	r2, .L22+4
 315 00a0 3B6A     		ldr	r3, [r7, #32]
 316 00a2 D318     		add	r3, r2, r3
 317 00a4 1722     		mov	r2, #23
 318 00a6 BA18     		add	r2, r7, r2
 319 00a8 1278     		ldrb	r2, [r2]
 320 00aa 1A70     		strb	r2, [r3]
  92:RC4.c         ****         t = (Rc4Sbox[i] + Rc4Sbox[j]) % SBOX_LEN;
 321              		.loc 1 92 0
 322 00ac 134A     		ldr	r2, .L22+4
 323 00ae 7B6A     		ldr	r3, [r7, #36]
 324 00b0 D318     		add	r3, r2, r3
 325 00b2 1B78     		ldrb	r3, [r3]
 326 00b4 191C     		mov	r1, r3
 327 00b6 114A     		ldr	r2, .L22+4
 328 00b8 3B6A     		ldr	r3, [r7, #32]
 329 00ba D318     		add	r3, r2, r3
 330 00bc 1B78     		ldrb	r3, [r3]
 331 00be CB18     		add	r3, r1, r3
 332 00c0 1F22     		mov	r2, #31
 333 00c2 1340     		and	r3, r2
 334 00c4 3B61     		str	r3, [r7, #16]
  93:RC4.c         **** 
  94:RC4.c         ****         buf[index] = data[index] ^ Rc4Sbox[t]; 
 335              		.loc 1 94 0
 336 00c6 FB69     		ldr	r3, [r7, #28]
 337 00c8 7A68     		ldr	r2, [r7, #4]
 338 00ca D318     		add	r3, r2, r3
 339 00cc FA69     		ldr	r2, [r7, #28]
 340 00ce B969     		ldr	r1, [r7, #24]
 341 00d0 8A18     		add	r2, r1, r2
 342 00d2 1178     		ldrb	r1, [r2]
 343 00d4 0948     		ldr	r0, .L22+4
 344 00d6 3A69     		ldr	r2, [r7, #16]
 345 00d8 8218     		add	r2, r0, r2
 346 00da 1278     		ldrb	r2, [r2]
 347 00dc 4A40     		eor	r2, r1
 348 00de D2B2     		uxtb	r2, r2
 349 00e0 1A70     		strb	r2, [r3]
  95:RC4.c         ****         index++;
 350              		.loc 1 95 0
 351 00e2 FB69     		ldr	r3, [r7, #28]
 352 00e4 0133     		add	r3, r3, #1
 353 00e6 FB61     		str	r3, [r7, #28]
 354              	.L18:
  85:RC4.c         ****     {
ARM GAS  C:\Users\ADMINI~1.SC-\AppData\Local\Temp\ccXEdkAh.s 			page 9


 355              		.loc 1 85 0
 356 00e8 FA69     		ldr	r2, [r7, #28]
 357 00ea 3B68     		ldr	r3, [r7]
 358 00ec 9A42     		cmp	r2, r3
 359 00ee ABDB     		blt	.L21
 360              	.L14:
  96:RC4.c         ****     }
  97:RC4.c         **** }
 361              		.loc 1 97 0
 362 00f0 BD46     		mov	sp, r7
 363 00f2 0AB0     		add	sp, sp, #40
 364              		@ sp needed
 365 00f4 80BD     		pop	{r7, pc}
 366              	.L23:
 367 00f6 C046     		.align	2
 368              	.L22:
 369 00f8 1F000080 		.word	-2147483617
 370 00fc 00000000 		.word	Rc4Sbox
 371              		.cfi_endproc
 372              	.LFE37:
 373              		.size	rc4_encrypt, .-rc4_encrypt
 374              		.section	.text.CRC_Sum,"ax",%progbits
 375              		.align	2
 376              		.global	CRC_Sum
 377              		.code	16
 378              		.thumb_func
 379              		.type	CRC_Sum, %function
 380              	CRC_Sum:
 381              	.LFB38:
  98:RC4.c         **** 
  99:RC4.c         **** /**************************************************
 100:RC4.c         **** 累计和取反校验
 101:RC4.c         **** ***************************************************/
 102:RC4.c         **** unsigned char CRC_Sum(unsigned char *Buf, unsigned char Length)
 103:RC4.c         **** {
 382              		.loc 1 103 0
 383              		.cfi_startproc
 384 0000 80B5     		push	{r7, lr}
 385              		.cfi_def_cfa_offset 8
 386              		.cfi_offset 7, -8
 387              		.cfi_offset 14, -4
 388 0002 84B0     		sub	sp, sp, #16
 389              		.cfi_def_cfa_offset 24
 390 0004 00AF     		add	r7, sp, #0
 391              		.cfi_def_cfa_register 7
 392 0006 7860     		str	r0, [r7, #4]
 393 0008 0A1C     		mov	r2, r1
 394 000a FB1C     		add	r3, r7, #3
 395 000c 1A70     		strb	r2, [r3]
 104:RC4.c         ****     unsigned char sum = 0x00;
 396              		.loc 1 104 0
 397 000e 0F23     		mov	r3, #15
 398 0010 FB18     		add	r3, r7, r3
 399 0012 0022     		mov	r2, #0
 400 0014 1A70     		strb	r2, [r3]
 105:RC4.c         ****     while (Length--)
 401              		.loc 1 105 0
ARM GAS  C:\Users\ADMINI~1.SC-\AppData\Local\Temp\ccXEdkAh.s 			page 10


 402 0016 0AE0     		b	.L25
 403              	.L26:
 106:RC4.c         ****     {
 107:RC4.c         ****         sum += *Buf++;
 404              		.loc 1 107 0
 405 0018 7B68     		ldr	r3, [r7, #4]
 406 001a 5A1C     		add	r2, r3, #1
 407 001c 7A60     		str	r2, [r7, #4]
 408 001e 1978     		ldrb	r1, [r3]
 409 0020 0F23     		mov	r3, #15
 410 0022 FB18     		add	r3, r7, r3
 411 0024 0F22     		mov	r2, #15
 412 0026 BA18     		add	r2, r7, r2
 413 0028 1278     		ldrb	r2, [r2]
 414 002a 8A18     		add	r2, r1, r2
 415 002c 1A70     		strb	r2, [r3]
 416              	.L25:
 105:RC4.c         ****     while (Length--)
 417              		.loc 1 105 0
 418 002e FB1C     		add	r3, r7, #3
 419 0030 1B78     		ldrb	r3, [r3]
 420 0032 FA1C     		add	r2, r7, #3
 421 0034 591E     		sub	r1, r3, #1
 422 0036 1170     		strb	r1, [r2]
 423 0038 002B     		cmp	r3, #0
 424 003a EDD1     		bne	.L26
 108:RC4.c         ****     }
 109:RC4.c         ****     return ~(unsigned char)sum;
 425              		.loc 1 109 0
 426 003c 0F23     		mov	r3, #15
 427 003e FB18     		add	r3, r7, r3
 428 0040 1B78     		ldrb	r3, [r3]
 429 0042 DB43     		mvn	r3, r3
 430 0044 DBB2     		uxtb	r3, r3
 110:RC4.c         **** }
 431              		.loc 1 110 0
 432 0046 181C     		mov	r0, r3
 433 0048 BD46     		mov	sp, r7
 434 004a 04B0     		add	sp, sp, #16
 435              		@ sp needed
 436 004c 80BD     		pop	{r7, pc}
 437              		.cfi_endproc
 438              	.LFE38:
 439              		.size	CRC_Sum, .-CRC_Sum
 440 004e C046     		.section	.text.Hex_To_Ascii,"ax",%progbits
 441              		.align	2
 442              		.global	Hex_To_Ascii
 443              		.code	16
 444              		.thumb_func
 445              		.type	Hex_To_Ascii, %function
 446              	Hex_To_Ascii:
 447              	.LFB39:
 111:RC4.c         **** 
 112:RC4.c         **** /**************************************************
 113:RC4.c         **** 16进制转ASCII
 114:RC4.c         **** ***************************************************/
 115:RC4.c         **** unsigned char Hex_To_Ascii(unsigned char Data)
ARM GAS  C:\Users\ADMINI~1.SC-\AppData\Local\Temp\ccXEdkAh.s 			page 11


 116:RC4.c         **** {
 448              		.loc 1 116 0
 449              		.cfi_startproc
 450 0000 80B5     		push	{r7, lr}
 451              		.cfi_def_cfa_offset 8
 452              		.cfi_offset 7, -8
 453              		.cfi_offset 14, -4
 454 0002 82B0     		sub	sp, sp, #8
 455              		.cfi_def_cfa_offset 16
 456 0004 00AF     		add	r7, sp, #0
 457              		.cfi_def_cfa_register 7
 458 0006 021C     		mov	r2, r0
 459 0008 FB1D     		add	r3, r7, #7
 460 000a 1A70     		strb	r2, [r3]
 117:RC4.c         ****     if(Data < 10)
 461              		.loc 1 117 0
 462 000c FB1D     		add	r3, r7, #7
 463 000e 1B78     		ldrb	r3, [r3]
 464 0010 092B     		cmp	r3, #9
 465 0012 04D8     		bhi	.L29
 118:RC4.c         ****     {
 119:RC4.c         ****         return (Data+0x30);
 466              		.loc 1 119 0
 467 0014 FB1D     		add	r3, r7, #7
 468 0016 1B78     		ldrb	r3, [r3]
 469 0018 3033     		add	r3, r3, #48
 470 001a DBB2     		uxtb	r3, r3
 471 001c 03E0     		b	.L30
 472              	.L29:
 120:RC4.c         ****     }
 121:RC4.c         ****     else
 122:RC4.c         ****     {
 123:RC4.c         ****         return (Data+0x37);
 473              		.loc 1 123 0
 474 001e FB1D     		add	r3, r7, #7
 475 0020 1B78     		ldrb	r3, [r3]
 476 0022 3733     		add	r3, r3, #55
 477 0024 DBB2     		uxtb	r3, r3
 478              	.L30:
 124:RC4.c         ****     }
 125:RC4.c         **** }
 479              		.loc 1 125 0
 480 0026 181C     		mov	r0, r3
 481 0028 BD46     		mov	sp, r7
 482 002a 02B0     		add	sp, sp, #8
 483              		@ sp needed
 484 002c 80BD     		pop	{r7, pc}
 485              		.cfi_endproc
 486              	.LFE39:
 487              		.size	Hex_To_Ascii, .-Hex_To_Ascii
 488 002e C046     		.text
 489              	.Letext0:
 490              		.file 2 "Generated_Source\\PSoC4/cytypes.h"
 491              		.file 3 "Generated_Source\\PSoC4/BLE_Stack.h"