ARM GAS  C:\Users\ADMINI~1\AppData\Local\Temp\ccFUZzWX.s 			page 1


   1              		.cpu cortex-m0
   2              		.fpu softvfp
   3              		.eabi_attribute 20, 1
   4              		.eabi_attribute 21, 1
   5              		.eabi_attribute 23, 3
   6              		.eabi_attribute 24, 1
   7              		.eabi_attribute 25, 1
   8              		.eabi_attribute 26, 1
   9              		.eabi_attribute 30, 6
  10              		.eabi_attribute 34, 0
  11              		.eabi_attribute 18, 4
  12              		.code	16
  13              		.file	"struct.c"
  14              		.text
  15              	.Ltext0:
  16              		.cfi_sections	.debug_frame
  17              		.global	count
  18              		.bss
  19              		.type	count, %object
  20              		.size	count, 1
  21              	count:
  22 0000 00       		.space	1
  23              		.global	Delay_Time
  24 0001 000000   		.align	2
  25              		.type	Delay_Time, %object
  26              		.size	Delay_Time, 24
  27              	Delay_Time:
  28 0004 00000000 		.space	24
  28      00000000 
  28      00000000 
  28      00000000 
  28      00000000 
  29              		.global	Flag
  30              		.align	2
  31              		.type	Flag, %object
  32              		.size	Flag, 4
  33              	Flag:
  34 001c 00000000 		.space	4
  35              		.global	state
  36              		.align	2
  37              		.type	state, %object
  38              		.size	state, 4
  39              	state:
  40 0020 00000000 		.space	4
  41              		.section	.text.FSU_Open_Judge,"ax",%progbits
  42              		.align	2
  43              		.global	FSU_Open_Judge
  44              		.code	16
  45              		.thumb_func
  46              		.type	FSU_Open_Judge, %function
  47              	FSU_Open_Judge:
  48              	.LFB37:
  49              		.file 1 ".\\struct.c"
   1:.\struct.c    **** /* ========================================
   2:.\struct.c    ****  *
   3:.\struct.c    ****  * Copyright YOUR COMPANY, THE YEAR
   4:.\struct.c    ****  * All Rights Reserved
ARM GAS  C:\Users\ADMINI~1\AppData\Local\Temp\ccFUZzWX.s 			page 2


   5:.\struct.c    ****  * UNPUBLISHED, LICENSED SOFTWARE.
   6:.\struct.c    ****  *
   7:.\struct.c    ****  * CONFIDENTIAL AND PROPRIETARY INFORMATION
   8:.\struct.c    ****  * WHICH IS THE PROPERTY OF your company.
   9:.\struct.c    ****  *
  10:.\struct.c    ****  * ========================================
  11:.\struct.c    **** */
  12:.\struct.c    **** #include "struct.h"
  13:.\struct.c    **** uint8 count = 0;
  14:.\struct.c    **** 
  15:.\struct.c    **** DelayTime  Delay_Time = {};
  16:.\struct.c    **** FLAG  Flag = {};
  17:.\struct.c    **** STATE  state = {};
  18:.\struct.c    **** 
  19:.\struct.c    **** 
  20:.\struct.c    **** /***********************************************************
  21:.\struct.c    ****  * @function_name: void FSU_Open_Judge(void)
  22:.\struct.c    ****  * @function_file: struct.c
  23:.\struct.c    ****  * @描  述：       FSU开门判断
  24:.\struct.c    ****  * @参  数：       无
  25:.\struct.c    ****  * @返  回：       无
  26:.\struct.c    ****  **********************************************************/
  27:.\struct.c    **** void FSU_Open_Judge(void)
  28:.\struct.c    **** {
  50              		.loc 1 28 0
  51              		.cfi_startproc
  52 0000 80B5     		push	{r7, lr}
  53              		.cfi_def_cfa_offset 8
  54              		.cfi_offset 7, -8
  55              		.cfi_offset 14, -4
  56 0002 00AF     		add	r7, sp, #0
  57              		.cfi_def_cfa_register 7
  29:.\struct.c    ****     state.FSU_Signal = FSU_DO_Read();
  58              		.loc 1 29 0
  59 0004 FFF7FEFF 		bl	FSU_DO_Read
  60 0008 031C     		mov	r3, r0
  61 000a 1A1C     		add	r2, r3, #0
  62 000c 0123     		mov	r3, #1
  63 000e 1340     		and	r3, r2
  64 0010 DAB2     		uxtb	r2, r3
  65 0012 274B     		ldr	r3, .L6
  66 0014 0121     		mov	r1, #1
  67 0016 0A40     		and	r2, r1
  68 0018 101C     		mov	r0, r2
  69 001a 1A78     		ldrb	r2, [r3]
  70 001c 0121     		mov	r1, #1
  71 001e 8A43     		bic	r2, r1
  72 0020 111C     		add	r1, r2, #0
  73 0022 021C     		add	r2, r0, #0
  74 0024 0A43     		orr	r2, r1
  75 0026 1A70     		strb	r2, [r3]
  30:.\struct.c    ****     if(!state.FSU_Signal)
  76              		.loc 1 30 0
  77 0028 214B     		ldr	r3, .L6
  78 002a 1B78     		ldrb	r3, [r3]
  79 002c 0122     		mov	r2, #1
  80 002e 1340     		and	r3, r2
ARM GAS  C:\Users\ADMINI~1\AppData\Local\Temp\ccFUZzWX.s 			page 3


  81 0030 DBB2     		uxtb	r3, r3
  82 0032 002B     		cmp	r3, #0
  83 0034 36D1     		bne	.L2
  31:.\struct.c    ****     {
  32:.\struct.c    ****         Delay_Time.FSU_Open_Count ++;
  84              		.loc 1 32 0
  85 0036 1F4B     		ldr	r3, .L6+4
  86 0038 5B8A     		ldrh	r3, [r3, #18]
  87 003a 0133     		add	r3, r3, #1
  88 003c 9AB2     		uxth	r2, r3
  89 003e 1D4B     		ldr	r3, .L6+4
  90 0040 5A82     		strh	r2, [r3, #18]
  33:.\struct.c    ****          if(Delay_Time.FSU_Open_Count < DELAY_2S)
  91              		.loc 1 33 0
  92 0042 1C4B     		ldr	r3, .L6+4
  93 0044 5B8A     		ldrh	r3, [r3, #18]
  94 0046 1C4A     		ldr	r2, .L6+8
  95 0048 9342     		cmp	r3, r2
  96 004a 05D8     		bhi	.L3
  34:.\struct.c    ****         {
  35:.\struct.c    ****             Delay_Time.FSU_Open_Count ++;
  97              		.loc 1 35 0
  98 004c 194B     		ldr	r3, .L6+4
  99 004e 5B8A     		ldrh	r3, [r3, #18]
 100 0050 0133     		add	r3, r3, #1
 101 0052 9AB2     		uxth	r2, r3
 102 0054 174B     		ldr	r3, .L6+4
 103 0056 5A82     		strh	r2, [r3, #18]
 104              	.L3:
  36:.\struct.c    ****         }
  37:.\struct.c    ****         if(Delay_Time.FSU_Open_Count == DELAY_1S)   //1秒
 105              		.loc 1 37 0
 106 0058 164B     		ldr	r3, .L6+4
 107 005a 5A8A     		ldrh	r2, [r3, #18]
 108 005c FA23     		mov	r3, #250
 109 005e 9B00     		lsl	r3, r3, #2
 110 0060 9A42     		cmp	r2, r3
 111 0062 22D1     		bne	.L1
  38:.\struct.c    ****         {
  39:.\struct.c    ****             Delay_Time.Timeout_Count = 0;
 112              		.loc 1 39 0
 113 0064 134B     		ldr	r3, .L6+4
 114 0066 0022     		mov	r2, #0
 115 0068 5A80     		strh	r2, [r3, #2]
  40:.\struct.c    ****             if(state.Shrink_Sensor_Signal != HALL_CLOSE)
 116              		.loc 1 40 0
 117 006a 114B     		ldr	r3, .L6
 118 006c 1B78     		ldrb	r3, [r3]
 119 006e 0822     		mov	r2, #8
 120 0070 1340     		and	r3, r2
 121 0072 DBB2     		uxtb	r3, r3
 122 0074 002B     		cmp	r3, #0
 123 0076 18D0     		beq	.L1
  41:.\struct.c    ****             {
  42:.\struct.c    ****                 Flag.Unlock_Flag = 1;
 124              		.loc 1 42 0
 125 0078 104B     		ldr	r3, .L6+12
ARM GAS  C:\Users\ADMINI~1\AppData\Local\Temp\ccFUZzWX.s 			page 4


 126 007a 1A78     		ldrb	r2, [r3]
 127 007c 0221     		mov	r1, #2
 128 007e 0A43     		orr	r2, r1
 129 0080 1A70     		strb	r2, [r3]
  43:.\struct.c    ****                 Flag.Motor_Work_Step = MOTOR_FORWARD;
 130              		.loc 1 43 0
 131 0082 0E4B     		ldr	r3, .L6+12
 132 0084 1A78     		ldrb	r2, [r3]
 133 0086 6021     		mov	r1, #96
 134 0088 8A43     		bic	r2, r1
 135 008a 111C     		add	r1, r2, #0
 136 008c 2022     		mov	r2, #32
 137 008e 0A43     		orr	r2, r1
 138 0090 1A70     		strb	r2, [r3]
  44:.\struct.c    ****                 Flag.Alarm_Work_Step = EVENT_4;    
 139              		.loc 1 44 0
 140 0092 0A4B     		ldr	r3, .L6+12
 141 0094 5A78     		ldrb	r2, [r3, #1]
 142 0096 1C21     		mov	r1, #28
 143 0098 8A43     		bic	r2, r1
 144 009a 111C     		add	r1, r2, #0
 145 009c 1022     		mov	r2, #16
 146 009e 0A43     		orr	r2, r1
 147 00a0 5A70     		strb	r2, [r3, #1]
 148 00a2 02E0     		b	.L1
 149              	.L2:
  45:.\struct.c    ****             }
  46:.\struct.c    ****         }              
  47:.\struct.c    ****     }
  48:.\struct.c    ****     else
  49:.\struct.c    ****     {
  50:.\struct.c    ****         Delay_Time.FSU_Open_Count = 0;
 150              		.loc 1 50 0
 151 00a4 034B     		ldr	r3, .L6+4
 152 00a6 0022     		mov	r2, #0
 153 00a8 5A82     		strh	r2, [r3, #18]
 154              	.L1:
  51:.\struct.c    ****     }
  52:.\struct.c    **** }
 155              		.loc 1 52 0
 156 00aa BD46     		mov	sp, r7
 157              		@ sp needed
 158 00ac 80BD     		pop	{r7, pc}
 159              	.L7:
 160 00ae C046     		.align	2
 161              	.L6:
 162 00b0 00000000 		.word	state
 163 00b4 00000000 		.word	Delay_Time
 164 00b8 CF070000 		.word	1999
 165 00bc 00000000 		.word	Flag
 166              		.cfi_endproc
 167              	.LFE37:
 168              		.size	FSU_Open_Judge, .-FSU_Open_Judge
 169              		.section	.text.Key_Open_Judge,"ax",%progbits
 170              		.align	2
 171              		.global	Key_Open_Judge
 172              		.code	16
ARM GAS  C:\Users\ADMINI~1\AppData\Local\Temp\ccFUZzWX.s 			page 5


 173              		.thumb_func
 174              		.type	Key_Open_Judge, %function
 175              	Key_Open_Judge:
 176              	.LFB38:
  53:.\struct.c    **** 
  54:.\struct.c    **** /***********************************************************
  55:.\struct.c    ****  * @function_name: void Key_Open_Judge(void)
  56:.\struct.c    ****  * @function_file: struct.c
  57:.\struct.c    ****  * @描  述：       钥匙开门判断
  58:.\struct.c    ****  * @参  数：       无
  59:.\struct.c    ****  * @返  回：       无
  60:.\struct.c    ****  **********************************************************/
  61:.\struct.c    **** void Key_Open_Judge(void)
  62:.\struct.c    **** {
 177              		.loc 1 62 0
 178              		.cfi_startproc
 179 0000 80B5     		push	{r7, lr}
 180              		.cfi_def_cfa_offset 8
 181              		.cfi_offset 7, -8
 182              		.cfi_offset 14, -4
 183 0002 00AF     		add	r7, sp, #0
 184              		.cfi_def_cfa_register 7
  63:.\struct.c    ****     state.Key_Signal = key_sensor_Read();
 185              		.loc 1 63 0
 186 0004 FFF7FEFF 		bl	key_sensor_Read
 187 0008 031C     		mov	r3, r0
 188 000a 1A1C     		add	r2, r3, #0
 189 000c 0123     		mov	r3, #1
 190 000e 1340     		and	r3, r2
 191 0010 DAB2     		uxtb	r2, r3
 192 0012 174B     		ldr	r3, .L13
 193 0014 0121     		mov	r1, #1
 194 0016 0A40     		and	r2, r1
 195 0018 9000     		lsl	r0, r2, #2
 196 001a 1A78     		ldrb	r2, [r3]
 197 001c 0421     		mov	r1, #4
 198 001e 8A43     		bic	r2, r1
 199 0020 111C     		add	r1, r2, #0
 200 0022 021C     		add	r2, r0, #0
 201 0024 0A43     		orr	r2, r1
 202 0026 1A70     		strb	r2, [r3]
  64:.\struct.c    ****     if(state.Key_Signal)
 203              		.loc 1 64 0
 204 0028 114B     		ldr	r3, .L13
 205 002a 1B78     		ldrb	r3, [r3]
 206 002c 0422     		mov	r2, #4
 207 002e 1340     		and	r3, r2
 208 0030 DBB2     		uxtb	r3, r3
 209 0032 002B     		cmp	r3, #0
 210 0034 16D0     		beq	.L9
  65:.\struct.c    ****     {
  66:.\struct.c    ****         if(Delay_Time.Key_Open_Count < DELAY_2S)
 211              		.loc 1 66 0
 212 0036 0F4B     		ldr	r3, .L13+4
 213 0038 1B8A     		ldrh	r3, [r3, #16]
 214 003a 0F4A     		ldr	r2, .L13+8
 215 003c 9342     		cmp	r3, r2
ARM GAS  C:\Users\ADMINI~1\AppData\Local\Temp\ccFUZzWX.s 			page 6


 216 003e 05D8     		bhi	.L10
  67:.\struct.c    ****         {
  68:.\struct.c    ****             Delay_Time.Key_Open_Count ++;
 217              		.loc 1 68 0
 218 0040 0C4B     		ldr	r3, .L13+4
 219 0042 1B8A     		ldrh	r3, [r3, #16]
 220 0044 0133     		add	r3, r3, #1
 221 0046 9AB2     		uxth	r2, r3
 222 0048 0A4B     		ldr	r3, .L13+4
 223 004a 1A82     		strh	r2, [r3, #16]
 224              	.L10:
  69:.\struct.c    ****         }
  70:.\struct.c    ****         if(Delay_Time.Key_Open_Count == DELAY_1S)   //1秒
 225              		.loc 1 70 0
 226 004c 094B     		ldr	r3, .L13+4
 227 004e 1A8A     		ldrh	r2, [r3, #16]
 228 0050 FA23     		mov	r3, #250
 229 0052 9B00     		lsl	r3, r3, #2
 230 0054 9A42     		cmp	r2, r3
 231 0056 08D1     		bne	.L8
  71:.\struct.c    ****         {
  72:.\struct.c    ****             Flag.Key_Open_Upload = 1; 
 232              		.loc 1 72 0
 233 0058 084B     		ldr	r3, .L13+12
 234 005a 5A78     		ldrb	r2, [r3, #1]
 235 005c 2021     		mov	r1, #32
 236 005e 0A43     		orr	r2, r1
 237 0060 5A70     		strb	r2, [r3, #1]
 238 0062 02E0     		b	.L8
 239              	.L9:
  73:.\struct.c    ****         }
  74:.\struct.c    ****     }
  75:.\struct.c    ****     else
  76:.\struct.c    ****     {
  77:.\struct.c    ****         Delay_Time.Key_Open_Count = 0;
 240              		.loc 1 77 0
 241 0064 034B     		ldr	r3, .L13+4
 242 0066 0022     		mov	r2, #0
 243 0068 1A82     		strh	r2, [r3, #16]
 244              	.L8:
  78:.\struct.c    ****     }
  79:.\struct.c    **** }
 245              		.loc 1 79 0
 246 006a BD46     		mov	sp, r7
 247              		@ sp needed
 248 006c 80BD     		pop	{r7, pc}
 249              	.L14:
 250 006e C046     		.align	2
 251              	.L13:
 252 0070 00000000 		.word	state
 253 0074 00000000 		.word	Delay_Time
 254 0078 CF070000 		.word	1999
 255 007c 00000000 		.word	Flag
 256              		.cfi_endproc
 257              	.LFE38:
 258              		.size	Key_Open_Judge, .-Key_Open_Judge
 259              		.section	.text.Lock_Judge,"ax",%progbits
ARM GAS  C:\Users\ADMINI~1\AppData\Local\Temp\ccFUZzWX.s 			page 7


 260              		.align	2
 261              		.global	Lock_Judge
 262              		.code	16
 263              		.thumb_func
 264              		.type	Lock_Judge, %function
 265              	Lock_Judge:
 266              	.LFB39:
  80:.\struct.c    **** 
  81:.\struct.c    **** 
  82:.\struct.c    **** /***********************************************************
  83:.\struct.c    ****  * @function_name: void Lock_Judge(void)
  84:.\struct.c    ****  * @function_file: struct.c
  85:.\struct.c    ****  * @描  述：       锁舌判断，以及对应的电机处理
  86:.\struct.c    ****  * @参  数：       无
  87:.\struct.c    ****  * @返  回：       无
  88:.\struct.c    ****  **********************************************************/
  89:.\struct.c    **** void Lock_Judge(void)
  90:.\struct.c    **** {
 267              		.loc 1 90 0
 268              		.cfi_startproc
 269 0000 80B5     		push	{r7, lr}
 270              		.cfi_def_cfa_offset 8
 271              		.cfi_offset 7, -8
 272              		.cfi_offset 14, -4
 273 0002 00AF     		add	r7, sp, #0
 274              		.cfi_def_cfa_register 7
  91:.\struct.c    ****     state.Shrink_Sensor_Signal = shrink_sensor_Read();  //读收缩传感器信号
 275              		.loc 1 91 0
 276 0004 FFF7FEFF 		bl	shrink_sensor_Read
 277 0008 031C     		mov	r3, r0
 278 000a 1A1C     		add	r2, r3, #0
 279 000c 0123     		mov	r3, #1
 280 000e 1340     		and	r3, r2
 281 0010 DAB2     		uxtb	r2, r3
 282 0012 324B     		ldr	r3, .L18
 283 0014 0121     		mov	r1, #1
 284 0016 0A40     		and	r2, r1
 285 0018 D000     		lsl	r0, r2, #3
 286 001a 1A78     		ldrb	r2, [r3]
 287 001c 0821     		mov	r1, #8
 288 001e 8A43     		bic	r2, r1
 289 0020 111C     		add	r1, r2, #0
 290 0022 021C     		add	r2, r0, #0
 291 0024 0A43     		orr	r2, r1
 292 0026 1A70     		strb	r2, [r3]
  92:.\struct.c    ****     if((state.Shrink_Sensor_Signal == HALL_CLOSE) && (Flag.Unlock_Flag))
 293              		.loc 1 92 0
 294 0028 2C4B     		ldr	r3, .L18
 295 002a 1B78     		ldrb	r3, [r3]
 296 002c 0822     		mov	r2, #8
 297 002e 1340     		and	r3, r2
 298 0030 DBB2     		uxtb	r3, r3
 299 0032 002B     		cmp	r3, #0
 300 0034 1DD1     		bne	.L16
 301              		.loc 1 92 0 is_stmt 0 discriminator 1
 302 0036 2A4B     		ldr	r3, .L18+4
 303 0038 1B78     		ldrb	r3, [r3]
ARM GAS  C:\Users\ADMINI~1\AppData\Local\Temp\ccFUZzWX.s 			page 8


 304 003a 0222     		mov	r2, #2
 305 003c 1340     		and	r3, r2
 306 003e DBB2     		uxtb	r3, r3
 307 0040 002B     		cmp	r3, #0
 308 0042 16D0     		beq	.L16
  93:.\struct.c    ****     {
  94:.\struct.c    ****         Delay_Time.Shrink_Delay ++;
 309              		.loc 1 94 0 is_stmt 1
 310 0044 274B     		ldr	r3, .L18+8
 311 0046 1B89     		ldrh	r3, [r3, #8]
 312 0048 0133     		add	r3, r3, #1
 313 004a 9AB2     		uxth	r2, r3
 314 004c 254B     		ldr	r3, .L18+8
 315 004e 1A81     		strh	r2, [r3, #8]
  95:.\struct.c    ****         if(Delay_Time.Shrink_Delay > SHRINK_DELAY)
 316              		.loc 1 95 0
 317 0050 244B     		ldr	r3, .L18+8
 318 0052 1B89     		ldrh	r3, [r3, #8]
 319 0054 502B     		cmp	r3, #80
 320 0056 0CD9     		bls	.L16
  96:.\struct.c    ****         {
  97:.\struct.c    ****             Delay_Time.Shrink_Delay = 0;
 321              		.loc 1 97 0
 322 0058 224B     		ldr	r3, .L18+8
 323 005a 0022     		mov	r2, #0
 324 005c 1A81     		strh	r2, [r3, #8]
  98:.\struct.c    ****             Flag.Unlock_Flag = 0;
 325              		.loc 1 98 0
 326 005e 204B     		ldr	r3, .L18+4
 327 0060 1A78     		ldrb	r2, [r3]
 328 0062 0221     		mov	r1, #2
 329 0064 8A43     		bic	r2, r1
 330 0066 1A70     		strb	r2, [r3]
  99:.\struct.c    ****             Flag.Motor_Work_Step = MOTOR_STOP;
 331              		.loc 1 99 0
 332 0068 1D4B     		ldr	r3, .L18+4
 333 006a 1A78     		ldrb	r2, [r3]
 334 006c 6021     		mov	r1, #96
 335 006e 8A43     		bic	r2, r1
 336 0070 1A70     		strb	r2, [r3]
 337              	.L16:
 100:.\struct.c    ****         }
 101:.\struct.c    ****     }
 102:.\struct.c    ****    
 103:.\struct.c    ****     state.Extend_Sensor_Signal = extend_sensor_Read();  //读伸出传感器信号
 338              		.loc 1 103 0
 339 0072 FFF7FEFF 		bl	extend_sensor_Read
 340 0076 031C     		mov	r3, r0
 341 0078 1A1C     		add	r2, r3, #0
 342 007a 0123     		mov	r3, #1
 343 007c 1340     		and	r3, r2
 344 007e DAB2     		uxtb	r2, r3
 345 0080 164B     		ldr	r3, .L18
 346 0082 0121     		mov	r1, #1
 347 0084 0A40     		and	r2, r1
 348 0086 1001     		lsl	r0, r2, #4
 349 0088 1A78     		ldrb	r2, [r3]
ARM GAS  C:\Users\ADMINI~1\AppData\Local\Temp\ccFUZzWX.s 			page 9


 350 008a 1021     		mov	r1, #16
 351 008c 8A43     		bic	r2, r1
 352 008e 111C     		add	r1, r2, #0
 353 0090 021C     		add	r2, r0, #0
 354 0092 0A43     		orr	r2, r1
 355 0094 1A70     		strb	r2, [r3]
 104:.\struct.c    ****     if((state.Extend_Sensor_Signal == HALL_CLOSE) && (Flag.Lock_Flag))
 356              		.loc 1 104 0
 357 0096 114B     		ldr	r3, .L18
 358 0098 1B78     		ldrb	r3, [r3]
 359 009a 1022     		mov	r2, #16
 360 009c 1340     		and	r3, r2
 361 009e DBB2     		uxtb	r3, r3
 362 00a0 002B     		cmp	r3, #0
 363 00a2 18D1     		bne	.L15
 364              		.loc 1 104 0 is_stmt 0 discriminator 1
 365 00a4 0E4B     		ldr	r3, .L18+4
 366 00a6 1B78     		ldrb	r3, [r3]
 367 00a8 0122     		mov	r2, #1
 368 00aa 1340     		and	r3, r2
 369 00ac DBB2     		uxtb	r3, r3
 370 00ae 002B     		cmp	r3, #0
 371 00b0 11D0     		beq	.L15
 105:.\struct.c    ****     {
 106:.\struct.c    ****         Flag.Lock_Flag = 0;
 372              		.loc 1 106 0 is_stmt 1
 373 00b2 0B4B     		ldr	r3, .L18+4
 374 00b4 1A78     		ldrb	r2, [r3]
 375 00b6 0121     		mov	r1, #1
 376 00b8 8A43     		bic	r2, r1
 377 00ba 1A70     		strb	r2, [r3]
 107:.\struct.c    ****         Delay_Time.Fail_Count = 0;      //清除上锁失败标志
 378              		.loc 1 107 0
 379 00bc 094B     		ldr	r3, .L18+8
 380 00be 0022     		mov	r2, #0
 381 00c0 9A75     		strb	r2, [r3, #22]
 108:.\struct.c    ****         Flag.ReLock_Work_Step = STEP1;
 382              		.loc 1 108 0
 383 00c2 074B     		ldr	r3, .L18+4
 384 00c4 1A78     		ldrb	r2, [r3]
 385 00c6 1821     		mov	r1, #24
 386 00c8 8A43     		bic	r2, r1
 387 00ca 1A70     		strb	r2, [r3]
 109:.\struct.c    ****         Flag.Motor_Work_Step = MOTOR_STOP;
 388              		.loc 1 109 0
 389 00cc 044B     		ldr	r3, .L18+4
 390 00ce 1A78     		ldrb	r2, [r3]
 391 00d0 6021     		mov	r1, #96
 392 00d2 8A43     		bic	r2, r1
 393 00d4 1A70     		strb	r2, [r3]
 394              	.L15:
 110:.\struct.c    ****     }    
 111:.\struct.c    **** }
 395              		.loc 1 111 0
 396 00d6 BD46     		mov	sp, r7
 397              		@ sp needed
 398 00d8 80BD     		pop	{r7, pc}
ARM GAS  C:\Users\ADMINI~1\AppData\Local\Temp\ccFUZzWX.s 			page 10


 399              	.L19:
 400 00da C046     		.align	2
 401              	.L18:
 402 00dc 00000000 		.word	state
 403 00e0 00000000 		.word	Flag
 404 00e4 00000000 		.word	Delay_Time
 405              		.cfi_endproc
 406              	.LFE39:
 407              		.size	Lock_Judge, .-Lock_Judge
 408              		.section	.text.Door_Judge,"ax",%progbits
 409              		.align	2
 410              		.global	Door_Judge
 411              		.code	16
 412              		.thumb_func
 413              		.type	Door_Judge, %function
 414              	Door_Judge:
 415              	.LFB40:
 112:.\struct.c    **** 
 113:.\struct.c    **** 
 114:.\struct.c    **** /***********************************************************
 115:.\struct.c    ****  * @function_name: void Door_Judge(void)
 116:.\struct.c    ****  * @function_file: struct.c
 117:.\struct.c    ****  * @描  述：       门磁判断，以及对应的处理
 118:.\struct.c    ****  * @参  数：       无
 119:.\struct.c    ****  * @返  回：       无
 120:.\struct.c    ****  **********************************************************/
 121:.\struct.c    **** void Door_Judge(void)
 122:.\struct.c    **** {
 416              		.loc 1 122 0
 417              		.cfi_startproc
 418 0000 80B5     		push	{r7, lr}
 419              		.cfi_def_cfa_offset 8
 420              		.cfi_offset 7, -8
 421              		.cfi_offset 14, -4
 422 0002 00AF     		add	r7, sp, #0
 423              		.cfi_def_cfa_register 7
 123:.\struct.c    ****     state.Prior_Door_Sensor_Signal = state.Door_Sensor_Signal;
 424              		.loc 1 123 0
 425 0004 4E4B     		ldr	r3, .L28
 426 0006 1B78     		ldrb	r3, [r3]
 427 0008 9B06     		lsl	r3, r3, #26
 428 000a DB0F     		lsr	r3, r3, #31
 429 000c DAB2     		uxtb	r2, r3
 430 000e 4C4B     		ldr	r3, .L28
 431 0010 0121     		mov	r1, #1
 432 0012 0A40     		and	r2, r1
 433 0014 9001     		lsl	r0, r2, #6
 434 0016 1A78     		ldrb	r2, [r3]
 435 0018 4021     		mov	r1, #64
 436 001a 8A43     		bic	r2, r1
 437 001c 111C     		add	r1, r2, #0
 438 001e 021C     		add	r2, r0, #0
 439 0020 0A43     		orr	r2, r1
 440 0022 1A70     		strb	r2, [r3]
 124:.\struct.c    ****     state.Door_Sensor_Signal = door_sensor_Read();      //获取门磁传感器信号状态
 441              		.loc 1 124 0
 442 0024 FFF7FEFF 		bl	door_sensor_Read
ARM GAS  C:\Users\ADMINI~1\AppData\Local\Temp\ccFUZzWX.s 			page 11


 443 0028 031C     		mov	r3, r0
 444 002a 1A1C     		add	r2, r3, #0
 445 002c 0123     		mov	r3, #1
 446 002e 1340     		and	r3, r2
 447 0030 DAB2     		uxtb	r2, r3
 448 0032 434B     		ldr	r3, .L28
 449 0034 0121     		mov	r1, #1
 450 0036 0A40     		and	r2, r1
 451 0038 5001     		lsl	r0, r2, #5
 452 003a 1A78     		ldrb	r2, [r3]
 453 003c 2021     		mov	r1, #32
 454 003e 8A43     		bic	r2, r1
 455 0040 111C     		add	r1, r2, #0
 456 0042 021C     		add	r2, r0, #0
 457 0044 0A43     		orr	r2, r1
 458 0046 1A70     		strb	r2, [r3]
 125:.\struct.c    ****     if(state.Door_Sensor_Signal == HALL_CLOSE)          //门磁关
 459              		.loc 1 125 0
 460 0048 3D4B     		ldr	r3, .L28
 461 004a 1B78     		ldrb	r3, [r3]
 462 004c 2022     		mov	r2, #32
 463 004e 1340     		and	r3, r2
 464 0050 DBB2     		uxtb	r3, r3
 465 0052 002B     		cmp	r3, #0
 466 0054 37D1     		bne	.L21
 126:.\struct.c    ****     {
 127:.\struct.c    ****         if(state.Extend_Sensor_Signal == HALL_CLOSE)    //锁舌伸出
 467              		.loc 1 127 0
 468 0056 3A4B     		ldr	r3, .L28
 469 0058 1B78     		ldrb	r3, [r3]
 470 005a 1022     		mov	r2, #16
 471 005c 1340     		and	r3, r2
 472 005e DBB2     		uxtb	r3, r3
 473 0060 002B     		cmp	r3, #0
 474 0062 05D1     		bne	.L22
 128:.\struct.c    ****         {
 129:.\struct.c    ****             Flag.Close_Door_Flag = 0;
 475              		.loc 1 129 0
 476 0064 374B     		ldr	r3, .L28+4
 477 0066 1A78     		ldrb	r2, [r3]
 478 0068 0421     		mov	r1, #4
 479 006a 8A43     		bic	r2, r1
 480 006c 1A70     		strb	r2, [r3]
 481 006e 64E0     		b	.L20
 482              	.L22:
 130:.\struct.c    ****         }
 131:.\struct.c    ****         else
 132:.\struct.c    ****         {
 133:.\struct.c    ****             if(Flag.Close_Door_Flag)
 483              		.loc 1 133 0
 484 0070 344B     		ldr	r3, .L28+4
 485 0072 1B78     		ldrb	r3, [r3]
 486 0074 0422     		mov	r2, #4
 487 0076 1340     		and	r3, r2
 488 0078 DBB2     		uxtb	r3, r3
 489 007a 002B     		cmp	r3, #0
 490 007c 02D0     		beq	.L24
ARM GAS  C:\Users\ADMINI~1\AppData\Local\Temp\ccFUZzWX.s 			page 12


 134:.\struct.c    ****             {
 135:.\struct.c    ****                 Lock_Tongue_Dispose();              //锁舌处理
 491              		.loc 1 135 0
 492 007e FFF7FEFF 		bl	Lock_Tongue_Dispose
 493 0082 5AE0     		b	.L20
 494              	.L24:
 136:.\struct.c    ****             }
 137:.\struct.c    ****             else
 138:.\struct.c    ****             { 
 139:.\struct.c    ****                 if(state.Prior_Door_Sensor_Signal == HALL_OPEN) //之前门磁状态为开
 495              		.loc 1 139 0
 496 0084 2E4B     		ldr	r3, .L28
 497 0086 1B78     		ldrb	r3, [r3]
 498 0088 4022     		mov	r2, #64
 499 008a 1340     		and	r3, r2
 500 008c DBB2     		uxtb	r3, r3
 501 008e 002B     		cmp	r3, #0
 502 0090 05D0     		beq	.L25
 140:.\struct.c    ****                 {
 141:.\struct.c    ****                     Flag.Close_Door_Flag = 1;                   //关门标志置1
 503              		.loc 1 141 0
 504 0092 2C4B     		ldr	r3, .L28+4
 505 0094 1A78     		ldrb	r2, [r3]
 506 0096 0421     		mov	r1, #4
 507 0098 0A43     		orr	r2, r1
 508 009a 1A70     		strb	r2, [r3]
 509 009c 4DE0     		b	.L20
 510              	.L25:
 142:.\struct.c    ****                 }
 143:.\struct.c    ****                 else                                            //之前门磁状态为关
 144:.\struct.c    ****                 {
 145:.\struct.c    ****                     Delay_Time.Timeout_Count++;
 511              		.loc 1 145 0
 512 009e 2A4B     		ldr	r3, .L28+8
 513 00a0 5B88     		ldrh	r3, [r3, #2]
 514 00a2 0133     		add	r3, r3, #1
 515 00a4 9AB2     		uxth	r2, r3
 516 00a6 284B     		ldr	r3, .L28+8
 517 00a8 5A80     		strh	r2, [r3, #2]
 146:.\struct.c    ****                     if(Delay_Time.Timeout_Count > DELAY_10S)
 518              		.loc 1 146 0
 519 00aa 274B     		ldr	r3, .L28+8
 520 00ac 5B88     		ldrh	r3, [r3, #2]
 521 00ae 274A     		ldr	r2, .L28+12
 522 00b0 9342     		cmp	r3, r2
 523 00b2 42D9     		bls	.L20
 147:.\struct.c    ****                     {
 148:.\struct.c    ****                         Delay_Time.Timeout_Count = 0;           //超时计数器清0
 524              		.loc 1 148 0
 525 00b4 244B     		ldr	r3, .L28+8
 526 00b6 0022     		mov	r2, #0
 527 00b8 5A80     		strh	r2, [r3, #2]
 149:.\struct.c    ****                         Flag.Close_Door_Flag = 1;               //关门标志置1
 528              		.loc 1 149 0
 529 00ba 224B     		ldr	r3, .L28+4
 530 00bc 1A78     		ldrb	r2, [r3]
 531 00be 0421     		mov	r1, #4
ARM GAS  C:\Users\ADMINI~1\AppData\Local\Temp\ccFUZzWX.s 			page 13


 532 00c0 0A43     		orr	r2, r1
 533 00c2 1A70     		strb	r2, [r3]
 534 00c4 39E0     		b	.L20
 535              	.L21:
 150:.\struct.c    ****                     }
 151:.\struct.c    ****                 }
 152:.\struct.c    ****             }
 153:.\struct.c    ****         }
 154:.\struct.c    ****     }
 155:.\struct.c    ****     else                                                        //门磁开
 156:.\struct.c    ****     {
 157:.\struct.c    ****         if(state.Prior_Door_Sensor_Signal == HALL_CLOSE)
 536              		.loc 1 157 0
 537 00c6 1E4B     		ldr	r3, .L28
 538 00c8 1B78     		ldrb	r3, [r3]
 539 00ca 4022     		mov	r2, #64
 540 00cc 1340     		and	r3, r2
 541 00ce DBB2     		uxtb	r3, r3
 542 00d0 002B     		cmp	r3, #0
 543 00d2 08D1     		bne	.L27
 158:.\struct.c    ****         {
 159:.\struct.c    ****             Delay_Time.Timeout_Count = 0; 
 544              		.loc 1 159 0
 545 00d4 1C4B     		ldr	r3, .L28+8
 546 00d6 0022     		mov	r2, #0
 547 00d8 5A80     		strh	r2, [r3, #2]
 160:.\struct.c    ****             Flag.Open_Door_Upload = 1;
 548              		.loc 1 160 0
 549 00da 1A4B     		ldr	r3, .L28+4
 550 00dc 5A78     		ldrb	r2, [r3, #1]
 551 00de 4021     		mov	r1, #64
 552 00e0 0A43     		orr	r2, r1
 553 00e2 5A70     		strb	r2, [r3, #1]
 554 00e4 29E0     		b	.L20
 555              	.L27:
 161:.\struct.c    ****         }
 162:.\struct.c    ****         else
 163:.\struct.c    ****         {
 164:.\struct.c    ****             if(state.Extend_Sensor_Signal == HALL_CLOSE)        //锁舌伸出
 556              		.loc 1 164 0
 557 00e6 164B     		ldr	r3, .L28
 558 00e8 1B78     		ldrb	r3, [r3]
 559 00ea 1022     		mov	r2, #16
 560 00ec 1340     		and	r3, r2
 561 00ee DBB2     		uxtb	r3, r3
 562 00f0 002B     		cmp	r3, #0
 563 00f2 22D1     		bne	.L20
 165:.\struct.c    ****             {
 166:.\struct.c    ****                 Delay_Time.Timeout_Count++;
 564              		.loc 1 166 0
 565 00f4 144B     		ldr	r3, .L28+8
 566 00f6 5B88     		ldrh	r3, [r3, #2]
 567 00f8 0133     		add	r3, r3, #1
 568 00fa 9AB2     		uxth	r2, r3
 569 00fc 124B     		ldr	r3, .L28+8
 570 00fe 5A80     		strh	r2, [r3, #2]
 167:.\struct.c    ****                 if(Delay_Time.Timeout_Count > DELAY_5S)
ARM GAS  C:\Users\ADMINI~1\AppData\Local\Temp\ccFUZzWX.s 			page 14


 571              		.loc 1 167 0
 572 0100 114B     		ldr	r3, .L28+8
 573 0102 5B88     		ldrh	r3, [r3, #2]
 574 0104 124A     		ldr	r2, .L28+16
 575 0106 9342     		cmp	r3, r2
 576 0108 17D9     		bls	.L20
 168:.\struct.c    ****                 {
 169:.\struct.c    ****                     Delay_Time.Timeout_Count = 0;
 577              		.loc 1 169 0
 578 010a 0F4B     		ldr	r3, .L28+8
 579 010c 0022     		mov	r2, #0
 580 010e 5A80     		strh	r2, [r3, #2]
 170:.\struct.c    ****                     Flag.Unlock_Flag = 1;
 581              		.loc 1 170 0
 582 0110 0C4B     		ldr	r3, .L28+4
 583 0112 1A78     		ldrb	r2, [r3]
 584 0114 0221     		mov	r1, #2
 585 0116 0A43     		orr	r2, r1
 586 0118 1A70     		strb	r2, [r3]
 171:.\struct.c    ****                     Flag.Motor_Work_Step = MOTOR_FORWARD;
 587              		.loc 1 171 0
 588 011a 0A4B     		ldr	r3, .L28+4
 589 011c 1A78     		ldrb	r2, [r3]
 590 011e 6021     		mov	r1, #96
 591 0120 8A43     		bic	r2, r1
 592 0122 111C     		add	r1, r2, #0
 593 0124 2022     		mov	r2, #32
 594 0126 0A43     		orr	r2, r1
 595 0128 1A70     		strb	r2, [r3]
 172:.\struct.c    ****                     Flag.Alarm_Work_Step = EVENT_4;
 596              		.loc 1 172 0
 597 012a 064B     		ldr	r3, .L28+4
 598 012c 5A78     		ldrb	r2, [r3, #1]
 599 012e 1C21     		mov	r1, #28
 600 0130 8A43     		bic	r2, r1
 601 0132 111C     		add	r1, r2, #0
 602 0134 1022     		mov	r2, #16
 603 0136 0A43     		orr	r2, r1
 604 0138 5A70     		strb	r2, [r3, #1]
 605              	.L20:
 173:.\struct.c    ****                 }
 174:.\struct.c    ****             }
 175:.\struct.c    ****         }
 176:.\struct.c    ****     }
 177:.\struct.c    **** }
 606              		.loc 1 177 0
 607 013a BD46     		mov	sp, r7
 608              		@ sp needed
 609 013c 80BD     		pop	{r7, pc}
 610              	.L29:
 611 013e C046     		.align	2
 612              	.L28:
 613 0140 00000000 		.word	state
 614 0144 00000000 		.word	Flag
 615 0148 00000000 		.word	Delay_Time
 616 014c 10270000 		.word	10000
 617 0150 88130000 		.word	5000
ARM GAS  C:\Users\ADMINI~1\AppData\Local\Temp\ccFUZzWX.s 			page 15


 618              		.cfi_endproc
 619              	.LFE40:
 620              		.size	Door_Judge, .-Door_Judge
 621              		.section	.text.Lock_Tongue_Dispose,"ax",%progbits
 622              		.align	2
 623              		.global	Lock_Tongue_Dispose
 624              		.code	16
 625              		.thumb_func
 626              		.type	Lock_Tongue_Dispose, %function
 627              	Lock_Tongue_Dispose:
 628              	.LFB41:
 178:.\struct.c    **** 
 179:.\struct.c    **** 
 180:.\struct.c    **** /***********************************************************
 181:.\struct.c    ****  * @function_name: void Door_Judge(void)
 182:.\struct.c    ****  * @function_file: struct.c
 183:.\struct.c    ****  * @描  述：       锁舌处理函数，关门时尝试打开锁舌
 184:.\struct.c    ****  * @参  数：       无
 185:.\struct.c    ****  * @返  回：       无
 186:.\struct.c    ****  **********************************************************/
 187:.\struct.c    **** void Lock_Tongue_Dispose(void)
 188:.\struct.c    **** {
 629              		.loc 1 188 0
 630              		.cfi_startproc
 631 0000 80B5     		push	{r7, lr}
 632              		.cfi_def_cfa_offset 8
 633              		.cfi_offset 7, -8
 634              		.cfi_offset 14, -4
 635 0002 00AF     		add	r7, sp, #0
 636              		.cfi_def_cfa_register 7
 189:.\struct.c    ****     switch(Flag.ReLock_Work_Step)
 637              		.loc 1 189 0
 638 0004 4C4B     		ldr	r3, .L40
 639 0006 1B78     		ldrb	r3, [r3]
 640 0008 DB06     		lsl	r3, r3, #27
 641 000a 9B0F     		lsr	r3, r3, #30
 642 000c DBB2     		uxtb	r3, r3
 643 000e 012B     		cmp	r3, #1
 644 0010 33D0     		beq	.L32
 645 0012 022B     		cmp	r3, #2
 646 0014 00D1     		bne	.LCB545
 647 0016 71E0     		b	.L33	@long jump
 648              	.LCB545:
 649 0018 002B     		cmp	r3, #0
 650 001a 00D0     		beq	.L34
 190:.\struct.c    ****     {
 191:.\struct.c    ****         case STEP1:
 192:.\struct.c    ****             Delay_Time.Timeout_Count ++;
 193:.\struct.c    ****             if(Delay_Time.Timeout_Count > EXTEND_DELAY)
 194:.\struct.c    ****             {
 195:.\struct.c    ****                 Delay_Time.Timeout_Count = 0;
 196:.\struct.c    ****                 Flag.Motor_Work_Step = MOTOR_REVERSAL;      //伸出锁舌
 197:.\struct.c    ****                 Flag.Lock_Flag = 1;
 198:.\struct.c    ****                 Flag.Alarm_Work_Step = EVENT_1;
 199:.\struct.c    ****                 Flag.ReLock_Work_Step = STEP2;
 200:.\struct.c    ****             }
 201:.\struct.c    ****             break;
ARM GAS  C:\Users\ADMINI~1\AppData\Local\Temp\ccFUZzWX.s 			page 16


 202:.\struct.c    ****         
 203:.\struct.c    ****         case STEP2:
 204:.\struct.c    ****             Delay_Time.Timeout_Count ++;
 205:.\struct.c    ****             if(Delay_Time.Timeout_Count > DELAY_1S)
 206:.\struct.c    ****             {
 207:.\struct.c    ****                 Delay_Time.Timeout_Count = 0;
 208:.\struct.c    ****                 Flag.Alarm_Work_Step = EVENT_3;
 209:.\struct.c    ****                 Flag.Motor_Work_Step = MOTOR_FORWARD;
 210:.\struct.c    ****                 Flag.Unlock_Flag = 1;
 211:.\struct.c    ****                 Flag.ReLock_Work_Step = STEP3;
 212:.\struct.c    ****                 Delay_Time.Fail_Count ++;   //开锁失败次数
 213:.\struct.c    ****                 if(Delay_Time.Fail_Count >= 3)
 214:.\struct.c    ****                 {
 215:.\struct.c    ****                     Delay_Time.Fail_Count = 0;
 216:.\struct.c    ****                     Flag.Lock_Exception_Upload = 1;
 217:.\struct.c    ****                 }
 218:.\struct.c    ****             }
 219:.\struct.c    ****             break;
 220:.\struct.c    ****         
 221:.\struct.c    ****         case STEP3:
 222:.\struct.c    ****             if(Flag.Unlock_Flag == 0)
 223:.\struct.c    ****             {
 224:.\struct.c    ****                 Delay_Time.Timeout_Count ++;
 225:.\struct.c    ****                 if(Delay_Time.Timeout_Count >= DELAY_2S)
 226:.\struct.c    ****                 {
 227:.\struct.c    ****                     Delay_Time.Timeout_Count = 0;
 228:.\struct.c    ****                     Flag.ReLock_Work_Step = STEP1;
 229:.\struct.c    ****                 }
 230:.\struct.c    ****             }
 231:.\struct.c    ****             break;
 232:.\struct.c    ****         
 233:.\struct.c    ****         default:
 234:.\struct.c    ****             break;
 651              		.loc 1 234 0
 652 001c 8AE0     		b	.L30
 653              	.L34:
 192:.\struct.c    ****             if(Delay_Time.Timeout_Count > EXTEND_DELAY)
 654              		.loc 1 192 0
 655 001e 474B     		ldr	r3, .L40+4
 656 0020 5B88     		ldrh	r3, [r3, #2]
 657 0022 0133     		add	r3, r3, #1
 658 0024 9AB2     		uxth	r2, r3
 659 0026 454B     		ldr	r3, .L40+4
 660 0028 5A80     		strh	r2, [r3, #2]
 193:.\struct.c    ****             {
 661              		.loc 1 193 0
 662 002a 444B     		ldr	r3, .L40+4
 663 002c 5A88     		ldrh	r2, [r3, #2]
 664 002e FA23     		mov	r3, #250
 665 0030 9B00     		lsl	r3, r3, #2
 666 0032 9A42     		cmp	r2, r3
 667 0034 20D9     		bls	.L35
 195:.\struct.c    ****                 Flag.Motor_Work_Step = MOTOR_REVERSAL;      //伸出锁舌
 668              		.loc 1 195 0
 669 0036 414B     		ldr	r3, .L40+4
 670 0038 0022     		mov	r2, #0
 671 003a 5A80     		strh	r2, [r3, #2]
ARM GAS  C:\Users\ADMINI~1\AppData\Local\Temp\ccFUZzWX.s 			page 17


 196:.\struct.c    ****                 Flag.Lock_Flag = 1;
 672              		.loc 1 196 0
 673 003c 3E4B     		ldr	r3, .L40
 674 003e 1A78     		ldrb	r2, [r3]
 675 0040 6021     		mov	r1, #96
 676 0042 8A43     		bic	r2, r1
 677 0044 111C     		add	r1, r2, #0
 678 0046 4022     		mov	r2, #64
 679 0048 0A43     		orr	r2, r1
 680 004a 1A70     		strb	r2, [r3]
 197:.\struct.c    ****                 Flag.Alarm_Work_Step = EVENT_1;
 681              		.loc 1 197 0
 682 004c 3A4B     		ldr	r3, .L40
 683 004e 1A78     		ldrb	r2, [r3]
 684 0050 0121     		mov	r1, #1
 685 0052 0A43     		orr	r2, r1
 686 0054 1A70     		strb	r2, [r3]
 198:.\struct.c    ****                 Flag.ReLock_Work_Step = STEP2;
 687              		.loc 1 198 0
 688 0056 384B     		ldr	r3, .L40
 689 0058 5A78     		ldrb	r2, [r3, #1]
 690 005a 1C21     		mov	r1, #28
 691 005c 8A43     		bic	r2, r1
 692 005e 111C     		add	r1, r2, #0
 693 0060 0422     		mov	r2, #4
 694 0062 0A43     		orr	r2, r1
 695 0064 5A70     		strb	r2, [r3, #1]
 199:.\struct.c    ****             }
 696              		.loc 1 199 0
 697 0066 344B     		ldr	r3, .L40
 698 0068 1A78     		ldrb	r2, [r3]
 699 006a 1821     		mov	r1, #24
 700 006c 8A43     		bic	r2, r1
 701 006e 111C     		add	r1, r2, #0
 702 0070 0822     		mov	r2, #8
 703 0072 0A43     		orr	r2, r1
 704 0074 1A70     		strb	r2, [r3]
 201:.\struct.c    ****         
 705              		.loc 1 201 0
 706 0076 5DE0     		b	.L30
 707              	.L35:
 708 0078 5CE0     		b	.L30
 709              	.L32:
 204:.\struct.c    ****             if(Delay_Time.Timeout_Count > DELAY_1S)
 710              		.loc 1 204 0
 711 007a 304B     		ldr	r3, .L40+4
 712 007c 5B88     		ldrh	r3, [r3, #2]
 713 007e 0133     		add	r3, r3, #1
 714 0080 9AB2     		uxth	r2, r3
 715 0082 2E4B     		ldr	r3, .L40+4
 716 0084 5A80     		strh	r2, [r3, #2]
 205:.\struct.c    ****             {
 717              		.loc 1 205 0
 718 0086 2D4B     		ldr	r3, .L40+4
 719 0088 5A88     		ldrh	r2, [r3, #2]
 720 008a FA23     		mov	r3, #250
 721 008c 9B00     		lsl	r3, r3, #2
ARM GAS  C:\Users\ADMINI~1\AppData\Local\Temp\ccFUZzWX.s 			page 18


 722 008e 9A42     		cmp	r2, r3
 723 0090 33D9     		bls	.L37
 207:.\struct.c    ****                 Flag.Alarm_Work_Step = EVENT_3;
 724              		.loc 1 207 0
 725 0092 2A4B     		ldr	r3, .L40+4
 726 0094 0022     		mov	r2, #0
 727 0096 5A80     		strh	r2, [r3, #2]
 208:.\struct.c    ****                 Flag.Motor_Work_Step = MOTOR_FORWARD;
 728              		.loc 1 208 0
 729 0098 274B     		ldr	r3, .L40
 730 009a 5A78     		ldrb	r2, [r3, #1]
 731 009c 1C21     		mov	r1, #28
 732 009e 8A43     		bic	r2, r1
 733 00a0 111C     		add	r1, r2, #0
 734 00a2 0C22     		mov	r2, #12
 735 00a4 0A43     		orr	r2, r1
 736 00a6 5A70     		strb	r2, [r3, #1]
 209:.\struct.c    ****                 Flag.Unlock_Flag = 1;
 737              		.loc 1 209 0
 738 00a8 234B     		ldr	r3, .L40
 739 00aa 1A78     		ldrb	r2, [r3]
 740 00ac 6021     		mov	r1, #96
 741 00ae 8A43     		bic	r2, r1
 742 00b0 111C     		add	r1, r2, #0
 743 00b2 2022     		mov	r2, #32
 744 00b4 0A43     		orr	r2, r1
 745 00b6 1A70     		strb	r2, [r3]
 210:.\struct.c    ****                 Flag.ReLock_Work_Step = STEP3;
 746              		.loc 1 210 0
 747 00b8 1F4B     		ldr	r3, .L40
 748 00ba 1A78     		ldrb	r2, [r3]
 749 00bc 0221     		mov	r1, #2
 750 00be 0A43     		orr	r2, r1
 751 00c0 1A70     		strb	r2, [r3]
 211:.\struct.c    ****                 Delay_Time.Fail_Count ++;   //开锁失败次数
 752              		.loc 1 211 0
 753 00c2 1D4B     		ldr	r3, .L40
 754 00c4 1A78     		ldrb	r2, [r3]
 755 00c6 1821     		mov	r1, #24
 756 00c8 8A43     		bic	r2, r1
 757 00ca 111C     		add	r1, r2, #0
 758 00cc 1022     		mov	r2, #16
 759 00ce 0A43     		orr	r2, r1
 760 00d0 1A70     		strb	r2, [r3]
 212:.\struct.c    ****                 if(Delay_Time.Fail_Count >= 3)
 761              		.loc 1 212 0
 762 00d2 1A4B     		ldr	r3, .L40+4
 763 00d4 9B7D     		ldrb	r3, [r3, #22]
 764 00d6 0133     		add	r3, r3, #1
 765 00d8 DAB2     		uxtb	r2, r3
 766 00da 184B     		ldr	r3, .L40+4
 767 00dc 9A75     		strb	r2, [r3, #22]
 213:.\struct.c    ****                 {
 768              		.loc 1 213 0
 769 00de 174B     		ldr	r3, .L40+4
 770 00e0 9B7D     		ldrb	r3, [r3, #22]
 771 00e2 022B     		cmp	r3, #2
ARM GAS  C:\Users\ADMINI~1\AppData\Local\Temp\ccFUZzWX.s 			page 19


 772 00e4 09D9     		bls	.L37
 215:.\struct.c    ****                     Flag.Lock_Exception_Upload = 1;
 773              		.loc 1 215 0
 774 00e6 154B     		ldr	r3, .L40+4
 775 00e8 0022     		mov	r2, #0
 776 00ea 9A75     		strb	r2, [r3, #22]
 216:.\struct.c    ****                 }
 777              		.loc 1 216 0
 778 00ec 124B     		ldr	r3, .L40
 779 00ee 5A78     		ldrb	r2, [r3, #1]
 780 00f0 8021     		mov	r1, #128
 781 00f2 4942     		neg	r1, r1
 782 00f4 0A43     		orr	r2, r1
 783 00f6 5A70     		strb	r2, [r3, #1]
 219:.\struct.c    ****         
 784              		.loc 1 219 0
 785 00f8 1CE0     		b	.L30
 786              	.L37:
 787 00fa 1BE0     		b	.L30
 788              	.L33:
 222:.\struct.c    ****             {
 789              		.loc 1 222 0
 790 00fc 0E4B     		ldr	r3, .L40
 791 00fe 1B78     		ldrb	r3, [r3]
 792 0100 0222     		mov	r2, #2
 793 0102 1340     		and	r3, r2
 794 0104 DBB2     		uxtb	r3, r3
 795 0106 002B     		cmp	r3, #0
 796 0108 13D1     		bne	.L38
 224:.\struct.c    ****                 if(Delay_Time.Timeout_Count >= DELAY_2S)
 797              		.loc 1 224 0
 798 010a 0C4B     		ldr	r3, .L40+4
 799 010c 5B88     		ldrh	r3, [r3, #2]
 800 010e 0133     		add	r3, r3, #1
 801 0110 9AB2     		uxth	r2, r3
 802 0112 0A4B     		ldr	r3, .L40+4
 803 0114 5A80     		strh	r2, [r3, #2]
 225:.\struct.c    ****                 {
 804              		.loc 1 225 0
 805 0116 094B     		ldr	r3, .L40+4
 806 0118 5B88     		ldrh	r3, [r3, #2]
 807 011a 094A     		ldr	r2, .L40+8
 808 011c 9342     		cmp	r3, r2
 809 011e 08D9     		bls	.L38
 227:.\struct.c    ****                     Flag.ReLock_Work_Step = STEP1;
 810              		.loc 1 227 0
 811 0120 064B     		ldr	r3, .L40+4
 812 0122 0022     		mov	r2, #0
 813 0124 5A80     		strh	r2, [r3, #2]
 228:.\struct.c    ****                 }
 814              		.loc 1 228 0
 815 0126 044B     		ldr	r3, .L40
 816 0128 1A78     		ldrb	r2, [r3]
 817 012a 1821     		mov	r1, #24
 818 012c 8A43     		bic	r2, r1
 819 012e 1A70     		strb	r2, [r3]
 231:.\struct.c    ****         
ARM GAS  C:\Users\ADMINI~1\AppData\Local\Temp\ccFUZzWX.s 			page 20


 820              		.loc 1 231 0
 821 0130 FFE7     		b	.L39
 822              	.L38:
 823              	.L39:
 824 0132 C046     		mov	r8, r8
 825              	.L30:
 235:.\struct.c    ****     
 236:.\struct.c    ****     }
 237:.\struct.c    **** }
 826              		.loc 1 237 0
 827 0134 BD46     		mov	sp, r7
 828              		@ sp needed
 829 0136 80BD     		pop	{r7, pc}
 830              	.L41:
 831              		.align	2
 832              	.L40:
 833 0138 00000000 		.word	Flag
 834 013c 00000000 		.word	Delay_Time
 835 0140 CF070000 		.word	1999
 836              		.cfi_endproc
 837              	.LFE41:
 838              		.size	Lock_Tongue_Dispose, .-Lock_Tongue_Dispose
 839              		.section	.text.Motor_Work,"ax",%progbits
 840              		.align	2
 841              		.global	Motor_Work
 842              		.code	16
 843              		.thumb_func
 844              		.type	Motor_Work, %function
 845              	Motor_Work:
 846              	.LFB42:
 238:.\struct.c    **** 
 239:.\struct.c    **** /***********************************************************
 240:.\struct.c    ****  * @function_name: void Door_Judge(void)
 241:.\struct.c    ****  * @function_file: struct.c
 242:.\struct.c    ****  * @描  述：       门磁判断，以及对应的处理
 243:.\struct.c    ****  * @参  数：       无
 244:.\struct.c    ****  * @返  回：       无
 245:.\struct.c    ****  **********************************************************/
 246:.\struct.c    **** void Motor_Work(void)
 247:.\struct.c    **** {
 847              		.loc 1 247 0
 848              		.cfi_startproc
 849 0000 80B5     		push	{r7, lr}
 850              		.cfi_def_cfa_offset 8
 851              		.cfi_offset 7, -8
 852              		.cfi_offset 14, -4
 853 0002 00AF     		add	r7, sp, #0
 854              		.cfi_def_cfa_register 7
 248:.\struct.c    ****     
 249:.\struct.c    ****     switch (Flag.Motor_Work_Step)
 855              		.loc 1 249 0
 856 0004 C64B     		ldr	r3, .L76
 857 0006 1B78     		ldrb	r3, [r3]
 858 0008 5B06     		lsl	r3, r3, #25
 859 000a 9B0F     		lsr	r3, r3, #30
 860 000c DBB2     		uxtb	r3, r3
 861 000e 012B     		cmp	r3, #1
ARM GAS  C:\Users\ADMINI~1\AppData\Local\Temp\ccFUZzWX.s 			page 21


 862 0010 00D1     		bne	.LCB742
 863 0012 B8E0     		b	.L44	@long jump
 864              	.LCB742:
 865 0014 022B     		cmp	r3, #2
 866 0016 00D0     		beq	.LCB744
 867 0018 6BE1     		b	.L73	@long jump
 868              	.LCB744:
 250:.\struct.c    ****     {        
 251:.\struct.c    ****         case MOTOR_REVERSAL:     //正转
 252:.\struct.c    ****             switch(Flag.Motro_Order_Step)
 869              		.loc 1 252 0
 870 001a C14B     		ldr	r3, .L76
 871 001c 1B88     		ldrh	r3, [r3]
 872 001e 9B05     		lsl	r3, r3, #22
 873 0020 5B0F     		lsr	r3, r3, #29
 874 0022 DBB2     		uxtb	r3, r3
 875 0024 052B     		cmp	r3, #5
 876 0026 00D9     		bls	.LCB751
 877 0028 ABE0     		b	.L74	@long jump
 878              	.LCB751:
 879 002a 9A00     		lsl	r2, r3, #2
 880 002c BD4B     		ldr	r3, .L76+4
 881 002e D318     		add	r3, r2, r3
 882 0030 1B68     		ldr	r3, [r3]
 883 0032 9F46     		mov	pc, r3
 884              		.section	.rodata
 885              		.align	2
 886              	.L48:
 887 0000 82010000 		.word	.L74
 888 0004 34000000 		.word	.L47
 889 0008 7C000000 		.word	.L49
 890 000c C4000000 		.word	.L50
 891 0010 0C010000 		.word	.L51
 892 0014 54010000 		.word	.L52
 893              		.section	.text.Motor_Work
 894              	.L47:
 253:.\struct.c    ****             {
 254:.\struct.c    ****                 case ORDER_1:
 255:.\struct.c    ****                     MOTOR_A_OPEN;
 895              		.loc 1 255 0
 896 0034 0120     		mov	r0, #1
 897 0036 FFF7FEFF 		bl	motor_A_Write
 256:.\struct.c    ****                     MOTOR_B_CLOSE;
 898              		.loc 1 256 0
 899 003a 0020     		mov	r0, #0
 900 003c FFF7FEFF 		bl	motor_B_Write
 257:.\struct.c    ****                     MOTOR_C_CLOSE;
 901              		.loc 1 257 0
 902 0040 0020     		mov	r0, #0
 903 0042 FFF7FEFF 		bl	motor_C_Write
 258:.\struct.c    ****                     MOTOR_D_OPEN;
 904              		.loc 1 258 0
 905 0046 0120     		mov	r0, #1
 906 0048 FFF7FEFF 		bl	motor_D_Write
 259:.\struct.c    ****                     Delay_Time.Motor_Delay ++;
 907              		.loc 1 259 0
 908 004c B64B     		ldr	r3, .L76+8
ARM GAS  C:\Users\ADMINI~1\AppData\Local\Temp\ccFUZzWX.s 			page 22


 909 004e DB88     		ldrh	r3, [r3, #6]
 910 0050 0133     		add	r3, r3, #1
 911 0052 9AB2     		uxth	r2, r3
 912 0054 B44B     		ldr	r3, .L76+8
 913 0056 DA80     		strh	r2, [r3, #6]
 260:.\struct.c    ****                     if(Delay_Time.Motor_Delay > MOTOR_DELAY_ONE)
 914              		.loc 1 260 0
 915 0058 B34B     		ldr	r3, .L76+8
 916 005a DB88     		ldrh	r3, [r3, #6]
 917 005c 052B     		cmp	r3, #5
 918 005e 0CD9     		bls	.L53
 261:.\struct.c    ****                     {
 262:.\struct.c    ****                         Delay_Time.Motor_Delay = 0;
 919              		.loc 1 262 0
 920 0060 B14B     		ldr	r3, .L76+8
 921 0062 0022     		mov	r2, #0
 922 0064 DA80     		strh	r2, [r3, #6]
 263:.\struct.c    ****                         Flag.Motro_Order_Step = ORDER_2;
 923              		.loc 1 263 0
 924 0066 AE4B     		ldr	r3, .L76
 925 0068 1A88     		ldrh	r2, [r3]
 926 006a B049     		ldr	r1, .L76+12
 927 006c 0A40     		and	r2, r1
 928 006e 111C     		add	r1, r2, #0
 929 0070 8022     		mov	r2, #128
 930 0072 5200     		lsl	r2, r2, #1
 931 0074 0A43     		orr	r2, r1
 932 0076 1A80     		strh	r2, [r3]
 264:.\struct.c    ****                     }
 265:.\struct.c    ****                     break;
 933              		.loc 1 265 0
 934 0078 84E0     		b	.L54
 935              	.L53:
 936 007a 83E0     		b	.L54
 937              	.L49:
 266:.\struct.c    ****                 
 267:.\struct.c    ****                 case ORDER_2:
 268:.\struct.c    ****                     MOTOR_A_CLOSE;
 938              		.loc 1 268 0
 939 007c 0020     		mov	r0, #0
 940 007e FFF7FEFF 		bl	motor_A_Write
 269:.\struct.c    ****                     MOTOR_B_CLOSE;
 941              		.loc 1 269 0
 942 0082 0020     		mov	r0, #0
 943 0084 FFF7FEFF 		bl	motor_B_Write
 270:.\struct.c    ****                     MOTOR_C_OPEN;
 944              		.loc 1 270 0
 945 0088 0120     		mov	r0, #1
 946 008a FFF7FEFF 		bl	motor_C_Write
 271:.\struct.c    ****                     MOTOR_D_OPEN;
 947              		.loc 1 271 0
 948 008e 0120     		mov	r0, #1
 949 0090 FFF7FEFF 		bl	motor_D_Write
 272:.\struct.c    ****                     Delay_Time.Motor_Delay ++;
 950              		.loc 1 272 0
 951 0094 A44B     		ldr	r3, .L76+8
 952 0096 DB88     		ldrh	r3, [r3, #6]
ARM GAS  C:\Users\ADMINI~1\AppData\Local\Temp\ccFUZzWX.s 			page 23


 953 0098 0133     		add	r3, r3, #1
 954 009a 9AB2     		uxth	r2, r3
 955 009c A24B     		ldr	r3, .L76+8
 956 009e DA80     		strh	r2, [r3, #6]
 273:.\struct.c    ****                     if(Delay_Time.Motor_Delay > MOTOR_DELAY_ONE)
 957              		.loc 1 273 0
 958 00a0 A14B     		ldr	r3, .L76+8
 959 00a2 DB88     		ldrh	r3, [r3, #6]
 960 00a4 052B     		cmp	r3, #5
 961 00a6 0CD9     		bls	.L55
 274:.\struct.c    ****                     {
 275:.\struct.c    ****                         Delay_Time.Motor_Delay = 0;
 962              		.loc 1 275 0
 963 00a8 9F4B     		ldr	r3, .L76+8
 964 00aa 0022     		mov	r2, #0
 965 00ac DA80     		strh	r2, [r3, #6]
 276:.\struct.c    ****                         Flag.Motro_Order_Step = ORDER_3;
 966              		.loc 1 276 0
 967 00ae 9C4B     		ldr	r3, .L76
 968 00b0 1A88     		ldrh	r2, [r3]
 969 00b2 9E49     		ldr	r1, .L76+12
 970 00b4 0A40     		and	r2, r1
 971 00b6 111C     		add	r1, r2, #0
 972 00b8 C022     		mov	r2, #192
 973 00ba 5200     		lsl	r2, r2, #1
 974 00bc 0A43     		orr	r2, r1
 975 00be 1A80     		strh	r2, [r3]
 277:.\struct.c    ****                     }
 278:.\struct.c    ****                     break;                
 976              		.loc 1 278 0
 977 00c0 60E0     		b	.L54
 978              	.L55:
 979              		.loc 1 278 0 is_stmt 0 discriminator 2
 980 00c2 5FE0     		b	.L54
 981              	.L50:
 279:.\struct.c    ****  
 280:.\struct.c    ****                 case ORDER_3:
 281:.\struct.c    ****                     MOTOR_A_CLOSE;
 982              		.loc 1 281 0 is_stmt 1
 983 00c4 0020     		mov	r0, #0
 984 00c6 FFF7FEFF 		bl	motor_A_Write
 282:.\struct.c    ****                     MOTOR_B_OPEN;
 985              		.loc 1 282 0
 986 00ca 0120     		mov	r0, #1
 987 00cc FFF7FEFF 		bl	motor_B_Write
 283:.\struct.c    ****                     MOTOR_C_OPEN;
 988              		.loc 1 283 0
 989 00d0 0120     		mov	r0, #1
 990 00d2 FFF7FEFF 		bl	motor_C_Write
 284:.\struct.c    ****                     MOTOR_D_CLOSE; 
 991              		.loc 1 284 0
 992 00d6 0020     		mov	r0, #0
 993 00d8 FFF7FEFF 		bl	motor_D_Write
 285:.\struct.c    ****                     Delay_Time.Motor_Delay ++;
 994              		.loc 1 285 0
 995 00dc 924B     		ldr	r3, .L76+8
 996 00de DB88     		ldrh	r3, [r3, #6]
ARM GAS  C:\Users\ADMINI~1\AppData\Local\Temp\ccFUZzWX.s 			page 24


 997 00e0 0133     		add	r3, r3, #1
 998 00e2 9AB2     		uxth	r2, r3
 999 00e4 904B     		ldr	r3, .L76+8
 1000 00e6 DA80     		strh	r2, [r3, #6]
 286:.\struct.c    ****                     if(Delay_Time.Motor_Delay > MOTOR_DELAY_ONE)
 1001              		.loc 1 286 0
 1002 00e8 8F4B     		ldr	r3, .L76+8
 1003 00ea DB88     		ldrh	r3, [r3, #6]
 1004 00ec 052B     		cmp	r3, #5
 1005 00ee 0CD9     		bls	.L56
 287:.\struct.c    ****                     {
 288:.\struct.c    ****                         Delay_Time.Motor_Delay = 0;
 1006              		.loc 1 288 0
 1007 00f0 8D4B     		ldr	r3, .L76+8
 1008 00f2 0022     		mov	r2, #0
 1009 00f4 DA80     		strh	r2, [r3, #6]
 289:.\struct.c    ****                         Flag.Motro_Order_Step = ORDER_4;
 1010              		.loc 1 289 0
 1011 00f6 8A4B     		ldr	r3, .L76
 1012 00f8 1A88     		ldrh	r2, [r3]
 1013 00fa 8C49     		ldr	r1, .L76+12
 1014 00fc 0A40     		and	r2, r1
 1015 00fe 111C     		add	r1, r2, #0
 1016 0100 8022     		mov	r2, #128
 1017 0102 9200     		lsl	r2, r2, #2
 1018 0104 0A43     		orr	r2, r1
 1019 0106 1A80     		strh	r2, [r3]
 290:.\struct.c    ****                     }
 291:.\struct.c    ****                     break;
 1020              		.loc 1 291 0
 1021 0108 3CE0     		b	.L54
 1022              	.L56:
 1023              		.loc 1 291 0 is_stmt 0 discriminator 3
 1024 010a 3BE0     		b	.L54
 1025              	.L51:
 292:.\struct.c    ****                 
 293:.\struct.c    ****                 case ORDER_4:
 294:.\struct.c    ****                     MOTOR_A_OPEN;
 1026              		.loc 1 294 0 is_stmt 1
 1027 010c 0120     		mov	r0, #1
 1028 010e FFF7FEFF 		bl	motor_A_Write
 295:.\struct.c    ****                     MOTOR_B_OPEN;
 1029              		.loc 1 295 0
 1030 0112 0120     		mov	r0, #1
 1031 0114 FFF7FEFF 		bl	motor_B_Write
 296:.\struct.c    ****                     MOTOR_C_CLOSE;
 1032              		.loc 1 296 0
 1033 0118 0020     		mov	r0, #0
 1034 011a FFF7FEFF 		bl	motor_C_Write
 297:.\struct.c    ****                     MOTOR_D_CLOSE;
 1035              		.loc 1 297 0
 1036 011e 0020     		mov	r0, #0
 1037 0120 FFF7FEFF 		bl	motor_D_Write
 298:.\struct.c    ****                     Delay_Time.Motor_Delay ++;
 1038              		.loc 1 298 0
 1039 0124 804B     		ldr	r3, .L76+8
 1040 0126 DB88     		ldrh	r3, [r3, #6]
ARM GAS  C:\Users\ADMINI~1\AppData\Local\Temp\ccFUZzWX.s 			page 25


 1041 0128 0133     		add	r3, r3, #1
 1042 012a 9AB2     		uxth	r2, r3
 1043 012c 7E4B     		ldr	r3, .L76+8
 1044 012e DA80     		strh	r2, [r3, #6]
 299:.\struct.c    ****                     if(Delay_Time.Motor_Delay > MOTOR_DELAY_ONE)
 1045              		.loc 1 299 0
 1046 0130 7D4B     		ldr	r3, .L76+8
 1047 0132 DB88     		ldrh	r3, [r3, #6]
 1048 0134 052B     		cmp	r3, #5
 1049 0136 0CD9     		bls	.L57
 300:.\struct.c    ****                     {
 301:.\struct.c    ****                         Delay_Time.Motor_Delay = 0;
 1050              		.loc 1 301 0
 1051 0138 7B4B     		ldr	r3, .L76+8
 1052 013a 0022     		mov	r2, #0
 1053 013c DA80     		strh	r2, [r3, #6]
 302:.\struct.c    ****                         Flag.Motro_Order_Step = ORDER_END;
 1054              		.loc 1 302 0
 1055 013e 784B     		ldr	r3, .L76
 1056 0140 1A88     		ldrh	r2, [r3]
 1057 0142 7A49     		ldr	r1, .L76+12
 1058 0144 0A40     		and	r2, r1
 1059 0146 111C     		add	r1, r2, #0
 1060 0148 A022     		mov	r2, #160
 1061 014a 9200     		lsl	r2, r2, #2
 1062 014c 0A43     		orr	r2, r1
 1063 014e 1A80     		strh	r2, [r3]
 303:.\struct.c    ****                     }
 304:.\struct.c    ****                     break;
 1064              		.loc 1 304 0
 1065 0150 18E0     		b	.L54
 1066              	.L57:
 1067              		.loc 1 304 0 is_stmt 0 discriminator 4
 1068 0152 17E0     		b	.L54
 1069              	.L52:
 305:.\struct.c    ****                 
 306:.\struct.c    ****                 case ORDER_END:
 307:.\struct.c    ****                     Delay_Time.Motor_Delay ++;
 1070              		.loc 1 307 0 is_stmt 1
 1071 0154 744B     		ldr	r3, .L76+8
 1072 0156 DB88     		ldrh	r3, [r3, #6]
 1073 0158 0133     		add	r3, r3, #1
 1074 015a 9AB2     		uxth	r2, r3
 1075 015c 724B     		ldr	r3, .L76+8
 1076 015e DA80     		strh	r2, [r3, #6]
 308:.\struct.c    ****                     if(Delay_Time.Motor_Delay >= MOTOR_DELAY_ALL)        //100MS
 1077              		.loc 1 308 0
 1078 0160 714B     		ldr	r3, .L76+8
 1079 0162 DB88     		ldrh	r3, [r3, #6]
 1080 0164 012B     		cmp	r3, #1
 1081 0166 0BD9     		bls	.L58
 309:.\struct.c    ****                     {
 310:.\struct.c    ****                         Delay_Time.Motor_Delay = 0;
 1082              		.loc 1 310 0
 1083 0168 6F4B     		ldr	r3, .L76+8
 1084 016a 0022     		mov	r2, #0
 1085 016c DA80     		strh	r2, [r3, #6]
ARM GAS  C:\Users\ADMINI~1\AppData\Local\Temp\ccFUZzWX.s 			page 26


 311:.\struct.c    ****                         Flag.Motro_Order_Step = ORDER_1;
 1086              		.loc 1 311 0
 1087 016e 6C4B     		ldr	r3, .L76
 1088 0170 1A88     		ldrh	r2, [r3]
 1089 0172 6E49     		ldr	r1, .L76+12
 1090 0174 0A40     		and	r2, r1
 1091 0176 111C     		add	r1, r2, #0
 1092 0178 8022     		mov	r2, #128
 1093 017a 0A43     		orr	r2, r1
 1094 017c 1A80     		strh	r2, [r3]
 312:.\struct.c    ****                     }
 313:.\struct.c    ****                     break;
 1095              		.loc 1 313 0
 1096 017e 01E0     		b	.L54
 1097              	.L58:
 1098              		.loc 1 313 0 is_stmt 0 discriminator 5
 1099 0180 00E0     		b	.L54
 1100              	.L74:
 314:.\struct.c    ****                 
 315:.\struct.c    ****                 default:
 316:.\struct.c    ****                     break;
 1101              		.loc 1 316 0 is_stmt 1
 1102 0182 C046     		mov	r8, r8
 1103              	.L54:
 317:.\struct.c    ****             }
 318:.\struct.c    ****             break;
 1104              		.loc 1 318 0 discriminator 1
 1105 0184 CAE0     		b	.L42
 1106              	.L44:
 319:.\struct.c    ****         
 320:.\struct.c    ****         case MOTOR_FORWARD:    //反转
 321:.\struct.c    ****             switch(Flag.Motro_Order_Step)
 1107              		.loc 1 321 0
 1108 0186 664B     		ldr	r3, .L76
 1109 0188 1B88     		ldrh	r3, [r3]
 1110 018a 9B05     		lsl	r3, r3, #22
 1111 018c 5B0F     		lsr	r3, r3, #29
 1112 018e DBB2     		uxtb	r3, r3
 1113 0190 052B     		cmp	r3, #5
 1114 0192 00D9     		bls	.LCB957
 1115 0194 ABE0     		b	.L75	@long jump
 1116              	.LCB957:
 1117 0196 9A00     		lsl	r2, r3, #2
 1118 0198 654B     		ldr	r3, .L76+16
 1119 019a D318     		add	r3, r2, r3
 1120 019c 1B68     		ldr	r3, [r3]
 1121 019e 9F46     		mov	pc, r3
 1122              		.section	.rodata
 1123              		.align	2
 1124              	.L62:
 1125 0018 EE020000 		.word	.L75
 1126 001c A0010000 		.word	.L61
 1127 0020 E8010000 		.word	.L63
 1128 0024 30020000 		.word	.L64
 1129 0028 78020000 		.word	.L65
 1130 002c C0020000 		.word	.L66
 1131              		.section	.text.Motor_Work
ARM GAS  C:\Users\ADMINI~1\AppData\Local\Temp\ccFUZzWX.s 			page 27


 1132              	.L61:
 322:.\struct.c    ****             {
 323:.\struct.c    ****                 case ORDER_1:
 324:.\struct.c    ****                     MOTOR_A_OPEN;
 1133              		.loc 1 324 0
 1134 01a0 0120     		mov	r0, #1
 1135 01a2 FFF7FEFF 		bl	motor_A_Write
 325:.\struct.c    ****                     MOTOR_B_OPEN;
 1136              		.loc 1 325 0
 1137 01a6 0120     		mov	r0, #1
 1138 01a8 FFF7FEFF 		bl	motor_B_Write
 326:.\struct.c    ****                     MOTOR_C_CLOSE;
 1139              		.loc 1 326 0
 1140 01ac 0020     		mov	r0, #0
 1141 01ae FFF7FEFF 		bl	motor_C_Write
 327:.\struct.c    ****                     MOTOR_D_CLOSE;
 1142              		.loc 1 327 0
 1143 01b2 0020     		mov	r0, #0
 1144 01b4 FFF7FEFF 		bl	motor_D_Write
 328:.\struct.c    ****                     Delay_Time.Motor_Delay ++;
 1145              		.loc 1 328 0
 1146 01b8 5B4B     		ldr	r3, .L76+8
 1147 01ba DB88     		ldrh	r3, [r3, #6]
 1148 01bc 0133     		add	r3, r3, #1
 1149 01be 9AB2     		uxth	r2, r3
 1150 01c0 594B     		ldr	r3, .L76+8
 1151 01c2 DA80     		strh	r2, [r3, #6]
 329:.\struct.c    ****                     if(Delay_Time.Motor_Delay > MOTOR_DELAY_ONE)
 1152              		.loc 1 329 0
 1153 01c4 584B     		ldr	r3, .L76+8
 1154 01c6 DB88     		ldrh	r3, [r3, #6]
 1155 01c8 052B     		cmp	r3, #5
 1156 01ca 0CD9     		bls	.L67
 330:.\struct.c    ****                     {
 331:.\struct.c    ****                         Delay_Time.Motor_Delay = 0;
 1157              		.loc 1 331 0
 1158 01cc 564B     		ldr	r3, .L76+8
 1159 01ce 0022     		mov	r2, #0
 1160 01d0 DA80     		strh	r2, [r3, #6]
 332:.\struct.c    ****                         Flag.Motro_Order_Step = ORDER_2;
 1161              		.loc 1 332 0
 1162 01d2 534B     		ldr	r3, .L76
 1163 01d4 1A88     		ldrh	r2, [r3]
 1164 01d6 5549     		ldr	r1, .L76+12
 1165 01d8 0A40     		and	r2, r1
 1166 01da 111C     		add	r1, r2, #0
 1167 01dc 8022     		mov	r2, #128
 1168 01de 5200     		lsl	r2, r2, #1
 1169 01e0 0A43     		orr	r2, r1
 1170 01e2 1A80     		strh	r2, [r3]
 333:.\struct.c    ****                     }
 334:.\struct.c    ****                     break;
 1171              		.loc 1 334 0
 1172 01e4 84E0     		b	.L68
 1173              	.L67:
 1174 01e6 83E0     		b	.L68
 1175              	.L63:
ARM GAS  C:\Users\ADMINI~1\AppData\Local\Temp\ccFUZzWX.s 			page 28


 335:.\struct.c    ****                 
 336:.\struct.c    ****                 case ORDER_2:
 337:.\struct.c    ****                     MOTOR_A_CLOSE;
 1176              		.loc 1 337 0
 1177 01e8 0020     		mov	r0, #0
 1178 01ea FFF7FEFF 		bl	motor_A_Write
 338:.\struct.c    ****                     MOTOR_B_OPEN;
 1179              		.loc 1 338 0
 1180 01ee 0120     		mov	r0, #1
 1181 01f0 FFF7FEFF 		bl	motor_B_Write
 339:.\struct.c    ****                     MOTOR_C_OPEN;
 1182              		.loc 1 339 0
 1183 01f4 0120     		mov	r0, #1
 1184 01f6 FFF7FEFF 		bl	motor_C_Write
 340:.\struct.c    ****                     MOTOR_D_CLOSE; 
 1185              		.loc 1 340 0
 1186 01fa 0020     		mov	r0, #0
 1187 01fc FFF7FEFF 		bl	motor_D_Write
 341:.\struct.c    ****                     Delay_Time.Motor_Delay ++;
 1188              		.loc 1 341 0
 1189 0200 494B     		ldr	r3, .L76+8
 1190 0202 DB88     		ldrh	r3, [r3, #6]
 1191 0204 0133     		add	r3, r3, #1
 1192 0206 9AB2     		uxth	r2, r3
 1193 0208 474B     		ldr	r3, .L76+8
 1194 020a DA80     		strh	r2, [r3, #6]
 342:.\struct.c    ****                     if(Delay_Time.Motor_Delay > MOTOR_DELAY_ONE)
 1195              		.loc 1 342 0
 1196 020c 464B     		ldr	r3, .L76+8
 1197 020e DB88     		ldrh	r3, [r3, #6]
 1198 0210 052B     		cmp	r3, #5
 1199 0212 0CD9     		bls	.L69
 343:.\struct.c    ****                     {
 344:.\struct.c    ****                         Delay_Time.Motor_Delay = 0;
 1200              		.loc 1 344 0
 1201 0214 444B     		ldr	r3, .L76+8
 1202 0216 0022     		mov	r2, #0
 1203 0218 DA80     		strh	r2, [r3, #6]
 345:.\struct.c    ****                         Flag.Motro_Order_Step = ORDER_3;
 1204              		.loc 1 345 0
 1205 021a 414B     		ldr	r3, .L76
 1206 021c 1A88     		ldrh	r2, [r3]
 1207 021e 4349     		ldr	r1, .L76+12
 1208 0220 0A40     		and	r2, r1
 1209 0222 111C     		add	r1, r2, #0
 1210 0224 C022     		mov	r2, #192
 1211 0226 5200     		lsl	r2, r2, #1
 1212 0228 0A43     		orr	r2, r1
 1213 022a 1A80     		strh	r2, [r3]
 346:.\struct.c    ****                     }          
 347:.\struct.c    ****                     break;                
 1214              		.loc 1 347 0
 1215 022c 60E0     		b	.L68
 1216              	.L69:
 1217              		.loc 1 347 0 is_stmt 0 discriminator 8
 1218 022e 5FE0     		b	.L68
 1219              	.L64:
ARM GAS  C:\Users\ADMINI~1\AppData\Local\Temp\ccFUZzWX.s 			page 29


 348:.\struct.c    ****  
 349:.\struct.c    ****                 case ORDER_3:
 350:.\struct.c    ****                     MOTOR_A_CLOSE;
 1220              		.loc 1 350 0 is_stmt 1
 1221 0230 0020     		mov	r0, #0
 1222 0232 FFF7FEFF 		bl	motor_A_Write
 351:.\struct.c    ****                     MOTOR_B_CLOSE;
 1223              		.loc 1 351 0
 1224 0236 0020     		mov	r0, #0
 1225 0238 FFF7FEFF 		bl	motor_B_Write
 352:.\struct.c    ****                     MOTOR_C_OPEN;
 1226              		.loc 1 352 0
 1227 023c 0120     		mov	r0, #1
 1228 023e FFF7FEFF 		bl	motor_C_Write
 353:.\struct.c    ****                     MOTOR_D_OPEN;
 1229              		.loc 1 353 0
 1230 0242 0120     		mov	r0, #1
 1231 0244 FFF7FEFF 		bl	motor_D_Write
 354:.\struct.c    ****                     Delay_Time.Motor_Delay ++;
 1232              		.loc 1 354 0
 1233 0248 374B     		ldr	r3, .L76+8
 1234 024a DB88     		ldrh	r3, [r3, #6]
 1235 024c 0133     		add	r3, r3, #1
 1236 024e 9AB2     		uxth	r2, r3
 1237 0250 354B     		ldr	r3, .L76+8
 1238 0252 DA80     		strh	r2, [r3, #6]
 355:.\struct.c    ****                     if(Delay_Time.Motor_Delay > MOTOR_DELAY_ONE)
 1239              		.loc 1 355 0
 1240 0254 344B     		ldr	r3, .L76+8
 1241 0256 DB88     		ldrh	r3, [r3, #6]
 1242 0258 052B     		cmp	r3, #5
 1243 025a 0CD9     		bls	.L70
 356:.\struct.c    ****                     {
 357:.\struct.c    ****                         Delay_Time.Motor_Delay = 0;
 1244              		.loc 1 357 0
 1245 025c 324B     		ldr	r3, .L76+8
 1246 025e 0022     		mov	r2, #0
 1247 0260 DA80     		strh	r2, [r3, #6]
 358:.\struct.c    ****                         Flag.Motro_Order_Step = ORDER_4;
 1248              		.loc 1 358 0
 1249 0262 2F4B     		ldr	r3, .L76
 1250 0264 1A88     		ldrh	r2, [r3]
 1251 0266 3149     		ldr	r1, .L76+12
 1252 0268 0A40     		and	r2, r1
 1253 026a 111C     		add	r1, r2, #0
 1254 026c 8022     		mov	r2, #128
 1255 026e 9200     		lsl	r2, r2, #2
 1256 0270 0A43     		orr	r2, r1
 1257 0272 1A80     		strh	r2, [r3]
 359:.\struct.c    ****                     }
 360:.\struct.c    ****                     break;
 1258              		.loc 1 360 0
 1259 0274 3CE0     		b	.L68
 1260              	.L70:
 1261              		.loc 1 360 0 is_stmt 0 discriminator 9
 1262 0276 3BE0     		b	.L68
 1263              	.L65:
ARM GAS  C:\Users\ADMINI~1\AppData\Local\Temp\ccFUZzWX.s 			page 30


 361:.\struct.c    ****                 
 362:.\struct.c    ****                 case ORDER_4:
 363:.\struct.c    ****                     MOTOR_A_OPEN;
 1264              		.loc 1 363 0 is_stmt 1
 1265 0278 0120     		mov	r0, #1
 1266 027a FFF7FEFF 		bl	motor_A_Write
 364:.\struct.c    ****                     MOTOR_B_CLOSE;
 1267              		.loc 1 364 0
 1268 027e 0020     		mov	r0, #0
 1269 0280 FFF7FEFF 		bl	motor_B_Write
 365:.\struct.c    ****                     MOTOR_C_CLOSE;
 1270              		.loc 1 365 0
 1271 0284 0020     		mov	r0, #0
 1272 0286 FFF7FEFF 		bl	motor_C_Write
 366:.\struct.c    ****                     MOTOR_D_OPEN;
 1273              		.loc 1 366 0
 1274 028a 0120     		mov	r0, #1
 1275 028c FFF7FEFF 		bl	motor_D_Write
 367:.\struct.c    ****                     Delay_Time.Motor_Delay ++;
 1276              		.loc 1 367 0
 1277 0290 254B     		ldr	r3, .L76+8
 1278 0292 DB88     		ldrh	r3, [r3, #6]
 1279 0294 0133     		add	r3, r3, #1
 1280 0296 9AB2     		uxth	r2, r3
 1281 0298 234B     		ldr	r3, .L76+8
 1282 029a DA80     		strh	r2, [r3, #6]
 368:.\struct.c    ****                     if(Delay_Time.Motor_Delay > MOTOR_DELAY_ONE)
 1283              		.loc 1 368 0
 1284 029c 224B     		ldr	r3, .L76+8
 1285 029e DB88     		ldrh	r3, [r3, #6]
 1286 02a0 052B     		cmp	r3, #5
 1287 02a2 0CD9     		bls	.L71
 369:.\struct.c    ****                     {
 370:.\struct.c    ****                         Delay_Time.Motor_Delay = 0;
 1288              		.loc 1 370 0
 1289 02a4 204B     		ldr	r3, .L76+8
 1290 02a6 0022     		mov	r2, #0
 1291 02a8 DA80     		strh	r2, [r3, #6]
 371:.\struct.c    ****                         Flag.Motro_Order_Step = ORDER_END;
 1292              		.loc 1 371 0
 1293 02aa 1D4B     		ldr	r3, .L76
 1294 02ac 1A88     		ldrh	r2, [r3]
 1295 02ae 1F49     		ldr	r1, .L76+12
 1296 02b0 0A40     		and	r2, r1
 1297 02b2 111C     		add	r1, r2, #0
 1298 02b4 A022     		mov	r2, #160
 1299 02b6 9200     		lsl	r2, r2, #2
 1300 02b8 0A43     		orr	r2, r1
 1301 02ba 1A80     		strh	r2, [r3]
 372:.\struct.c    ****                     }
 373:.\struct.c    ****                     break;
 1302              		.loc 1 373 0
 1303 02bc 18E0     		b	.L68
 1304              	.L71:
 1305              		.loc 1 373 0 is_stmt 0 discriminator 10
 1306 02be 17E0     		b	.L68
 1307              	.L66:
ARM GAS  C:\Users\ADMINI~1\AppData\Local\Temp\ccFUZzWX.s 			page 31


 374:.\struct.c    ****                 
 375:.\struct.c    ****                 case ORDER_END:
 376:.\struct.c    ****                     Delay_Time.Motor_Delay ++;
 1308              		.loc 1 376 0 is_stmt 1
 1309 02c0 194B     		ldr	r3, .L76+8
 1310 02c2 DB88     		ldrh	r3, [r3, #6]
 1311 02c4 0133     		add	r3, r3, #1
 1312 02c6 9AB2     		uxth	r2, r3
 1313 02c8 174B     		ldr	r3, .L76+8
 1314 02ca DA80     		strh	r2, [r3, #6]
 377:.\struct.c    ****                     if(Delay_Time.Motor_Delay >= MOTOR_DELAY_ALL)        //100MS
 1315              		.loc 1 377 0
 1316 02cc 164B     		ldr	r3, .L76+8
 1317 02ce DB88     		ldrh	r3, [r3, #6]
 1318 02d0 012B     		cmp	r3, #1
 1319 02d2 0BD9     		bls	.L72
 378:.\struct.c    ****                     {
 379:.\struct.c    ****                         Delay_Time.Motor_Delay = 0;
 1320              		.loc 1 379 0
 1321 02d4 144B     		ldr	r3, .L76+8
 1322 02d6 0022     		mov	r2, #0
 1323 02d8 DA80     		strh	r2, [r3, #6]
 380:.\struct.c    ****                         Flag.Motro_Order_Step = ORDER_1;
 1324              		.loc 1 380 0
 1325 02da 114B     		ldr	r3, .L76
 1326 02dc 1A88     		ldrh	r2, [r3]
 1327 02de 1349     		ldr	r1, .L76+12
 1328 02e0 0A40     		and	r2, r1
 1329 02e2 111C     		add	r1, r2, #0
 1330 02e4 8022     		mov	r2, #128
 1331 02e6 0A43     		orr	r2, r1
 1332 02e8 1A80     		strh	r2, [r3]
 381:.\struct.c    ****                     }
 382:.\struct.c    ****                     break;
 1333              		.loc 1 382 0
 1334 02ea 01E0     		b	.L68
 1335              	.L72:
 1336              		.loc 1 382 0 is_stmt 0 discriminator 11
 1337 02ec 00E0     		b	.L68
 1338              	.L75:
 383:.\struct.c    ****                 
 384:.\struct.c    ****                 default:
 385:.\struct.c    ****                     break;
 1339              		.loc 1 385 0 is_stmt 1
 1340 02ee C046     		mov	r8, r8
 1341              	.L68:
 386:.\struct.c    ****             }            
 387:.\struct.c    ****             break;
 1342              		.loc 1 387 0 discriminator 7
 1343 02f0 14E0     		b	.L42
 1344              	.L73:
 388:.\struct.c    ****         
 389:.\struct.c    ****         case MOTOR_STOP:        //停止
 390:.\struct.c    ****         default:
 391:.\struct.c    ****             MOTOR_A_CLOSE;
 1345              		.loc 1 391 0
 1346 02f2 0020     		mov	r0, #0
ARM GAS  C:\Users\ADMINI~1\AppData\Local\Temp\ccFUZzWX.s 			page 32


 1347 02f4 FFF7FEFF 		bl	motor_A_Write
 392:.\struct.c    ****             MOTOR_B_CLOSE;
 1348              		.loc 1 392 0
 1349 02f8 0020     		mov	r0, #0
 1350 02fa FFF7FEFF 		bl	motor_B_Write
 393:.\struct.c    ****             MOTOR_C_CLOSE;
 1351              		.loc 1 393 0
 1352 02fe 0020     		mov	r0, #0
 1353 0300 FFF7FEFF 		bl	motor_C_Write
 394:.\struct.c    ****             MOTOR_D_CLOSE;
 1354              		.loc 1 394 0
 1355 0304 0020     		mov	r0, #0
 1356 0306 FFF7FEFF 		bl	motor_D_Write
 395:.\struct.c    ****             Flag.Motro_Order_Step = ORDER_1;
 1357              		.loc 1 395 0
 1358 030a 054B     		ldr	r3, .L76
 1359 030c 1A88     		ldrh	r2, [r3]
 1360 030e 0749     		ldr	r1, .L76+12
 1361 0310 0A40     		and	r2, r1
 1362 0312 111C     		add	r1, r2, #0
 1363 0314 8022     		mov	r2, #128
 1364 0316 0A43     		orr	r2, r1
 1365 0318 1A80     		strh	r2, [r3]
 396:.\struct.c    ****             break;
 1366              		.loc 1 396 0
 1367 031a C046     		mov	r8, r8
 1368              	.L42:
 397:.\struct.c    ****     }
 398:.\struct.c    **** }
 1369              		.loc 1 398 0
 1370 031c BD46     		mov	sp, r7
 1371              		@ sp needed
 1372 031e 80BD     		pop	{r7, pc}
 1373              	.L77:
 1374              		.align	2
 1375              	.L76:
 1376 0320 00000000 		.word	Flag
 1377 0324 00000000 		.word	.L48
 1378 0328 00000000 		.word	Delay_Time
 1379 032c 7FFCFFFF 		.word	-897
 1380 0330 18000000 		.word	.L62
 1381              		.cfi_endproc
 1382              	.LFE42:
 1383              		.size	Motor_Work, .-Motor_Work
 1384              		.section	.text.FSU_Upload,"ax",%progbits
 1385              		.align	2
 1386              		.global	FSU_Upload
 1387              		.code	16
 1388              		.thumb_func
 1389              		.type	FSU_Upload, %function
 1390              	FSU_Upload:
 1391              	.LFB43:
 399:.\struct.c    **** 
 400:.\struct.c    **** 
 401:.\struct.c    **** /***********************************************************
 402:.\struct.c    ****  * @function_name: void FSU_Upload(void)
 403:.\struct.c    ****  * @function_file: struct.c
ARM GAS  C:\Users\ADMINI~1\AppData\Local\Temp\ccFUZzWX.s 			page 33


 404:.\struct.c    ****  * @描  述：       门磁判断，以及对应的处理
 405:.\struct.c    ****  * @参  数：       无
 406:.\struct.c    ****  * @返  回：       无
 407:.\struct.c    ****  **********************************************************/
 408:.\struct.c    **** void FSU_Upload(void)
 409:.\struct.c    **** {
 1392              		.loc 1 409 0
 1393              		.cfi_startproc
 1394 0000 80B5     		push	{r7, lr}
 1395              		.cfi_def_cfa_offset 8
 1396              		.cfi_offset 7, -8
 1397              		.cfi_offset 14, -4
 1398 0002 00AF     		add	r7, sp, #0
 1399              		.cfi_def_cfa_register 7
 410:.\struct.c    ****     if (Flag.Key_Open_Upload)
 1400              		.loc 1 410 0
 1401 0004 324B     		ldr	r3, .L82
 1402 0006 5B78     		ldrb	r3, [r3, #1]
 1403 0008 2022     		mov	r2, #32
 1404 000a 1340     		and	r3, r2
 1405 000c DBB2     		uxtb	r3, r3
 1406 000e 002B     		cmp	r3, #0
 1407 0010 19D0     		beq	.L79
 411:.\struct.c    ****     {
 412:.\struct.c    ****         KEY_UPLOAD_ON;
 1408              		.loc 1 412 0
 1409 0012 0120     		mov	r0, #1
 1410 0014 FFF7FEFF 		bl	FSU_DI_1_Write
 413:.\struct.c    ****         Delay_Time.FSU_OUT1_Count ++;
 1411              		.loc 1 413 0
 1412 0018 2E4B     		ldr	r3, .L82+4
 1413 001a 5B89     		ldrh	r3, [r3, #10]
 1414 001c 0133     		add	r3, r3, #1
 1415 001e 9AB2     		uxth	r2, r3
 1416 0020 2C4B     		ldr	r3, .L82+4
 1417 0022 5A81     		strh	r2, [r3, #10]
 414:.\struct.c    ****         if(Delay_Time.FSU_OUT1_Count > DELAY_1S)
 1418              		.loc 1 414 0
 1419 0024 2B4B     		ldr	r3, .L82+4
 1420 0026 5A89     		ldrh	r2, [r3, #10]
 1421 0028 FA23     		mov	r3, #250
 1422 002a 9B00     		lsl	r3, r3, #2
 1423 002c 9A42     		cmp	r2, r3
 1424 002e 0AD9     		bls	.L79
 415:.\struct.c    ****         {
 416:.\struct.c    ****             KEY_UPLOAD_OFF;
 1425              		.loc 1 416 0
 1426 0030 0020     		mov	r0, #0
 1427 0032 FFF7FEFF 		bl	FSU_DI_1_Write
 417:.\struct.c    ****             Flag.Key_Open_Upload = 0;
 1428              		.loc 1 417 0
 1429 0036 264B     		ldr	r3, .L82
 1430 0038 5A78     		ldrb	r2, [r3, #1]
 1431 003a 2021     		mov	r1, #32
 1432 003c 8A43     		bic	r2, r1
 1433 003e 5A70     		strb	r2, [r3, #1]
 418:.\struct.c    ****             Delay_Time.FSU_OUT1_Count = 0;
ARM GAS  C:\Users\ADMINI~1\AppData\Local\Temp\ccFUZzWX.s 			page 34


 1434              		.loc 1 418 0
 1435 0040 244B     		ldr	r3, .L82+4
 1436 0042 0022     		mov	r2, #0
 1437 0044 5A81     		strh	r2, [r3, #10]
 1438              	.L79:
 419:.\struct.c    ****         }
 420:.\struct.c    ****     }
 421:.\struct.c    ****     
 422:.\struct.c    ****     if (Flag.Open_Door_Upload)
 1439              		.loc 1 422 0
 1440 0046 224B     		ldr	r3, .L82
 1441 0048 5B78     		ldrb	r3, [r3, #1]
 1442 004a 4022     		mov	r2, #64
 1443 004c 1340     		and	r3, r2
 1444 004e DBB2     		uxtb	r3, r3
 1445 0050 002B     		cmp	r3, #0
 1446 0052 19D0     		beq	.L80
 423:.\struct.c    ****     {
 424:.\struct.c    ****         DOOR_UPLOAD_ON;
 1447              		.loc 1 424 0
 1448 0054 0120     		mov	r0, #1
 1449 0056 FFF7FEFF 		bl	FSU_DI_2_Write
 425:.\struct.c    ****         Delay_Time.FSU_OUT2_Count ++;
 1450              		.loc 1 425 0
 1451 005a 1E4B     		ldr	r3, .L82+4
 1452 005c 9B89     		ldrh	r3, [r3, #12]
 1453 005e 0133     		add	r3, r3, #1
 1454 0060 9AB2     		uxth	r2, r3
 1455 0062 1C4B     		ldr	r3, .L82+4
 1456 0064 9A81     		strh	r2, [r3, #12]
 426:.\struct.c    ****         if(Delay_Time.FSU_OUT2_Count > DELAY_1S)
 1457              		.loc 1 426 0
 1458 0066 1B4B     		ldr	r3, .L82+4
 1459 0068 9A89     		ldrh	r2, [r3, #12]
 1460 006a FA23     		mov	r3, #250
 1461 006c 9B00     		lsl	r3, r3, #2
 1462 006e 9A42     		cmp	r2, r3
 1463 0070 0AD9     		bls	.L80
 427:.\struct.c    ****         {
 428:.\struct.c    ****             DOOR_UPLOAD_OFF;
 1464              		.loc 1 428 0
 1465 0072 0020     		mov	r0, #0
 1466 0074 FFF7FEFF 		bl	FSU_DI_2_Write
 429:.\struct.c    ****             Flag.Open_Door_Upload = 0;
 1467              		.loc 1 429 0
 1468 0078 154B     		ldr	r3, .L82
 1469 007a 5A78     		ldrb	r2, [r3, #1]
 1470 007c 4021     		mov	r1, #64
 1471 007e 8A43     		bic	r2, r1
 1472 0080 5A70     		strb	r2, [r3, #1]
 430:.\struct.c    ****             Delay_Time.FSU_OUT2_Count = 0;
 1473              		.loc 1 430 0
 1474 0082 144B     		ldr	r3, .L82+4
 1475 0084 0022     		mov	r2, #0
 1476 0086 9A81     		strh	r2, [r3, #12]
 1477              	.L80:
 431:.\struct.c    ****         }        
ARM GAS  C:\Users\ADMINI~1\AppData\Local\Temp\ccFUZzWX.s 			page 35


 432:.\struct.c    ****     }
 433:.\struct.c    **** 
 434:.\struct.c    ****     if (Flag.Lock_Exception_Upload)
 1478              		.loc 1 434 0
 1479 0088 114B     		ldr	r3, .L82
 1480 008a 5B78     		ldrb	r3, [r3, #1]
 1481 008c 7F22     		mov	r2, #127
 1482 008e 9343     		bic	r3, r2
 1483 0090 DBB2     		uxtb	r3, r3
 1484 0092 002B     		cmp	r3, #0
 1485 0094 19D0     		beq	.L78
 435:.\struct.c    ****     {
 436:.\struct.c    ****         LOCK_UPLOAD_ON;
 1486              		.loc 1 436 0
 1487 0096 0120     		mov	r0, #1
 1488 0098 FFF7FEFF 		bl	FSU_DI_3_Write
 437:.\struct.c    ****         Delay_Time.FSU_OUT3_Count ++;
 1489              		.loc 1 437 0
 1490 009c 0D4B     		ldr	r3, .L82+4
 1491 009e DB89     		ldrh	r3, [r3, #14]
 1492 00a0 0133     		add	r3, r3, #1
 1493 00a2 9AB2     		uxth	r2, r3
 1494 00a4 0B4B     		ldr	r3, .L82+4
 1495 00a6 DA81     		strh	r2, [r3, #14]
 438:.\struct.c    ****         if(Delay_Time.FSU_OUT3_Count > DELAY_1S)
 1496              		.loc 1 438 0
 1497 00a8 0A4B     		ldr	r3, .L82+4
 1498 00aa DA89     		ldrh	r2, [r3, #14]
 1499 00ac FA23     		mov	r3, #250
 1500 00ae 9B00     		lsl	r3, r3, #2
 1501 00b0 9A42     		cmp	r2, r3
 1502 00b2 0AD9     		bls	.L78
 439:.\struct.c    ****         {
 440:.\struct.c    ****             LOCK_UPLOAD_OFF;
 1503              		.loc 1 440 0
 1504 00b4 0020     		mov	r0, #0
 1505 00b6 FFF7FEFF 		bl	FSU_DI_3_Write
 441:.\struct.c    ****             Flag.Lock_Exception_Upload = 0;
 1506              		.loc 1 441 0
 1507 00ba 054B     		ldr	r3, .L82
 1508 00bc 5A78     		ldrb	r2, [r3, #1]
 1509 00be 7F21     		mov	r1, #127
 1510 00c0 0A40     		and	r2, r1
 1511 00c2 5A70     		strb	r2, [r3, #1]
 442:.\struct.c    ****             Delay_Time.FSU_OUT3_Count = 0;
 1512              		.loc 1 442 0
 1513 00c4 034B     		ldr	r3, .L82+4
 1514 00c6 0022     		mov	r2, #0
 1515 00c8 DA81     		strh	r2, [r3, #14]
 1516              	.L78:
 443:.\struct.c    ****         }      
 444:.\struct.c    ****     }
 445:.\struct.c    **** }
 1517              		.loc 1 445 0
 1518 00ca BD46     		mov	sp, r7
 1519              		@ sp needed
 1520 00cc 80BD     		pop	{r7, pc}
ARM GAS  C:\Users\ADMINI~1\AppData\Local\Temp\ccFUZzWX.s 			page 36


 1521              	.L83:
 1522 00ce C046     		.align	2
 1523              	.L82:
 1524 00d0 00000000 		.word	Flag
 1525 00d4 00000000 		.word	Delay_Time
 1526              		.cfi_endproc
 1527              	.LFE43:
 1528              		.size	FSU_Upload, .-FSU_Upload
 1529              		.text
 1530              	.Letext0:
 1531              		.file 2 "Generated_Source\\PSoC4/cytypes.h"
 1532              		.file 3 ".\\struct.h"
 1533              		.file 4 "Generated_Source\\PSoC4/BLE_Stack.h"
 1534              		.section	.debug_info,"",%progbits
 1535              	.Ldebug_info0:
 1536 0000 B4040000 		.4byte	0x4b4
 1537 0004 0400     		.2byte	0x4
 1538 0006 00000000 		.4byte	.Ldebug_abbrev0
 1539 000a 04       		.byte	0x4
 1540 000b 01       		.uleb128 0x1
 1541 000c 42020000 		.4byte	.LASF116
 1542 0010 01       		.byte	0x1
 1543 0011 9C060000 		.4byte	.LASF117
 1544 0015 D0020000 		.4byte	.LASF118
 1545 0019 00000000 		.4byte	.Ldebug_ranges0+0
 1546 001d 00000000 		.4byte	0
 1547 0021 00000000 		.4byte	.Ldebug_line0
 1548 0025 02       		.uleb128 0x2
 1549 0026 01       		.byte	0x1
 1550 0027 06       		.byte	0x6
 1551 0028 68050000 		.4byte	.LASF0
 1552 002c 02       		.uleb128 0x2
 1553 002d 01       		.byte	0x1
 1554 002e 08       		.byte	0x8
 1555 002f EF040000 		.4byte	.LASF1
 1556 0033 02       		.uleb128 0x2
 1557 0034 02       		.byte	0x2
 1558 0035 05       		.byte	0x5
 1559 0036 E1000000 		.4byte	.LASF2
 1560 003a 02       		.uleb128 0x2
 1561 003b 02       		.byte	0x2
 1562 003c 07       		.byte	0x7
 1563 003d 60060000 		.4byte	.LASF3
 1564 0041 02       		.uleb128 0x2
 1565 0042 04       		.byte	0x4
 1566 0043 05       		.byte	0x5
 1567 0044 67030000 		.4byte	.LASF4
 1568 0048 02       		.uleb128 0x2
 1569 0049 04       		.byte	0x4
 1570 004a 07       		.byte	0x7
 1571 004b F9050000 		.4byte	.LASF5
 1572 004f 02       		.uleb128 0x2
 1573 0050 08       		.byte	0x8
 1574 0051 05       		.byte	0x5
 1575 0052 3D030000 		.4byte	.LASF6
 1576 0056 02       		.uleb128 0x2
 1577 0057 08       		.byte	0x8
ARM GAS  C:\Users\ADMINI~1\AppData\Local\Temp\ccFUZzWX.s 			page 37


 1578 0058 07       		.byte	0x7
 1579 0059 4B030000 		.4byte	.LASF7
 1580 005d 03       		.uleb128 0x3
 1581 005e 04       		.byte	0x4
 1582 005f 05       		.byte	0x5
 1583 0060 696E7400 		.ascii	"int\000"
 1584 0064 02       		.uleb128 0x2
 1585 0065 04       		.byte	0x4
 1586 0066 07       		.byte	0x7
 1587 0067 D1050000 		.4byte	.LASF8
 1588 006b 04       		.uleb128 0x4
 1589 006c B8040000 		.4byte	.LASF9
 1590 0070 02       		.byte	0x2
 1591 0071 3801     		.2byte	0x138
 1592 0073 2C000000 		.4byte	0x2c
 1593 0077 04       		.uleb128 0x4
 1594 0078 AE010000 		.4byte	.LASF10
 1595 007c 02       		.byte	0x2
 1596 007d 3901     		.2byte	0x139
 1597 007f 3A000000 		.4byte	0x3a
 1598 0083 02       		.uleb128 0x2
 1599 0084 04       		.byte	0x4
 1600 0085 04       		.byte	0x4
 1601 0086 0F030000 		.4byte	.LASF11
 1602 008a 02       		.uleb128 0x2
 1603 008b 08       		.byte	0x8
 1604 008c 04       		.byte	0x4
 1605 008d A5070000 		.4byte	.LASF12
 1606 0091 02       		.uleb128 0x2
 1607 0092 01       		.byte	0x1
 1608 0093 08       		.byte	0x8
 1609 0094 62030000 		.4byte	.LASF13
 1610 0098 02       		.uleb128 0x2
 1611 0099 04       		.byte	0x4
 1612 009a 07       		.byte	0x7
 1613 009b 05010000 		.4byte	.LASF14
 1614 009f 05       		.uleb128 0x5
 1615 00a0 01       		.byte	0x1
 1616 00a1 04       		.byte	0x4
 1617 00a2 A4       		.byte	0xa4
 1618 00a3 24020000 		.4byte	0x224
 1619 00a7 06       		.uleb128 0x6
 1620 00a8 2B020000 		.4byte	.LASF15
 1621 00ac 00       		.sleb128 0
 1622 00ad 06       		.uleb128 0x6
 1623 00ae 63010000 		.4byte	.LASF16
 1624 00b2 01       		.sleb128 1
 1625 00b3 06       		.uleb128 0x6
 1626 00b4 9B080000 		.4byte	.LASF17
 1627 00b8 02       		.sleb128 2
 1628 00b9 06       		.uleb128 0x6
 1629 00ba FE070000 		.4byte	.LASF18
 1630 00be 03       		.sleb128 3
 1631 00bf 06       		.uleb128 0x6
 1632 00c0 2D010000 		.4byte	.LASF19
 1633 00c4 04       		.sleb128 4
 1634 00c5 06       		.uleb128 0x6
ARM GAS  C:\Users\ADMINI~1\AppData\Local\Temp\ccFUZzWX.s 			page 38


 1635 00c6 1A040000 		.4byte	.LASF20
 1636 00ca 05       		.sleb128 5
 1637 00cb 06       		.uleb128 0x6
 1638 00cc 67080000 		.4byte	.LASF21
 1639 00d0 20       		.sleb128 32
 1640 00d1 06       		.uleb128 0x6
 1641 00d2 0B060000 		.4byte	.LASF22
 1642 00d6 21       		.sleb128 33
 1643 00d7 06       		.uleb128 0x6
 1644 00d8 22000000 		.4byte	.LASF23
 1645 00dc 22       		.sleb128 34
 1646 00dd 06       		.uleb128 0x6
 1647 00de 45040000 		.4byte	.LASF24
 1648 00e2 23       		.sleb128 35
 1649 00e3 06       		.uleb128 0x6
 1650 00e4 B5050000 		.4byte	.LASF25
 1651 00e8 24       		.sleb128 36
 1652 00e9 06       		.uleb128 0x6
 1653 00ea EB000000 		.4byte	.LASF26
 1654 00ee 25       		.sleb128 37
 1655 00ef 06       		.uleb128 0x6
 1656 00f0 D1030000 		.4byte	.LASF27
 1657 00f4 26       		.sleb128 38
 1658 00f5 06       		.uleb128 0x6
 1659 00f6 9E030000 		.4byte	.LASF28
 1660 00fa 27       		.sleb128 39
 1661 00fb 06       		.uleb128 0x6
 1662 00fc 94000000 		.4byte	.LASF29
 1663 0100 28       		.sleb128 40
 1664 0101 06       		.uleb128 0x6
 1665 0102 43060000 		.4byte	.LASF30
 1666 0106 29       		.sleb128 41
 1667 0107 06       		.uleb128 0x6
 1668 0108 6B000000 		.4byte	.LASF31
 1669 010c 2A       		.sleb128 42
 1670 010d 06       		.uleb128 0x6
 1671 010e 45070000 		.4byte	.LASF32
 1672 0112 2B       		.sleb128 43
 1673 0113 06       		.uleb128 0x6
 1674 0114 CF010000 		.4byte	.LASF33
 1675 0118 2C       		.sleb128 44
 1676 0119 06       		.uleb128 0x6
 1677 011a 0E010000 		.4byte	.LASF34
 1678 011e C000     		.sleb128 64
 1679 0120 06       		.uleb128 0x6
 1680 0121 DE050000 		.4byte	.LASF35
 1681 0125 C100     		.sleb128 65
 1682 0127 06       		.uleb128 0x6
 1683 0128 4A0A0000 		.4byte	.LASF36
 1684 012c C200     		.sleb128 66
 1685 012e 06       		.uleb128 0x6
 1686 012f 82010000 		.4byte	.LASF37
 1687 0133 C300     		.sleb128 67
 1688 0135 06       		.uleb128 0x6
 1689 0136 F2080000 		.4byte	.LASF38
 1690 013a C400     		.sleb128 68
 1691 013c 06       		.uleb128 0x6
ARM GAS  C:\Users\ADMINI~1\AppData\Local\Temp\ccFUZzWX.s 			page 39


 1692 013d AD080000 		.4byte	.LASF39
 1693 0141 C500     		.sleb128 69
 1694 0143 06       		.uleb128 0x6
 1695 0144 42010000 		.4byte	.LASF40
 1696 0148 C600     		.sleb128 70
 1697 014a 06       		.uleb128 0x6
 1698 014b 4A050000 		.4byte	.LASF41
 1699 014f C700     		.sleb128 71
 1700 0151 06       		.uleb128 0x6
 1701 0152 8E050000 		.4byte	.LASF42
 1702 0156 C800     		.sleb128 72
 1703 0158 06       		.uleb128 0x6
 1704 0159 15030000 		.4byte	.LASF43
 1705 015d C900     		.sleb128 73
 1706 015f 06       		.uleb128 0x6
 1707 0160 08070000 		.4byte	.LASF44
 1708 0164 CA00     		.sleb128 74
 1709 0166 06       		.uleb128 0x6
 1710 0167 10090000 		.4byte	.LASF45
 1711 016b CB00     		.sleb128 75
 1712 016d 06       		.uleb128 0x6
 1713 016e 74050000 		.4byte	.LASF46
 1714 0172 CC00     		.sleb128 76
 1715 0174 06       		.uleb128 0x6
 1716 0175 51000000 		.4byte	.LASF47
 1717 0179 CD00     		.sleb128 77
 1718 017b 06       		.uleb128 0x6
 1719 017c D4080000 		.4byte	.LASF48
 1720 0180 CE00     		.sleb128 78
 1721 0182 06       		.uleb128 0x6
 1722 0183 FD040000 		.4byte	.LASF49
 1723 0187 CF00     		.sleb128 79
 1724 0189 06       		.uleb128 0x6
 1725 018a BC000000 		.4byte	.LASF50
 1726 018e D000     		.sleb128 80
 1727 0190 06       		.uleb128 0x6
 1728 0191 26070000 		.4byte	.LASF51
 1729 0195 D100     		.sleb128 81
 1730 0197 06       		.uleb128 0x6
 1731 0198 F9030000 		.4byte	.LASF52
 1732 019c D200     		.sleb128 82
 1733 019e 06       		.uleb128 0x6
 1734 019f 6B040000 		.4byte	.LASF53
 1735 01a3 D300     		.sleb128 83
 1736 01a5 06       		.uleb128 0x6
 1737 01a6 0A020000 		.4byte	.LASF54
 1738 01aa D400     		.sleb128 84
 1739 01ac 06       		.uleb128 0x6
 1740 01ad 260A0000 		.4byte	.LASF55
 1741 01b1 D500     		.sleb128 85
 1742 01b3 06       		.uleb128 0x6
 1743 01b4 B5090000 		.4byte	.LASF56
 1744 01b8 D600     		.sleb128 86
 1745 01ba 06       		.uleb128 0x6
 1746 01bb 8C090000 		.4byte	.LASF57
 1747 01bf D700     		.sleb128 87
 1748 01c1 06       		.uleb128 0x6
ARM GAS  C:\Users\ADMINI~1\AppData\Local\Temp\ccFUZzWX.s 			page 40


 1749 01c2 C9040000 		.4byte	.LASF58
 1750 01c6 F000     		.sleb128 112
 1751 01c8 06       		.uleb128 0x6
 1752 01c9 36080000 		.4byte	.LASF59
 1753 01cd F100     		.sleb128 113
 1754 01cf 06       		.uleb128 0x6
 1755 01d0 C0060000 		.4byte	.LASF60
 1756 01d4 F200     		.sleb128 114
 1757 01d6 06       		.uleb128 0x6
 1758 01d7 DA070000 		.4byte	.LASF61
 1759 01db F300     		.sleb128 115
 1760 01dd 06       		.uleb128 0x6
 1761 01de 8C040000 		.4byte	.LASF62
 1762 01e2 F400     		.sleb128 116
 1763 01e4 06       		.uleb128 0x6
 1764 01e5 22060000 		.4byte	.LASF63
 1765 01e9 F500     		.sleb128 117
 1766 01eb 06       		.uleb128 0x6
 1767 01ec EE020000 		.4byte	.LASF64
 1768 01f0 F600     		.sleb128 118
 1769 01f2 06       		.uleb128 0x6
 1770 01f3 17080000 		.4byte	.LASF65
 1771 01f7 F700     		.sleb128 119
 1772 01f9 06       		.uleb128 0x6
 1773 01fa 82070000 		.4byte	.LASF66
 1774 01fe F800     		.sleb128 120
 1775 0200 06       		.uleb128 0x6
 1776 0201 B7070000 		.4byte	.LASF67
 1777 0205 F900     		.sleb128 121
 1778 0207 06       		.uleb128 0x6
 1779 0208 3B090000 		.4byte	.LASF68
 1780 020c FA00     		.sleb128 122
 1781 020e 06       		.uleb128 0x6
 1782 020f 64070000 		.4byte	.LASF69
 1783 0213 FA01     		.sleb128 250
 1784 0215 06       		.uleb128 0x6
 1785 0216 1C050000 		.4byte	.LASF70
 1786 021a FB01     		.sleb128 251
 1787 021c 06       		.uleb128 0x6
 1788 021d AA040000 		.4byte	.LASF71
 1789 0221 FF01     		.sleb128 255
 1790 0223 00       		.byte	0
 1791 0224 07       		.uleb128 0x7
 1792 0225 18       		.byte	0x18
 1793 0226 03       		.byte	0x3
 1794 0227 55       		.byte	0x55
 1795 0228 C9020000 		.4byte	0x2c9
 1796 022c 08       		.uleb128 0x8
 1797 022d 5F090000 		.4byte	.LASF72
 1798 0231 03       		.byte	0x3
 1799 0232 57       		.byte	0x57
 1800 0233 77000000 		.4byte	0x77
 1801 0237 00       		.byte	0
 1802 0238 08       		.uleb128 0x8
 1803 0239 A0010000 		.4byte	.LASF73
 1804 023d 03       		.byte	0x3
 1805 023e 58       		.byte	0x58
ARM GAS  C:\Users\ADMINI~1\AppData\Local\Temp\ccFUZzWX.s 			page 41


 1806 023f 77000000 		.4byte	0x77
 1807 0243 02       		.byte	0x2
 1808 0244 08       		.uleb128 0x8
 1809 0245 EA090000 		.4byte	.LASF74
 1810 0249 03       		.byte	0x3
 1811 024a 59       		.byte	0x59
 1812 024b 77000000 		.4byte	0x77
 1813 024f 04       		.byte	0x4
 1814 0250 08       		.uleb128 0x8
 1815 0251 76010000 		.4byte	.LASF75
 1816 0255 03       		.byte	0x3
 1817 0256 5A       		.byte	0x5a
 1818 0257 77000000 		.4byte	0x77
 1819 025b 06       		.byte	0x6
 1820 025c 08       		.uleb128 0x8
 1821 025d F3010000 		.4byte	.LASF76
 1822 0261 03       		.byte	0x3
 1823 0262 5B       		.byte	0x5b
 1824 0263 77000000 		.4byte	0x77
 1825 0267 08       		.byte	0x8
 1826 0268 08       		.uleb128 0x8
 1827 0269 36040000 		.4byte	.LASF77
 1828 026d 03       		.byte	0x3
 1829 026e 5C       		.byte	0x5c
 1830 026f 77000000 		.4byte	0x77
 1831 0273 0A       		.byte	0xa
 1832 0274 08       		.uleb128 0x8
 1833 0275 0B0A0000 		.4byte	.LASF78
 1834 0279 03       		.byte	0x3
 1835 027a 5D       		.byte	0x5d
 1836 027b 77000000 		.4byte	0x77
 1837 027f 0C       		.byte	0xc
 1838 0280 08       		.uleb128 0x8
 1839 0281 3B050000 		.4byte	.LASF79
 1840 0285 03       		.byte	0x3
 1841 0286 5E       		.byte	0x5e
 1842 0287 77000000 		.4byte	0x77
 1843 028b 0E       		.byte	0xe
 1844 028c 08       		.uleb128 0x8
 1845 028d 73060000 		.4byte	.LASF80
 1846 0291 03       		.byte	0x3
 1847 0292 60       		.byte	0x60
 1848 0293 77000000 		.4byte	0x77
 1849 0297 10       		.byte	0x10
 1850 0298 08       		.uleb128 0x8
 1851 0299 2E030000 		.4byte	.LASF81
 1852 029d 03       		.byte	0x3
 1853 029e 61       		.byte	0x61
 1854 029f 77000000 		.4byte	0x77
 1855 02a3 12       		.byte	0x12
 1856 02a4 08       		.uleb128 0x8
 1857 02a5 92060000 		.4byte	.LASF82
 1858 02a9 03       		.byte	0x3
 1859 02aa 63       		.byte	0x63
 1860 02ab 6B000000 		.4byte	0x6b
 1861 02af 14       		.byte	0x14
 1862 02b0 08       		.uleb128 0x8
ARM GAS  C:\Users\ADMINI~1\AppData\Local\Temp\ccFUZzWX.s 			page 42


 1863 02b1 1A0A0000 		.4byte	.LASF83
 1864 02b5 03       		.byte	0x3
 1865 02b6 64       		.byte	0x64
 1866 02b7 6B000000 		.4byte	0x6b
 1867 02bb 15       		.byte	0x15
 1868 02bc 08       		.uleb128 0x8
 1869 02bd 81090000 		.4byte	.LASF84
 1870 02c1 03       		.byte	0x3
 1871 02c2 65       		.byte	0x65
 1872 02c3 6B000000 		.4byte	0x6b
 1873 02c7 16       		.byte	0x16
 1874 02c8 00       		.byte	0
 1875 02c9 09       		.uleb128 0x9
 1876 02ca 00020000 		.4byte	.LASF85
 1877 02ce 03       		.byte	0x3
 1878 02cf 66       		.byte	0x66
 1879 02d0 24020000 		.4byte	0x224
 1880 02d4 07       		.uleb128 0x7
 1881 02d5 04       		.byte	0x4
 1882 02d6 03       		.byte	0x3
 1883 02d7 6C       		.byte	0x6c
 1884 02d8 73030000 		.4byte	0x373
 1885 02dc 0A       		.uleb128 0xa
 1886 02dd C5010000 		.4byte	.LASF86
 1887 02e1 03       		.byte	0x3
 1888 02e2 6E       		.byte	0x6e
 1889 02e3 64000000 		.4byte	0x64
 1890 02e7 04       		.byte	0x4
 1891 02e8 01       		.byte	0x1
 1892 02e9 1F       		.byte	0x1f
 1893 02ea 00       		.byte	0
 1894 02eb 0A       		.uleb128 0xa
 1895 02ec 2F090000 		.4byte	.LASF87
 1896 02f0 03       		.byte	0x3
 1897 02f1 6F       		.byte	0x6f
 1898 02f2 64000000 		.4byte	0x64
 1899 02f6 04       		.byte	0x4
 1900 02f7 01       		.byte	0x1
 1901 02f8 1E       		.byte	0x1e
 1902 02f9 00       		.byte	0
 1903 02fa 0A       		.uleb128 0xa
 1904 02fb 8E030000 		.4byte	.LASF88
 1905 02ff 03       		.byte	0x3
 1906 0300 70       		.byte	0x70
 1907 0301 64000000 		.4byte	0x64
 1908 0305 04       		.byte	0x4
 1909 0306 01       		.byte	0x1
 1910 0307 1D       		.byte	0x1d
 1911 0308 00       		.byte	0
 1912 0309 0A       		.uleb128 0xa
 1913 030a EC060000 		.4byte	.LASF89
 1914 030e 03       		.byte	0x3
 1915 030f 71       		.byte	0x71
 1916 0310 64000000 		.4byte	0x64
 1917 0314 04       		.byte	0x4
 1918 0315 02       		.byte	0x2
 1919 0316 1B       		.byte	0x1b
ARM GAS  C:\Users\ADMINI~1\AppData\Local\Temp\ccFUZzWX.s 			page 43


 1920 0317 00       		.byte	0
 1921 0318 0A       		.uleb128 0xa
 1922 0319 8B080000 		.4byte	.LASF90
 1923 031d 03       		.byte	0x3
 1924 031e 72       		.byte	0x72
 1925 031f 64000000 		.4byte	0x64
 1926 0323 04       		.byte	0x4
 1927 0324 02       		.byte	0x2
 1928 0325 19       		.byte	0x19
 1929 0326 00       		.byte	0
 1930 0327 0A       		.uleb128 0xa
 1931 0328 00000000 		.4byte	.LASF91
 1932 032c 03       		.byte	0x3
 1933 032d 73       		.byte	0x73
 1934 032e 64000000 		.4byte	0x64
 1935 0332 04       		.byte	0x4
 1936 0333 03       		.byte	0x3
 1937 0334 16       		.byte	0x16
 1938 0335 00       		.byte	0
 1939 0336 0A       		.uleb128 0xa
 1940 0337 B5010000 		.4byte	.LASF92
 1941 033b 03       		.byte	0x3
 1942 033c 74       		.byte	0x74
 1943 033d 64000000 		.4byte	0x64
 1944 0341 04       		.byte	0x4
 1945 0342 03       		.byte	0x3
 1946 0343 13       		.byte	0x13
 1947 0344 00       		.byte	0
 1948 0345 0A       		.uleb128 0xa
 1949 0346 DC060000 		.4byte	.LASF93
 1950 034a 03       		.byte	0x3
 1951 034b 76       		.byte	0x76
 1952 034c 64000000 		.4byte	0x64
 1953 0350 04       		.byte	0x4
 1954 0351 01       		.byte	0x1
 1955 0352 12       		.byte	0x12
 1956 0353 00       		.byte	0
 1957 0354 0A       		.uleb128 0xa
 1958 0355 11000000 		.4byte	.LASF94
 1959 0359 03       		.byte	0x3
 1960 035a 77       		.byte	0x77
 1961 035b 64000000 		.4byte	0x64
 1962 035f 04       		.byte	0x4
 1963 0360 01       		.byte	0x1
 1964 0361 11       		.byte	0x11
 1965 0362 00       		.byte	0
 1966 0363 0A       		.uleb128 0xa
 1967 0364 6B090000 		.4byte	.LASF95
 1968 0368 03       		.byte	0x3
 1969 0369 78       		.byte	0x78
 1970 036a 64000000 		.4byte	0x64
 1971 036e 04       		.byte	0x4
 1972 036f 01       		.byte	0x1
 1973 0370 10       		.byte	0x10
 1974 0371 00       		.byte	0
 1975 0372 00       		.byte	0
 1976 0373 09       		.uleb128 0x9
ARM GAS  C:\Users\ADMINI~1\AppData\Local\Temp\ccFUZzWX.s 			page 44


 1977 0374 28010000 		.4byte	.LASF96
 1978 0378 03       		.byte	0x3
 1979 0379 79       		.byte	0x79
 1980 037a D4020000 		.4byte	0x2d4
 1981 037e 07       		.uleb128 0x7
 1982 037f 04       		.byte	0x4
 1983 0380 03       		.byte	0x3
 1984 0381 7F       		.byte	0x7f
 1985 0382 F0030000 		.4byte	0x3f0
 1986 0386 0A       		.uleb128 0xa
 1987 0387 87060000 		.4byte	.LASF97
 1988 038b 03       		.byte	0x3
 1989 038c 81       		.byte	0x81
 1990 038d 64000000 		.4byte	0x64
 1991 0391 04       		.byte	0x4
 1992 0392 01       		.byte	0x1
 1993 0393 1F       		.byte	0x1f
 1994 0394 00       		.byte	0
 1995 0395 0A       		.uleb128 0xa
 1996 0396 A7060000 		.4byte	.LASF98
 1997 039a 03       		.byte	0x3
 1998 039b 82       		.byte	0x82
 1999 039c 64000000 		.4byte	0x64
 2000 03a0 04       		.byte	0x4
 2001 03a1 01       		.byte	0x1
 2002 03a2 1E       		.byte	0x1e
 2003 03a3 00       		.byte	0
 2004 03a4 0A       		.uleb128 0xa
 2005 03a5 B5060000 		.4byte	.LASF99
 2006 03a9 03       		.byte	0x3
 2007 03aa 83       		.byte	0x83
 2008 03ab 64000000 		.4byte	0x64
 2009 03af 04       		.byte	0x4
 2010 03b0 01       		.byte	0x1
 2011 03b1 1D       		.byte	0x1d
 2012 03b2 00       		.byte	0
 2013 03b3 0A       		.uleb128 0xa
 2014 03b4 F6090000 		.4byte	.LASF100
 2015 03b8 03       		.byte	0x3
 2016 03b9 84       		.byte	0x84
 2017 03ba 64000000 		.4byte	0x64
 2018 03be 04       		.byte	0x4
 2019 03bf 01       		.byte	0x1
 2020 03c0 1C       		.byte	0x1c
 2021 03c1 00       		.byte	0
 2022 03c2 0A       		.uleb128 0xa
 2023 03c3 810A0000 		.4byte	.LASF101
 2024 03c7 03       		.byte	0x3
 2025 03c8 85       		.byte	0x85
 2026 03c9 64000000 		.4byte	0x64
 2027 03cd 04       		.byte	0x4
 2028 03ce 01       		.byte	0x1
 2029 03cf 1B       		.byte	0x1b
 2030 03d0 00       		.byte	0
 2031 03d1 0A       		.uleb128 0xa
 2032 03d2 D7090000 		.4byte	.LASF102
 2033 03d6 03       		.byte	0x3
ARM GAS  C:\Users\ADMINI~1\AppData\Local\Temp\ccFUZzWX.s 			page 45


 2034 03d7 86       		.byte	0x86
 2035 03d8 64000000 		.4byte	0x64
 2036 03dc 04       		.byte	0x4
 2037 03dd 01       		.byte	0x1
 2038 03de 1A       		.byte	0x1a
 2039 03df 00       		.byte	0
 2040 03e0 0A       		.uleb128 0xa
 2041 03e1 680A0000 		.4byte	.LASF103
 2042 03e5 03       		.byte	0x3
 2043 03e6 87       		.byte	0x87
 2044 03e7 64000000 		.4byte	0x64
 2045 03eb 04       		.byte	0x4
 2046 03ec 01       		.byte	0x1
 2047 03ed 19       		.byte	0x19
 2048 03ee 00       		.byte	0
 2049 03ef 00       		.byte	0
 2050 03f0 09       		.uleb128 0x9
 2051 03f1 DB000000 		.4byte	.LASF104
 2052 03f5 03       		.byte	0x3
 2053 03f6 89       		.byte	0x89
 2054 03f7 7E030000 		.4byte	0x37e
 2055 03fb 0B       		.uleb128 0xb
 2056 03fc 70030000 		.4byte	.LASF105
 2057 0400 01       		.byte	0x1
 2058 0401 1B       		.byte	0x1b
 2059 0402 00000000 		.4byte	.LFB37
 2060 0406 C0000000 		.4byte	.LFE37-.LFB37
 2061 040a 01       		.uleb128 0x1
 2062 040b 9C       		.byte	0x9c
 2063 040c 0B       		.uleb128 0xb
 2064 040d 7F030000 		.4byte	.LASF106
 2065 0411 01       		.byte	0x1
 2066 0412 3D       		.byte	0x3d
 2067 0413 00000000 		.4byte	.LFB38
 2068 0417 80000000 		.4byte	.LFE38-.LFB38
 2069 041b 01       		.uleb128 0x1
 2070 041c 9C       		.byte	0x9c
 2071 041d 0B       		.uleb128 0xb
 2072 041e AC070000 		.4byte	.LASF107
 2073 0422 01       		.byte	0x1
 2074 0423 59       		.byte	0x59
 2075 0424 00000000 		.4byte	.LFB39
 2076 0428 E8000000 		.4byte	.LFE39-.LFB39
 2077 042c 01       		.uleb128 0x1
 2078 042d 9C       		.byte	0x9c
 2079 042e 0B       		.uleb128 0xb
 2080 042f BE040000 		.4byte	.LASF108
 2081 0433 01       		.byte	0x1
 2082 0434 79       		.byte	0x79
 2083 0435 00000000 		.4byte	.LFB40
 2084 0439 54010000 		.4byte	.LFE40-.LFB40
 2085 043d 01       		.uleb128 0x1
 2086 043e 9C       		.byte	0x9c
 2087 043f 0C       		.uleb128 0xc
 2088 0440 BD030000 		.4byte	.LASF109
 2089 0444 01       		.byte	0x1
 2090 0445 BB       		.byte	0xbb
ARM GAS  C:\Users\ADMINI~1\AppData\Local\Temp\ccFUZzWX.s 			page 46


 2091 0446 00000000 		.4byte	.LFB41
 2092 044a 44010000 		.4byte	.LFE41-.LFB41
 2093 044e 01       		.uleb128 0x1
 2094 044f 9C       		.byte	0x9c
 2095 0450 0B       		.uleb128 0xb
 2096 0451 5C080000 		.4byte	.LASF110
 2097 0455 01       		.byte	0x1
 2098 0456 F6       		.byte	0xf6
 2099 0457 00000000 		.4byte	.LFB42
 2100 045b 34030000 		.4byte	.LFE42-.LFB42
 2101 045f 01       		.uleb128 0x1
 2102 0460 9C       		.byte	0x9c
 2103 0461 0D       		.uleb128 0xd
 2104 0462 FD060000 		.4byte	.LASF111
 2105 0466 01       		.byte	0x1
 2106 0467 9801     		.2byte	0x198
 2107 0469 00000000 		.4byte	.LFB43
 2108 046d D8000000 		.4byte	.LFE43-.LFB43
 2109 0471 01       		.uleb128 0x1
 2110 0472 9C       		.byte	0x9c
 2111 0473 0E       		.uleb128 0xe
 2112 0474 F8070000 		.4byte	.LASF112
 2113 0478 01       		.byte	0x1
 2114 0479 0D       		.byte	0xd
 2115 047a 6B000000 		.4byte	0x6b
 2116 047e 05       		.uleb128 0x5
 2117 047f 03       		.byte	0x3
 2118 0480 00000000 		.4byte	count
 2119 0484 0E       		.uleb128 0xe
 2120 0485 46000000 		.4byte	.LASF113
 2121 0489 01       		.byte	0x1
 2122 048a 0F       		.byte	0xf
 2123 048b C9020000 		.4byte	0x2c9
 2124 048f 05       		.uleb128 0x5
 2125 0490 03       		.byte	0x3
 2126 0491 00000000 		.4byte	Delay_Time
 2127 0495 0E       		.uleb128 0xe
 2128 0496 82060000 		.4byte	.LASF114
 2129 049a 01       		.byte	0x1
 2130 049b 10       		.byte	0x10
 2131 049c 73030000 		.4byte	0x373
 2132 04a0 05       		.uleb128 0x5
 2133 04a1 03       		.byte	0x3
 2134 04a2 00000000 		.4byte	Flag
 2135 04a6 0E       		.uleb128 0xe
 2136 04a7 B6000000 		.4byte	.LASF115
 2137 04ab 01       		.byte	0x1
 2138 04ac 11       		.byte	0x11
 2139 04ad F0030000 		.4byte	0x3f0
 2140 04b1 05       		.uleb128 0x5
 2141 04b2 03       		.byte	0x3
 2142 04b3 00000000 		.4byte	state
 2143 04b7 00       		.byte	0
 2144              		.section	.debug_abbrev,"",%progbits
 2145              	.Ldebug_abbrev0:
 2146 0000 01       		.uleb128 0x1
 2147 0001 11       		.uleb128 0x11
ARM GAS  C:\Users\ADMINI~1\AppData\Local\Temp\ccFUZzWX.s 			page 47


 2148 0002 01       		.byte	0x1
 2149 0003 25       		.uleb128 0x25
 2150 0004 0E       		.uleb128 0xe
 2151 0005 13       		.uleb128 0x13
 2152 0006 0B       		.uleb128 0xb
 2153 0007 03       		.uleb128 0x3
 2154 0008 0E       		.uleb128 0xe
 2155 0009 1B       		.uleb128 0x1b
 2156 000a 0E       		.uleb128 0xe
 2157 000b 55       		.uleb128 0x55
 2158 000c 17       		.uleb128 0x17
 2159 000d 11       		.uleb128 0x11
 2160 000e 01       		.uleb128 0x1
 2161 000f 10       		.uleb128 0x10
 2162 0010 17       		.uleb128 0x17
 2163 0011 00       		.byte	0
 2164 0012 00       		.byte	0
 2165 0013 02       		.uleb128 0x2
 2166 0014 24       		.uleb128 0x24
 2167 0015 00       		.byte	0
 2168 0016 0B       		.uleb128 0xb
 2169 0017 0B       		.uleb128 0xb
 2170 0018 3E       		.uleb128 0x3e
 2171 0019 0B       		.uleb128 0xb
 2172 001a 03       		.uleb128 0x3
 2173 001b 0E       		.uleb128 0xe
 2174 001c 00       		.byte	0
 2175 001d 00       		.byte	0
 2176 001e 03       		.uleb128 0x3
 2177 001f 24       		.uleb128 0x24
 2178 0020 00       		.byte	0
 2179 0021 0B       		.uleb128 0xb
 2180 0022 0B       		.uleb128 0xb
 2181 0023 3E       		.uleb128 0x3e
 2182 0024 0B       		.uleb128 0xb
 2183 0025 03       		.uleb128 0x3
 2184 0026 08       		.uleb128 0x8
 2185 0027 00       		.byte	0
 2186 0028 00       		.byte	0
 2187 0029 04       		.uleb128 0x4
 2188 002a 16       		.uleb128 0x16
 2189 002b 00       		.byte	0
 2190 002c 03       		.uleb128 0x3
 2191 002d 0E       		.uleb128 0xe
 2192 002e 3A       		.uleb128 0x3a
 2193 002f 0B       		.uleb128 0xb
 2194 0030 3B       		.uleb128 0x3b
 2195 0031 05       		.uleb128 0x5
 2196 0032 49       		.uleb128 0x49
 2197 0033 13       		.uleb128 0x13
 2198 0034 00       		.byte	0
 2199 0035 00       		.byte	0
 2200 0036 05       		.uleb128 0x5
 2201 0037 04       		.uleb128 0x4
 2202 0038 01       		.byte	0x1
 2203 0039 0B       		.uleb128 0xb
 2204 003a 0B       		.uleb128 0xb
ARM GAS  C:\Users\ADMINI~1\AppData\Local\Temp\ccFUZzWX.s 			page 48


 2205 003b 3A       		.uleb128 0x3a
 2206 003c 0B       		.uleb128 0xb
 2207 003d 3B       		.uleb128 0x3b
 2208 003e 0B       		.uleb128 0xb
 2209 003f 01       		.uleb128 0x1
 2210 0040 13       		.uleb128 0x13
 2211 0041 00       		.byte	0
 2212 0042 00       		.byte	0
 2213 0043 06       		.uleb128 0x6
 2214 0044 28       		.uleb128 0x28
 2215 0045 00       		.byte	0
 2216 0046 03       		.uleb128 0x3
 2217 0047 0E       		.uleb128 0xe
 2218 0048 1C       		.uleb128 0x1c
 2219 0049 0D       		.uleb128 0xd
 2220 004a 00       		.byte	0
 2221 004b 00       		.byte	0
 2222 004c 07       		.uleb128 0x7
 2223 004d 13       		.uleb128 0x13
 2224 004e 01       		.byte	0x1
 2225 004f 0B       		.uleb128 0xb
 2226 0050 0B       		.uleb128 0xb
 2227 0051 3A       		.uleb128 0x3a
 2228 0052 0B       		.uleb128 0xb
 2229 0053 3B       		.uleb128 0x3b
 2230 0054 0B       		.uleb128 0xb
 2231 0055 01       		.uleb128 0x1
 2232 0056 13       		.uleb128 0x13
 2233 0057 00       		.byte	0
 2234 0058 00       		.byte	0
 2235 0059 08       		.uleb128 0x8
 2236 005a 0D       		.uleb128 0xd
 2237 005b 00       		.byte	0
 2238 005c 03       		.uleb128 0x3
 2239 005d 0E       		.uleb128 0xe
 2240 005e 3A       		.uleb128 0x3a
 2241 005f 0B       		.uleb128 0xb
 2242 0060 3B       		.uleb128 0x3b
 2243 0061 0B       		.uleb128 0xb
 2244 0062 49       		.uleb128 0x49
 2245 0063 13       		.uleb128 0x13
 2246 0064 38       		.uleb128 0x38
 2247 0065 0B       		.uleb128 0xb
 2248 0066 00       		.byte	0
 2249 0067 00       		.byte	0
 2250 0068 09       		.uleb128 0x9
 2251 0069 16       		.uleb128 0x16
 2252 006a 00       		.byte	0
 2253 006b 03       		.uleb128 0x3
 2254 006c 0E       		.uleb128 0xe
 2255 006d 3A       		.uleb128 0x3a
 2256 006e 0B       		.uleb128 0xb
 2257 006f 3B       		.uleb128 0x3b
 2258 0070 0B       		.uleb128 0xb
 2259 0071 49       		.uleb128 0x49
 2260 0072 13       		.uleb128 0x13
 2261 0073 00       		.byte	0
ARM GAS  C:\Users\ADMINI~1\AppData\Local\Temp\ccFUZzWX.s 			page 49


 2262 0074 00       		.byte	0
 2263 0075 0A       		.uleb128 0xa
 2264 0076 0D       		.uleb128 0xd
 2265 0077 00       		.byte	0
 2266 0078 03       		.uleb128 0x3
 2267 0079 0E       		.uleb128 0xe
 2268 007a 3A       		.uleb128 0x3a
 2269 007b 0B       		.uleb128 0xb
 2270 007c 3B       		.uleb128 0x3b
 2271 007d 0B       		.uleb128 0xb
 2272 007e 49       		.uleb128 0x49
 2273 007f 13       		.uleb128 0x13
 2274 0080 0B       		.uleb128 0xb
 2275 0081 0B       		.uleb128 0xb
 2276 0082 0D       		.uleb128 0xd
 2277 0083 0B       		.uleb128 0xb
 2278 0084 0C       		.uleb128 0xc
 2279 0085 0B       		.uleb128 0xb
 2280 0086 38       		.uleb128 0x38
 2281 0087 0B       		.uleb128 0xb
 2282 0088 00       		.byte	0
 2283 0089 00       		.byte	0
 2284 008a 0B       		.uleb128 0xb
 2285 008b 2E       		.uleb128 0x2e
 2286 008c 00       		.byte	0
 2287 008d 3F       		.uleb128 0x3f
 2288 008e 19       		.uleb128 0x19
 2289 008f 03       		.uleb128 0x3
 2290 0090 0E       		.uleb128 0xe
 2291 0091 3A       		.uleb128 0x3a
 2292 0092 0B       		.uleb128 0xb
 2293 0093 3B       		.uleb128 0x3b
 2294 0094 0B       		.uleb128 0xb
 2295 0095 27       		.uleb128 0x27
 2296 0096 19       		.uleb128 0x19
 2297 0097 11       		.uleb128 0x11
 2298 0098 01       		.uleb128 0x1
 2299 0099 12       		.uleb128 0x12
 2300 009a 06       		.uleb128 0x6
 2301 009b 40       		.uleb128 0x40
 2302 009c 18       		.uleb128 0x18
 2303 009d 9642     		.uleb128 0x2116
 2304 009f 19       		.uleb128 0x19
 2305 00a0 00       		.byte	0
 2306 00a1 00       		.byte	0
 2307 00a2 0C       		.uleb128 0xc
 2308 00a3 2E       		.uleb128 0x2e
 2309 00a4 00       		.byte	0
 2310 00a5 3F       		.uleb128 0x3f
 2311 00a6 19       		.uleb128 0x19
 2312 00a7 03       		.uleb128 0x3
 2313 00a8 0E       		.uleb128 0xe
 2314 00a9 3A       		.uleb128 0x3a
 2315 00aa 0B       		.uleb128 0xb
 2316 00ab 3B       		.uleb128 0x3b
 2317 00ac 0B       		.uleb128 0xb
 2318 00ad 27       		.uleb128 0x27
ARM GAS  C:\Users\ADMINI~1\AppData\Local\Temp\ccFUZzWX.s 			page 50


 2319 00ae 19       		.uleb128 0x19
 2320 00af 11       		.uleb128 0x11
 2321 00b0 01       		.uleb128 0x1
 2322 00b1 12       		.uleb128 0x12
 2323 00b2 06       		.uleb128 0x6
 2324 00b3 40       		.uleb128 0x40
 2325 00b4 18       		.uleb128 0x18
 2326 00b5 9742     		.uleb128 0x2117
 2327 00b7 19       		.uleb128 0x19
 2328 00b8 00       		.byte	0
 2329 00b9 00       		.byte	0
 2330 00ba 0D       		.uleb128 0xd
 2331 00bb 2E       		.uleb128 0x2e
 2332 00bc 00       		.byte	0
 2333 00bd 3F       		.uleb128 0x3f
 2334 00be 19       		.uleb128 0x19
 2335 00bf 03       		.uleb128 0x3
 2336 00c0 0E       		.uleb128 0xe
 2337 00c1 3A       		.uleb128 0x3a
 2338 00c2 0B       		.uleb128 0xb
 2339 00c3 3B       		.uleb128 0x3b
 2340 00c4 05       		.uleb128 0x5
 2341 00c5 27       		.uleb128 0x27
 2342 00c6 19       		.uleb128 0x19
 2343 00c7 11       		.uleb128 0x11
 2344 00c8 01       		.uleb128 0x1
 2345 00c9 12       		.uleb128 0x12
 2346 00ca 06       		.uleb128 0x6
 2347 00cb 40       		.uleb128 0x40
 2348 00cc 18       		.uleb128 0x18
 2349 00cd 9642     		.uleb128 0x2116
 2350 00cf 19       		.uleb128 0x19
 2351 00d0 00       		.byte	0
 2352 00d1 00       		.byte	0
 2353 00d2 0E       		.uleb128 0xe
 2354 00d3 34       		.uleb128 0x34
 2355 00d4 00       		.byte	0
 2356 00d5 03       		.uleb128 0x3
 2357 00d6 0E       		.uleb128 0xe
 2358 00d7 3A       		.uleb128 0x3a
 2359 00d8 0B       		.uleb128 0xb
 2360 00d9 3B       		.uleb128 0x3b
 2361 00da 0B       		.uleb128 0xb
 2362 00db 49       		.uleb128 0x49
 2363 00dc 13       		.uleb128 0x13
 2364 00dd 3F       		.uleb128 0x3f
 2365 00de 19       		.uleb128 0x19
 2366 00df 02       		.uleb128 0x2
 2367 00e0 18       		.uleb128 0x18
 2368 00e1 00       		.byte	0
 2369 00e2 00       		.byte	0
 2370 00e3 00       		.byte	0
 2371              		.section	.debug_aranges,"",%progbits
 2372 0000 4C000000 		.4byte	0x4c
 2373 0004 0200     		.2byte	0x2
 2374 0006 00000000 		.4byte	.Ldebug_info0
 2375 000a 04       		.byte	0x4
ARM GAS  C:\Users\ADMINI~1\AppData\Local\Temp\ccFUZzWX.s 			page 51


 2376 000b 00       		.byte	0
 2377 000c 0000     		.2byte	0
 2378 000e 0000     		.2byte	0
 2379 0010 00000000 		.4byte	.LFB37
 2380 0014 C0000000 		.4byte	.LFE37-.LFB37
 2381 0018 00000000 		.4byte	.LFB38
 2382 001c 80000000 		.4byte	.LFE38-.LFB38
 2383 0020 00000000 		.4byte	.LFB39
 2384 0024 E8000000 		.4byte	.LFE39-.LFB39
 2385 0028 00000000 		.4byte	.LFB40
 2386 002c 54010000 		.4byte	.LFE40-.LFB40
 2387 0030 00000000 		.4byte	.LFB41
 2388 0034 44010000 		.4byte	.LFE41-.LFB41
 2389 0038 00000000 		.4byte	.LFB42
 2390 003c 34030000 		.4byte	.LFE42-.LFB42
 2391 0040 00000000 		.4byte	.LFB43
 2392 0044 D8000000 		.4byte	.LFE43-.LFB43
 2393 0048 00000000 		.4byte	0
 2394 004c 00000000 		.4byte	0
 2395              		.section	.debug_ranges,"",%progbits
 2396              	.Ldebug_ranges0:
 2397 0000 00000000 		.4byte	.LFB37
 2398 0004 C0000000 		.4byte	.LFE37
 2399 0008 00000000 		.4byte	.LFB38
 2400 000c 80000000 		.4byte	.LFE38
 2401 0010 00000000 		.4byte	.LFB39
 2402 0014 E8000000 		.4byte	.LFE39
 2403 0018 00000000 		.4byte	.LFB40
 2404 001c 54010000 		.4byte	.LFE40
 2405 0020 00000000 		.4byte	.LFB41
 2406 0024 44010000 		.4byte	.LFE41
 2407 0028 00000000 		.4byte	.LFB42
 2408 002c 34030000 		.4byte	.LFE42
 2409 0030 00000000 		.4byte	.LFB43
 2410 0034 D8000000 		.4byte	.LFE43
 2411 0038 00000000 		.4byte	0
 2412 003c 00000000 		.4byte	0
 2413              		.section	.debug_line,"",%progbits
 2414              	.Ldebug_line0:
 2415 0000 FB010000 		.section	.debug_str,"MS",%progbits,1
 2415      02006200 
 2415      00000201 
 2415      FB0E0D00 
 2415      01010101 
 2416              	.LASF91:
 2417 0000 4D6F7472 		.ascii	"Motro_Order_Step\000"
 2417      6F5F4F72 
 2417      6465725F 
 2417      53746570 
 2417      00
 2418              	.LASF94:
 2419 0011 4F70656E 		.ascii	"Open_Door_Upload\000"
 2419      5F446F6F 
 2419      725F5570 
 2419      6C6F6164 
 2419      00
 2420              	.LASF23:
ARM GAS  C:\Users\ADMINI~1\AppData\Local\Temp\ccFUZzWX.s 			page 52


 2421 0022 4359424C 		.ascii	"CYBLE_EVT_GAP_PASSKEY_ENTRY_REQUEST\000"
 2421      455F4556 
 2421      545F4741 
 2421      505F5041 
 2421      53534B45 
 2422              	.LASF113:
 2423 0046 44656C61 		.ascii	"Delay_Time\000"
 2423      795F5469 
 2423      6D6500
 2424              	.LASF47:
 2425 0051 4359424C 		.ascii	"CYBLE_EVT_GATTC_WRITE_RSP\000"
 2425      455F4556 
 2425      545F4741 
 2425      5454435F 
 2425      57524954 
 2426              	.LASF31:
 2427 006b 4359424C 		.ascii	"CYBLE_EVT_GAP_CONNECTION_UPDATE_COMPLETE\000"
 2427      455F4556 
 2427      545F4741 
 2427      505F434F 
 2427      4E4E4543 
 2428              	.LASF29:
 2429 0094 4359424C 		.ascii	"CYBLE_EVT_GAP_DEVICE_DISCONNECTED\000"
 2429      455F4556 
 2429      545F4741 
 2429      505F4445 
 2429      56494345 
 2430              	.LASF115:
 2431 00b6 73746174 		.ascii	"state\000"
 2431      6500
 2432              	.LASF50:
 2433 00bc 4359424C 		.ascii	"CYBLE_EVT_GATTS_EXEC_WRITE_REQ\000"
 2433      455F4556 
 2433      545F4741 
 2433      5454535F 
 2433      45584543 
 2434              	.LASF104:
 2435 00db 53544154 		.ascii	"STATE\000"
 2435      4500
 2436              	.LASF2:
 2437 00e1 73686F72 		.ascii	"short int\000"
 2437      7420696E 
 2437      7400
 2438              	.LASF26:
 2439 00eb 4359424C 		.ascii	"CYBLE_EVT_GAP_AUTH_FAILED\000"
 2439      455F4556 
 2439      545F4741 
 2439      505F4155 
 2439      54485F46 
 2440              	.LASF14:
 2441 0105 73697A65 		.ascii	"sizetype\000"
 2441      74797065 
 2441      00
 2442              	.LASF34:
 2443 010e 4359424C 		.ascii	"CYBLE_EVT_GATTC_ERROR_RSP\000"
 2443      455F4556 
 2443      545F4741 
ARM GAS  C:\Users\ADMINI~1\AppData\Local\Temp\ccFUZzWX.s 			page 53


 2443      5454435F 
 2443      4552524F 
 2444              	.LASF96:
 2445 0128 464C4147 		.ascii	"FLAG\000"
 2445      00
 2446              	.LASF19:
 2447 012d 4359424C 		.ascii	"CYBLE_EVT_HCI_STATUS\000"
 2447      455F4556 
 2447      545F4843 
 2447      495F5354 
 2447      41545553 
 2448              	.LASF40:
 2449 0142 4359424C 		.ascii	"CYBLE_EVT_GATTC_READ_BY_TYPE_RSP\000"
 2449      455F4556 
 2449      545F4741 
 2449      5454435F 
 2449      52454144 
 2450              	.LASF16:
 2451 0163 4359424C 		.ascii	"CYBLE_EVT_STACK_ON\000"
 2451      455F4556 
 2451      545F5354 
 2451      41434B5F 
 2451      4F4E00
 2452              	.LASF75:
 2453 0176 4D6F746F 		.ascii	"Motor_Delay\000"
 2453      725F4465 
 2453      6C617900 
 2454              	.LASF37:
 2455 0182 4359424C 		.ascii	"CYBLE_EVT_GATTS_XCNHG_MTU_REQ\000"
 2455      455F4556 
 2455      545F4741 
 2455      5454535F 
 2455      58434E48 
 2456              	.LASF73:
 2457 01a0 54696D65 		.ascii	"Timeout_Count\000"
 2457      6F75745F 
 2457      436F756E 
 2457      7400
 2458              	.LASF10:
 2459 01ae 75696E74 		.ascii	"uint16\000"
 2459      313600
 2460              	.LASF92:
 2461 01b5 416C6172 		.ascii	"Alarm_Work_Step\000"
 2461      6D5F576F 
 2461      726B5F53 
 2461      74657000 
 2462              	.LASF86:
 2463 01c5 4C6F636B 		.ascii	"Lock_Flag\000"
 2463      5F466C61 
 2463      6700
 2464              	.LASF33:
 2465 01cf 4359424C 		.ascii	"CYBLE_EVT_GAP_KEYINFO_EXCHNGE_CMPLT\000"
 2465      455F4556 
 2465      545F4741 
 2465      505F4B45 
 2465      59494E46 
 2466              	.LASF76:
ARM GAS  C:\Users\ADMINI~1\AppData\Local\Temp\ccFUZzWX.s 			page 54


 2467 01f3 53687269 		.ascii	"Shrink_Delay\000"
 2467      6E6B5F44 
 2467      656C6179 
 2467      00
 2468              	.LASF85:
 2469 0200 44656C61 		.ascii	"DelayTime\000"
 2469      7954696D 
 2469      6500
 2470              	.LASF54:
 2471 020a 4359424C 		.ascii	"CYBLE_EVT_GATTS_HANDLE_VALUE_CNF\000"
 2471      455F4556 
 2471      545F4741 
 2471      5454535F 
 2471      48414E44 
 2472              	.LASF15:
 2473 022b 4359424C 		.ascii	"CYBLE_EVT_HOST_INVALID\000"
 2473      455F4556 
 2473      545F484F 
 2473      53545F49 
 2473      4E56414C 
 2474              	.LASF116:
 2475 0242 474E5520 		.ascii	"GNU C 4.9.3 20150303 (release) [ARM/embedded-4_9-br"
 2475      4320342E 
 2475      392E3320 
 2475      32303135 
 2475      30333033 
 2476 0275 616E6368 		.ascii	"anch revision 221220] -mcpu=cortex-m0 -mthumb -g -O"
 2476      20726576 
 2476      6973696F 
 2476      6E203232 
 2476      31323230 
 2477 02a8 30202D66 		.ascii	"0 -ffunction-sections -ffat-lto-objects\000"
 2477      66756E63 
 2477      74696F6E 
 2477      2D736563 
 2477      74696F6E 
 2478              	.LASF118:
 2479 02d0 443A5C58 		.ascii	"D:\\XJP\\lxs_cyp\\Design02.cydsn\000"
 2479      4A505C6C 
 2479      78735F63 
 2479      79705C44 
 2479      65736967 
 2480              	.LASF64:
 2481 02ee 4359424C 		.ascii	"CYBLE_EVT_L2CAP_CBFC_DISCONN_CNF\000"
 2481      455F4556 
 2481      545F4C32 
 2481      4341505F 
 2481      43424643 
 2482              	.LASF11:
 2483 030f 666C6F61 		.ascii	"float\000"
 2483      7400
 2484              	.LASF43:
 2485 0315 4359424C 		.ascii	"CYBLE_EVT_GATTC_READ_RSP\000"
 2485      455F4556 
 2485      545F4741 
 2485      5454435F 
 2485      52454144 
ARM GAS  C:\Users\ADMINI~1\AppData\Local\Temp\ccFUZzWX.s 			page 55


 2486              	.LASF81:
 2487 032e 4653555F 		.ascii	"FSU_Open_Count\000"
 2487      4F70656E 
 2487      5F436F75 
 2487      6E7400
 2488              	.LASF6:
 2489 033d 6C6F6E67 		.ascii	"long long int\000"
 2489      206C6F6E 
 2489      6720696E 
 2489      7400
 2490              	.LASF7:
 2491 034b 6C6F6E67 		.ascii	"long long unsigned int\000"
 2491      206C6F6E 
 2491      6720756E 
 2491      7369676E 
 2491      65642069 
 2492              	.LASF13:
 2493 0362 63686172 		.ascii	"char\000"
 2493      00
 2494              	.LASF4:
 2495 0367 6C6F6E67 		.ascii	"long int\000"
 2495      20696E74 
 2495      00
 2496              	.LASF105:
 2497 0370 4653555F 		.ascii	"FSU_Open_Judge\000"
 2497      4F70656E 
 2497      5F4A7564 
 2497      676500
 2498              	.LASF106:
 2499 037f 4B65795F 		.ascii	"Key_Open_Judge\000"
 2499      4F70656E 
 2499      5F4A7564 
 2499      676500
 2500              	.LASF88:
 2501 038e 436C6F73 		.ascii	"Close_Door_Flag\000"
 2501      655F446F 
 2501      6F725F46 
 2501      6C616700 
 2502              	.LASF28:
 2503 039e 4359424C 		.ascii	"CYBLE_EVT_GAP_DEVICE_CONNECTED\000"
 2503      455F4556 
 2503      545F4741 
 2503      505F4445 
 2503      56494345 
 2504              	.LASF109:
 2505 03bd 4C6F636B 		.ascii	"Lock_Tongue_Dispose\000"
 2505      5F546F6E 
 2505      6775655F 
 2505      44697370 
 2505      6F736500 
 2506              	.LASF27:
 2507 03d1 4359424C 		.ascii	"CYBLE_EVT_GAPP_ADVERTISEMENT_START_STOP\000"
 2507      455F4556 
 2507      545F4741 
 2507      50505F41 
 2507      44564552 
 2508              	.LASF52:
ARM GAS  C:\Users\ADMINI~1\AppData\Local\Temp\ccFUZzWX.s 			page 56


 2509 03f9 4359424C 		.ascii	"CYBLE_EVT_GATTC_HANDLE_VALUE_NTF\000"
 2509      455F4556 
 2509      545F4741 
 2509      5454435F 
 2509      48414E44 
 2510              	.LASF20:
 2511 041a 4359424C 		.ascii	"CYBLE_EVT_STACK_BUSY_STATUS\000"
 2511      455F4556 
 2511      545F5354 
 2511      41434B5F 
 2511      42555359 
 2512              	.LASF77:
 2513 0436 4653555F 		.ascii	"FSU_OUT1_Count\000"
 2513      4F555431 
 2513      5F436F75 
 2513      6E7400
 2514              	.LASF24:
 2515 0445 4359424C 		.ascii	"CYBLE_EVT_GAP_PASSKEY_DISPLAY_REQUEST\000"
 2515      455F4556 
 2515      545F4741 
 2515      505F5041 
 2515      53534B45 
 2516              	.LASF53:
 2517 046b 4359424C 		.ascii	"CYBLE_EVT_GATTC_HANDLE_VALUE_IND\000"
 2517      455F4556 
 2517      545F4741 
 2517      5454435F 
 2517      48414E44 
 2518              	.LASF62:
 2519 048c 4359424C 		.ascii	"CYBLE_EVT_L2CAP_CBFC_CONN_CNF\000"
 2519      455F4556 
 2519      545F4C32 
 2519      4341505F 
 2519      43424643 
 2520              	.LASF71:
 2521 04aa 4359424C 		.ascii	"CYBLE_EVT_MAX\000"
 2521      455F4556 
 2521      545F4D41 
 2521      5800
 2522              	.LASF9:
 2523 04b8 75696E74 		.ascii	"uint8\000"
 2523      3800
 2524              	.LASF108:
 2525 04be 446F6F72 		.ascii	"Door_Judge\000"
 2525      5F4A7564 
 2525      676500
 2526              	.LASF58:
 2527 04c9 4359424C 		.ascii	"CYBLE_EVT_L2CAP_CONN_PARAM_UPDATE_REQ\000"
 2527      455F4556 
 2527      545F4C32 
 2527      4341505F 
 2527      434F4E4E 
 2528              	.LASF1:
 2529 04ef 756E7369 		.ascii	"unsigned char\000"
 2529      676E6564 
 2529      20636861 
 2529      7200
ARM GAS  C:\Users\ADMINI~1\AppData\Local\Temp\ccFUZzWX.s 			page 57


 2530              	.LASF49:
 2531 04fd 4359424C 		.ascii	"CYBLE_EVT_GATTS_PREP_WRITE_REQ\000"
 2531      455F4556 
 2531      545F4741 
 2531      5454535F 
 2531      50524550 
 2532              	.LASF70:
 2533 051c 4359424C 		.ascii	"CYBLE_EVT_LE_PING_AUTH_TIMEOUT\000"
 2533      455F4556 
 2533      545F4C45 
 2533      5F50494E 
 2533      475F4155 
 2534              	.LASF79:
 2535 053b 4653555F 		.ascii	"FSU_OUT3_Count\000"
 2535      4F555433 
 2535      5F436F75 
 2535      6E7400
 2536              	.LASF41:
 2537 054a 4359424C 		.ascii	"CYBLE_EVT_GATTC_FIND_INFO_RSP\000"
 2537      455F4556 
 2537      545F4741 
 2537      5454435F 
 2537      46494E44 
 2538              	.LASF0:
 2539 0568 7369676E 		.ascii	"signed char\000"
 2539      65642063 
 2539      68617200 
 2540              	.LASF46:
 2541 0574 4359424C 		.ascii	"CYBLE_EVT_GATTS_WRITE_REQ\000"
 2541      455F4556 
 2541      545F4741 
 2541      5454535F 
 2541      57524954 
 2542              	.LASF42:
 2543 058e 4359424C 		.ascii	"CYBLE_EVT_GATTC_FIND_BY_TYPE_VALUE_RSP\000"
 2543      455F4556 
 2543      545F4741 
 2543      5454435F 
 2543      46494E44 
 2544              	.LASF25:
 2545 05b5 4359424C 		.ascii	"CYBLE_EVT_GAP_AUTH_COMPLETE\000"
 2545      455F4556 
 2545      545F4741 
 2545      505F4155 
 2545      54485F43 
 2546              	.LASF8:
 2547 05d1 756E7369 		.ascii	"unsigned int\000"
 2547      676E6564 
 2547      20696E74 
 2547      00
 2548              	.LASF35:
 2549 05de 4359424C 		.ascii	"CYBLE_EVT_GATT_CONNECT_IND\000"
 2549      455F4556 
 2549      545F4741 
 2549      54545F43 
 2549      4F4E4E45 
 2550              	.LASF5:
ARM GAS  C:\Users\ADMINI~1\AppData\Local\Temp\ccFUZzWX.s 			page 58


 2551 05f9 6C6F6E67 		.ascii	"long unsigned int\000"
 2551      20756E73 
 2551      69676E65 
 2551      6420696E 
 2551      7400
 2552              	.LASF22:
 2553 060b 4359424C 		.ascii	"CYBLE_EVT_GAP_AUTH_REQ\000"
 2553      455F4556 
 2553      545F4741 
 2553      505F4155 
 2553      54485F52 
 2554              	.LASF63:
 2555 0622 4359424C 		.ascii	"CYBLE_EVT_L2CAP_CBFC_DISCONN_IND\000"
 2555      455F4556 
 2555      545F4C32 
 2555      4341505F 
 2555      43424643 
 2556              	.LASF30:
 2557 0643 4359424C 		.ascii	"CYBLE_EVT_GAP_ENCRYPT_CHANGE\000"
 2557      455F4556 
 2557      545F4741 
 2557      505F454E 
 2557      43525950 
 2558              	.LASF3:
 2559 0660 73686F72 		.ascii	"short unsigned int\000"
 2559      7420756E 
 2559      7369676E 
 2559      65642069 
 2559      6E7400
 2560              	.LASF80:
 2561 0673 4B65795F 		.ascii	"Key_Open_Count\000"
 2561      4F70656E 
 2561      5F436F75 
 2561      6E7400
 2562              	.LASF114:
 2563 0682 466C6167 		.ascii	"Flag\000"
 2563      00
 2564              	.LASF97:
 2565 0687 4653555F 		.ascii	"FSU_Signal\000"
 2565      5369676E 
 2565      616C00
 2566              	.LASF82:
 2567 0692 44656C61 		.ascii	"Delay_1ms\000"
 2567      795F316D 
 2567      7300
 2568              	.LASF117:
 2569 069c 2E5C7374 		.ascii	".\\struct.c\000"
 2569      72756374 
 2569      2E6300
 2570              	.LASF98:
 2571 06a7 42757474 		.ascii	"Button_Signal\000"
 2571      6F6E5F53 
 2571      69676E61 
 2571      6C00
 2572              	.LASF99:
 2573 06b5 4B65795F 		.ascii	"Key_Signal\000"
 2573      5369676E 
ARM GAS  C:\Users\ADMINI~1\AppData\Local\Temp\ccFUZzWX.s 			page 59


 2573      616C00
 2574              	.LASF60:
 2575 06c0 4359424C 		.ascii	"CYBLE_EVT_L2CAP_COMMAND_REJ\000"
 2575      455F4556 
 2575      545F4C32 
 2575      4341505F 
 2575      434F4D4D 
 2576              	.LASF93:
 2577 06dc 4B65795F 		.ascii	"Key_Open_Upload\000"
 2577      4F70656E 
 2577      5F55706C 
 2577      6F616400 
 2578              	.LASF89:
 2579 06ec 52654C6F 		.ascii	"ReLock_Work_Step\000"
 2579      636B5F57 
 2579      6F726B5F 
 2579      53746570 
 2579      00
 2580              	.LASF111:
 2581 06fd 4653555F 		.ascii	"FSU_Upload\000"
 2581      55706C6F 
 2581      616400
 2582              	.LASF44:
 2583 0708 4359424C 		.ascii	"CYBLE_EVT_GATTC_READ_BLOB_RSP\000"
 2583      455F4556 
 2583      545F4741 
 2583      5454435F 
 2583      52454144 
 2584              	.LASF51:
 2585 0726 4359424C 		.ascii	"CYBLE_EVT_GATTC_EXEC_WRITE_RSP\000"
 2585      455F4556 
 2585      545F4741 
 2585      5454435F 
 2585      45584543 
 2586              	.LASF32:
 2587 0745 4359424C 		.ascii	"CYBLE_EVT_GAPC_SCAN_START_STOP\000"
 2587      455F4556 
 2587      545F4741 
 2587      50435F53 
 2587      43414E5F 
 2588              	.LASF69:
 2589 0764 4359424C 		.ascii	"CYBLE_EVT_PENDING_FLASH_WRITE\000"
 2589      455F4556 
 2589      545F5045 
 2589      4E44494E 
 2589      475F464C 
 2590              	.LASF66:
 2591 0782 4359424C 		.ascii	"CYBLE_EVT_L2CAP_CBFC_RX_CREDIT_IND\000"
 2591      455F4556 
 2591      545F4C32 
 2591      4341505F 
 2591      43424643 
 2592              	.LASF12:
 2593 07a5 646F7562 		.ascii	"double\000"
 2593      6C6500
 2594              	.LASF107:
 2595 07ac 4C6F636B 		.ascii	"Lock_Judge\000"
ARM GAS  C:\Users\ADMINI~1\AppData\Local\Temp\ccFUZzWX.s 			page 60


 2595      5F4A7564 
 2595      676500
 2596              	.LASF67:
 2597 07b7 4359424C 		.ascii	"CYBLE_EVT_L2CAP_CBFC_TX_CREDIT_IND\000"
 2597      455F4556 
 2597      545F4C32 
 2597      4341505F 
 2597      43424643 
 2598              	.LASF61:
 2599 07da 4359424C 		.ascii	"CYBLE_EVT_L2CAP_CBFC_CONN_IND\000"
 2599      455F4556 
 2599      545F4C32 
 2599      4341505F 
 2599      43424643 
 2600              	.LASF112:
 2601 07f8 636F756E 		.ascii	"count\000"
 2601      7400
 2602              	.LASF18:
 2603 07fe 4359424C 		.ascii	"CYBLE_EVT_HARDWARE_ERROR\000"
 2603      455F4556 
 2603      545F4841 
 2603      52445741 
 2603      52455F45 
 2604              	.LASF65:
 2605 0817 4359424C 		.ascii	"CYBLE_EVT_L2CAP_CBFC_DATA_READ\000"
 2605      455F4556 
 2605      545F4C32 
 2605      4341505F 
 2605      43424643 
 2606              	.LASF59:
 2607 0836 4359424C 		.ascii	"CYBLE_EVT_L2CAP_CONN_PARAM_UPDATE_RSP\000"
 2607      455F4556 
 2607      545F4C32 
 2607      4341505F 
 2607      434F4E4E 
 2608              	.LASF110:
 2609 085c 4D6F746F 		.ascii	"Motor_Work\000"
 2609      725F576F 
 2609      726B00
 2610              	.LASF21:
 2611 0867 4359424C 		.ascii	"CYBLE_EVT_GAPC_SCAN_PROGRESS_RESULT\000"
 2611      455F4556 
 2611      545F4741 
 2611      50435F53 
 2611      43414E5F 
 2612              	.LASF90:
 2613 088b 4D6F746F 		.ascii	"Motor_Work_Step\000"
 2613      725F576F 
 2613      726B5F53 
 2613      74657000 
 2614              	.LASF17:
 2615 089b 4359424C 		.ascii	"CYBLE_EVT_TIMEOUT\000"
 2615      455F4556 
 2615      545F5449 
 2615      4D454F55 
 2615      5400
 2616              	.LASF39:
ARM GAS  C:\Users\ADMINI~1\AppData\Local\Temp\ccFUZzWX.s 			page 61


 2617 08ad 4359424C 		.ascii	"CYBLE_EVT_GATTC_READ_BY_GROUP_TYPE_RSP\000"
 2617      455F4556 
 2617      545F4741 
 2617      5454435F 
 2617      52454144 
 2618              	.LASF48:
 2619 08d4 4359424C 		.ascii	"CYBLE_EVT_GATTS_WRITE_CMD_REQ\000"
 2619      455F4556 
 2619      545F4741 
 2619      5454535F 
 2619      57524954 
 2620              	.LASF38:
 2621 08f2 4359424C 		.ascii	"CYBLE_EVT_GATTC_XCHNG_MTU_RSP\000"
 2621      455F4556 
 2621      545F4741 
 2621      5454435F 
 2621      5843484E 
 2622              	.LASF45:
 2623 0910 4359424C 		.ascii	"CYBLE_EVT_GATTC_READ_MULTI_RSP\000"
 2623      455F4556 
 2623      545F4741 
 2623      5454435F 
 2623      52454144 
 2624              	.LASF87:
 2625 092f 556E6C6F 		.ascii	"Unlock_Flag\000"
 2625      636B5F46 
 2625      6C616700 
 2626              	.LASF68:
 2627 093b 4359424C 		.ascii	"CYBLE_EVT_L2CAP_CBFC_DATA_WRITE_IND\000"
 2627      455F4556 
 2627      545F4C32 
 2627      4341505F 
 2627      43424643 
 2628              	.LASF72:
 2629 095f 44656C61 		.ascii	"Delay_Count\000"
 2629      795F436F 
 2629      756E7400 
 2630              	.LASF95:
 2631 096b 4C6F636B 		.ascii	"Lock_Exception_Upload\000"
 2631      5F457863 
 2631      65707469 
 2631      6F6E5F55 
 2631      706C6F61 
 2632              	.LASF84:
 2633 0981 4661696C 		.ascii	"Fail_Count\000"
 2633      5F436F75 
 2633      6E7400
 2634              	.LASF57:
 2635 098c 4359424C 		.ascii	"CYBLE_EVT_GATTS_READ_CHAR_VAL_ACCESS_REQ\000"
 2635      455F4556 
 2635      545F4741 
 2635      5454535F 
 2635      52454144 
 2636              	.LASF56:
 2637 09b5 4359424C 		.ascii	"CYBLE_EVT_GATTC_STOP_CMD_COMPLETE\000"
 2637      455F4556 
 2637      545F4741 
ARM GAS  C:\Users\ADMINI~1\AppData\Local\Temp\ccFUZzWX.s 			page 62


 2637      5454435F 
 2637      53544F50 
 2638              	.LASF102:
 2639 09d7 446F6F72 		.ascii	"Door_Sensor_Signal\000"
 2639      5F53656E 
 2639      736F725F 
 2639      5369676E 
 2639      616C00
 2640              	.LASF74:
 2641 09ea 416C6172 		.ascii	"Alarm_Count\000"
 2641      6D5F436F 
 2641      756E7400 
 2642              	.LASF100:
 2643 09f6 53687269 		.ascii	"Shrink_Sensor_Signal\000"
 2643      6E6B5F53 
 2643      656E736F 
 2643      725F5369 
 2643      676E616C 
 2644              	.LASF78:
 2645 0a0b 4653555F 		.ascii	"FSU_OUT2_Count\000"
 2645      4F555432 
 2645      5F436F75 
 2645      6E7400
 2646              	.LASF83:
 2647 0a1a 44656C61 		.ascii	"Delay_100ms\000"
 2647      795F3130 
 2647      306D7300 
 2648              	.LASF55:
 2649 0a26 4359424C 		.ascii	"CYBLE_EVT_GATTS_DATA_SIGNED_CMD_REQ\000"
 2649      455F4556 
 2649      545F4741 
 2649      5454535F 
 2649      44415441 
 2650              	.LASF36:
 2651 0a4a 4359424C 		.ascii	"CYBLE_EVT_GATT_DISCONNECT_IND\000"
 2651      455F4556 
 2651      545F4741 
 2651      54545F44 
 2651      4953434F 
 2652              	.LASF103:
 2653 0a68 5072696F 		.ascii	"Prior_Door_Sensor_Signal\000"
 2653      725F446F 
 2653      6F725F53 
 2653      656E736F 
 2653      725F5369 
 2654              	.LASF101:
 2655 0a81 45787465 		.ascii	"Extend_Sensor_Signal\000"
 2655      6E645F53 
 2655      656E736F 
 2655      725F5369 
 2655      676E616C 
 2656              		.ident	"GCC: (GNU Tools for ARM Embedded Processors) 4.9.3 20150303 (release) [ARM/embedded-4_9-br
