ARM GAS  C:\Users\ADMINI~1\AppData\Local\Temp\ccFUZzWX.s 			page 1


   1              		.cpu cortex-m0
   2              		.fpu softvfp
   3              		.eabi_attribute 20, 1
   4              		.eabi_attribute 21, 1
   5              		.eabi_attribute 23, 3
   6              		.eabi_attribute 24, 1
   7              		.eabi_attribute 25, 1
   8              		.eabi_attribute 26, 1
   9              		.eabi_attribute 30, 6
  10              		.eabi_attribute 34, 0
  11              		.eabi_attribute 18, 4
  12              		.code	16
  13              		.file	"struct.c"
  14              		.text
  15              	.Ltext0:
  16              		.cfi_sections	.debug_frame
  17              		.global	count
  18              		.bss
  19              		.type	count, %object
  20              		.size	count, 1
  21              	count:
  22 0000 00       		.space	1
  23              		.global	Delay_Time
  24 0001 000000   		.align	2
  25              		.type	Delay_Time, %object
  26              		.size	Delay_Time, 24
  27              	Delay_Time:
  28 0004 00000000 		.space	24
  28      00000000 
  28      00000000 
  28      00000000 
  28      00000000 
  29              		.global	Flag
  30              		.align	2
  31              		.type	Flag, %object
  32              		.size	Flag, 4
  33              	Flag:
  34 001c 00000000 		.space	4
  35              		.global	state
  36              		.align	2
  37              		.type	state, %object
  38              		.size	state, 4
  39              	state:
  40 0020 00000000 		.space	4
  41              		.section	.text.FSU_Open_Judge,"ax",%progbits
  42              		.align	2
  43              		.global	FSU_Open_Judge
  44              		.code	16
  45              		.thumb_func
  46              		.type	FSU_Open_Judge, %function
  47              	FSU_Open_Judge:
  48              	.LFB37:
  49              		.file 1 ".\\struct.c"
   1:.\struct.c    **** /* ========================================
   2:.\struct.c    ****  *
   3:.\struct.c    ****  * Copyright YOUR COMPANY, THE YEAR
   4:.\struct.c    ****  * All Rights Reserved
ARM GAS  C:\Users\ADMINI~1\AppData\Local\Temp\ccFUZzWX.s 			page 2


   5:.\struct.c    ****  * UNPUBLISHED, LICENSED SOFTWARE.
   6:.\struct.c    ****  *
   7:.\struct.c    ****  * CONFIDENTIAL AND PROPRIETARY INFORMATION
   8:.\struct.c    ****  * WHICH IS THE PROPERTY OF your company.
   9:.\struct.c    ****  *
  10:.\struct.c    ****  * ========================================
  11:.\struct.c    **** */
  12:.\struct.c    **** #include "struct.h"
  13:.\struct.c    **** uint8 count = 0;
  14:.\struct.c    **** 
  15:.\struct.c    **** DelayTime  Delay_Time = {};
  16:.\struct.c    **** FLAG  Flag = {};
  17:.\struct.c    **** STATE  state = {};
  18:.\struct.c    **** 
  19:.\struct.c    **** 
  20:.\struct.c    **** /***********************************************************
  21:.\struct.c    ****  * @function_name: void FSU_Open_Judge(void)
  22:.\struct.c    ****  * @function_file: struct.c
  23:.\struct.c    ****  * @描  述：       FSU开门判断
  24:.\struct.c    ****  * @参  数：       无
  25:.\struct.c    ****  * @返  回：       无
  26:.\struct.c    ****  **********************************************************/
  27:.\struct.c    **** void FSU_Open_Judge(void)
  28:.\struct.c    **** {
  50              		.loc 1 28 0
  51              		.cfi_startproc
  52 0000 80B5     		push	{r7, lr}
  53              		.cfi_def_cfa_offset 8
  54              		.cfi_offset 7, -8
  55              		.cfi_offset 14, -4
  56 0002 00AF     		add	r7, sp, #0
  57              		.cfi_def_cfa_register 7
  29:.\struct.c    ****     state.FSU_Signal = FSU_DO_Read();
  58              		.loc 1 29 0
  59 0004 FFF7FEFF 		bl	FSU_DO_Read
  60 0008 031C     		mov	r3, r0
  61 000a 1A1C     		add	r2, r3, #0
  62 000c 0123     		mov	r3, #1
  63 000e 1340     		and	r3, r2
  64 0010 DAB2     		uxtb	r2, r3
  65 0012 274B     		ldr	r3, .L6
  66 0014 0121     		mov	r1, #1
  67 0016 0A40     		and	r2, r1
  68 0018 101C     		mov	r0, r2
  69 001a 1A78     		ldrb	r2, [r3]
  70 001c 0121     		mov	r1, #1
  71 001e 8A43     		bic	r2, r1
  72 0020 111C     		add	r1, r2, #0
  73 0022 021C     		add	r2, r0, #0
  74 0024 0A43     		orr	r2, r1
  75 0026 1A70     		strb	r2, [r3]
  30:.\struct.c    ****     if(!state.FSU_Signal)
  76              		.loc 1 30 0
  77 0028 214B     		ldr	r3, .L6
  78 002a 1B78     		ldrb	r3, [r3]
  79 002c 0122     		mov	r2, #1
  80 002e 1340     		and	r3, r2
ARM GAS  C:\Users\ADMINI~1\AppData\Local\Temp\ccFUZzWX.s 			page 3


  81 0030 DBB2     		uxtb	r3, r3
  82 0032 002B     		cmp	r3, #0
  83 0034 36D1     		bne	.L2
  31:.\struct.c    ****     {
  32:.\struct.c    ****         Delay_Time.FSU_Open_Count ++;
  84              		.loc 1 32 0
  85 0036 1F4B     		ldr	r3, .L6+4
  86 0038 5B8A     		ldrh	r3, [r3, #18]
  87 003a 0133     		add	r3, r3, #1
  88 003c 9AB2     		uxth	r2, r3
  89 003e 1D4B     		ldr	r3, .L6+4
  90 0040 5A82     		strh	r2, [r3, #18]
  33:.\struct.c    ****          if(Delay_Time.FSU_Open_Count < DELAY_2S)
  91              		.loc 1 33 0
  92 0042 1C4B     		ldr	r3, .L6+4
  93 0044 5B8A     		ldrh	r3, [r3, #18]
  94 0046 1C4A     		ldr	r2, .L6+8
  95 0048 9342     		cmp	r3, r2
  96 004a 05D8     		bhi	.L3
  34:.\struct.c    ****         {
  35:.\struct.c    ****             Delay_Time.FSU_Open_Count ++;
  97              		.loc 1 35 0
  98 004c 194B     		ldr	r3, .L6+4
  99 004e 5B8A     		ldrh	r3, [r3, #18]
 100 0050 0133     		add	r3, r3, #1
 101 0052 9AB2     		uxth	r2, r3
 102 0054 174B     		ldr	r3, .L6+4
 103 0056 5A82     		strh	r2, [r3, #18]
 104              	.L3:
  36:.\struct.c    ****         }
  37:.\struct.c    ****         if(Delay_Time.FSU_Open_Count == DELAY_1S)   //1秒
 105              		.loc 1 37 0
 106 0058 164B     		ldr	r3, .L6+4
 107 005a 5A8A     		ldrh	r2, [r3, #18]
 108 005c FA23     		mov	r3, #250
 109 005e 9B00     		lsl	r3, r3, #2
 110 0060 9A42     		cmp	r2, r3
 111 0062 22D1     		bne	.L1
  38:.\struct.c    ****         {
  39:.\struct.c    ****             Delay_Time.Timeout_Count = 0;
 112              		.loc 1 39 0
 113 0064 134B     		ldr	r3, .L6+4
 114 0066 0022     		mov	r2, #0
 115 0068 5A80     		strh	r2, [r3, #2]
  40:.\struct.c    ****             if(state.Shrink_Sensor_Signal != HALL_CLOSE)
 116              		.loc 1 40 0
 117 006a 114B     		ldr	r3, .L6
 118 006c 1B78     		ldrb	r3, [r3]
 119 006e 0822     		mov	r2, #8
 120 0070 1340     		and	r3, r2
 121 0072 DBB2     		uxtb	r3, r3
 122 0074 002B     		cmp	r3, #0
 123 0076 18D0     		beq	.L1
  41:.\struct.c    ****             {
  42:.\struct.c    ****                 Flag.Unlock_Flag = 1;
 124              		.loc 1 42 0
 125 0078 104B     		ldr	r3, .L6+12
ARM GAS  C:\Users\ADMINI~1\AppData\Local\Temp\ccFUZzWX.s 			page 4


 126 007a 1A78     		ldrb	r2, [r3]
 127 007c 0221     		mov	r1, #2
 128 007e 0A43     		orr	r2, r1
 129 0080 1A70     		strb	r2, [r3]
  43:.\struct.c    ****                 Flag.Motor_Work_Step = MOTOR_FORWARD;
 130              		.loc 1 43 0
 131 0082 0E4B     		ldr	r3, .L6+12
 132 0084 1A78     		ldrb	r2, [r3]
 133 0086 6021     		mov	r1, #96
 134 0088 8A43     		bic	r2, r1
 135 008a 111C     		add	r1, r2, #0
 136 008c 2022     		mov	r2, #32
 137 008e 0A43     		orr	r2, r1
 138 0090 1A70     		strb	r2, [r3]
  44:.\struct.c    ****                 Flag.Alarm_Work_Step = EVENT_4;    
 139              		.loc 1 44 0
 140 0092 0A4B     		ldr	r3, .L6+12
 141 0094 5A78     		ldrb	r2, [r3, #1]
 142 0096 1C21     		mov	r1, #28
 143 0098 8A43     		bic	r2, r1
 144 009a 111C     		add	r1, r2, #0
 145 009c 1022     		mov	r2, #16
 146 009e 0A43     		orr	r2, r1
 147 00a0 5A70     		strb	r2, [r3, #1]
 148 00a2 02E0     		b	.L1
 149              	.L2:
  45:.\struct.c    ****             }
  46:.\struct.c    ****         }              
  47:.\struct.c    ****     }
  48:.\struct.c    ****     else
  49:.\struct.c    ****     {
  50:.\struct.c    ****         Delay_Time.FSU_Open_Count = 0;
 150              		.loc 1 50 0
 151 00a4 034B     		ldr	r3, .L6+4
 152 00a6 0022     		mov	r2, #0
 153 00a8 5A82     		strh	r2, [r3, #18]
 154              	.L1:
  51:.\struct.c    ****     }
  52:.\struct.c    **** }
 155              		.loc 1 52 0
 156 00aa BD46     		mov	sp, r7
 157              		@ sp needed
 158 00ac 80BD     		pop	{r7, pc}
 159              	.L7:
 160 00ae C046     		.align	2
 161              	.L6:
 162 00b0 00000000 		.word	state
 163 00b4 00000000 		.word	Delay_Time
 164 00b8 CF070000 		.word	1999
 165 00bc 00000000 		.word	Flag
 166              		.cfi_endproc
 167              	.LFE37:
 168              		.size	FSU_Open_Judge, .-FSU_Open_Judge
 169              		.section	.text.Key_Open_Judge,"ax",%progbits
 170              		.align	2
 171              		.global	Key_Open_Judge
 172              		.code	16
ARM GAS  C:\Users\ADMINI~1\AppData\Local\Temp\ccFUZzWX.s 			page 5


 173              		.thumb_func
 174              		.type	Key_Open_Judge, %function
 175              	Key_Open_Judge:
 176              	.LFB38:
  53:.\struct.c    **** 
  54:.\struct.c    **** /***********************************************************
  55:.\struct.c    ****  * @function_name: void Key_Open_Judge(void)
  56:.\struct.c    ****  * @function_file: struct.c
  57:.\struct.c    ****  * @描  述：       钥匙开门判断
  58:.\struct.c    ****  * @参  数：       无
  59:.\struct.c    ****  * @返  回：       无
  60:.\struct.c    ****  **********************************************************/
  61:.\struct.c    **** void Key_Open_Judge(void)
  62:.\struct.c    **** {
 177              		.loc 1 62 0
 178              		.cfi_startproc
 179 0000 80B5     		push	{r7, lr}
 180              		.cfi_def_cfa_offset 8
 181              		.cfi_offset 7, -8
 182              		.cfi_offset 14, -4
 183 0002 00AF     		add	r7, sp, #0
 184              		.cfi_def_cfa_register 7
  63:.\struct.c    ****     state.Key_Signal = key_sensor_Read();
 185              		.loc 1 63 0
 186 0004 FFF7FEFF 		bl	key_sensor_Read
 187 0008 031C     		mov	r3, r0
 188 000a 1A1C     		add	r2, r3, #0
 189 000c 0123     		mov	r3, #1
 190 000e 1340     		and	r3, r2
 191 0010 DAB2     		uxtb	r2, r3
 192 0012 174B     		ldr	r3, .L13
 193 0014 0121     		mov	r1, #1
 194 0016 0A40     		and	r2, r1
 195 0018 9000     		lsl	r0, r2, #2
 196 001a 1A78     		ldrb	r2, [r3]
 197 001c 0421     		mov	r1, #4
 198 001e 8A43     		bic	r2, r1
 199 0020 111C     		add	r1, r2, #0
 200 0022 021C     		add	r2, r0, #0
 201 0024 0A43     		orr	r2, r1
 202 0026 1A70     		strb	r2, [r3]
  64:.\struct.c    ****     if(state.Key_Signal)
 203              		.loc 1 64 0
 204 0028 114B     		ldr	r3, .L13
 205 002a 1B78     		ldrb	r3, [r3]
 206 002c 0422     		mov	r2, #4
 207 002e 1340     		and	r3, r2
 208 0030 DBB2     		uxtb	r3, r3
 209 0032 002B     		cmp	r3, #0
 210 0034 16D0     		beq	.L9
  65:.\struct.c    ****     {
  66:.\struct.c    ****         if(Delay_Time.Key_Open_Count < DELAY_2S)
 211              		.loc 1 66 0
 212 0036 0F4B     		ldr	r3, .L13+4
 213 0038 1B8A     		ldrh	r3, [r3, #16]
 214 003a 0F4A     		ldr	r2, .L13+8
 215 003c 9342     		cmp	r3, r2
ARM GAS  C:\Users\ADMINI~1\AppData\Local\Temp\ccFUZzWX.s 			page 6


 216 003e 05D8     		bhi	.L10
  67:.\struct.c    ****         {
  68:.\struct.c    ****             Delay_Time.Key_Open_Count ++;
 217              		.loc 1 68 0
 218 0040 0C4B     		ldr	r3, .L13+4
 219 0042 1B8A     		ldrh	r3, [r3, #16]
 220 0044 0133     		add	r3, r3, #1
 221 0046 9AB2     		uxth	r2, r3
 222 0048 0A4B     		ldr	r3, .L13+4
 223 004a 1A82     		strh	r2, [r3, #16]
 224              	.L10:
  69:.\struct.c    ****         }
  70:.\struct.c    ****         if(Delay_Time.Key_Open_Count == DELAY_1S)   //1秒
 225              		.loc 1 70 0
 226 004c 094B     		ldr	r3, .L13+4
 227 004e 1A8A     		ldrh	r2, [r3, #16]
 228 0050 FA23     		mov	r3, #250
 229 0052 9B00     		lsl	r3, r3, #2
 230 0054 9A42     		cmp	r2, r3
 231 0056 08D1     		bne	.L8
  71:.\struct.c    ****         {
  72:.\struct.c    ****             Flag.Key_Open_Upload = 1; 
 232              		.loc 1 72 0
 233 0058 084B     		ldr	r3, .L13+12
 234 005a 5A78     		ldrb	r2, [r3, #1]
 235 005c 2021     		mov	r1, #32
 236 005e 0A43     		orr	r2, r1
 237 0060 5A70     		strb	r2, [r3, #1]
 238 0062 02E0     		b	.L8
 239              	.L9:
  73:.\struct.c    ****         }
  74:.\struct.c    ****     }
  75:.\struct.c    ****     else
  76:.\struct.c    ****     {
  77:.\struct.c    ****         Delay_Time.Key_Open_Count = 0;
 240              		.loc 1 77 0
 241 0064 034B     		ldr	r3, .L13+4
 242 0066 0022     		mov	r2, #0
 243 0068 1A82     		strh	r2, [r3, #16]
 244              	.L8:
  78:.\struct.c    ****     }
  79:.\struct.c    **** }
 245              		.loc 1 79 0
 246 006a BD46     		mov	sp, r7
 247              		@ sp needed
 248 006c 80BD     		pop	{r7, pc}
 249              	.L14:
 250 006e C046     		.align	2
 251              	.L13:
 252 0070 00000000 		.word	state
 253 0074 00000000 		.word	Delay_Time
 254 0078 CF070000 		.word	1999
 255 007c 00000000 		.word	Flag
 256              		.cfi_endproc
 257              	.LFE38:
 258              		.size	Key_Open_Judge, .-Key_Open_Judge
 259              		.section	.text.Lock_Judge,"ax",%progbits
ARM GAS  C:\Users\ADMINI~1\AppData\Local\Temp\ccFUZzWX.s 			page 7


 260              		.align	2
 261              		.global	Lock_Judge
 262              		.code	16
 263              		.thumb_func
 264              		.type	Lock_Judge, %function
 265              	Lock_Judge:
 266              	.LFB39:
  80:.\struct.c    **** 
  81:.\struct.c    **** 
  82:.\struct.c    **** /***********************************************************
  83:.\struct.c    ****  * @function_name: void Lock_Judge(void)
  84:.\struct.c    ****  * @function_file: struct.c
  85:.\struct.c    ****  * @描  述：       锁舌判断，以及对应的电机处理
  86:.\struct.c    ****  * @参  数：       无
  87:.\struct.c    ****  * @返  回：       无
  88:.\struct.c    ****  **********************************************************/
  89:.\struct.c    **** void Lock_Judge(void)
  90:.\struct.c    **** {
 267              		.loc 1 90 0
 268              		.cfi_startproc
 269 0000 80B5     		push	{r7, lr}
 270              		.cfi_def_cfa_offset 8
 271              		.cfi_offset 7, -8
 272              		.cfi_offset 14, -4
 273 0002 00AF     		add	r7, sp, #0
 274              		.cfi_def_cfa_register 7
  91:.\struct.c    ****     state.Shrink_Sensor_Signal = shrink_sensor_Read();  //读收缩传感器信号
 275              		.loc 1 91 0
 276 0004 FFF7FEFF 		bl	shrink_sensor_Read
 277 0008 031C     		mov	r3, r0
 278 000a 1A1C     		add	r2, r3, #0
 279 000c 0123     		mov	r3, #1
 280 000e 1340     		and	r3, r2
 281 0010 DAB2     		uxtb	r2, r3
 282 0012 324B     		ldr	r3, .L18
 283 0014 0121     		mov	r1, #1
 284 0016 0A40     		and	r2, r1
 285 0018 D000     		lsl	r0, r2, #3
 286 001a 1A78     		ldrb	r2, [r3]
 287 001c 0821     		mov	r1, #8
 288 001e 8A43     		bic	r2, r1
 289 0020 111C     		add	r1, r2, #0
 290 0022 021C     		add	r2, r0, #0
 291 0024 0A43     		orr	r2, r1
 292 0026 1A70     		strb	r2, [r3]
  92:.\struct.c    ****     if((state.Shrink_Sensor_Signal == HALL_CLOSE) && (Flag.Unlock_Flag))
 293              		.loc 1 92 0
 294 0028 2C4B     		ldr	r3, .L18
 295 002a 1B78     		ldrb	r3, [r3]
 296 002c 0822     		mov	r2, #8
 297 002e 1340     		and	r3, r2
 298 0030 DBB2     		uxtb	r3, r3
 299 0032 002B     		cmp	r3, #0
 300 0034 1DD1     		bne	.L16
 301              		.loc 1 92 0 is_stmt 0 discriminator 1
 302 0036 2A4B     		ldr	r3, .L18+4
 303 0038 1B78     		ldrb	r3, [r3]
ARM GAS  C:\Users\ADMINI~1\AppData\Local\Temp\ccFUZzWX.s 			page 8


 304 003a 0222     		mov	r2, #2
 305 003c 1340     		and	r3, r2
 306 003e DBB2     		uxtb	r3, r3
 307 0040 002B     		cmp	r3, #0
 308 0042 16D0     		beq	.L16
  93:.\struct.c    ****     {
  94:.\struct.c    ****         Delay_Time.Shrink_Delay ++;
 309              		.loc 1 94 0 is_stmt 1
 310 0044 274B     		ldr	r3, .L18+8
 311 0046 1B89     		ldrh	r3, [r3, #8]
 312 0048 0133     		add	r3, r3, #1
 313 004a 9AB2     		uxth	r2, r3
 314 004c 254B     		ldr	r3, .L18+8
 315 004e 1A81     		strh	r2, [r3, #8]
  95:.\struct.c    ****         if(Delay_Time.Shrink_Delay > SHRINK_DELAY)
 316              		.loc 1 95 0
 317 0050 244B     		ldr	r3, .L18+8
 318 0052 1B89     		ldrh	r3, [r3, #8]
 319 0054 502B     		cmp	r3, #80
 320 0056 0CD9     		bls	.L16
  96:.\struct.c    ****         {
  97:.\struct.c    ****             Delay_Time.Shrink_Delay = 0;
 321              		.loc 1 97 0
 322 0058 224B     		ldr	r3, .L18+8
 323 005a 0022     		mov	r2, #0
 324 005c 1A81     		strh	r2, [r3, #8]
  98:.\struct.c    ****             Flag.Unlock_Flag = 0;
 325              		.loc 1 98 0
 326 005e 204B     		ldr	r3, .L18+4
 327 0060 1A78     		ldrb	r2, [r3]
 328 0062 0221     		mov	r1, #2
 329 0064 8A43     		bic	r2, r1
 330 0066 1A70     		strb	r2, [r3]
  99:.\struct.c    ****             Flag.Motor_Work_Step = MOTOR_STOP;
 331              		.loc 1 99 0
 332 0068 1D4B     		ldr	r3, .L18+4
 333 006a 1A78     		ldrb	r2, [r3]
 334 006c 6021     		mov	r1, #96
 335 006e 8A43     		bic	r2, r1
 336 0070 1A70     		strb	r2, [r3]
 337              	.L16:
 100:.\struct.c    ****         }
 101:.\struct.c    ****     }
 102:.\struct.c    ****    
 103:.\struct.c    ****     state.Extend_Sensor_Signal = extend_sensor_Read();  //读伸出传感器信号
 338              		.loc 1 103 0
 339 0072 FFF7FEFF 		bl	extend_sensor_Read
 340 0076 031C     		mov	r3, r0
 341 0078 1A1C     		add	r2, r3, #0
 342 007a 0123     		mov	r3, #1
 343 007c 1340     		and	r3, r2
 344 007e DAB2     		uxtb	r2, r3
 345 0080 164B     		ldr	r3, .L18
 346 0082 0121     		mov	r1, #1
 347 0084 0A40     		and	r2, r1
 348 0086 1001     		lsl	r0, r2, #4
 349 0088 1A78     		ldrb	r2, [r3]
ARM GAS  C:\Users\ADMINI~1\AppData\Local\Temp\ccFUZzWX.s 			page 9


 350 008a 1021     		mov	r1, #16
 351 008c 8A43     		bic	r2, r1
 352 008e 111C     		add	r1, r2, #0
 353 0090 021C     		add	r2, r0, #0
 354 0092 0A43     		orr	r2, r1
 355 0094 1A70     		strb	r2, [r3]
 104:.\struct.c    ****     if((state.Extend_Sensor_Signal == HALL_CLOSE) && (Flag.Lock_Flag))
 356              		.loc 1 104 0
 357 0096 114B     		ldr	r3, .L18
 358 0098 1B78     		ldrb	r3, [r3]
 359 009a 1022     		mov	r2, #16
 360 009c 1340     		and	r3, r2
 361 009e DBB2     		uxtb	r3, r3
 362 00a0 002B     		cmp	r3, #0
 363 00a2 18D1     		bne	.L15
 364              		.loc 1 104 0 is_stmt 0 discriminator 1
 365 00a4 0E4B     		ldr	r3, .L18+4
 366 00a6 1B78     		ldrb	r3, [r3]
 367 00a8 0122     		mov	r2, #1
 368 00aa 1340     		and	r3, r2
 369 00ac DBB2     		uxtb	r3, r3
 370 00ae 002B     		cmp	r3, #0
 371 00b0 11D0     		beq	.L15
 105:.\struct.c    ****     {
 106:.\struct.c    ****         Flag.Lock_Flag = 0;
 372              		.loc 1 106 0 is_stmt 1
 373 00b2 0B4B     		ldr	r3, .L18+4
 374 00b4 1A78     		ldrb	r2, [r3]
 375 00b6 0121     		mov	r1, #1
 376 00b8 8A43     		bic	r2, r1
 377 00ba 1A70     		strb	r2, [r3]
 107:.\struct.c    ****         Delay_Time.Fail_Count = 0;      //清除上锁失败标志
 378              		.loc 1 107 0
 379 00bc 094B     		ldr	r3, .L18+8
 380 00be 0022     		mov	r2, #0
 381 00c0 9A75     		strb	r2, [r3, #22]
 108:.\struct.c    ****         Flag.ReLock_Work_Step = STEP1;
 382              		.loc 1 108 0
 383 00c2 074B     		ldr	r3, .L18+4
 384 00c4 1A78     		ldrb	r2, [r3]
 385 00c6 1821     		mov	r1, #24
 386 00c8 8A43     		bic	r2, r1
 387 00ca 1A70     		strb	r2, [r3]
 109:.\struct.c    ****         Flag.Motor_Work_Step = MOTOR_STOP;
 388              		.loc 1 109 0
 389 00cc 044B     		ldr	r3, .L18+4
 390 00ce 1A78     		ldrb	r2, [r3]
 391 00d0 6021     		mov	r1, #96
 392 00d2 8A43     		bic	r2, r1
 393 00d4 1A70     		strb	r2, [r3]
 394              	.L15:
 110:.\struct.c    ****     }    
 111:.\struct.c    **** }
 395              		.loc 1 111 0
 396 00d6 BD46     		mov	sp, r7
 397              		@ sp needed
 398 00d8 80BD     		pop	{r7, pc}
ARM GAS  C:\Users\ADMINI~1\AppData\Local\Temp\ccFUZzWX.s 			page 10


 399              	.L19:
 400 00da C046     		.align	2
 401              	.L18:
 402 00dc 00000000 		.word	state
 403 00e0 00000000 		.word	Flag
 404 00e4 00000000 		.word	Delay_Time
 405              		.cfi_endproc
 406              	.LFE39:
 407              		.size	Lock_Judge, .-Lock_Judge
 408              		.section	.text.Door_Judge,"ax",%progbits
 409              		.align	2
 410              		.global	Door_Judge
 411              		.code	16
 412              		.thumb_func
 413              		.type	Door_Judge, %function
 414              	Door_Judge:
 415              	.LFB40:
 112:.\struct.c    **** 
 113:.\struct.c    **** 
 114:.\struct.c    **** /***********************************************************
 115:.\struct.c    ****  * @function_name: void Door_Judge(void)
 116:.\struct.c    ****  * @function_file: struct.c
 117:.\struct.c    ****  * @描  述：       门磁判断，以及对应的处理
 118:.\struct.c    ****  * @参  数：       无
 119:.\struct.c    ****  * @返  回：       无
 120:.\struct.c    ****  **********************************************************/
 121:.\struct.c    **** void Door_Judge(void)
 122:.\struct.c    **** {
 416              		.loc 1 122 0
 417              		.cfi_startproc
 418 0000 80B5     		push	{r7, lr}
 419              		.cfi_def_cfa_offset 8
 420              		.cfi_offset 7, -8
 421              		.cfi_offset 14, -4
 422 0002 00AF     		add	r7, sp, #0
 423              		.cfi_def_cfa_register 7
 123:.\struct.c    ****     state.Prior_Door_Sensor_Signal = state.Door_Sensor_Signal;
 424              		.loc 1 123 0
 425 0004 4E4B     		ldr	r3, .L28
 426 0006 1B78     		ldrb	r3, [r3]
 427 0008 9B06     		lsl	r3, r3, #26
 428 000a DB0F     		lsr	r3, r3, #31
 429 000c DAB2     		uxtb	r2, r3
 430 000e 4C4B     		ldr	r3, .L28
 431 0010 0121     		mov	r1, #1
 432 0012 0A40     		and	r2, r1
 433 0014 9001     		lsl	r0, r2, #6
 434 0016 1A78     		ldrb	r2, [r3]
 435 0018 4021     		mov	r1, #64
 436 001a 8A43     		bic	r2, r1
 437 001c 111C     		add	r1, r2, #0
 438 001e 021C     		add	r2, r0, #0
 439 0020 0A43     		orr	r2, r1
 440 0022 1A70     		strb	r2, [r3]
 124:.\struct.c    ****     state.Door_Sensor_Signal = door_sensor_Read();      //获取门磁传感器信号状态
 441              		.loc 1 124 0
 442 0024 FFF7FEFF 		bl	door_sensor_Read
ARM GAS  C:\Users\ADMINI~1\AppData\Local\Temp\ccFUZzWX.s 			page 11


 443 0028 031C     		mov	r3, r0
 444 002a 1A1C     		add	r2, r3, #0
 445 002c 0123     		mov	r3, #1
 446 002e 1340     		and	r3, r2
 447 0030 DAB2     		uxtb	r2, r3
 448 0032 434B     		ldr	r3, .L28
 449 0034 0121     		mov	r1, #1
 450 0036 0A40     		and	r2, r1
 451 0038 5001     		lsl	r0, r2, #5
 452 003a 1A78     		ldrb	r2, [r3]
 453 003c 2021     		mov	r1, #32
 454 003e 8A43     		bic	r2, r1
 455 0040 111C     		add	r1, r2, #0
 456 0042 021C     		add	r2, r0, #0
 457 0044 0A43     		orr	r2, r1
 458 0046 1A70     		strb	r2, [r3]
 125:.\struct.c    ****     if(state.Door_Sensor_Signal == HALL_CLOSE)          //门磁关
 459              		.loc 1 125 0
 460 0048 3D4B     		ldr	r3, .L28
 461 004a 1B78     		ldrb	r3, [r3]
 462 004c 2022     		mov	r2, #32
 463 004e 1340     		and	r3, r2
 464 0050 DBB2     		uxtb	r3, r3
 465 0052 002B     		cmp	r3, #0
 466 0054 37D1     		bne	.L21
 126:.\struct.c    ****     {
 127:.\struct.c    ****         if(state.Extend_Sensor_Signal == HALL_CLOSE)    //锁舌伸出
 467              		.loc 1 127 0
 468 0056 3A4B     		ldr	r3, .L28
 469 0058 1B78     		ldrb	r3, [r3]
 470 005a 1022     		mov	r2, #16
 471 005c 1340     		and	r3, r2
 472 005e DBB2     		uxtb	r3, r3
 473 0060 002B     		cmp	r3, #0
 474 0062 05D1     		bne	.L22
 128:.\struct.c    ****         {
 129:.\struct.c    ****             Flag.Close_Door_Flag = 0;
 475              		.loc 1 129 0
 476 0064 374B     		ldr	r3, .L28+4
 477 0066 1A78     		ldrb	r2, [r3]
 478 0068 0421     		mov	r1, #4
 479 006a 8A43     		bic	r2, r1
 480 006c 1A70     		strb	r2, [r3]
 481 006e 64E0     		b	.L20
 482              	.L22:
 130:.\struct.c    ****         }
 131:.\struct.c    ****         else
 132:.\struct.c    ****         {
 133:.\struct.c    ****             if(Flag.Close_Door_Flag)
 483              		.loc 1 133 0
 484 0070 344B     		ldr	r3, .L28+4
 485 0072 1B78     		ldrb	r3, [r3]
 486 0074 0422     		mov	r2, #4
 487 0076 1340     		and	r3, r2
 488 0078 DBB2     		uxtb	r3, r3
 489 007a 002B     		cmp	r3, #0
 490 007c 02D0     		beq	.L24
ARM GAS  C:\Users\ADMINI~1\AppData\Local\Temp\ccFUZzWX.s 			page 12


 134:.\struct.c    ****             {
 135:.\struct.c    ****                 Lock_Tongue_Dispose();              //锁舌处理
 491              		.loc 1 135 0
 492 007e FFF7FEFF 		bl	Lock_Tongue_Dispose
 493 0082 5AE0     		b	.L20
 494              	.L24:
 136:.\struct.c    ****             }
 137:.\struct.c    ****             else
 138:.\struct.c    ****             { 
 139:.\struct.c    ****                 if(state.Prior_Door_Sensor_Signal == HALL_OPEN) //之前门磁状态为开
 495              		.loc 1 139 0
 496 0084 2E4B     		ldr	r3, .L28
 497 0086 1B78     		ldrb	r3, [r3]
 498 0088 4022     		mov	r2, #64
 499 008a 1340     		and	r3, r2
 500 008c DBB2     		uxtb	r3, r3
 501 008e 002B     		cmp	r3, #0
 502 0090 05D0     		beq	.L25
 140:.\struct.c    ****                 {
 141:.\struct.c    ****                     Flag.Close_Door_Flag = 1;                   //关门标志置1
 503              		.loc 1 141 0
 504 0092 2C4B     		ldr	r3, .L28+4
 505 0094 1A78     		ldrb	r2, [r3]
 506 0096 0421     		mov	r1, #4
 507 0098 0A43     		orr	r2, r1
 508 009a 1A70     		strb	r2, [r3]
 509 009c 4DE0     		b	.L20
 510              	.L25:
 142:.\struct.c    ****                 }
 143:.\struct.c    ****                 else                                            //之前门磁状态为关
 144:.\struct.c    ****                 {
 145:.\struct.c    ****                     Delay_Time.Timeout_Count++;
 511              		.loc 1 145 0
 512 009e 2A4B     		ldr	r3, .L28+8
 513 00a0 5B88     		ldrh	r3, [r3, #2]
 514 00a2 0133     		add	r3, r3, #1
 515 00a4 9AB2     		uxth	r2, r3
 516 00a6 284B     		ldr	r3, .L28+8
 517 00a8 5A80     		strh	r2, [r3, #2]
 146:.\struct.c    ****                     if(Delay_Time.Timeout_Count > DELAY_10S)
 518              		.loc 1 146 0
 519 00aa 274B     		ldr	r3, .L28+8
 520 00ac 5B88     		ldrh	r3, [r3, #2]
 521 00ae 274A     		ldr	r2, .L28+12
 522 00b0 9342     		cmp	r3, r2
 523 00b2 42D9     		bls	.L20
 147:.\struct.c    ****                     {
 148:.\struct.c    ****                         Delay_Time.Timeout_Count = 0;           //超时计数器清0
 524              		.loc 1 148 0
 525 00b4 244B     		ldr	r3, .L28+8
 526 00b6 0022     		mov	r2, #0
 527 00b8 5A80     		strh	r2, [r3, #2]
 149:.\struct.c    ****                         Flag.Close_Door_Flag = 1;               //关门标志置1
 528              		.loc 1 149 0
 529 00ba 224B     		ldr	r3, .L28+4
 530 00bc 1A78     		ldrb	r2, [r3]
 531 00be 0421     		mov	r1, #4
ARM GAS  C:\Users\ADMINI~1\AppData\Local\Temp\ccFUZzWX.s 			page 13


 532 00c0 0A43     		orr	r2, r1
 533 00c2 1A70     		strb	r2, [r3]
 534 00c4 39E0     		b	.L20
 535              	.L21:
 150:.\struct.c    ****                     }
 151:.\struct.c    ****                 }
 152:.\struct.c    ****             }
 153:.\struct.c    ****         }
 154:.\struct.c    ****     }
 155:.\struct.c    ****     else                                                        //门磁开
 156:.\struct.c    ****     {
 157:.\struct.c    ****         if(state.Prior_Door_Sensor_Signal == HALL_CLOSE)
 536              		.loc 1 157 0
 537 00c6 1E4B     		ldr	r3, .L28
 538 00c8 1B78     		ldrb	r3, [r3]
 539 00ca 4022     		mov	r2, #64
 540 00cc 1340     		and	r3, r2
 541 00ce DBB2     		uxtb	r3, r3
 542 00d0 002B     		cmp	r3, #0
 543 00d2 08D1     		bne	.L27
 158:.\struct.c    ****         {
 159:.\struct.c    ****             Delay_Time.Timeout_Count = 0; 
 544              		.loc 1 159 0
 545 00d4 1C4B     		ldr	r3, .L28+8
 546 00d6 0022     		mov	r2, #0
 547 00d8 5A80     		strh	r2, [r3, #2]
 160:.\struct.c    ****             Flag.Open_Door_Upload = 1;
 548              		.loc 1 160 0
 549 00da 1A4B     		ldr	r3, .L28+4
 550 00dc 5A78     		ldrb	r2, [r3, #1]
 551 00de 4021     		mov	r1, #64
 552 00e0 0A43     		orr	r2, r1
 553 00e2 5A70     		strb	r2, [r3, #1]
 554 00e4 29E0     		b	.L20
 555              	.L27:
 161:.\struct.c    ****         }
 162:.\struct.c    ****         else
 163:.\struct.c    ****         {
 164:.\struct.c    ****             if(state.Extend_Sensor_Signal == HALL_CLOSE)        //锁舌伸出
 556              		.loc 1 164 0
 557 00e6 164B     		ldr	r3, .L28
 558 00e8 1B78     		ldrb	r3, [r3]
 559 00ea 1022     		mov	r2, #16
 560 00ec 1340     		and	r3, r2
 561 00ee DBB2     		uxtb	r3, r3
 562 00f0 002B     		cmp	r3, #0
 563 00f2 22D1     		bne	.L20
 165:.\struct.c    ****             {
 166:.\struct.c    ****                 Delay_Time.Timeout_Count++;
 564              		.loc 1 166 0
 565 00f4 144B     		ldr	r3, .L28+8
 566 00f6 5B88     		ldrh	r3, [r3, #2]
 567 00f8 0133     		add	r3, r3, #1
 568 00fa 9AB2     		uxth	r2, r3
 569 00fc 124B     		ldr	r3, .L28+8
 570 00fe 5A80     		strh	r2, [r3, #2]
 167:.\struct.c    ****                 if(Delay_Time.Timeout_Count > DELAY_5S)
ARM GAS  C:\Users\ADMINI~1\AppData\Local\Temp\ccFUZzWX.s 			page 14


 571              		.loc 1 167 0
 572 0100 114B     		ldr	r3, .L28+8
 573 0102 5B88     		ldrh	r3, [r3, #2]
 574 0104 124A     		ldr	r2, .L28+16
 575 0106 9342     		cmp	r3, r2
 576 0108 17D9     		bls	.L20
 168:.\struct.c    ****                 {
 169:.\struct.c    ****                     Delay_Time.Timeout_Count = 0;
 577              		.loc 1 169 0
 578 010a 0F4B     		ldr	r3, .L28+8
 579 010c 0022     		mov	r2, #0
 580 010e 5A80     		strh	r2, [r3, #2]
 170:.\struct.c    ****                     Flag.Unlock_Flag = 1;
 581              		.loc 1 170 0
 582 0110 0C4B     		ldr	r3, .L28+4
 583 0112 1A78     		ldrb	r2, [r3]
 584 0114 0221     		mov	r1, #2
 585 0116 0A43     		orr	r2, r1
 586 0118 1A70     		strb	r2, [r3]
 171:.\struct.c    ****                     Flag.Motor_Work_Step = MOTOR_FORWARD;
 587              		.loc 1 171 0
 588 011a 0A4B     		ldr	r3, .L28+4
 589 011c 1A78     		ldrb	r2, [r3]
 590 011e 6021     		mov	r1, #96
 591 0120 8A43     		bic	r2, r1
 592 0122 111C     		add	r1, r2, #0
 593 0124 2022     		mov	r2, #32
 594 0126 0A43     		orr	r2, r1
 595 0128 1A70     		strb	r2, [r3]
 172:.\struct.c    ****                     Flag.Alarm_Work_Step = EVENT_4;
 596              		.loc 1 172 0
 597 012a 064B     		ldr	r3, .L28+4
 598 012c 5A78     		ldrb	r2, [r3, #1]
 599 012e 1C21     		mov	r1, #28
 600 0130 8A43     		bic	r2, r1
 601 0132 111C     		add	r1, r2, #0
 602 0134 1022     		mov	r2, #16
 603 0136 0A43     		orr	r2, r1
 604 0138 5A70     		strb	r2, [r3, #1]
 605              	.L20:
 173:.\struct.c    ****                 }
 174:.\struct.c    ****             }
 175:.\struct.c    ****         }
 176:.\struct.c    ****     }
 177:.\struct.c    **** }
 606              		.loc 1 177 0
 607 013a BD46     		mov	sp, r7
 608              		@ sp needed
 609 013c 80BD     		pop	{r7, pc}
 610              	.L29:
 611 013e C046     		.align	2
 612              	.L28:
 613 0140 00000000 		.word	state
 614 0144 00000000 		.word	Flag
 615 0148 00000000 		.word	Delay_Time
 616 014c 10270000 		.word	10000
 617 0150 88130000 		.word	5000
ARM GAS  C:\Users\ADMINI~1\AppData\Local\Temp\ccFUZzWX.s 			page 15


 618              		.cfi_endproc
 619              	.LFE40:
 620              		.size	Door_Judge, .-Door_Judge
 621              		.section	.text.Lock_Tongue_Dispose,"ax",%progbits
 622              		.align	2
 623              		.global	Lock_Tongue_Dispose
 624              		.code	16
 625              		.thumb_func
 626              		.type	Lock_Tongue_Dispose, %function
 627              	Lock_Tongue_Dispose:
 628              	.LFB41:
 178:.\struct.c    **** 
 179:.\struct.c    **** 
 180:.\struct.c    **** /***********************************************************
 181:.\struct.c    ****  * @function_name: void Door_Judge(void)
 182:.\struct.c    ****  * @function_file: struct.c
 183:.\struct.c    ****  * @描  述：       锁舌处理函数，关门时尝试打开锁舌
 184:.\struct.c    ****  * @参  数：       无
 185:.\struct.c    ****  * @返  回：       无
 186:.\struct.c    ****  **********************************************************/
 187:.\struct.c    **** void Lock_Tongue_Dispose(void)
 188:.\struct.c    **** {
 629              		.loc 1 188 0
 630              		.cfi_startproc
 631 0000 80B5     		push	{r7, lr}
 632              		.cfi_def_cfa_offset 8
 633              		.cfi_offset 7, -8
 634              		.cfi_offset 14, -4
 635 0002 00AF     		add	r7, sp, #0
 636              		.cfi_def_cfa_register 7
 189:.\struct.c    ****     switch(Flag.ReLock_Work_Step)
 637              		.loc 1 189 0
 638 0004 4C4B     		ldr	r3, .L40
 639 0006 1B78     		ldrb	r3, [r3]
 640 0008 DB06     		lsl	r3, r3, #27
 641 000a 9B0F     		lsr	r3, r3, #30
 642 000c DBB2     		uxtb	r3, r3
 643 000e 012B     		cmp	r3, #1
 644 0010 33D0     		beq	.L32
 645 0012 022B     		cmp	r3, #2
 646 0014 00D1     		bne	.LCB545
 647 0016 71E0     		b	.L33	@long jump
 648              	.LCB545:
 649 0018 002B     		cmp	r3, #0
 650 001a 00D0     		beq	.L34
 190:.\struct.c    ****     {
 191:.\struct.c    ****         case STEP1:
 192:.\struct.c    ****             Delay_Time.Timeout_Count ++;
 193:.\struct.c    ****             if(Delay_Time.Timeout_Count > EXTEND_DELAY)
 194:.\struct.c    ****             {
 195:.\struct.c    ****                 Delay_Time.Timeout_Count = 0;
 196:.\struct.c    ****                 Flag.Motor_Work_Step = MOTOR_REVERSAL;      //伸出锁舌
 197:.\struct.c    ****                 Flag.Lock_Flag = 1;
 198:.\struct.c    ****                 Flag.Alarm_Work_Step = EVENT_1;
 199:.\struct.c    ****                 Flag.ReLock_Work_Step = STEP2;
 200:.\struct.c    ****             }
 201:.\struct.c    ****             break;
ARM GAS  C:\Users\ADMINI~1\AppData\Local\Temp\ccFUZzWX.s 			page 16


 202:.\struct.c    ****         
 203:.\struct.c    ****         case STEP2:
 204:.\struct.c    ****             Delay_Time.Timeout_Count ++;
 205:.\struct.c    ****             if(Delay_Time.Timeout_Count > DELAY_1S)
 206:.\struct.c    ****             {
 207:.\struct.c    ****                 Delay_Time.Timeout_Count = 0;
 208:.\struct.c    ****                 Flag.Alarm_Work_Step = EVENT_3;
 209:.\struct.c    ****                 Flag.Motor_Work_Step = MOTOR_FORWARD;
 210:.\struct.c    ****                 Flag.Unlock_Flag = 1;
 211:.\struct.c    ****                 Flag.ReLock_Work_Step = STEP3;
 212:.\struct.c    ****                 Delay_Time.Fail_Count ++;   //开锁失败次数
 213:.\struct.c    ****                 if(Delay_Time.Fail_Count >= 3)
 214:.\struct.c    ****                 {
 215:.\struct.c    ****                     Delay_Time.Fail_Count = 0;
 216:.\struct.c    ****                     Flag.Lock_Exception_Upload = 1;
 217:.\struct.c    ****                 }
 218:.\struct.c    ****             }
 219:.\struct.c    ****             break;
 220:.\struct.c    ****         
 221:.\struct.c    ****         case STEP3:
 222:.\struct.c    ****             if(Flag.Unlock_Flag == 0)
 223:.\struct.c    ****             {
 224:.\struct.c    ****                 Delay_Time.Timeout_Count ++;
 225:.\struct.c    ****                 if(Delay_Time.Timeout_Count >= DELAY_2S)
 226:.\struct.c    ****                 {
 227:.\struct.c    ****                     Delay_Time.Timeout_Count = 0;
 228:.\struct.c    ****                     Flag.ReLock_Work_Step = STEP1;
 229:.\struct.c    ****                 }
 230:.\struct.c    ****             }
 231:.\struct.c    ****             break;
 232:.\struct.c    ****         
 233:.\struct.c    ****         default:
 234:.\struct.c    ****             break;
 651              		.loc 1 234 0
 652 001c 8AE0     		b	.L30
 653              	.L34:
 192:.\struct.c    ****             if(Delay_Time.Timeout_Count > EXTEND_DELAY)
 654              		.loc 1 192 0
 655 001e 474B     		ldr	r3, .L40+4
 656 0020 5B88     		ldrh	r3, [r3, #2]
 657 0022 0133     		add	r3, r3, #1
 658 0024 9AB2     		uxth	r2, r3
 659 0026 454B     		ldr	r3, .L40+4
 660 0028 5A80     		strh	r2, [r3, #2]
 193:.\struct.c    ****             {
 661              		.loc 1 193 0
 662 002a 444B     		ldr	r3, .L40+4
 663 002c 5A88     		ldrh	r2, [r3, #2]
 664 002e FA23     		mov	r3, #250
 665 0030 9B00     		lsl	r3, r3, #2
 666 0032 9A42     		cmp	r2, r3
 667 0034 20D9     		bls	.L35
 195:.\struct.c    ****                 Flag.Motor_Work_Step = MOTOR_REVERSAL;      //伸出锁舌
 668              		.loc 1 195 0
 669 0036 414B     		ldr	r3, .L40+4
 670 0038 0022     		mov	r2, #0
 671 003a 5A80     		strh	r2, [r3, #2]
ARM GAS  C:\Users\ADMINI~1\AppData\Local\Temp\ccFUZzWX.s 			page 17


 196:.\struct.c    ****                 Flag.Lock_Flag = 1;
 672              		.loc 1 196 0
 673 003c 3E4B     		ldr	r3, .L40
 674 003e 1A78     		ldrb	r2, [r3]
 675 0040 6021     		mov	r1, #96
 676 0042 8A43     		bic	r2, r1
 677 0044 111C     		add	r1, r2, #0
 678 0046 4022     		mov	r2, #64
 679 0048 0A43     		orr	r2, r1
 680 004a 1A70     		strb	r2, [r3]
 197:.\struct.c    ****                 Flag.Alarm_Work_Step = EVENT_1;
 681              		.loc 1 197 0
 682 004c 3A4B     		ldr	r3, .L40
 683 004e 1A78     		ldrb	r2, [r3]
 684 0050 0121     		mov	r1, #1
 685 0052 0A43     		orr	r2, r1
 686 0054 1A70     		strb	r2, [r3]
 198:.\struct.c    ****                 Flag.ReLock_Work_Step = STEP2;
 687              		.loc 1 198 0
 688 0056 384B     		ldr	r3, .L40
 689 0058 5A78     		ldrb	r2, [r3, #1]
 690 005a 1C21     		mov	r1, #28
 691 005c 8A43     		bic	r2, r1
 692 005e 111C     		add	r1, r2, #0
 693 0060 0422     		mov	r2, #4
 694 0062 0A43     		orr	r2, r1
 695 0064 5A70     		strb	r2, [r3, #1]
 199:.\struct.c    ****             }
 696              		.loc 1 199 0
 697 0066 344B     		ldr	r3, .L40
 698 0068 1A78     		ldrb	r2, [r3]
 699 006a 1821     		mov	r1, #24
 700 006c 8A43     		bic	r2, r1
 701 006e 111C     		add	r1, r2, #0
 702 0070 0822     		mov	r2, #8
 703 0072 0A43     		orr	r2, r1
 704 0074 1A70     		strb	r2, [r3]
 201:.\struct.c    ****         
 705              		.loc 1 201 0
 706 0076 5DE0     		b	.L30
 707              	.L35:
 708 0078 5CE0     		b	.L30
 709              	.L32:
 204:.\struct.c    ****             if(Delay_Time.Timeout_Count > DELAY_1S)
 710              		.loc 1 204 0
 711 007a 304B     		ldr	r3, .L40+4
 712 007c 5B88     		ldrh	r3, [r3, #2]
 713 007e 0133     		add	r3, r3, #1
 714 0080 9AB2     		uxth	r2, r3
 715 0082 2E4B     		ldr	r3, .L40+4
 716 0084 5A80     		strh	r2, [r3, #2]
 205:.\struct.c    ****             {
 717              		.loc 1 205 0
 718 0086 2D4B     		ldr	r3, .L40+4
 719 0088 5A88     		ldrh	r2, [r3, #2]
 720 008a FA23     		mov	r3, #250
 721 008c 9B00     		lsl	r3, r3, #2
ARM GAS  C:\Users\ADMINI~1\AppData\Local\Temp\ccFUZzWX.s 			page 18


 722 008e 9A42     		cmp	r2, r3
 723 0090 33D9     		bls	.L37
 207:.\struct.c    ****                 Flag.Alarm_Work_Step = EVENT_3;
 724              		.loc 1 207 0
 725 0092 2A4B     		ldr	r3, .L40+4
 726 0094 0022     		mov	r2, #0
 727 0096 5A80     		strh	r2, [r3, #2]
 208:.\struct.c    ****                 Flag.Motor_Work_Step = MOTOR_FORWARD;
 728              		.loc 1 208 0
 729 0098 274B     		ldr	r3, .L40
 730 009a 5A78     		ldrb	r2, [r3, #1]
 731 009c 1C21     		mov	r1, #28
 732 009e 8A43     		bic	r2, r1
 733 00a0 111C     		add	r1, r2, #0
 734 00a2 0C22     		mov	r2, #12
 735 00a4 0A43     		orr	r2, r1
 736 00a6 5A70     		strb	r2, [r3, #1]
 209:.\struct.c    ****                 Flag.Unlock_Flag = 1;
 737              		.loc 1 209 0
 738 00a8 234B     		ldr	r3, .L40
 739 00aa 1A78     		ldrb	r2, [r3]
 740 00ac 6021     		mov	r1, #96
 741 00ae 8A43     		bic	r2, r1
 742 00b0 111C     		add	r1, r2, #0
 743 00b2 2022     		mov	r2, #32
 744 00b4 0A43     		orr	r2, r1
 745 00b6 1A70     		strb	r2, [r3]
 210:.\struct.c    ****                 Flag.ReLock_Work_Step = STEP3;
 746              		.loc 1 210 0
 747 00b8 1F4B     		ldr	r3, .L40
 748 00ba 1A78     		ldrb	r2, [r3]
 749 00bc 0221     		mov	r1, #2
 750 00be 0A43     		orr	r2, r1
 751 00c0 1A70     		strb	r2, [r3]
 211:.\struct.c    ****                 Delay_Time.Fail_Count ++;   //开锁失败次数
 752              		.loc 1 211 0
 753 00c2 1D4B     		ldr	r3, .L40
 754 00c4 1A78     		ldrb	r2, [r3]
 755 00c6 1821     		mov	r1, #24
 756 00c8 8A43     		bic	r2, r1
 757 00ca 111C     		add	r1, r2, #0
 758 00cc 1022     		mov	r2, #16
 759 00ce 0A43     		orr	r2, r1
 760 00d0 1A70     		strb	r2, [r3]
 212:.\struct.c    ****                 if(Delay_Time.Fail_Count >= 3)
 761              		.loc 1 212 0
 762 00d2 1A4B     		ldr	r3, .L40+4
 763 00d4 9B7D     		ldrb	r3, [r3, #22]
 764 00d6 0133     		add	r3, r3, #1
 765 00d8 DAB2     		uxtb	r2, r3
 766 00da 184B     		ldr	r3, .L40+4
 767 00dc 9A75     		strb	r2, [r3, #22]
 213:.\struct.c    ****                 {
 768              		.loc 1 213 0
 769 00de 174B     		ldr	r3, .L40+4
 770 00e0 9B7D     		ldrb	r3, [r3, #22]
 771 00e2 022B     		cmp	r3, #2
ARM GAS  C:\Users\ADMINI~1\AppData\Local\Temp\ccFUZzWX.s 			page 19


 772 00e4 09D9     		bls	.L37
 215:.\struct.c    ****                     Flag.Lock_Exception_Upload = 1;
 773              		.loc 1 215 0
 774 00e6 154B     		ldr	r3, .L40+4
 775 00e8 0022     		mov	r2, #0
 776 00ea 9A75     		strb	r2, [r3, #22]
 216:.\struct.c    ****                 }
 777              		.loc 1 216 0
 778 00ec 124B     		ldr	r3, .L40
 779 00ee 5A78     		ldrb	r2, [r3, #1]
 780 00f0 8021     		mov	r1, #128
 781 00f2 4942     		neg	r1, r1
 782 00f4 0A43     		orr	r2, r1
 783 00f6 5A70     		strb	r2, [r3, #1]
 219:.\struct.c    ****         
 784              		.loc 1 219 0
 785 00f8 1CE0     		b	.L30
 786              	.L37:
 787 00fa 1BE0     		b	.L30
 788              	.L33:
 222:.\struct.c    ****             {
 789              		.loc 1 222 0
 790 00fc 0E4B     		ldr	r3, .L40
 791 00fe 1B78     		ldrb	r3, [r3]
 792 0100 0222     		mov	r2, #2
 793 0102 1340     		and	r3, r2
 794 0104 DBB2     		uxtb	r3, r3
 795 0106 002B     		cmp	r3, #0
 796 0108 13D1     		bne	.L38
 224:.\struct.c    ****                 if(Delay_Time.Timeout_Count >= DELAY_2S)
 797              		.loc 1 224 0
 798 010a 0C4B     		ldr	r3, .L40+4
 799 010c 5B88     		ldrh	r3, [r3, #2]
 800 010e 0133     		add	r3, r3, #1
 801 0110 9AB2     		uxth	r2, r3
 802 0112 0A4B     		ldr	r3, .L40+4
 803 0114 5A80     		strh	r2, [r3, #2]
 225:.\struct.c    ****                 {
 804              		.loc 1 225 0
 805 0116 094B     		ldr	r3, .L40+4
 806 0118 5B88     		ldrh	r3, [r3, #2]
 807 011a 094A     		ldr	r2, .L40+8
 808 011c 9342     		cmp	r3, r2
 809 011e 08D9     		bls	.L38
 227:.\struct.c    ****                     Flag.ReLock_Work_Step = STEP1;
 810              		.loc 1 227 0
 811 0120 064B     		ldr	r3, .L40+4
 812 0122 0022     		mov	r2, #0
 813 0124 5A80     		strh	r2, [r3, #2]
 228:.\struct.c    ****                 }
 814              		.loc 1 228 0
 815 0126 044B     		ldr	r3, .L40
 816 0128 1A78     		ldrb	r2, [r3]
 817 012a 1821     		mov	r1, #24
 818 012c 8A43     		bic	r2, r1
 819 012e 1A70     		strb	r2, [r3]
 231:.\struct.c    ****         
ARM GAS  C:\Users\ADMINI~1\AppData\Local\Temp\ccFUZzWX.s 			page 20


 820              		.loc 1 231 0
 821 0130 FFE7     		b	.L39
 822              	.L38:
 823              	.L39:
 824 0132 C046     		mov	r8, r8
 825              	.L30:
 235:.\struct.c    ****     
 236:.\struct.c    ****     }
 237:.\struct.c    **** }
 826              		.loc 1 237 0
 827 0134 BD46     		mov	sp, r7
 828              		@ sp needed
 829 0136 80BD     		pop	{r7, pc}
 830              	.L41:
 831              		.align	2
 832              	.L40:
 833 0138 00000000 		.word	Flag
 834 013c 00000000 		.word	Delay_Time
 835 0140 CF070000 		.word	1999
 836              		.cfi_endproc
 837              	.LFE41:
 838              		.size	Lock_Tongue_Dispose, .-Lock_Tongue_Dispose
 839              		.section	.text.Motor_Work,"ax",%progbits
 840              		.align	2
 841              		.global	Motor_Work
 842              		.code	16
 843              		.thumb_func
 844              		.type	Motor_Work, %function
 845              	Motor_Work:
 846              	.LFB42:
 238:.\struct.c    **** 
 239:.\struct.c    **** /***********************************************************
 240:.\struct.c    ****  * @function_name: void Door_Judge(void)
 241:.\struct.c    ****  * @function_file: struct.c
 242:.\struct.c    ****  * @描  述：       门磁判断，以及对应的处理
 243:.\struct.c    ****  * @参  数：       无
 244:.\struct.c    ****  * @返  回：       无
 245:.\struct.c    ****  **********************************************************/
 246:.\struct.c    **** void Motor_Work(void)
 247:.\struct.c    **** {
 847              		.loc 1 247 0
 848              		.cfi_startproc
 849 0000 80B5     		push	{r7, lr}
 850              		.cfi_def_cfa_offset 8
 851              		.cfi_offset 7, -8
 852              		.cfi_offset 14, -4
 853 0002 00AF     		add	r7, sp, #0
 854              		.cfi_def_cfa_register 7
 248:.\struct.c    ****     
 249:.\struct.c    ****     switch (Flag.Motor_Work_Step)
 855              		.loc 1 249 0
 856 0004 C64B     		ldr	r3, .L76
 857 0006 1B78     		ldrb	r3, [r3]
 858 0008 5B06     		lsl	r3, r3, #25
 859 000a 9B0F     		lsr	r3, r3, #30
 860 000c DBB2     		uxtb	r3, r3
 861 000e 012B     		cmp	r3, #1
ARM GAS  C:\Users\ADMINI~1\AppData\Local\Temp\ccFUZzWX.s 			page 21


 862 0010 00D1     		bne	.LCB742
 863 0012 B8E0     		b	.L44	@long jump
 864              	.LCB742:
 865 0014 022B     		cmp	r3, #2
 866 0016 00D0     		beq	.LCB744
 867 0018 6BE1     		b	.L73	@long jump
 868              	.LCB744:
 250:.\struct.c    ****     {        
 251:.\struct.c    ****         case MOTOR_REVERSAL:     //正转
 252:.\struct.c    ****             switch(Flag.Motro_Order_Step)
 869              		.loc 1 252 0
 870 001a C14B     		ldr	r3, .L76
 871 001c 1B88     		ldrh	r3, [r3]
 872 001e 9B05     		lsl	r3, r3, #22
 873 0020 5B0F     		lsr	r3, r3, #29
 874 0022 DBB2     		uxtb	r3, r3
 875 0024 052B     		cmp	r3, #5
 876 0026 00D9     		bls	.LCB751
 877 0028 ABE0     		b	.L74	@long jump
 878              	.LCB751:
 879 002a 9A00     		lsl	r2, r3, #2
 880 002c BD4B     		ldr	r3, .L76+4
 881 002e D318     		add	r3, r2, r3
 882 0030 1B68     		ldr	r3, [r3]
 883 0032 9F46     		mov	pc, r3
 884              		.section	.rodata
 885              		.align	2
 886              	.L48:
 887 0000 82010000 		.word	.L74
 888 0004 34000000 		.word	.L47
 889 0008 7C000000 		.word	.L49
 890 000c C4000000 		.word	.L50
 891 0010 0C010000 		.word	.L51
 892 0014 54010000 		.word	.L52
 893              		.section	.text.Motor_Work
 894              	.L47:
 253:.\struct.c    ****             {
 254:.\struct.c    ****                 case ORDER_1:
 255:.\struct.c    ****                     MOTOR_A_OPEN;
 895              		.loc 1 255 0
 896 0034 0120     		mov	r0, #1
 897 0036 FFF7FEFF 		bl	motor_A_Write
 256:.\struct.c    ****                     MOTOR_B_CLOSE;
 898              		.loc 1 256 0
 899 003a 0020     		mov	r0, #0
 900 003c FFF7FEFF 		bl	motor_B_Write
 257:.\struct.c    ****                     MOTOR_C_CLOSE;
 901              		.loc 1 257 0
 902 0040 0020     		mov	r0, #0
 903 0042 FFF7FEFF 		bl	motor_C_Write
 258:.\struct.c    ****                     MOTOR_D_OPEN;
 904              		.loc 1 258 0
 905 0046 0120     		mov	r0, #1
 906 0048 FFF7FEFF 		bl	motor_D_Write
 259:.\struct.c    ****                     Delay_Time.Motor_Delay ++;
 907              		.loc 1 259 0
 908 004c B64B     		ldr	r3, .L76+8
ARM GAS  C:\Users\ADMINI~1\AppData\Local\Temp\ccFUZzWX.s 			page 22


 909 004e DB88     		ldrh	r3, [r3, #6]
 910 0050 0133     		add	r3, r3, #1
 911 0052 9AB2     		uxth	r2, r3
 912 0054 B44B     		ldr	r3, .L76+8
 913 0056 DA80     		strh	r2, [r3, #6]
 260:.\struct.c    ****                     if(Delay_Time.Motor_Delay > MOTOR_DELAY_ONE)
 914              		.loc 1 260 0
 915 0058 B34B     		ldr	r3, .L76+8
 916 005a DB88     		ldrh	r3, [r3, #6]
 917 005c 052B     		cmp	r3, #5
 918 005e 0CD9     		bls	.L53
 261:.\struct.c    ****                     {
 262:.\struct.c    ****                         Delay_Time.Motor_Delay = 0;
 919              		.loc 1 262 0
 920 0060 B14B     		ldr	r3, .L76+8
 921 0062 0022     		mov	r2, #0
 922 0064 DA80     		strh	r2, [r3, #6]
 263:.\struct.c    ****                         Flag.Motro_Order_Step = ORDER_2;
 923              		.loc 1 263 0
 924 0066 AE4B     		ldr	r3, .L76
 925 0068 1A88     		ldrh	r2, [r3]
 926 006a B049     		ldr	r1, .L76+12
 927 006c 0A40     		and	r2, r1
 928 006e 111C     		add	r1, r2, #0
 929 0070 8022     		mov	r2, #128
 930 0072 5200     		lsl	r2, r2, #1
 931 0074 0A43     		orr	r2, r1
 932 0076 1A80     		strh	r2, [r3]
 264:.\struct.c    ****                     }
 265:.\struct.c    ****                     break;
 933              		.loc 1 265 0
 934 0078 84E0     		b	.L54
 935              	.L53:
 936 007a 83E0     		b	.L54
 937              	.L49:
 266:.\struct.c    ****                 
 267:.\struct.c    ****                 case ORDER_2:
 268:.\struct.c    ****                     MOTOR_A_CLOSE;
 938              		.loc 1 268 0
 939 007c 0020     		mov	r0, #0
 940 007e FFF7FEFF 		bl	motor_A_Write
 269:.\struct.c    ****                     MOTOR_B_CLOSE;
 941              		.loc 1 269 0
 942 0082 0020     		mov	r0, #0
 943 0084 FFF7FEFF 		bl	motor_B_Write
 270:.\struct.c    ****                     MOTOR_C_OPEN;
 944              		.loc 1 270 0
 945 0088 0120     		mov	r0, #1
 946 008a FFF7FEFF 		bl	motor_C_Write
 271:.\struct.c    ****                     MOTOR_D_OPEN;
 947              		.loc 1 271 0
 948 008e 0120     		mov	r0, #1
 949 0090 FFF7FEFF 		bl	motor_D_Write
 272:.\struct.c    ****                     Delay_Time.Motor_Delay ++;
 950              		.loc 1 272 0
 951 0094 A44B     		ldr	r3, .L76+8
 952 0096 DB88     		ldrh	r3, [r3, #6]
ARM GAS  C:\Users\ADMINI~1\AppData\Local\Temp\ccFUZzWX.s 			page 23


 953 0098 0133     		add	r3, r3, #1
 954 009a 9AB2     		uxth	r2, r3
 955 009c A24B     		ldr	r3, .L76+8
 956 009e DA80     		strh	r2, [r3, #6]
 273:.\struct.c    ****                     if(Delay_Time.Motor_Delay > MOTOR_DELAY_ONE)
 957              		.loc 1 273 0
 958 00a0 A14B     		ldr	r3, .L76+8
 959 00a2 DB88     		ldrh	r3, [r3, #6]
 960 00a4 052B     		cmp	r3, #5
 961 00a6 0CD9     		bls	.L55
 274:.\struct.c    ****                     {
 275:.\struct.c    ****                         Delay_Time.Motor_Delay = 0;
 962              		.loc 1 275 0
 963 00a8 9F4B     		ldr	r3, .L76+8
 964 00aa 0022     		mov	r2, #0
 965 00ac DA80     		strh	r2, [r3, #6]
 276:.\struct.c    ****                         Flag.Motro_Order_Step = ORDER_3;
 966              		.loc 1 276 0
 967 00ae 9C4B     		ldr	r3, .L76
 968 00b0 1A88     		ldrh	r2, [r3]
 969 00b2 9E49     		ldr	r1, .L76+12
 970 00b4 0A40     		and	r2, r1
 971 00b6 111C     		add	r1, r2, #0
 972 00b8 C022     		mov	r2, #192
 973 00ba 5200     		lsl	r2, r2, #1
 974 00bc 0A43     		orr	r2, r1
 975 00be 1A80     		strh	r2, [r3]
 277:.\struct.c    ****                     }
 278:.\struct.c    ****                     break;                
 976              		.loc 1 278 0
 977 00c0 60E0     		b	.L54
 978              	.L55:
 979              		.loc 1 278 0 is_stmt 0 discriminator 2
 980 00c2 5FE0     		b	.L54
 981              	.L50:
 279:.\struct.c    ****  
 280:.\struct.c    ****                 case ORDER_3:
 281:.\struct.c    ****                     MOTOR_A_CLOSE;
 982              		.loc 1 281 0 is_stmt 1
 983 00c4 0020     		mov	r0, #0
 984 00c6 FFF7FEFF 		bl	motor_A_Write
 282:.\struct.c    ****                     MOTOR_B_OPEN;
 985              		.loc 1 282 0
 986 00ca 0120     		mov	r0, #1
 987 00cc FFF7FEFF 		bl	motor_B_Write
 283:.\struct.c    ****                     MOTOR_C_OPEN;
 988              		.loc 1 283 0
 989 00d0 0120     		mov	r0, #1
 990 00d2 FFF7FEFF 		bl	motor_C_Write
 284:.\struct.c    ****                     MOTOR_D_CLOSE; 
 991              		.loc 1 284 0
 992 00d6 0020     		mov	r0, #0
 993 00d8 FFF7FEFF 		bl	motor_D_Write
 285:.\struct.c    ****                     Delay_Time.Motor_Delay ++;
 994              		.loc 1 285 0
 995 00dc 924B     		ldr	r3, .L76+8
 996 00de DB88     		ldrh	r3, [r3, #6]
ARM GAS  C:\Users\ADMINI~1\AppData\Local\Temp\ccFUZzWX.s 			page 24


 997 00e0 0133     		add	r3, r3, #1
 998 00e2 9AB2     		uxth	r2, r3
 999 00e4 904B     		ldr	r3, .L76+8
 1000 00e6 DA80     		strh	r2, [r3, #6]
 286:.\struct.c    ****                     if(Delay_Time.Motor_Delay > MOTOR_DELAY_ONE)
 1001              		.loc 1 286 0
 1002 00e8 8F4B     		ldr	r3, .L76+8
 1003 00ea DB88     		ldrh	r3, [r3, #6]
 1004 00ec 052B     		cmp	r3, #5
 1005 00ee 0CD9     		bls	.L56
 287:.\struct.c    ****                     {
 288:.\struct.c    ****                         Delay_Time.Motor_Delay = 0;
 1006              		.loc 1 288 0
 1007 00f0 8D4B     		ldr	r3, .L76+8
 1008 00f2 0022     		mov	r2, #0
 1009 00f4 DA80     		strh	r2, [r3, #6]
 289:.\struct.c    ****                         Flag.Motro_Order_Step = ORDER_4;
 1010              		.loc 1 289 0
 1011 00f6 8A4B     		ldr	r3, .L76
 1012 00f8 1A88     		ldrh	r2, [r3]
 1013 00fa 8C49     		ldr	r1, .L76+12
 1014 00fc 0A40     		and	r2, r1
 1015 00fe 111C     		add	r1, r2, #0
 1016 0100 8022     		mov	r2, #128
 1017 0102 9200     		lsl	r2, r2, #2
 1018 0104 0A43     		orr	r2, r1
 1019 0106 1A80     		strh	r2, [r3]
 290:.\struct.c    ****                     }
 291:.\struct.c    ****                     break;
 1020              		.loc 1 291 0
 1021 0108 3CE0     		b	.L54
 1022              	.L56:
 1023              		.loc 1 291 0 is_stmt 0 discriminator 3
 1024 010a 3BE0     		b	.L54
 1025              	.L51:
 292:.\struct.c    ****                 
 293:.\struct.c    ****                 case ORDER_4:
 294:.\struct.c    ****                     MOTOR_A_OPEN;
 1026              		.loc 1 294 0 is_stmt 1
 1027 010c 0120     		mov	r0, #1
 1028 010e FFF7FEFF 		bl	motor_A_Write
 295:.\struct.c    ****                     MOTOR_B_OPEN;
 1029              		.loc 1 295 0
 1030 0112 0120     		mov	r0, #1
 1031 0114 FFF7FEFF 		bl	motor_B_Write
 296:.\struct.c    ****                     MOTOR_C_CLOSE;
 1032              		.loc 1 296 0
 1033 0118 0020     		mov	r0, #0
 1034 011a FFF7FEFF 		bl	motor_C_Write
 297:.\struct.c    ****                     MOTOR_D_CLOSE;
 1035              		.loc 1 297 0
 1036 011e 0020     		mov	r0, #0
 1037 0120 FFF7FEFF 		bl	motor_D_Write
 298:.\struct.c    ****                     Delay_Time.Motor_Delay ++;
 1038              		.loc 1 298 0
 1039 0124 804B     		ldr	r3, .L76+8
 1040 0126 DB88     		ldrh	r3, [r3, #6]
ARM GAS  C:\Users\ADMINI~1\AppData\Local\Temp\ccFUZzWX.s 			page 25


 1041 0128 0133     		add	r3, r3, #1
 1042 012a 9AB2     		uxth	r2, r3
 1043 012c 7E4B     		ldr	r3, .L76+8
 1044 012e DA80     		strh	r2, [r3, #6]
 299:.\struct.c    ****                     if(Delay_Time.Motor_Delay > MOTOR_DELAY_ONE)
 1045              		.loc 1 299 0
 1046 0130 7D4B     		ldr	r3, .L76+8
 1047 0132 DB88     		ldrh	r3, [r3, #6]
 1048 0134 052B     		cmp	r3, #5
 1049 0136 0CD9     		bls	.L57
 300:.\struct.c    ****                     {
 301:.\struct.c    ****                         Delay_Time.Motor_Delay = 0;
 1050              		.loc 1 301 0
 1051 0138 7B4B     		ldr	r3, .L76+8
 1052 013a 0022     		mov	r2, #0
 1053 013c DA80     		strh	r2, [r3, #6]
 302:.\struct.c    ****                         Flag.Motro_Order_Step = ORDER_END;
 1054              		.loc 1 302 0
 1055 013e 784B     		ldr	r3, .L76
 1056 0140 1A88     		ldrh	r2, [r3]
 1057 0142 7A49     		ldr	r1, .L76+12
 1058 0144 0A40     		and	r2, r1
 1059 0146 111C     		add	r1, r2, #0
 1060 0148 A022     		mov	r2, #160
 1061 014a 9200     		lsl	r2, r2, #2
 1062 014c 0A43     		orr	r2, r1
 1063 014e 1A80     		strh	r2, [r3]
 303:.\struct.c    ****                     }
 304:.\struct.c    ****                     break;
 1064              		.loc 1 304 0
 1065 0150 18E0     		b	.L54
 1066              	.L57:
 1067              		.loc 1 304 0 is_stmt 0 discriminator 4
 1068 0152 17E0     		b	.L54
 1069              	.L52:
 305:.\struct.c    ****                 
 306:.\struct.c    ****                 case ORDER_END:
 307:.\struct.c    ****                     Delay_Time.Motor_Delay ++;
 1070              		.loc 1 307 0 is_stmt 1
 1071 0154 744B     		ldr	r3, .L76+8
 1072 0156 DB88     		ldrh	r3, [r3, #6]
 1073 0158 0133     		add	r3, r3, #1
 1074 015a 9AB2     		uxth	r2, r3
 1075 015c 724B     		ldr	r3, .L76+8
 1076 015e DA80     		strh	r2, [r3, #6]
 308:.\struct.c    ****                     if(Delay_Time.Motor_Delay >= MOTOR_DELAY_ALL)        //100MS
 1077              		.loc 1 308 0
 1078 0160 714B     		ldr	r3, .L76+8
 1079 0162 DB88     		ldrh	r3, [r3, #6]
 1080 0164 012B     		cmp	r3, #1
 1081 0166 0BD9     		bls	.L58
 309:.\struct.c    ****                     {
 310:.\struct.c    ****                         Delay_Time.Motor_Delay = 0;
 1082              		.loc 1 310 0
 1083 0168 6F4B     		ldr	r3, .L76+8
 1084 016a 0022     		mov	r2, #0
 1085 016c DA80     		strh	r2, [r3, #6]
ARM GAS  C:\Users\ADMINI~1\AppData\Local\Temp\ccFUZzWX.s 			page 26


 311:.\struct.c    ****                         Flag.Motro_Order_Step = ORDER_1;
 1086              		.loc 1 311 0
 1087 016e 6C4B     		ldr	r3, .L76
 1088 0170 1A88     		ldrh	r2, [r3]
 1089 0172 6E49     		ldr	r1, .L76+12
 1090 0174 0A40     		and	r2, r1
 1091 0176 111C     		add	r1, r2, #0
 1092 0178 8022     		mov	r2, #128
 1093 017a 0A43     		orr	r2, r1
 1094 017c 1A80     		strh	r2, [r3]
 312:.\struct.c    ****                     }
 313:.\struct.c    ****                     break;
 1095              		.loc 1 313 0
 1096 017e 01E0     		b	.L54
 1097              	.L58:
 1098              		.loc 1 313 0 is_stmt 0 discriminator 5
 1099 0180 00E0     		b	.L54
 1100              	.L74:
 314:.\struct.c    ****                 
 315:.\struct.c    ****                 default:
 316:.\struct.c    ****                     break;
 1101              		.loc 1 316 0 is_stmt 1
 1102 0182 C046     		mov	r8, r8
 1103              	.L54:
 317:.\struct.c    ****             }
 318:.\struct.c    ****             break;
 1104              		.loc 1 318 0 discriminator 1
 1105 0184 CAE0     		b	.L42
 1106              	.L44:
 319:.\struct.c    ****         
 320:.\struct.c    ****         case MOTOR_FORWARD:    //反转
 321:.\struct.c    ****             switch(Flag.Motro_Order_Step)
 1107              		.loc 1 321 0
 1108 0186 664B     		ldr	r3, .L76
 1109 0188 1B88     		ldrh	r3, [r3]
 1110 018a 9B05     		lsl	r3, r3, #22
 1111 018c 5B0F     		lsr	r3, r3, #29
 1112 018e DBB2     		uxtb	r3, r3
 1113 0190 052B     		cmp	r3, #5
 1114 0192 00D9     		bls	.LCB957
 1115 0194 ABE0     		b	.L75	@long jump
 1116              	.LCB957:
 1117 0196 9A00     		lsl	r2, r3, #2
 1118 0198 654B     		ldr	r3, .L76+16
 1119 019a D318     		add	r3, r2, r3
 1120 019c 1B68     		ldr	r3, [r3]
 1121 019e 9F46     		mov	pc, r3
 1122              		.section	.rodata
 1123              		.align	2
 1124              	.L62:
 1125 0018 EE020000 		.word	.L75
 1126 001c A0010000 		.word	.L61
 1127 0020 E8010000 		.word	.L63
 1128 0024 30020000 		.word	.L64
 1129 0028 78020000 		.word	.L65
 1130 002c C0020000 		.word	.L66
 1131              		.section	.text.Motor_Work
ARM GAS  C:\Users\ADMINI~1\AppData\Local\Temp\ccFUZzWX.s 			page 27


 1132              	.L61:
 322:.\struct.c    ****             {
 323:.\struct.c    ****                 case ORDER_1:
 324:.\struct.c    ****                     MOTOR_A_OPEN;
 1133              		.loc 1 324 0
 1134 01a0 0120     		mov	r0, #1
 1135 01a2 FFF7FEFF 		bl	motor_A_Write
 325:.\struct.c    ****                     MOTOR_B_OPEN;
 1136              		.loc 1 325 0
 1137 01a6 0120     		mov	r0, #1
 1138 01a8 FFF7FEFF 		bl	motor_B_Write
 326:.\struct.c    ****                     MOTOR_C_CLOSE;
 1139              		.loc 1 326 0
 1140 01ac 0020     		mov	r0, #0
 1141 01ae FFF7FEFF 		bl	motor_C_Write
 327:.\struct.c    ****                     MOTOR_D_CLOSE;
 1142              		.loc 1 327 0
 1143 01b2 0020     		mov	r0, #0
 1144 01b4 FFF7FEFF 		bl	motor_D_Write
 328:.\struct.c    ****                     Delay_Time.Motor_Delay ++;
 1145              		.loc 1 328 0
 1146 01b8 5B4B     		ldr	r3, .L76+8
 1147 01ba DB88     		ldrh	r3, [r3, #6]
 1148 01bc 0133     		add	r3, r3, #1
 1149 01be 9AB2     		uxth	r2, r3
 1150 01c0 594B     		ldr	r3, .L76+8
 1151 01c2 DA80     		strh	r2, [r3, #6]
 329:.\struct.c    ****                     if(Delay_Time.Motor_Delay > MOTOR_DELAY_ONE)
 1152              		.loc 1 329 0
 1153 01c4 584B     		ldr	r3, .L76+8
 1154 01c6 DB88     		ldrh	r3, [r3, #6]
 1155 01c8 052B     		cmp	r3, #5
 1156 01ca 0CD9     		bls	.L67
 330:.\struct.c    ****                     {
 331:.\struct.c    ****                         Delay_Time.Motor_Delay = 0;
 1157              		.loc 1 331 0
 1158 01cc 564B     		ldr	r3, .L76+8
 1159 01ce 0022     		mov	r2, #0
 1160 01d0 DA80     		strh	r2, [r3, #6]
 332:.\struct.c    ****                         Flag.Motro_Order_Step = ORDER_2;
 1161              		.loc 1 332 0
 1162 01d2 534B     		ldr	r3, .L76
 1163 01d4 1A88     		ldrh	r2, [r3]
 1164 01d6 5549     		ldr	r1, .L76+12
 1165 01d8 0A40     		and	r2, r1
 1166 01da 111C     		add	r1, r2, #0
 1167 01dc 8022     		mov	r2, #128
 1168 01de 5200     		lsl	r2, r2, #1
 1169 01e0 0A43     		orr	r2, r1
 1170 01e2 1A80     		strh	r2, [r3]
 333:.\struct.c    ****                     }
 334:.\struct.c    ****                     break;
 1171              		.loc 1 334 0
 1172 01e4 84E0     		b	.L68
 1173              	.L67:
 1174 01e6 83E0     		b	.L68
 1175              	.L63:
ARM GAS  C:\Users\ADMINI~1\AppData\Local\Temp\ccFUZzWX.s 			page 28


 335:.\struct.c    ****                 
 336:.\struct.c    ****                 case ORDER_2:
 337:.\struct.c    ****                     MOTOR_A_CLOSE;
 1176              		.loc 1 337 0
 1177 01e8 0020     		mov	r0, #0
 1178 01ea FFF7FEFF 		bl	motor_A_Write
 338:.\struct.c    ****                     MOTOR_B_OPEN;
 1179              		.loc 1 338 0
 1180 01ee 0120     		mov	r0, #1
 1181 01f0 FFF7FEFF 		bl	motor_B_Write
 339:.\struct.c    ****                     MOTOR_C_OPEN;
 1182              		.loc 1 339 0
 1183 01f4 0120     		mov	r0, #1
 1184 01f6 FFF7FEFF 		bl	motor_C_Write
 340:.\struct.c    ****                     MOTOR_D_CLOSE; 
 1185              		.loc 1 340 0
 1186 01fa 0020     		mov	r0, #0
 1187 01fc FFF7FEFF 		bl	motor_D_Write
 341:.\struct.c    ****                     Delay_Time.Motor_Delay ++;
 1188              		.loc 1 341 0
 1189 0200 494B     		ldr	r3, .L76+8
 1190 0202 DB88     		ldrh	r3, [r3, #6]
 1191 0204 0133     		add	r3, r3, #1
 1192 0206 9AB2     		uxth	r2, r3
 1193 0208 474B     		ldr	r3, .L76+8
 1194 020a DA80     		strh	r2, [r3, #6]
 342:.\struct.c    ****                     if(Delay_Time.Motor_Delay > MOTOR_DELAY_ONE)
 1195              		.loc 1 342 0
 1196 020c 464B     		ldr	r3, .L76+8
 1197 020e DB88     		ldrh	r3, [r3, #6]
 1198 0210 052B     		cmp	r3, #5
 1199 0212 0CD9     		bls	.L69
 343:.\struct.c    ****                     {
 344:.\struct.c    ****                         Delay_Time.Motor_Delay = 0;
 1200              		.loc 1 344 0
 1201 0214 444B     		ldr	r3, .L76+8
 1202 0216 0022     		mov	r2, #0
 1203 0218 DA80     		strh	r2, [r3, #6]
 345:.\struct.c    ****                         Flag.Motro_Order_Step = ORDER_3;
 1204              		.loc 1 345 0
 1205 021a 414B     		ldr	r3, .L76
 1206 021c 1A88     		ldrh	r2, [r3]
 1207 021e 4349     		ldr	r1, .L76+12
 1208 0220 0A40     		and	r2, r1
 1209 0222 111C     		add	r1, r2, #0
 1210 0224 C022     		mov	r2, #192
 1211 0226 5200     		lsl	r2, r2, #1
 1212 0228 0A43     		orr	r2, r1
 1213 022a 1A80     		strh	r2, [r3]
 346:.\struct.c    ****                     }          
 347:.\struct.c    ****                     break;                
 1214              		.loc 1 347 0
 1215 022c 60E0     		b	.L68
 1216              	.L69:
 1217              		.loc 1 347 0 is_stmt 0 discriminator 8
 1218 022e 5FE0     		b	.L68
 1219              	.L64:
ARM GAS  C:\Users\ADMINI~1\AppData\Local\Temp\ccFUZzWX.s 			page 29


 348:.\struct.c    ****  
 349:.\struct.c    ****                 case ORDER_3:
 350:.\struct.c    ****                     MOTOR_A_CLOSE;
 1220              		.loc 1 350 0 is_stmt 1
 1221 0230 0020     		mov	r0, #0
 1222 0232 FFF7FEFF 		bl	motor_A_Write
 351:.\struct.c    ****                     MOTOR_B_CLOSE;
 1223              		.loc 1 351 0
 1224 0236 0020     		mov	r0, #0
 1225 0238 FFF7FEFF 		bl	motor_B_Write
 352:.\struct.c    ****                     MOTOR_C_OPEN;
 1226              		.loc 1 352 0
 1227 023c 0120     		mov	r0, #1
 1228 023e FFF7FEFF 		bl	motor_C_Write
 353:.\struct.c    ****                     MOTOR_D_OPEN;
 1229              		.loc 1 353 0
 1230 0242 0120     		mov	r0, #1
 1231 0244 FFF7FEFF 		bl	motor_D_Write
 354:.\struct.c    ****                     Delay_Time.Motor_Delay ++;
 1232              		.loc 1 354 0
 1233 0248 374B     		ldr	r3, .L76+8
 1234 024a DB88     		ldrh	r3, [r3, #6]
 1235 024c 0133     		add	r3, r3, #1
 1236 024e 9AB2     		uxth	r2, r3
 1237 0250 354B     		ldr	r3, .L76+8
 1238 0252 DA80     		strh	r2, [r3, #6]
 355:.\struct.c    ****                     if(Delay_Time.Motor_Delay > MOTOR_DELAY_ONE)
 1239              		.loc 1 355 0
 1240 0254 344B     		ldr	r3, .L76+8
 1241 0256 DB88     		ldrh	r3, [r3, #6]
 1242 0258 052B     		cmp	r3, #5
 1243 025a 0CD9     		bls	.L70
 356:.\struct.c    ****                     {
 357:.\struct.c    ****                         Delay_Time.Motor_Delay = 0;
 1244              		.loc 1 357 0
 1245 025c 324B     		ldr	r3, .L76+8
 1246 025e 0022     		mov	r2, #0
 1247 0260 DA80     		strh	r2, [r3, #6]
 358:.\struct.c    ****                         Flag.Motro_Order_Step = ORDER_4;
 1248              		.loc 1 358 0
 1249 0262 2F4B     		ldr	r3, .L76
 1250 0264 1A88     		ldrh	r2, [r3]
 1251 0266 3149     		ldr	r1, .L76+12
 1252 0268 0A40     		and	r2, r1
 1253 026a 111C     		add	r1, r2, #0
 1254 026c 8022     		mov	r2, #128
 1255 026e 9200     		lsl	r2, r2, #2
 1256 0270 0A43     		orr	r2, r1
 1257 0272 1A80     		strh	r2, [r3]
 359:.\struct.c    ****                     }
 360:.\struct.c    ****                     break;
 1258              		.loc 1 360 0
 1259 0274 3CE0     		b	.L68
 1260              	.L70:
 1261              		.loc 1 360 0 is_stmt 0 discriminator 9
 1262 0276 3BE0     		b	.L68
 1263              	.L65:
ARM GAS  C:\Users\ADMINI~1\AppData\Local\Temp\ccFUZzWX.s 			page 30


 361:.\struct.c    ****                 
 362:.\struct.c    ****                 case ORDER_4:
 363:.\struct.c    ****                     MOTOR_A_OPEN;
 1264              		.loc 1 363 0 is_stmt 1
 1265 0278 0120     		mov	r0, #1
 1266 027a FFF7FEFF 		bl	motor_A_Write
 364:.\struct.c    ****                     MOTOR_B_CLOSE;
 1267              		.loc 1 364 0
 1268 027e 0020     		mov	r0, #0
 1269 0280 FFF7FEFF 		bl	motor_B_Write
 365:.\struct.c    ****                     MOTOR_C_CLOSE;
 1270              		.loc 1 365 0
 1271 0284 0020     		mov	r0, #0
 1272 0286 FFF7FEFF 		bl	motor_C_Write
 366:.\struct.c    ****                     MOTOR_D_OPEN;
 1273              		.loc 1 366 0
 1274 028a 0120     		mov	r0, #1
 1275 028c FFF7FEFF 		bl	motor_D_Write
 367:.\struct.c    ****                     Delay_Time.Motor_Delay ++;
 1276              		.loc 1 367 0
 1277 0290 254B     		ldr	r3, .L76+8
 1278 0292 DB88     		ldrh	r3, [r3, #6]
 1279 0294 0133     		add	r3, r3, #1
 1280 0296 9AB2     		uxth	r2, r3
 1281 0298 234B     		ldr	r3, .L76+8
 1282 029a DA80     		strh	r2, [r3, #6]
 368:.\struct.c    ****                     if(Delay_Time.Motor_Delay > MOTOR_DELAY_ONE)
 1283              		.loc 1 368 0
 1284 029c 224B     		ldr	r3, .L76+8
 1285 029e DB88     		ldrh	r3, [r3, #6]
 1286 02a0 052B     		cmp	r3, #5
 1287 02a2 0CD9     		bls	.L71
 369:.\struct.c    ****                     {
 370:.\struct.c    ****                         Delay_Time.Motor_Delay = 0;
 1288              		.loc 1 370 0
 1289 02a4 204B     		ldr	r3, .L76+8
 1290 02a6 0022     		mov	r2, #0
 1291 02a8 DA80     		strh	r2, [r3, #6]
 371:.\struct.c    ****                         Flag.Motro_Order_Step = ORDER_END;
 1292              		.loc 1 371 0
 1293 02aa 1D4B     		ldr	r3, .L76
 1294 02ac 1A88     		ldrh	r2, [r3]
 1295 02ae 1F49     		ldr	r1, .L76+12
 1296 02b0 0A40     		and	r2, r1
 1297 02b2 111C     		add	r1, r2, #0
 1298 02b4 A022     		mov	r2, #160
 1299 02b6 9200     		lsl	r2, r2, #2
 1300 02b8 0A43     		orr	r2, r1
 1301 02ba 1A80     		strh	r2, [r3]
 372:.\struct.c    ****                     }
 373:.\struct.c    ****                     break;
 1302              		.loc 1 373 0
 1303 02bc 18E0     		b	.L68
 1304              	.L71:
 1305              		.loc 1 373 0 is_stmt 0 discriminator 10
 1306 02be 17E0     		b	.L68
 1307              	.L66:
ARM GAS  C:\Users\ADMINI~1\AppData\Local\Temp\ccFUZzWX.s 			page 31


 374:.\struct.c    ****                 
 375:.\struct.c    ****                 case ORDER_END:
 376:.\struct.c    ****                     Delay_Time.Motor_Delay ++;
 1308              		.loc 1 376 0 is_stmt 1
 1309 02c0 194B     		ldr	r3, .L76+8
 1310 02c2 DB88     		ldrh	r3, [r3, #6]
 1311 02c4 0133     		add	r3, r3, #1
 1312 02c6 9AB2     		uxth	r2, r3
 1313 02c8 174B     		ldr	r3, .L76+8
 1314 02ca DA80     		strh	r2, [r3, #6]
 377:.\struct.c    ****                     if(Delay_Time.Motor_Delay >= MOTOR_DELAY_ALL)        //100MS
 1315              		.loc 1 377 0
 1316 02cc 164B     		ldr	r3, .L76+8
 1317 02ce DB88     		ldrh	r3, [r3, #6]
 1318 02d0 012B     		cmp	r3, #1
 1319 02d2 0BD9     		bls	.L72
 378:.\struct.c    ****                     {
 379:.\struct.c    ****                         Delay_Time.Motor_Delay = 0;
 1320              		.loc 1 379 0
 1321 02d4 144B     		ldr	r3, .L76+8
 1322 02d6 0022     		mov	r2, #0
 1323 02d8 DA80     		strh	r2, [r3, #6]
 380:.\struct.c    ****                         Flag.Motro_Order_Step = ORDER_1;
 1324              		.loc 1 380 0
 1325 02da 114B     		ldr	r3, .L76
 1326 02dc 1A88     		ldrh	r2, [r3]
 1327 02de 1349     		ldr	r1, .L76+12
 1328 02e0 0A40     		and	r2, r1
 1329 02e2 111C     		add	r1, r2, #0
 1330 02e4 8022     		mov	r2, #128
 1331 02e6 0A43     		orr	r2, r1
 1332 02e8 1A80     		strh	r2, [r3]
 381:.\struct.c    ****                     }
 382:.\struct.c    ****                     break;
 1333              		.loc 1 382 0
 1334 02ea 01E0     		b	.L68
 1335              	.L72:
 1336              		.loc 1 382 0 is_stmt 0 discriminator 11
 1337 02ec 00E0     		b	.L68
 1338              	.L75:
 383:.\struct.c    ****                 
 384:.\struct.c    ****                 default:
 385:.\struct.c    ****                     break;
 1339              		.loc 1 385 0 is_stmt 1
 1340 02ee C046     		mov	r8, r8
 1341              	.L68:
 386:.\struct.c    ****             }            
 387:.\struct.c    ****             break;
 1342              		.loc 1 387 0 discriminator 7
 1343 02f0 14E0     		b	.L42
 1344              	.L73:
 388:.\struct.c    ****         
 389:.\struct.c    ****         case MOTOR_STOP:        //停止
 390:.\struct.c    ****         default:
 391:.\struct.c    ****             MOTOR_A_CLOSE;
 1345              		.loc 1 391 0
 1346 02f2 0020     		mov	r0, #0
ARM GAS  C:\Users\ADMINI~1\AppData\Local\Temp\ccFUZzWX.s 			page 32


 1347 02f4 FFF7FEFF 		bl	motor_A_Write
 392:.\struct.c    ****             MOTOR_B_CLOSE;
 1348              		.loc 1 392 0
 1349 02f8 0020     		mov	r0, #0
 1350 02fa FFF7FEFF 		bl	motor_B_Write
 393:.\struct.c    ****             MOTOR_C_CLOSE;
 1351              		.loc 1 393 0
 1352 02fe 0020     		mov	r0, #0
 1353 0300 FFF7FEFF 		bl	motor_C_Write
 394:.\struct.c    ****             MOTOR_D_CLOSE;
 1354              		.loc 1 394 0
 1355 0304 0020     		mov	r0, #0
 1356 0306 FFF7FEFF 		bl	motor_D_Write
 395:.\struct.c    ****             Flag.Motro_Order_Step = ORDER_1;
 1357              		.loc 1 395 0
 1358 030a 054B     		ldr	r3, .L76
 1359 030c 1A88     		ldrh	r2, [r3]
 1360 030e 0749     		ldr	r1, .L76+12
 1361 0310 0A40     		and	r2, r1
 1362 0312 111C     		add	r1, r2, #0
 1363 0314 8022     		mov	r2, #128
 1364 0316 0A43     		orr	r2, r1
 1365 0318 1A80     		strh	r2, [r3]
 396:.\struct.c    ****             break;
 1366              		.loc 1 396 0
 1367 031a C046     		mov	r8, r8
 1368              	.L42:
 397:.\struct.c    ****     }
 398:.\struct.c    **** }
 1369              		.loc 1 398 0
 1370 031c BD46     		mov	sp, r7
 1371              		@ sp needed
 1372 031e 80BD     		pop	{r7, pc}
 1373              	.L77:
 1374              		.align	2
 1375              	.L76:
 1376 0320 00000000 		.word	Flag
 1377 0324 00000000 		.word	.L48
 1378 0328 00000000 		.word	Delay_Time
 1379 032c 7FFCFFFF 		.word	-897
 1380 0330 18000000 		.word	.L62
 1381              		.cfi_endproc
 1382              	.LFE42:
 1383              		.size	Motor_Work, .-Motor_Work
 1384              		.section	.text.FSU_Upload,"ax",%progbits
 1385              		.align	2
 1386              		.global	FSU_Upload
 1387              		.code	16
 1388              		.thumb_func
 1389              		.type	FSU_Upload, %function
 1390              	FSU_Upload:
 1391              	.LFB43:
 399:.\struct.c    **** 
 400:.\struct.c    **** 
 401:.\struct.c    **** /***********************************************************
 402:.\struct.c    ****  * @function_name: void FSU_Upload(void)
 403:.\struct.c    ****  * @function_file: struct.c
ARM GAS  C:\Users\ADMINI~1\AppData\Local\Temp\ccFUZzWX.s 			page 33


 404:.\struct.c    ****  * @描  述：       门磁判断，以及对应的处理
 405:.\struct.c    ****  * @参  数：       无
 406:.\struct.c    ****  * @返  回：       无
 407:.\struct.c    ****  **********************************************************/
 408:.\struct.c    **** void FSU_Upload(void)
 409:.\struct.c    **** {
 1392              		.loc 1 409 0
 1393              		.cfi_startproc
 1394 0000 80B5     		push	{r7, lr}
 1395              		.cfi_def_cfa_offset 8
 1396              		.cfi_offset 7, -8
 1397              		.cfi_offset 14, -4
 1398 0002 00AF     		add	r7, sp, #0
 1399              		.cfi_def_cfa_register 7
 410:.\struct.c    ****     if (Flag.Key_Open_Upload)
 1400              		.loc 1 410 0
 1401 0004 324B     		ldr	r3, .L82
 1402 0006 5B78     		ldrb	r3, [r3, #1]
 1403 0008 2022     		mov	r2, #32
 1404 000a 1340     		and	r3, r2
 1405 000c DBB2     		uxtb	r3, r3
 1406 000e 002B     		cmp	r3, #0
 1407 0010 19D0     		beq	.L79
 411:.\struct.c    ****     {
 412:.\struct.c    ****         KEY_UPLOAD_ON;
 1408              		.loc 1 412 0
 1409 0012 0120     		mov	r0, #1
 1410 0014 FFF7FEFF 		bl	FSU_DI_1_Write
 413:.\struct.c    ****         Delay_Time.FSU_OUT1_Count ++;
 1411              		.loc 1 413 0
 1412 0018 2E4B     		ldr	r3, .L82+4
 1413 001a 5B89     		ldrh	r3, [r3, #10]
 1414 001c 0133     		add	r3, r3, #1
 1415 001e 9AB2     		uxth	r2, r3
 1416 0020 2C4B     		ldr	r3, .L82+4
 1417 0022 5A81     		strh	r2, [r3, #10]
 414:.\struct.c    ****         if(Delay_Time.FSU_OUT1_Count > DELAY_1S)
 1418              		.loc 1 414 0
 1419 0024 2B4B     		ldr	r3, .L82+4
 1420 0026 5A89     		ldrh	r2, [r3, #10]
 1421 0028 FA23     		mov	r3, #250
 1422 002a 9B00     		lsl	r3, r3, #2
 1423 002c 9A42     		cmp	r2, r3
 1424 002e 0AD9     		bls	.L79
 415:.\struct.c    ****         {
 416:.\struct.c    ****             KEY_UPLOAD_OFF;
 1425              		.loc 1 416 0
 1426 0030 0020     		mov	r0, #0
 1427 0032 FFF7FEFF 		bl	FSU_DI_1_Write
 417:.\struct.c    ****             Flag.Key_Open_Upload = 0;
 1428              		.loc 1 417 0
 1429 0036 264B     		ldr	r3, .L82
 1430 0038 5A78     		ldrb	r2, [r3, #1]
 1431 003a 2021     		mov	r1, #32
 1432 003c 8A43     		bic	r2, r1
 1433 003e 5A70     		strb	r2, [r3, #1]
 418:.\struct.c    ****             Delay_Time.FSU_OUT1_Count = 0;
ARM GAS  C:\Users\ADMINI~1\AppData\Local\Temp\ccFUZzWX.s 			page 34


 1434              		.loc 1 418 0
 1435 0040 244B     		ldr	r3, .L82+4
 1436 0042 0022     		mov	r2, #0
 1437 0044 5A81     		strh	r2, [r3, #10]
 1438              	.L79:
 419:.\struct.c    ****         }
 420:.\struct.c    ****     }
 421:.\struct.c    ****     
 422:.\struct.c    ****     if (Flag.Open_Door_Upload)
 1439              		.loc 1 422 0
 1440 0046 224B     		ldr	r3, .L82
 1441 0048 5B78     		ldrb	r3, [r3, #1]
 1442 004a 4022     		mov	r2, #64
 1443 004c 1340     		and	r3, r2
 1444 004e DBB2     		uxtb	r3, r3
 1445 0050 002B     		cmp	r3, #0
 1446 0052 19D0     		beq	.L80
 423:.\struct.c    ****     {
 424:.\struct.c    ****         DOOR_UPLOAD_ON;
 1447              		.loc 1 424 0
 1448 0054 0120     		mov	r0, #1
 1449 0056 FFF7FEFF 		bl	FSU_DI_2_Write
 425:.\struct.c    ****         Delay_Time.FSU_OUT2_Count ++;
 1450              		.loc 1 425 0
 1451 005a 1E4B     		ldr	r3, .L82+4
 1452 005c 9B89     		ldrh	r3, [r3, #12]
 1453 005e 0133     		add	r3, r3, #1
 1454 0060 9AB2     		uxth	r2, r3
 1455 0062 1C4B     		ldr	r3, .L82+4
 1456 0064 9A81     		strh	r2, [r3, #12]
 426:.\struct.c    ****         if(Delay_Time.FSU_OUT2_Count > DELAY_1S)
 1457              		.loc 1 426 0
 1458 0066 1B4B     		ldr	r3, .L82+4
 1459 0068 9A89     		ldrh	r2, [r3, #12]
 1460 006a FA23     		mov	r3, #250
 1461 006c 9B00     		lsl	r3, r3, #2
 1462 006e 9A42     		cmp	r2, r3
 1463 0070 0AD9     		bls	.L80
 427:.\struct.c    ****         {
 428:.\struct.c    ****             DOOR_UPLOAD_OFF;
 1464              		.loc 1 428 0
 1465 0072 0020     		mov	r0, #0
 1466 0074 FFF7FEFF 		bl	FSU_DI_2_Write
 429:.\struct.c    ****             Flag.Open_Door_Upload = 0;
 1467              		.loc 1 429 0
 1468 0078 154B     		ldr	r3, .L82
 1469 007a 5A78     		ldrb	r2, [r3, #1]
 1470 007c 4021     		mov	r1, #64
 1471 007e 8A43     		bic	r2, r1
 1472 0080 5A70     		strb	r2, [r3, #1]
 430:.\struct.c    ****             Delay_Time.FSU_OUT2_Count = 0;
 1473              		.loc 1 430 0
 1474 0082 144B     		ldr	r3, .L82+4
 1475 0084 0022     		mov	r2, #0
 1476 0086 9A81     		strh	r2, [r3, #12]
 1477              	.L80:
 431:.\struct.c    ****         }        
ARM GAS  C:\Users\ADMINI~1\AppData\Local\Temp\ccFUZzWX.s 			page 35


 432:.\struct.c    ****     }
 433:.\struct.c    **** 
 434:.\struct.c    ****     if (Flag.Lock_Exception_Upload)
 1478              		.loc 1 434 0
 1479 0088 114B     		ldr	r3, .L82
 1480 008a 5B78     		ldrb	r3, [r3, #1]
 1481 008c 7F22     		mov	r2, #127
 1482 008e 9343     		bic	r3, r2
 1483 0090 DBB2     		uxtb	r3, r3
 1484 0092 002B     		cmp	r3, #0
 1485 0094 19D0     		beq	.L78
 435:.\struct.c    ****     {
 436:.\struct.c    ****         LOCK_UPLOAD_ON;
 1486              		.loc 1 436 0
 1487 0096 0120     		mov	r0, #1
 1488 0098 FFF7FEFF 		bl	FSU_DI_3_Write
 437:.\struct.c    ****         Delay_Time.FSU_OUT3_Count ++;
 1489              		.loc 1 437 0
 1490 009c 0D4B     		ldr	r3, .L82+4
 1491 009e DB89     		ldrh	r3, [r3, #14]
 1492 00a0 0133     		add	r3, r3, #1
 1493 00a2 9AB2     		uxth	r2, r3
 1494 00a4 0B4B     		ldr	r3, .L82+4
 1495 00a6 DA81     		strh	r2, [r3, #14]
 438:.\struct.c    ****         if(Delay_Time.FSU_OUT3_Count > DELAY_1S)
 1496              		.loc 1 438 0
 1497 00a8 0A4B     		ldr	r3, .L82+4
 1498 00aa DA89     		ldrh	r2, [r3, #14]
 1499 00ac FA23     		mov	r3, #250
 1500 00ae 9B00     		lsl	r3, r3, #2
 1501 00b0 9A42     		cmp	r2, r3
 1502 00b2 0AD9     		bls	.L78
 439:.\struct.c    ****         {
 440:.\struct.c    ****             LOCK_UPLOAD_OFF;
 1503              		.loc 1 440 0
 1504 00b4 0020     		mov	r0, #0
 1505 00b6 FFF7FEFF 		bl	FSU_DI_3_Write
 441:.\struct.c    ****             Flag.Lock_Exception_Upload = 0;
 1506              		.loc 1 441 0
 1507 00ba 054B     		ldr	r3, .L82
 1508 00bc 5A78     		ldrb	r2, [r3, #1]
 1509 00be 7F21     		mov	r1, #127
 1510 00c0 0A40     		and	r2, r1
 1511 00c2 5A70     		strb	r2, [r3, #1]
 442:.\struct.c    ****             Delay_Time.FSU_OUT3_Count = 0;
 1512              		.loc 1 442 0
 1513 00c4 034B     		ldr	r3, .L82+4
 1514 00c6 0022     		mov	r2, #0
 1515 00c8 DA81     		strh	r2, [r3, #14]
 1516              	.L78:
 443:.\struct.c    ****         }      
 444:.\struct.c    ****     }
 445:.\struct.c    **** }
 1517              		.loc 1 445 0
 1518 00ca BD46     		mov	sp, r7
 1519              		@ sp needed
 1520 00cc 80BD     		pop	{r7, pc}
ARM GAS  C:\Users\ADMINI~1\AppData\Local\Temp\ccFUZzWX.s 			page 36


 1521              	.L83:
 1522 00ce C046     		.align	2
 1523              	.L82:
 1524 00d0 00000000 		.word	Flag
 1525 00d4 00000000 		.word	Delay_Time
 1526              		.cfi_endproc
 1527              	.LFE43:
 1528              		.size	FSU_Upload, .-FSU_Upload
 1529              		.text
 1530              	.Letext0:
 1531              		.file 2 "Generated_Source\\PSoC4/cytypes.h"
 1532              		.file 3 ".\\struct.h"
 1533              		.file 4 "Generated_Source\\PSoC4/BLE_Stack.h"