ARM GAS  C:\Users\ADMINI~1.SC-\AppData\Local\Temp\ccEAhJMV.s 			page 1


   1              		.cpu cortex-m0
   2              		.fpu softvfp
   3              		.eabi_attribute 20, 1
   4              		.eabi_attribute 21, 1
   5              		.eabi_attribute 23, 3
   6              		.eabi_attribute 24, 1
   7              		.eabi_attribute 25, 1
   8              		.eabi_attribute 26, 1
   9              		.eabi_attribute 30, 6
  10              		.eabi_attribute 34, 0
  11              		.eabi_attribute 18, 4
  12              		.code	16
  13              		.file	"System_Timer.c"
  14              		.text
  15              	.Ltext0:
  16              		.cfi_sections	.debug_frame
  17              		.global	System_Timer_initVar
  18              		.bss
  19              		.type	System_Timer_initVar, %object
  20              		.size	System_Timer_initVar, 1
  21              	System_Timer_initVar:
  22 0000 00       		.space	1
  23              		.section	.text.System_Timer_Init,"ax",%progbits
  24              		.align	2
  25              		.global	System_Timer_Init
  26              		.code	16
  27              		.thumb_func
  28              		.type	System_Timer_Init, %function
  29              	System_Timer_Init:
  30              	.LFB2:
  31              		.file 1 "Generated_Source\\PSoC4\\System_Timer.c"
   1:Generated_Source\PSoC4/System_Timer.c **** /*******************************************************************************
   2:Generated_Source\PSoC4/System_Timer.c **** * File Name: System_Timer.c
   3:Generated_Source\PSoC4/System_Timer.c **** * Version 2.0
   4:Generated_Source\PSoC4/System_Timer.c **** *
   5:Generated_Source\PSoC4/System_Timer.c **** * Description:
   6:Generated_Source\PSoC4/System_Timer.c **** *  This file provides the source code to the API for the System_Timer
   7:Generated_Source\PSoC4/System_Timer.c **** *  component
   8:Generated_Source\PSoC4/System_Timer.c **** *
   9:Generated_Source\PSoC4/System_Timer.c **** * Note:
  10:Generated_Source\PSoC4/System_Timer.c **** *  None
  11:Generated_Source\PSoC4/System_Timer.c **** *
  12:Generated_Source\PSoC4/System_Timer.c **** ********************************************************************************
  13:Generated_Source\PSoC4/System_Timer.c **** * Copyright 2013-2014, Cypress Semiconductor Corporation.  All rights reserved.
  14:Generated_Source\PSoC4/System_Timer.c **** * You may use this file only in accordance with the license, terms, conditions,
  15:Generated_Source\PSoC4/System_Timer.c **** * disclaimers, and limitations in the end user license agreement accompanying
  16:Generated_Source\PSoC4/System_Timer.c **** * the software package with which this file was provided.
  17:Generated_Source\PSoC4/System_Timer.c **** *******************************************************************************/
  18:Generated_Source\PSoC4/System_Timer.c **** 
  19:Generated_Source\PSoC4/System_Timer.c **** #include "System_Timer.h"
  20:Generated_Source\PSoC4/System_Timer.c **** 
  21:Generated_Source\PSoC4/System_Timer.c **** uint8 System_Timer_initVar = 0u;
  22:Generated_Source\PSoC4/System_Timer.c **** 
  23:Generated_Source\PSoC4/System_Timer.c **** 
  24:Generated_Source\PSoC4/System_Timer.c **** /*******************************************************************************
  25:Generated_Source\PSoC4/System_Timer.c **** * Function Name: System_Timer_Init
  26:Generated_Source\PSoC4/System_Timer.c **** ********************************************************************************
ARM GAS  C:\Users\ADMINI~1.SC-\AppData\Local\Temp\ccEAhJMV.s 			page 2


  27:Generated_Source\PSoC4/System_Timer.c **** *
  28:Generated_Source\PSoC4/System_Timer.c **** * Summary:
  29:Generated_Source\PSoC4/System_Timer.c **** *  Initialize/Restore default System_Timer configuration.
  30:Generated_Source\PSoC4/System_Timer.c **** *
  31:Generated_Source\PSoC4/System_Timer.c **** * Parameters:
  32:Generated_Source\PSoC4/System_Timer.c **** *  None
  33:Generated_Source\PSoC4/System_Timer.c **** *
  34:Generated_Source\PSoC4/System_Timer.c **** * Return:
  35:Generated_Source\PSoC4/System_Timer.c **** *  None
  36:Generated_Source\PSoC4/System_Timer.c **** *
  37:Generated_Source\PSoC4/System_Timer.c **** *******************************************************************************/
  38:Generated_Source\PSoC4/System_Timer.c **** void System_Timer_Init(void)
  39:Generated_Source\PSoC4/System_Timer.c **** {
  32              		.loc 1 39 0
  33              		.cfi_startproc
  34 0000 80B5     		push	{r7, lr}
  35              		.cfi_def_cfa_offset 8
  36              		.cfi_offset 7, -8
  37              		.cfi_offset 14, -4
  38 0002 00AF     		add	r7, sp, #0
  39              		.cfi_def_cfa_register 7
  40:Generated_Source\PSoC4/System_Timer.c **** 
  41:Generated_Source\PSoC4/System_Timer.c ****     /* Set values from customizer to CTRL */
  42:Generated_Source\PSoC4/System_Timer.c ****     #if (System_Timer__QUAD == System_Timer_CONFIG)
  43:Generated_Source\PSoC4/System_Timer.c ****         System_Timer_CONTROL_REG = System_Timer_CTRL_QUAD_BASE_CONFIG;
  44:Generated_Source\PSoC4/System_Timer.c ****         
  45:Generated_Source\PSoC4/System_Timer.c ****         /* Set values from customizer to CTRL1 */
  46:Generated_Source\PSoC4/System_Timer.c ****         System_Timer_TRIG_CONTROL1_REG  = System_Timer_QUAD_SIGNALS_MODES;
  47:Generated_Source\PSoC4/System_Timer.c **** 
  48:Generated_Source\PSoC4/System_Timer.c ****         /* Set values from customizer to INTR */
  49:Generated_Source\PSoC4/System_Timer.c ****         System_Timer_SetInterruptMode(System_Timer_QUAD_INTERRUPT_MASK);
  50:Generated_Source\PSoC4/System_Timer.c ****         
  51:Generated_Source\PSoC4/System_Timer.c ****          /* Set other values */
  52:Generated_Source\PSoC4/System_Timer.c ****         System_Timer_SetCounterMode(System_Timer_COUNT_DOWN);
  53:Generated_Source\PSoC4/System_Timer.c ****         System_Timer_WritePeriod(System_Timer_QUAD_PERIOD_INIT_VALUE);
  54:Generated_Source\PSoC4/System_Timer.c ****         System_Timer_WriteCounter(System_Timer_QUAD_PERIOD_INIT_VALUE);
  55:Generated_Source\PSoC4/System_Timer.c ****     #endif  /* (System_Timer__QUAD == System_Timer_CONFIG) */
  56:Generated_Source\PSoC4/System_Timer.c **** 
  57:Generated_Source\PSoC4/System_Timer.c ****     #if (System_Timer__TIMER == System_Timer_CONFIG)
  58:Generated_Source\PSoC4/System_Timer.c ****         System_Timer_CONTROL_REG = System_Timer_CTRL_TIMER_BASE_CONFIG;
  40              		.loc 1 58 0
  41 0004 0A4B     		ldr	r3, .L2
  42 0006 0022     		mov	r2, #0
  43 0008 1A60     		str	r2, [r3]
  59:Generated_Source\PSoC4/System_Timer.c ****         
  60:Generated_Source\PSoC4/System_Timer.c ****         /* Set values from customizer to CTRL1 */
  61:Generated_Source\PSoC4/System_Timer.c ****         System_Timer_TRIG_CONTROL1_REG  = System_Timer_TIMER_SIGNALS_MODES;
  44              		.loc 1 61 0
  45 000a 0A4B     		ldr	r3, .L2+4
  46 000c 0C22     		mov	r2, #12
  47 000e 1A60     		str	r2, [r3]
  62:Generated_Source\PSoC4/System_Timer.c ****     
  63:Generated_Source\PSoC4/System_Timer.c ****         /* Set values from customizer to INTR */
  64:Generated_Source\PSoC4/System_Timer.c ****         System_Timer_SetInterruptMode(System_Timer_TC_INTERRUPT_MASK);
  48              		.loc 1 64 0
  49 0010 0120     		mov	r0, #1
  50 0012 FFF7FEFF 		bl	System_Timer_SetInterruptMode
ARM GAS  C:\Users\ADMINI~1.SC-\AppData\Local\Temp\ccEAhJMV.s 			page 3


  65:Generated_Source\PSoC4/System_Timer.c ****         
  66:Generated_Source\PSoC4/System_Timer.c ****         /* Set other values from customizer */
  67:Generated_Source\PSoC4/System_Timer.c ****         System_Timer_WritePeriod(System_Timer_TC_PERIOD_VALUE );
  51              		.loc 1 67 0
  52 0016 FA23     		mov	r3, #250
  53 0018 9B00     		lsl	r3, r3, #2
  54 001a 181C     		mov	r0, r3
  55 001c FFF7FEFF 		bl	System_Timer_WritePeriod
  68:Generated_Source\PSoC4/System_Timer.c **** 
  69:Generated_Source\PSoC4/System_Timer.c ****         #if (System_Timer__COMPARE == System_Timer_TC_COMP_CAP_MODE)
  70:Generated_Source\PSoC4/System_Timer.c ****             System_Timer_WriteCompare(System_Timer_TC_COMPARE_VALUE);
  56              		.loc 1 70 0
  57 0020 6420     		mov	r0, #100
  58 0022 FFF7FEFF 		bl	System_Timer_WriteCompare
  71:Generated_Source\PSoC4/System_Timer.c **** 
  72:Generated_Source\PSoC4/System_Timer.c ****             #if (1u == System_Timer_TC_COMPARE_SWAP)
  73:Generated_Source\PSoC4/System_Timer.c ****                 System_Timer_SetCompareSwap(1u);
  74:Generated_Source\PSoC4/System_Timer.c ****                 System_Timer_WriteCompareBuf(System_Timer_TC_COMPARE_BUF_VALUE);
  75:Generated_Source\PSoC4/System_Timer.c ****             #endif  /* (1u == System_Timer_TC_COMPARE_SWAP) */
  76:Generated_Source\PSoC4/System_Timer.c ****         #endif  /* (System_Timer__COMPARE == System_Timer_TC_COMP_CAP_MODE) */
  77:Generated_Source\PSoC4/System_Timer.c **** 
  78:Generated_Source\PSoC4/System_Timer.c ****         /* Initialize counter value */
  79:Generated_Source\PSoC4/System_Timer.c ****         #if (System_Timer_CY_TCPWM_V2 && System_Timer_TIMER_UPDOWN_CNT_USED && !System_Timer_CY_TCP
  80:Generated_Source\PSoC4/System_Timer.c ****             System_Timer_WriteCounter(1u);
  81:Generated_Source\PSoC4/System_Timer.c ****         #elif(System_Timer__COUNT_DOWN == System_Timer_TC_COUNTER_MODE)
  82:Generated_Source\PSoC4/System_Timer.c ****             System_Timer_WriteCounter(System_Timer_TC_PERIOD_VALUE);
  83:Generated_Source\PSoC4/System_Timer.c ****         #else
  84:Generated_Source\PSoC4/System_Timer.c ****             System_Timer_WriteCounter(0u);
  59              		.loc 1 84 0
  60 0026 0020     		mov	r0, #0
  61 0028 FFF7FEFF 		bl	System_Timer_WriteCounter
  85:Generated_Source\PSoC4/System_Timer.c ****         #endif /* (System_Timer_CY_TCPWM_V2 && System_Timer_TIMER_UPDOWN_CNT_USED && !System_Timer_
  86:Generated_Source\PSoC4/System_Timer.c ****     #endif  /* (System_Timer__TIMER == System_Timer_CONFIG) */
  87:Generated_Source\PSoC4/System_Timer.c **** 
  88:Generated_Source\PSoC4/System_Timer.c ****     #if (System_Timer__PWM_SEL == System_Timer_CONFIG)
  89:Generated_Source\PSoC4/System_Timer.c ****         System_Timer_CONTROL_REG = System_Timer_CTRL_PWM_BASE_CONFIG;
  90:Generated_Source\PSoC4/System_Timer.c **** 
  91:Generated_Source\PSoC4/System_Timer.c ****         #if (System_Timer__PWM_PR == System_Timer_PWM_MODE)
  92:Generated_Source\PSoC4/System_Timer.c ****             System_Timer_CONTROL_REG |= System_Timer_CTRL_PWM_RUN_MODE;
  93:Generated_Source\PSoC4/System_Timer.c ****             System_Timer_WriteCounter(System_Timer_PWM_PR_INIT_VALUE);
  94:Generated_Source\PSoC4/System_Timer.c ****         #else
  95:Generated_Source\PSoC4/System_Timer.c ****             System_Timer_CONTROL_REG |= System_Timer_CTRL_PWM_ALIGN | System_Timer_CTRL_PWM_KILL_EV
  96:Generated_Source\PSoC4/System_Timer.c ****             
  97:Generated_Source\PSoC4/System_Timer.c ****             /* Initialize counter value */
  98:Generated_Source\PSoC4/System_Timer.c ****             #if (System_Timer_CY_TCPWM_V2 && System_Timer_PWM_UPDOWN_CNT_USED && !System_Timer_CY_T
  99:Generated_Source\PSoC4/System_Timer.c ****                 System_Timer_WriteCounter(1u);
 100:Generated_Source\PSoC4/System_Timer.c ****             #elif (System_Timer__RIGHT == System_Timer_PWM_ALIGN)
 101:Generated_Source\PSoC4/System_Timer.c ****                 System_Timer_WriteCounter(System_Timer_PWM_PERIOD_VALUE);
 102:Generated_Source\PSoC4/System_Timer.c ****             #else 
 103:Generated_Source\PSoC4/System_Timer.c ****                 System_Timer_WriteCounter(0u);
 104:Generated_Source\PSoC4/System_Timer.c ****             #endif  /* (System_Timer_CY_TCPWM_V2 && System_Timer_PWM_UPDOWN_CNT_USED && !System_Tim
 105:Generated_Source\PSoC4/System_Timer.c ****         #endif  /* (System_Timer__PWM_PR == System_Timer_PWM_MODE) */
 106:Generated_Source\PSoC4/System_Timer.c **** 
 107:Generated_Source\PSoC4/System_Timer.c ****         #if (System_Timer__PWM_DT == System_Timer_PWM_MODE)
 108:Generated_Source\PSoC4/System_Timer.c ****             System_Timer_CONTROL_REG |= System_Timer_CTRL_PWM_DEAD_TIME_CYCLE;
 109:Generated_Source\PSoC4/System_Timer.c ****         #endif  /* (System_Timer__PWM_DT == System_Timer_PWM_MODE) */
 110:Generated_Source\PSoC4/System_Timer.c **** 
ARM GAS  C:\Users\ADMINI~1.SC-\AppData\Local\Temp\ccEAhJMV.s 			page 4


 111:Generated_Source\PSoC4/System_Timer.c ****         #if (System_Timer__PWM == System_Timer_PWM_MODE)
 112:Generated_Source\PSoC4/System_Timer.c ****             System_Timer_CONTROL_REG |= System_Timer_CTRL_PWM_PRESCALER;
 113:Generated_Source\PSoC4/System_Timer.c ****         #endif  /* (System_Timer__PWM == System_Timer_PWM_MODE) */
 114:Generated_Source\PSoC4/System_Timer.c **** 
 115:Generated_Source\PSoC4/System_Timer.c ****         /* Set values from customizer to CTRL1 */
 116:Generated_Source\PSoC4/System_Timer.c ****         System_Timer_TRIG_CONTROL1_REG  = System_Timer_PWM_SIGNALS_MODES;
 117:Generated_Source\PSoC4/System_Timer.c ****     
 118:Generated_Source\PSoC4/System_Timer.c ****         /* Set values from customizer to INTR */
 119:Generated_Source\PSoC4/System_Timer.c ****         System_Timer_SetInterruptMode(System_Timer_PWM_INTERRUPT_MASK);
 120:Generated_Source\PSoC4/System_Timer.c **** 
 121:Generated_Source\PSoC4/System_Timer.c ****         /* Set values from customizer to CTRL2 */
 122:Generated_Source\PSoC4/System_Timer.c ****         #if (System_Timer__PWM_PR == System_Timer_PWM_MODE)
 123:Generated_Source\PSoC4/System_Timer.c ****             System_Timer_TRIG_CONTROL2_REG =
 124:Generated_Source\PSoC4/System_Timer.c ****                     (System_Timer_CC_MATCH_NO_CHANGE    |
 125:Generated_Source\PSoC4/System_Timer.c ****                     System_Timer_OVERLOW_NO_CHANGE      |
 126:Generated_Source\PSoC4/System_Timer.c ****                     System_Timer_UNDERFLOW_NO_CHANGE);
 127:Generated_Source\PSoC4/System_Timer.c ****         #else
 128:Generated_Source\PSoC4/System_Timer.c ****             #if (System_Timer__LEFT == System_Timer_PWM_ALIGN)
 129:Generated_Source\PSoC4/System_Timer.c ****                 System_Timer_TRIG_CONTROL2_REG = System_Timer_PWM_MODE_LEFT;
 130:Generated_Source\PSoC4/System_Timer.c ****             #endif  /* ( System_Timer_PWM_LEFT == System_Timer_PWM_ALIGN) */
 131:Generated_Source\PSoC4/System_Timer.c **** 
 132:Generated_Source\PSoC4/System_Timer.c ****             #if (System_Timer__RIGHT == System_Timer_PWM_ALIGN)
 133:Generated_Source\PSoC4/System_Timer.c ****                 System_Timer_TRIG_CONTROL2_REG = System_Timer_PWM_MODE_RIGHT;
 134:Generated_Source\PSoC4/System_Timer.c ****             #endif  /* ( System_Timer_PWM_RIGHT == System_Timer_PWM_ALIGN) */
 135:Generated_Source\PSoC4/System_Timer.c **** 
 136:Generated_Source\PSoC4/System_Timer.c ****             #if (System_Timer__CENTER == System_Timer_PWM_ALIGN)
 137:Generated_Source\PSoC4/System_Timer.c ****                 System_Timer_TRIG_CONTROL2_REG = System_Timer_PWM_MODE_CENTER;
 138:Generated_Source\PSoC4/System_Timer.c ****             #endif  /* ( System_Timer_PWM_CENTER == System_Timer_PWM_ALIGN) */
 139:Generated_Source\PSoC4/System_Timer.c **** 
 140:Generated_Source\PSoC4/System_Timer.c ****             #if (System_Timer__ASYMMETRIC == System_Timer_PWM_ALIGN)
 141:Generated_Source\PSoC4/System_Timer.c ****                 System_Timer_TRIG_CONTROL2_REG = System_Timer_PWM_MODE_ASYM;
 142:Generated_Source\PSoC4/System_Timer.c ****             #endif  /* (System_Timer__ASYMMETRIC == System_Timer_PWM_ALIGN) */
 143:Generated_Source\PSoC4/System_Timer.c ****         #endif  /* (System_Timer__PWM_PR == System_Timer_PWM_MODE) */
 144:Generated_Source\PSoC4/System_Timer.c **** 
 145:Generated_Source\PSoC4/System_Timer.c ****         /* Set other values from customizer */
 146:Generated_Source\PSoC4/System_Timer.c ****         System_Timer_WritePeriod(System_Timer_PWM_PERIOD_VALUE );
 147:Generated_Source\PSoC4/System_Timer.c ****         System_Timer_WriteCompare(System_Timer_PWM_COMPARE_VALUE);
 148:Generated_Source\PSoC4/System_Timer.c **** 
 149:Generated_Source\PSoC4/System_Timer.c ****         #if (1u == System_Timer_PWM_COMPARE_SWAP)
 150:Generated_Source\PSoC4/System_Timer.c ****             System_Timer_SetCompareSwap(1u);
 151:Generated_Source\PSoC4/System_Timer.c ****             System_Timer_WriteCompareBuf(System_Timer_PWM_COMPARE_BUF_VALUE);
 152:Generated_Source\PSoC4/System_Timer.c ****         #endif  /* (1u == System_Timer_PWM_COMPARE_SWAP) */
 153:Generated_Source\PSoC4/System_Timer.c **** 
 154:Generated_Source\PSoC4/System_Timer.c ****         #if (1u == System_Timer_PWM_PERIOD_SWAP)
 155:Generated_Source\PSoC4/System_Timer.c ****             System_Timer_SetPeriodSwap(1u);
 156:Generated_Source\PSoC4/System_Timer.c ****             System_Timer_WritePeriodBuf(System_Timer_PWM_PERIOD_BUF_VALUE);
 157:Generated_Source\PSoC4/System_Timer.c ****         #endif  /* (1u == System_Timer_PWM_PERIOD_SWAP) */
 158:Generated_Source\PSoC4/System_Timer.c ****     #endif  /* (System_Timer__PWM_SEL == System_Timer_CONFIG) */
 159:Generated_Source\PSoC4/System_Timer.c ****     
 160:Generated_Source\PSoC4/System_Timer.c **** }
  62              		.loc 1 160 0
  63 002c BD46     		mov	sp, r7
  64              		@ sp needed
  65 002e 80BD     		pop	{r7, pc}
  66              	.L3:
  67              		.align	2
  68              	.L2:
ARM GAS  C:\Users\ADMINI~1.SC-\AppData\Local\Temp\ccEAhJMV.s 			page 5


  69 0030 00012040 		.word	1075839232
  70 0034 24012040 		.word	1075839268
  71              		.cfi_endproc
  72              	.LFE2:
  73              		.size	System_Timer_Init, .-System_Timer_Init
  74              		.section	.text.System_Timer_Enable,"ax",%progbits
  75              		.align	2
  76              		.global	System_Timer_Enable
  77              		.code	16
  78              		.thumb_func
  79              		.type	System_Timer_Enable, %function
  80              	System_Timer_Enable:
  81              	.LFB3:
 161:Generated_Source\PSoC4/System_Timer.c **** 
 162:Generated_Source\PSoC4/System_Timer.c **** 
 163:Generated_Source\PSoC4/System_Timer.c **** /*******************************************************************************
 164:Generated_Source\PSoC4/System_Timer.c **** * Function Name: System_Timer_Enable
 165:Generated_Source\PSoC4/System_Timer.c **** ********************************************************************************
 166:Generated_Source\PSoC4/System_Timer.c **** *
 167:Generated_Source\PSoC4/System_Timer.c **** * Summary:
 168:Generated_Source\PSoC4/System_Timer.c **** *  Enables the System_Timer.
 169:Generated_Source\PSoC4/System_Timer.c **** *
 170:Generated_Source\PSoC4/System_Timer.c **** * Parameters:
 171:Generated_Source\PSoC4/System_Timer.c **** *  None
 172:Generated_Source\PSoC4/System_Timer.c **** *
 173:Generated_Source\PSoC4/System_Timer.c **** * Return:
 174:Generated_Source\PSoC4/System_Timer.c **** *  None
 175:Generated_Source\PSoC4/System_Timer.c **** *
 176:Generated_Source\PSoC4/System_Timer.c **** *******************************************************************************/
 177:Generated_Source\PSoC4/System_Timer.c **** void System_Timer_Enable(void)
 178:Generated_Source\PSoC4/System_Timer.c **** {
  82              		.loc 1 178 0
  83              		.cfi_startproc
  84 0000 90B5     		push	{r4, r7, lr}
  85              		.cfi_def_cfa_offset 12
  86              		.cfi_offset 4, -12
  87              		.cfi_offset 7, -8
  88              		.cfi_offset 14, -4
  89 0002 83B0     		sub	sp, sp, #12
  90              		.cfi_def_cfa_offset 24
  91 0004 00AF     		add	r7, sp, #0
  92              		.cfi_def_cfa_register 7
 179:Generated_Source\PSoC4/System_Timer.c ****     uint8 enableInterrupts;
 180:Generated_Source\PSoC4/System_Timer.c **** 
 181:Generated_Source\PSoC4/System_Timer.c ****     enableInterrupts = CyEnterCriticalSection();
  93              		.loc 1 181 0
  94 0006 FC1D     		add	r4, r7, #7
  95 0008 FFF7FEFF 		bl	CyEnterCriticalSection
  96 000c 031C     		mov	r3, r0
  97 000e 2370     		strb	r3, [r4]
 182:Generated_Source\PSoC4/System_Timer.c ****     System_Timer_BLOCK_CONTROL_REG |= System_Timer_MASK;
  98              		.loc 1 182 0
  99 0010 084B     		ldr	r3, .L5
 100 0012 084A     		ldr	r2, .L5
 101 0014 1268     		ldr	r2, [r2]
 102 0016 0121     		mov	r1, #1
 103 0018 0A43     		orr	r2, r1
ARM GAS  C:\Users\ADMINI~1.SC-\AppData\Local\Temp\ccEAhJMV.s 			page 6


 104 001a 1A60     		str	r2, [r3]
 183:Generated_Source\PSoC4/System_Timer.c ****     CyExitCriticalSection(enableInterrupts);
 105              		.loc 1 183 0
 106 001c FB1D     		add	r3, r7, #7
 107 001e 1B78     		ldrb	r3, [r3]
 108 0020 181C     		mov	r0, r3
 109 0022 FFF7FEFF 		bl	CyExitCriticalSection
 184:Generated_Source\PSoC4/System_Timer.c **** 
 185:Generated_Source\PSoC4/System_Timer.c ****     /* Start Timer or PWM if start input is absent */
 186:Generated_Source\PSoC4/System_Timer.c ****     #if (System_Timer__PWM_SEL == System_Timer_CONFIG)
 187:Generated_Source\PSoC4/System_Timer.c ****         #if (0u == System_Timer_PWM_START_SIGNAL_PRESENT)
 188:Generated_Source\PSoC4/System_Timer.c ****             System_Timer_TriggerCommand(System_Timer_MASK, System_Timer_CMD_START);
 189:Generated_Source\PSoC4/System_Timer.c ****         #endif /* (0u == System_Timer_PWM_START_SIGNAL_PRESENT) */
 190:Generated_Source\PSoC4/System_Timer.c ****     #endif /* (System_Timer__PWM_SEL == System_Timer_CONFIG) */
 191:Generated_Source\PSoC4/System_Timer.c **** 
 192:Generated_Source\PSoC4/System_Timer.c ****     #if (System_Timer__TIMER == System_Timer_CONFIG)
 193:Generated_Source\PSoC4/System_Timer.c ****         #if (0u == System_Timer_TC_START_SIGNAL_PRESENT)
 194:Generated_Source\PSoC4/System_Timer.c ****             System_Timer_TriggerCommand(System_Timer_MASK, System_Timer_CMD_START);
 110              		.loc 1 194 0
 111 0026 0120     		mov	r0, #1
 112 0028 1821     		mov	r1, #24
 113 002a FFF7FEFF 		bl	System_Timer_TriggerCommand
 195:Generated_Source\PSoC4/System_Timer.c ****         #endif /* (0u == System_Timer_TC_START_SIGNAL_PRESENT) */
 196:Generated_Source\PSoC4/System_Timer.c ****     #endif /* (System_Timer__TIMER == System_Timer_CONFIG) */
 197:Generated_Source\PSoC4/System_Timer.c **** }
 114              		.loc 1 197 0
 115 002e BD46     		mov	sp, r7
 116 0030 03B0     		add	sp, sp, #12
 117              		@ sp needed
 118 0032 90BD     		pop	{r4, r7, pc}
 119              	.L6:
 120              		.align	2
 121              	.L5:
 122 0034 00002040 		.word	1075838976
 123              		.cfi_endproc
 124              	.LFE3:
 125              		.size	System_Timer_Enable, .-System_Timer_Enable
 126              		.section	.text.System_Timer_Start,"ax",%progbits
 127              		.align	2
 128              		.global	System_Timer_Start
 129              		.code	16
 130              		.thumb_func
 131              		.type	System_Timer_Start, %function
 132              	System_Timer_Start:
 133              	.LFB4:
 198:Generated_Source\PSoC4/System_Timer.c **** 
 199:Generated_Source\PSoC4/System_Timer.c **** 
 200:Generated_Source\PSoC4/System_Timer.c **** /*******************************************************************************
 201:Generated_Source\PSoC4/System_Timer.c **** * Function Name: System_Timer_Start
 202:Generated_Source\PSoC4/System_Timer.c **** ********************************************************************************
 203:Generated_Source\PSoC4/System_Timer.c **** *
 204:Generated_Source\PSoC4/System_Timer.c **** * Summary:
 205:Generated_Source\PSoC4/System_Timer.c **** *  Initializes the System_Timer with default customizer
 206:Generated_Source\PSoC4/System_Timer.c **** *  values when called the first time and enables the System_Timer.
 207:Generated_Source\PSoC4/System_Timer.c **** *  For subsequent calls the configuration is left unchanged and the component is
 208:Generated_Source\PSoC4/System_Timer.c **** *  just enabled.
 209:Generated_Source\PSoC4/System_Timer.c **** *
ARM GAS  C:\Users\ADMINI~1.SC-\AppData\Local\Temp\ccEAhJMV.s 			page 7


 210:Generated_Source\PSoC4/System_Timer.c **** * Parameters:
 211:Generated_Source\PSoC4/System_Timer.c **** *  None
 212:Generated_Source\PSoC4/System_Timer.c **** *
 213:Generated_Source\PSoC4/System_Timer.c **** * Return:
 214:Generated_Source\PSoC4/System_Timer.c **** *  None
 215:Generated_Source\PSoC4/System_Timer.c **** *
 216:Generated_Source\PSoC4/System_Timer.c **** * Global variables:
 217:Generated_Source\PSoC4/System_Timer.c **** *  System_Timer_initVar: global variable is used to indicate initial
 218:Generated_Source\PSoC4/System_Timer.c **** *  configuration of this component.  The variable is initialized to zero and set
 219:Generated_Source\PSoC4/System_Timer.c **** *  to 1 the first time System_Timer_Start() is called. This allows
 220:Generated_Source\PSoC4/System_Timer.c **** *  enabling/disabling a component without re-initialization in all subsequent
 221:Generated_Source\PSoC4/System_Timer.c **** *  calls to the System_Timer_Start() routine.
 222:Generated_Source\PSoC4/System_Timer.c **** *
 223:Generated_Source\PSoC4/System_Timer.c **** *******************************************************************************/
 224:Generated_Source\PSoC4/System_Timer.c **** void System_Timer_Start(void)
 225:Generated_Source\PSoC4/System_Timer.c **** {
 134              		.loc 1 225 0
 135              		.cfi_startproc
 136 0000 80B5     		push	{r7, lr}
 137              		.cfi_def_cfa_offset 8
 138              		.cfi_offset 7, -8
 139              		.cfi_offset 14, -4
 140 0002 00AF     		add	r7, sp, #0
 141              		.cfi_def_cfa_register 7
 226:Generated_Source\PSoC4/System_Timer.c ****     if (0u == System_Timer_initVar)
 142              		.loc 1 226 0
 143 0004 064B     		ldr	r3, .L9
 144 0006 1B78     		ldrb	r3, [r3]
 145 0008 002B     		cmp	r3, #0
 146 000a 04D1     		bne	.L8
 227:Generated_Source\PSoC4/System_Timer.c ****     {
 228:Generated_Source\PSoC4/System_Timer.c ****         System_Timer_Init();
 147              		.loc 1 228 0
 148 000c FFF7FEFF 		bl	System_Timer_Init
 229:Generated_Source\PSoC4/System_Timer.c ****         System_Timer_initVar = 1u;
 149              		.loc 1 229 0
 150 0010 034B     		ldr	r3, .L9
 151 0012 0122     		mov	r2, #1
 152 0014 1A70     		strb	r2, [r3]
 153              	.L8:
 230:Generated_Source\PSoC4/System_Timer.c ****     }
 231:Generated_Source\PSoC4/System_Timer.c **** 
 232:Generated_Source\PSoC4/System_Timer.c ****     System_Timer_Enable();
 154              		.loc 1 232 0
 155 0016 FFF7FEFF 		bl	System_Timer_Enable
 233:Generated_Source\PSoC4/System_Timer.c **** }
 156              		.loc 1 233 0
 157 001a BD46     		mov	sp, r7
 158              		@ sp needed
 159 001c 80BD     		pop	{r7, pc}
 160              	.L10:
 161 001e C046     		.align	2
 162              	.L9:
 163 0020 00000000 		.word	System_Timer_initVar
 164              		.cfi_endproc
 165              	.LFE4:
 166              		.size	System_Timer_Start, .-System_Timer_Start
ARM GAS  C:\Users\ADMINI~1.SC-\AppData\Local\Temp\ccEAhJMV.s 			page 8


 167              		.section	.text.System_Timer_Stop,"ax",%progbits
 168              		.align	2
 169              		.global	System_Timer_Stop
 170              		.code	16
 171              		.thumb_func
 172              		.type	System_Timer_Stop, %function
 173              	System_Timer_Stop:
 174              	.LFB5:
 234:Generated_Source\PSoC4/System_Timer.c **** 
 235:Generated_Source\PSoC4/System_Timer.c **** 
 236:Generated_Source\PSoC4/System_Timer.c **** /*******************************************************************************
 237:Generated_Source\PSoC4/System_Timer.c **** * Function Name: System_Timer_Stop
 238:Generated_Source\PSoC4/System_Timer.c **** ********************************************************************************
 239:Generated_Source\PSoC4/System_Timer.c **** *
 240:Generated_Source\PSoC4/System_Timer.c **** * Summary:
 241:Generated_Source\PSoC4/System_Timer.c **** *  Disables the System_Timer.
 242:Generated_Source\PSoC4/System_Timer.c **** *
 243:Generated_Source\PSoC4/System_Timer.c **** * Parameters:
 244:Generated_Source\PSoC4/System_Timer.c **** *  None
 245:Generated_Source\PSoC4/System_Timer.c **** *
 246:Generated_Source\PSoC4/System_Timer.c **** * Return:
 247:Generated_Source\PSoC4/System_Timer.c **** *  None
 248:Generated_Source\PSoC4/System_Timer.c **** *
 249:Generated_Source\PSoC4/System_Timer.c **** *******************************************************************************/
 250:Generated_Source\PSoC4/System_Timer.c **** void System_Timer_Stop(void)
 251:Generated_Source\PSoC4/System_Timer.c **** {
 175              		.loc 1 251 0
 176              		.cfi_startproc
 177 0000 90B5     		push	{r4, r7, lr}
 178              		.cfi_def_cfa_offset 12
 179              		.cfi_offset 4, -12
 180              		.cfi_offset 7, -8
 181              		.cfi_offset 14, -4
 182 0002 83B0     		sub	sp, sp, #12
 183              		.cfi_def_cfa_offset 24
 184 0004 00AF     		add	r7, sp, #0
 185              		.cfi_def_cfa_register 7
 252:Generated_Source\PSoC4/System_Timer.c ****     uint8 enableInterrupts;
 253:Generated_Source\PSoC4/System_Timer.c **** 
 254:Generated_Source\PSoC4/System_Timer.c ****     enableInterrupts = CyEnterCriticalSection();
 186              		.loc 1 254 0
 187 0006 FC1D     		add	r4, r7, #7
 188 0008 FFF7FEFF 		bl	CyEnterCriticalSection
 189 000c 031C     		mov	r3, r0
 190 000e 2370     		strb	r3, [r4]
 255:Generated_Source\PSoC4/System_Timer.c **** 
 256:Generated_Source\PSoC4/System_Timer.c ****     System_Timer_BLOCK_CONTROL_REG &= (uint32)~System_Timer_MASK;
 191              		.loc 1 256 0
 192 0010 064B     		ldr	r3, .L12
 193 0012 064A     		ldr	r2, .L12
 194 0014 1268     		ldr	r2, [r2]
 195 0016 0121     		mov	r1, #1
 196 0018 8A43     		bic	r2, r1
 197 001a 1A60     		str	r2, [r3]
 257:Generated_Source\PSoC4/System_Timer.c **** 
 258:Generated_Source\PSoC4/System_Timer.c ****     CyExitCriticalSection(enableInterrupts);
 198              		.loc 1 258 0
ARM GAS  C:\Users\ADMINI~1.SC-\AppData\Local\Temp\ccEAhJMV.s 			page 9


 199 001c FB1D     		add	r3, r7, #7
 200 001e 1B78     		ldrb	r3, [r3]
 201 0020 181C     		mov	r0, r3
 202 0022 FFF7FEFF 		bl	CyExitCriticalSection
 259:Generated_Source\PSoC4/System_Timer.c **** }
 203              		.loc 1 259 0
 204 0026 BD46     		mov	sp, r7
 205 0028 03B0     		add	sp, sp, #12
 206              		@ sp needed
 207 002a 90BD     		pop	{r4, r7, pc}
 208              	.L13:
 209              		.align	2
 210              	.L12:
 211 002c 00002040 		.word	1075838976
 212              		.cfi_endproc
 213              	.LFE5:
 214              		.size	System_Timer_Stop, .-System_Timer_Stop
 215              		.section	.text.System_Timer_SetMode,"ax",%progbits
 216              		.align	2
 217              		.global	System_Timer_SetMode
 218              		.code	16
 219              		.thumb_func
 220              		.type	System_Timer_SetMode, %function
 221              	System_Timer_SetMode:
 222              	.LFB6:
 260:Generated_Source\PSoC4/System_Timer.c **** 
 261:Generated_Source\PSoC4/System_Timer.c **** 
 262:Generated_Source\PSoC4/System_Timer.c **** /*******************************************************************************
 263:Generated_Source\PSoC4/System_Timer.c **** * Function Name: System_Timer_SetMode
 264:Generated_Source\PSoC4/System_Timer.c **** ********************************************************************************
 265:Generated_Source\PSoC4/System_Timer.c **** *
 266:Generated_Source\PSoC4/System_Timer.c **** * Summary:
 267:Generated_Source\PSoC4/System_Timer.c **** *  Sets the operation mode of the System_Timer. This function is used when
 268:Generated_Source\PSoC4/System_Timer.c **** *  configured as a generic System_Timer and the actual mode of operation is
 269:Generated_Source\PSoC4/System_Timer.c **** *  set at runtime. The mode must be set while the component is disabled.
 270:Generated_Source\PSoC4/System_Timer.c **** *
 271:Generated_Source\PSoC4/System_Timer.c **** * Parameters:
 272:Generated_Source\PSoC4/System_Timer.c **** *  mode: Mode for the System_Timer to operate in
 273:Generated_Source\PSoC4/System_Timer.c **** *   Values:
 274:Generated_Source\PSoC4/System_Timer.c **** *   - System_Timer_MODE_TIMER_COMPARE - Timer / Counter with
 275:Generated_Source\PSoC4/System_Timer.c **** *                                                 compare capability
 276:Generated_Source\PSoC4/System_Timer.c **** *         - System_Timer_MODE_TIMER_CAPTURE - Timer / Counter with
 277:Generated_Source\PSoC4/System_Timer.c **** *                                                 capture capability
 278:Generated_Source\PSoC4/System_Timer.c **** *         - System_Timer_MODE_QUAD - Quadrature decoder
 279:Generated_Source\PSoC4/System_Timer.c **** *         - System_Timer_MODE_PWM - PWM
 280:Generated_Source\PSoC4/System_Timer.c **** *         - System_Timer_MODE_PWM_DT - PWM with dead time
 281:Generated_Source\PSoC4/System_Timer.c **** *         - System_Timer_MODE_PWM_PR - PWM with pseudo random capability
 282:Generated_Source\PSoC4/System_Timer.c **** *
 283:Generated_Source\PSoC4/System_Timer.c **** * Return:
 284:Generated_Source\PSoC4/System_Timer.c **** *  None
 285:Generated_Source\PSoC4/System_Timer.c **** *
 286:Generated_Source\PSoC4/System_Timer.c **** *******************************************************************************/
 287:Generated_Source\PSoC4/System_Timer.c **** void System_Timer_SetMode(uint32 mode)
 288:Generated_Source\PSoC4/System_Timer.c **** {
 223              		.loc 1 288 0
 224              		.cfi_startproc
 225 0000 90B5     		push	{r4, r7, lr}
ARM GAS  C:\Users\ADMINI~1.SC-\AppData\Local\Temp\ccEAhJMV.s 			page 10


 226              		.cfi_def_cfa_offset 12
 227              		.cfi_offset 4, -12
 228              		.cfi_offset 7, -8
 229              		.cfi_offset 14, -4
 230 0002 85B0     		sub	sp, sp, #20
 231              		.cfi_def_cfa_offset 32
 232 0004 00AF     		add	r7, sp, #0
 233              		.cfi_def_cfa_register 7
 234 0006 7860     		str	r0, [r7, #4]
 289:Generated_Source\PSoC4/System_Timer.c ****     uint8 enableInterrupts;
 290:Generated_Source\PSoC4/System_Timer.c **** 
 291:Generated_Source\PSoC4/System_Timer.c ****     enableInterrupts = CyEnterCriticalSection();
 235              		.loc 1 291 0
 236 0008 0F23     		mov	r3, #15
 237 000a FC18     		add	r4, r7, r3
 238 000c FFF7FEFF 		bl	CyEnterCriticalSection
 239 0010 031C     		mov	r3, r0
 240 0012 2370     		strb	r3, [r4]
 292:Generated_Source\PSoC4/System_Timer.c **** 
 293:Generated_Source\PSoC4/System_Timer.c ****     System_Timer_CONTROL_REG &= (uint32)~System_Timer_MODE_MASK;
 241              		.loc 1 293 0
 242 0014 0A4B     		ldr	r3, .L15
 243 0016 0A4A     		ldr	r2, .L15
 244 0018 1268     		ldr	r2, [r2]
 245 001a 0A49     		ldr	r1, .L15+4
 246 001c 0A40     		and	r2, r1
 247 001e 1A60     		str	r2, [r3]
 294:Generated_Source\PSoC4/System_Timer.c ****     System_Timer_CONTROL_REG |= mode;
 248              		.loc 1 294 0
 249 0020 074B     		ldr	r3, .L15
 250 0022 074A     		ldr	r2, .L15
 251 0024 1168     		ldr	r1, [r2]
 252 0026 7A68     		ldr	r2, [r7, #4]
 253 0028 0A43     		orr	r2, r1
 254 002a 1A60     		str	r2, [r3]
 295:Generated_Source\PSoC4/System_Timer.c **** 
 296:Generated_Source\PSoC4/System_Timer.c ****     CyExitCriticalSection(enableInterrupts);
 255              		.loc 1 296 0
 256 002c 0F23     		mov	r3, #15
 257 002e FB18     		add	r3, r7, r3
 258 0030 1B78     		ldrb	r3, [r3]
 259 0032 181C     		mov	r0, r3
 260 0034 FFF7FEFF 		bl	CyExitCriticalSection
 297:Generated_Source\PSoC4/System_Timer.c **** }
 261              		.loc 1 297 0
 262 0038 BD46     		mov	sp, r7
 263 003a 05B0     		add	sp, sp, #20
 264              		@ sp needed
 265 003c 90BD     		pop	{r4, r7, pc}
 266              	.L16:
 267 003e C046     		.align	2
 268              	.L15:
 269 0040 00012040 		.word	1075839232
 270 0044 FFFFFFF8 		.word	-117440513
 271              		.cfi_endproc
 272              	.LFE6:
 273              		.size	System_Timer_SetMode, .-System_Timer_SetMode
ARM GAS  C:\Users\ADMINI~1.SC-\AppData\Local\Temp\ccEAhJMV.s 			page 11


 274              		.section	.text.System_Timer_SetQDMode,"ax",%progbits
 275              		.align	2
 276              		.global	System_Timer_SetQDMode
 277              		.code	16
 278              		.thumb_func
 279              		.type	System_Timer_SetQDMode, %function
 280              	System_Timer_SetQDMode:
 281              	.LFB7:
 298:Generated_Source\PSoC4/System_Timer.c **** 
 299:Generated_Source\PSoC4/System_Timer.c **** 
 300:Generated_Source\PSoC4/System_Timer.c **** /*******************************************************************************
 301:Generated_Source\PSoC4/System_Timer.c **** * Function Name: System_Timer_SetQDMode
 302:Generated_Source\PSoC4/System_Timer.c **** ********************************************************************************
 303:Generated_Source\PSoC4/System_Timer.c **** *
 304:Generated_Source\PSoC4/System_Timer.c **** * Summary:
 305:Generated_Source\PSoC4/System_Timer.c **** *  Sets the the Quadrature Decoder to one of the 3 supported modes.
 306:Generated_Source\PSoC4/System_Timer.c **** *  Its functionality is only applicable to Quadrature Decoder operation.
 307:Generated_Source\PSoC4/System_Timer.c **** *
 308:Generated_Source\PSoC4/System_Timer.c **** * Parameters:
 309:Generated_Source\PSoC4/System_Timer.c **** *  qdMode: Quadrature Decoder mode
 310:Generated_Source\PSoC4/System_Timer.c **** *   Values:
 311:Generated_Source\PSoC4/System_Timer.c **** *         - System_Timer_MODE_X1 - Counts on phi 1 rising
 312:Generated_Source\PSoC4/System_Timer.c **** *         - System_Timer_MODE_X2 - Counts on both edges of phi1 (2x faster)
 313:Generated_Source\PSoC4/System_Timer.c **** *         - System_Timer_MODE_X4 - Counts on both edges of phi1 and phi2
 314:Generated_Source\PSoC4/System_Timer.c **** *                                        (4x faster)
 315:Generated_Source\PSoC4/System_Timer.c **** *
 316:Generated_Source\PSoC4/System_Timer.c **** * Return:
 317:Generated_Source\PSoC4/System_Timer.c **** *  None
 318:Generated_Source\PSoC4/System_Timer.c **** *
 319:Generated_Source\PSoC4/System_Timer.c **** *******************************************************************************/
 320:Generated_Source\PSoC4/System_Timer.c **** void System_Timer_SetQDMode(uint32 qdMode)
 321:Generated_Source\PSoC4/System_Timer.c **** {
 282              		.loc 1 321 0
 283              		.cfi_startproc
 284 0000 90B5     		push	{r4, r7, lr}
 285              		.cfi_def_cfa_offset 12
 286              		.cfi_offset 4, -12
 287              		.cfi_offset 7, -8
 288              		.cfi_offset 14, -4
 289 0002 85B0     		sub	sp, sp, #20
 290              		.cfi_def_cfa_offset 32
 291 0004 00AF     		add	r7, sp, #0
 292              		.cfi_def_cfa_register 7
 293 0006 7860     		str	r0, [r7, #4]
 322:Generated_Source\PSoC4/System_Timer.c ****     uint8 enableInterrupts;
 323:Generated_Source\PSoC4/System_Timer.c **** 
 324:Generated_Source\PSoC4/System_Timer.c ****     enableInterrupts = CyEnterCriticalSection();
 294              		.loc 1 324 0
 295 0008 0F23     		mov	r3, #15
 296 000a FC18     		add	r4, r7, r3
 297 000c FFF7FEFF 		bl	CyEnterCriticalSection
 298 0010 031C     		mov	r3, r0
 299 0012 2370     		strb	r3, [r4]
 325:Generated_Source\PSoC4/System_Timer.c **** 
 326:Generated_Source\PSoC4/System_Timer.c ****     System_Timer_CONTROL_REG &= (uint32)~System_Timer_QUAD_MODE_MASK;
 300              		.loc 1 326 0
 301 0014 0A4B     		ldr	r3, .L18
ARM GAS  C:\Users\ADMINI~1.SC-\AppData\Local\Temp\ccEAhJMV.s 			page 12


 302 0016 0A4A     		ldr	r2, .L18
 303 0018 1268     		ldr	r2, [r2]
 304 001a 0A49     		ldr	r1, .L18+4
 305 001c 0A40     		and	r2, r1
 306 001e 1A60     		str	r2, [r3]
 327:Generated_Source\PSoC4/System_Timer.c ****     System_Timer_CONTROL_REG |= qdMode;
 307              		.loc 1 327 0
 308 0020 074B     		ldr	r3, .L18
 309 0022 074A     		ldr	r2, .L18
 310 0024 1168     		ldr	r1, [r2]
 311 0026 7A68     		ldr	r2, [r7, #4]
 312 0028 0A43     		orr	r2, r1
 313 002a 1A60     		str	r2, [r3]
 328:Generated_Source\PSoC4/System_Timer.c **** 
 329:Generated_Source\PSoC4/System_Timer.c ****     CyExitCriticalSection(enableInterrupts);
 314              		.loc 1 329 0
 315 002c 0F23     		mov	r3, #15
 316 002e FB18     		add	r3, r7, r3
 317 0030 1B78     		ldrb	r3, [r3]
 318 0032 181C     		mov	r0, r3
 319 0034 FFF7FEFF 		bl	CyExitCriticalSection
 330:Generated_Source\PSoC4/System_Timer.c **** }
 320              		.loc 1 330 0
 321 0038 BD46     		mov	sp, r7
 322 003a 05B0     		add	sp, sp, #20
 323              		@ sp needed
 324 003c 90BD     		pop	{r4, r7, pc}
 325              	.L19:
 326 003e C046     		.align	2
 327              	.L18:
 328 0040 00012040 		.word	1075839232
 329 0044 FFFF8FFF 		.word	-7340033
 330              		.cfi_endproc
 331              	.LFE7:
 332              		.size	System_Timer_SetQDMode, .-System_Timer_SetQDMode
 333              		.section	.text.System_Timer_SetPrescaler,"ax",%progbits
 334              		.align	2
 335              		.global	System_Timer_SetPrescaler
 336              		.code	16
 337              		.thumb_func
 338              		.type	System_Timer_SetPrescaler, %function
 339              	System_Timer_SetPrescaler:
 340              	.LFB8:
 331:Generated_Source\PSoC4/System_Timer.c **** 
 332:Generated_Source\PSoC4/System_Timer.c **** 
 333:Generated_Source\PSoC4/System_Timer.c **** /*******************************************************************************
 334:Generated_Source\PSoC4/System_Timer.c **** * Function Name: System_Timer_SetPrescaler
 335:Generated_Source\PSoC4/System_Timer.c **** ********************************************************************************
 336:Generated_Source\PSoC4/System_Timer.c **** *
 337:Generated_Source\PSoC4/System_Timer.c **** * Summary:
 338:Generated_Source\PSoC4/System_Timer.c **** *  Sets the prescaler value that is applied to the clock input.  Not applicable
 339:Generated_Source\PSoC4/System_Timer.c **** *  to a PWM with the dead time mode or Quadrature Decoder mode.
 340:Generated_Source\PSoC4/System_Timer.c **** *
 341:Generated_Source\PSoC4/System_Timer.c **** * Parameters:
 342:Generated_Source\PSoC4/System_Timer.c **** *  prescaler: Prescaler divider value
 343:Generated_Source\PSoC4/System_Timer.c **** *   Values:
 344:Generated_Source\PSoC4/System_Timer.c **** *         - System_Timer_PRESCALE_DIVBY1    - Divide by 1 (no prescaling)
ARM GAS  C:\Users\ADMINI~1.SC-\AppData\Local\Temp\ccEAhJMV.s 			page 13


 345:Generated_Source\PSoC4/System_Timer.c **** *         - System_Timer_PRESCALE_DIVBY2    - Divide by 2
 346:Generated_Source\PSoC4/System_Timer.c **** *         - System_Timer_PRESCALE_DIVBY4    - Divide by 4
 347:Generated_Source\PSoC4/System_Timer.c **** *         - System_Timer_PRESCALE_DIVBY8    - Divide by 8
 348:Generated_Source\PSoC4/System_Timer.c **** *         - System_Timer_PRESCALE_DIVBY16   - Divide by 16
 349:Generated_Source\PSoC4/System_Timer.c **** *         - System_Timer_PRESCALE_DIVBY32   - Divide by 32
 350:Generated_Source\PSoC4/System_Timer.c **** *         - System_Timer_PRESCALE_DIVBY64   - Divide by 64
 351:Generated_Source\PSoC4/System_Timer.c **** *         - System_Timer_PRESCALE_DIVBY128  - Divide by 128
 352:Generated_Source\PSoC4/System_Timer.c **** *
 353:Generated_Source\PSoC4/System_Timer.c **** * Return:
 354:Generated_Source\PSoC4/System_Timer.c **** *  None
 355:Generated_Source\PSoC4/System_Timer.c **** *
 356:Generated_Source\PSoC4/System_Timer.c **** *******************************************************************************/
 357:Generated_Source\PSoC4/System_Timer.c **** void System_Timer_SetPrescaler(uint32 prescaler)
 358:Generated_Source\PSoC4/System_Timer.c **** {
 341              		.loc 1 358 0
 342              		.cfi_startproc
 343 0000 90B5     		push	{r4, r7, lr}
 344              		.cfi_def_cfa_offset 12
 345              		.cfi_offset 4, -12
 346              		.cfi_offset 7, -8
 347              		.cfi_offset 14, -4
 348 0002 85B0     		sub	sp, sp, #20
 349              		.cfi_def_cfa_offset 32
 350 0004 00AF     		add	r7, sp, #0
 351              		.cfi_def_cfa_register 7
 352 0006 7860     		str	r0, [r7, #4]
 359:Generated_Source\PSoC4/System_Timer.c ****     uint8 enableInterrupts;
 360:Generated_Source\PSoC4/System_Timer.c **** 
 361:Generated_Source\PSoC4/System_Timer.c ****     enableInterrupts = CyEnterCriticalSection();
 353              		.loc 1 361 0
 354 0008 0F23     		mov	r3, #15
 355 000a FC18     		add	r4, r7, r3
 356 000c FFF7FEFF 		bl	CyEnterCriticalSection
 357 0010 031C     		mov	r3, r0
 358 0012 2370     		strb	r3, [r4]
 362:Generated_Source\PSoC4/System_Timer.c **** 
 363:Generated_Source\PSoC4/System_Timer.c ****     System_Timer_CONTROL_REG &= (uint32)~System_Timer_PRESCALER_MASK;
 359              		.loc 1 363 0
 360 0014 0A4B     		ldr	r3, .L21
 361 0016 0A4A     		ldr	r2, .L21
 362 0018 1268     		ldr	r2, [r2]
 363 001a 0A49     		ldr	r1, .L21+4
 364 001c 0A40     		and	r2, r1
 365 001e 1A60     		str	r2, [r3]
 364:Generated_Source\PSoC4/System_Timer.c ****     System_Timer_CONTROL_REG |= prescaler;
 366              		.loc 1 364 0
 367 0020 074B     		ldr	r3, .L21
 368 0022 074A     		ldr	r2, .L21
 369 0024 1168     		ldr	r1, [r2]
 370 0026 7A68     		ldr	r2, [r7, #4]
 371 0028 0A43     		orr	r2, r1
 372 002a 1A60     		str	r2, [r3]
 365:Generated_Source\PSoC4/System_Timer.c **** 
 366:Generated_Source\PSoC4/System_Timer.c ****     CyExitCriticalSection(enableInterrupts);
 373              		.loc 1 366 0
 374 002c 0F23     		mov	r3, #15
 375 002e FB18     		add	r3, r7, r3
ARM GAS  C:\Users\ADMINI~1.SC-\AppData\Local\Temp\ccEAhJMV.s 			page 14


 376 0030 1B78     		ldrb	r3, [r3]
 377 0032 181C     		mov	r0, r3
 378 0034 FFF7FEFF 		bl	CyExitCriticalSection
 367:Generated_Source\PSoC4/System_Timer.c **** }
 379              		.loc 1 367 0
 380 0038 BD46     		mov	sp, r7
 381 003a 05B0     		add	sp, sp, #20
 382              		@ sp needed
 383 003c 90BD     		pop	{r4, r7, pc}
 384              	.L22:
 385 003e C046     		.align	2
 386              	.L21:
 387 0040 00012040 		.word	1075839232
 388 0044 FF00FFFF 		.word	-65281
 389              		.cfi_endproc
 390              	.LFE8:
 391              		.size	System_Timer_SetPrescaler, .-System_Timer_SetPrescaler
 392              		.section	.text.System_Timer_SetOneShot,"ax",%progbits
 393              		.align	2
 394              		.global	System_Timer_SetOneShot
 395              		.code	16
 396              		.thumb_func
 397              		.type	System_Timer_SetOneShot, %function
 398              	System_Timer_SetOneShot:
 399              	.LFB9:
 368:Generated_Source\PSoC4/System_Timer.c **** 
 369:Generated_Source\PSoC4/System_Timer.c **** 
 370:Generated_Source\PSoC4/System_Timer.c **** /*******************************************************************************
 371:Generated_Source\PSoC4/System_Timer.c **** * Function Name: System_Timer_SetOneShot
 372:Generated_Source\PSoC4/System_Timer.c **** ********************************************************************************
 373:Generated_Source\PSoC4/System_Timer.c **** *
 374:Generated_Source\PSoC4/System_Timer.c **** * Summary:
 375:Generated_Source\PSoC4/System_Timer.c **** *  Writes the register that controls whether the System_Timer runs
 376:Generated_Source\PSoC4/System_Timer.c **** *  continuously or stops when terminal count is reached.  By default the
 377:Generated_Source\PSoC4/System_Timer.c **** *  System_Timer operates in the continuous mode.
 378:Generated_Source\PSoC4/System_Timer.c **** *
 379:Generated_Source\PSoC4/System_Timer.c **** * Parameters:
 380:Generated_Source\PSoC4/System_Timer.c **** *  oneShotEnable
 381:Generated_Source\PSoC4/System_Timer.c **** *   Values:
 382:Generated_Source\PSoC4/System_Timer.c **** *     - 0 - Continuous
 383:Generated_Source\PSoC4/System_Timer.c **** *     - 1 - Enable One Shot
 384:Generated_Source\PSoC4/System_Timer.c **** *
 385:Generated_Source\PSoC4/System_Timer.c **** * Return:
 386:Generated_Source\PSoC4/System_Timer.c **** *  None
 387:Generated_Source\PSoC4/System_Timer.c **** *
 388:Generated_Source\PSoC4/System_Timer.c **** *******************************************************************************/
 389:Generated_Source\PSoC4/System_Timer.c **** void System_Timer_SetOneShot(uint32 oneShotEnable)
 390:Generated_Source\PSoC4/System_Timer.c **** {
 400              		.loc 1 390 0
 401              		.cfi_startproc
 402 0000 90B5     		push	{r4, r7, lr}
 403              		.cfi_def_cfa_offset 12
 404              		.cfi_offset 4, -12
 405              		.cfi_offset 7, -8
 406              		.cfi_offset 14, -4
 407 0002 85B0     		sub	sp, sp, #20
 408              		.cfi_def_cfa_offset 32
ARM GAS  C:\Users\ADMINI~1.SC-\AppData\Local\Temp\ccEAhJMV.s 			page 15


 409 0004 00AF     		add	r7, sp, #0
 410              		.cfi_def_cfa_register 7
 411 0006 7860     		str	r0, [r7, #4]
 391:Generated_Source\PSoC4/System_Timer.c ****     uint8 enableInterrupts;
 392:Generated_Source\PSoC4/System_Timer.c **** 
 393:Generated_Source\PSoC4/System_Timer.c ****     enableInterrupts = CyEnterCriticalSection();
 412              		.loc 1 393 0
 413 0008 0F23     		mov	r3, #15
 414 000a FC18     		add	r4, r7, r3
 415 000c FFF7FEFF 		bl	CyEnterCriticalSection
 416 0010 031C     		mov	r3, r0
 417 0012 2370     		strb	r3, [r4]
 394:Generated_Source\PSoC4/System_Timer.c **** 
 395:Generated_Source\PSoC4/System_Timer.c ****     System_Timer_CONTROL_REG &= (uint32)~System_Timer_ONESHOT_MASK;
 418              		.loc 1 395 0
 419 0014 0B4B     		ldr	r3, .L24
 420 0016 0B4A     		ldr	r2, .L24
 421 0018 1268     		ldr	r2, [r2]
 422 001a 0B49     		ldr	r1, .L24+4
 423 001c 0A40     		and	r2, r1
 424 001e 1A60     		str	r2, [r3]
 396:Generated_Source\PSoC4/System_Timer.c ****     System_Timer_CONTROL_REG |= ((uint32)((oneShotEnable & System_Timer_1BIT_MASK) <<
 425              		.loc 1 396 0
 426 0020 084B     		ldr	r3, .L24
 427 0022 084A     		ldr	r2, .L24
 428 0024 1168     		ldr	r1, [r2]
 429 0026 7A68     		ldr	r2, [r7, #4]
 430 0028 0120     		mov	r0, #1
 431 002a 0240     		and	r2, r0
 432 002c 9204     		lsl	r2, r2, #18
 433 002e 0A43     		orr	r2, r1
 434 0030 1A60     		str	r2, [r3]
 397:Generated_Source\PSoC4/System_Timer.c ****                                                                System_Timer_ONESHOT_SHIFT));
 398:Generated_Source\PSoC4/System_Timer.c **** 
 399:Generated_Source\PSoC4/System_Timer.c ****     CyExitCriticalSection(enableInterrupts);
 435              		.loc 1 399 0
 436 0032 0F23     		mov	r3, #15
 437 0034 FB18     		add	r3, r7, r3
 438 0036 1B78     		ldrb	r3, [r3]
 439 0038 181C     		mov	r0, r3
 440 003a FFF7FEFF 		bl	CyExitCriticalSection
 400:Generated_Source\PSoC4/System_Timer.c **** }
 441              		.loc 1 400 0
 442 003e BD46     		mov	sp, r7
 443 0040 05B0     		add	sp, sp, #20
 444              		@ sp needed
 445 0042 90BD     		pop	{r4, r7, pc}
 446              	.L25:
 447              		.align	2
 448              	.L24:
 449 0044 00012040 		.word	1075839232
 450 0048 FFFFFBFF 		.word	-262145
 451              		.cfi_endproc
 452              	.LFE9:
 453              		.size	System_Timer_SetOneShot, .-System_Timer_SetOneShot
 454              		.section	.text.System_Timer_SetPWMMode,"ax",%progbits
 455              		.align	2
ARM GAS  C:\Users\ADMINI~1.SC-\AppData\Local\Temp\ccEAhJMV.s 			page 16


 456              		.global	System_Timer_SetPWMMode
 457              		.code	16
 458              		.thumb_func
 459              		.type	System_Timer_SetPWMMode, %function
 460              	System_Timer_SetPWMMode:
 461              	.LFB10:
 401:Generated_Source\PSoC4/System_Timer.c **** 
 402:Generated_Source\PSoC4/System_Timer.c **** 
 403:Generated_Source\PSoC4/System_Timer.c **** /*******************************************************************************
 404:Generated_Source\PSoC4/System_Timer.c **** * Function Name: System_Timer_SetPWMMode
 405:Generated_Source\PSoC4/System_Timer.c **** ********************************************************************************
 406:Generated_Source\PSoC4/System_Timer.c **** *
 407:Generated_Source\PSoC4/System_Timer.c **** * Summary:
 408:Generated_Source\PSoC4/System_Timer.c **** *  Writes the control register that determines what mode of operation the PWM
 409:Generated_Source\PSoC4/System_Timer.c **** *  output lines are driven in.  There is a setting for what to do on a
 410:Generated_Source\PSoC4/System_Timer.c **** *  comparison match (CC_MATCH), on an overflow (OVERFLOW) and on an underflow
 411:Generated_Source\PSoC4/System_Timer.c **** *  (UNDERFLOW).  The value for each of the three must be ORed together to form
 412:Generated_Source\PSoC4/System_Timer.c **** *  the mode.
 413:Generated_Source\PSoC4/System_Timer.c **** *
 414:Generated_Source\PSoC4/System_Timer.c **** * Parameters:
 415:Generated_Source\PSoC4/System_Timer.c **** *  modeMask: A combination of three mode settings.  Mask must include a value
 416:Generated_Source\PSoC4/System_Timer.c **** *  for each of the three or use one of the preconfigured PWM settings.
 417:Generated_Source\PSoC4/System_Timer.c **** *   Values:
 418:Generated_Source\PSoC4/System_Timer.c **** *     - CC_MATCH_SET        - Set on comparison match
 419:Generated_Source\PSoC4/System_Timer.c **** *     - CC_MATCH_CLEAR      - Clear on comparison match
 420:Generated_Source\PSoC4/System_Timer.c **** *     - CC_MATCH_INVERT     - Invert on comparison match
 421:Generated_Source\PSoC4/System_Timer.c **** *     - CC_MATCH_NO_CHANGE  - No change on comparison match
 422:Generated_Source\PSoC4/System_Timer.c **** *     - OVERLOW_SET         - Set on overflow
 423:Generated_Source\PSoC4/System_Timer.c **** *     - OVERLOW_CLEAR       - Clear on  overflow
 424:Generated_Source\PSoC4/System_Timer.c **** *     - OVERLOW_INVERT      - Invert on overflow
 425:Generated_Source\PSoC4/System_Timer.c **** *     - OVERLOW_NO_CHANGE   - No change on overflow
 426:Generated_Source\PSoC4/System_Timer.c **** *     - UNDERFLOW_SET       - Set on underflow
 427:Generated_Source\PSoC4/System_Timer.c **** *     - UNDERFLOW_CLEAR     - Clear on underflow
 428:Generated_Source\PSoC4/System_Timer.c **** *     - UNDERFLOW_INVERT    - Invert on underflow
 429:Generated_Source\PSoC4/System_Timer.c **** *     - UNDERFLOW_NO_CHANGE - No change on underflow
 430:Generated_Source\PSoC4/System_Timer.c **** *     - PWM_MODE_LEFT       - Setting for left aligned PWM.  Should be combined
 431:Generated_Source\PSoC4/System_Timer.c **** *                             with up counting mode
 432:Generated_Source\PSoC4/System_Timer.c **** *     - PWM_MODE_RIGHT      - Setting for right aligned PWM.  Should be combined
 433:Generated_Source\PSoC4/System_Timer.c **** *                             with down counting mode
 434:Generated_Source\PSoC4/System_Timer.c **** *     - PWM_MODE_CENTER     - Setting for center aligned PWM.  Should be
 435:Generated_Source\PSoC4/System_Timer.c **** *                             combined with up/down 0 mode
 436:Generated_Source\PSoC4/System_Timer.c **** *     - PWM_MODE_ASYM       - Setting for asymmetric PWM.  Should be combined
 437:Generated_Source\PSoC4/System_Timer.c **** *                             with up/down 1 mode
 438:Generated_Source\PSoC4/System_Timer.c **** *
 439:Generated_Source\PSoC4/System_Timer.c **** * Return:
 440:Generated_Source\PSoC4/System_Timer.c **** *  None
 441:Generated_Source\PSoC4/System_Timer.c **** *
 442:Generated_Source\PSoC4/System_Timer.c **** *******************************************************************************/
 443:Generated_Source\PSoC4/System_Timer.c **** void System_Timer_SetPWMMode(uint32 modeMask)
 444:Generated_Source\PSoC4/System_Timer.c **** {
 462              		.loc 1 444 0
 463              		.cfi_startproc
 464 0000 80B5     		push	{r7, lr}
 465              		.cfi_def_cfa_offset 8
 466              		.cfi_offset 7, -8
 467              		.cfi_offset 14, -4
 468 0002 82B0     		sub	sp, sp, #8
ARM GAS  C:\Users\ADMINI~1.SC-\AppData\Local\Temp\ccEAhJMV.s 			page 17


 469              		.cfi_def_cfa_offset 16
 470 0004 00AF     		add	r7, sp, #0
 471              		.cfi_def_cfa_register 7
 472 0006 7860     		str	r0, [r7, #4]
 445:Generated_Source\PSoC4/System_Timer.c ****     System_Timer_TRIG_CONTROL2_REG = (modeMask & System_Timer_6BIT_MASK);
 473              		.loc 1 445 0
 474 0008 034B     		ldr	r3, .L27
 475 000a 7A68     		ldr	r2, [r7, #4]
 476 000c 3F21     		mov	r1, #63
 477 000e 0A40     		and	r2, r1
 478 0010 1A60     		str	r2, [r3]
 446:Generated_Source\PSoC4/System_Timer.c **** }
 479              		.loc 1 446 0
 480 0012 BD46     		mov	sp, r7
 481 0014 02B0     		add	sp, sp, #8
 482              		@ sp needed
 483 0016 80BD     		pop	{r7, pc}
 484              	.L28:
 485              		.align	2
 486              	.L27:
 487 0018 28012040 		.word	1075839272
 488              		.cfi_endproc
 489              	.LFE10:
 490              		.size	System_Timer_SetPWMMode, .-System_Timer_SetPWMMode
 491              		.section	.text.System_Timer_SetPWMSyncKill,"ax",%progbits
 492              		.align	2
 493              		.global	System_Timer_SetPWMSyncKill
 494              		.code	16
 495              		.thumb_func
 496              		.type	System_Timer_SetPWMSyncKill, %function
 497              	System_Timer_SetPWMSyncKill:
 498              	.LFB11:
 447:Generated_Source\PSoC4/System_Timer.c **** 
 448:Generated_Source\PSoC4/System_Timer.c **** 
 449:Generated_Source\PSoC4/System_Timer.c **** 
 450:Generated_Source\PSoC4/System_Timer.c **** /*******************************************************************************
 451:Generated_Source\PSoC4/System_Timer.c **** * Function Name: System_Timer_SetPWMSyncKill
 452:Generated_Source\PSoC4/System_Timer.c **** ********************************************************************************
 453:Generated_Source\PSoC4/System_Timer.c **** *
 454:Generated_Source\PSoC4/System_Timer.c **** * Summary:
 455:Generated_Source\PSoC4/System_Timer.c **** *  Writes the register that controls whether the PWM kill signal (stop input)
 456:Generated_Source\PSoC4/System_Timer.c **** *  causes asynchronous or synchronous kill operation.  By default the kill
 457:Generated_Source\PSoC4/System_Timer.c **** *  operation is asynchronous.  This functionality is only applicable to the PWM
 458:Generated_Source\PSoC4/System_Timer.c **** *  and PWM with dead time modes.
 459:Generated_Source\PSoC4/System_Timer.c **** *
 460:Generated_Source\PSoC4/System_Timer.c **** *  For Synchronous mode the kill signal disables both the line and line_n
 461:Generated_Source\PSoC4/System_Timer.c **** *  signals until the next terminal count.
 462:Generated_Source\PSoC4/System_Timer.c **** *
 463:Generated_Source\PSoC4/System_Timer.c **** *  For Asynchronous mode the kill signal disables both the line and line_n
 464:Generated_Source\PSoC4/System_Timer.c **** *  signals when the kill signal is present.  This mode should only be used
 465:Generated_Source\PSoC4/System_Timer.c **** *  when the kill signal (stop input) is configured in the pass through mode
 466:Generated_Source\PSoC4/System_Timer.c **** *  (Level sensitive signal).
 467:Generated_Source\PSoC4/System_Timer.c **** 
 468:Generated_Source\PSoC4/System_Timer.c **** *
 469:Generated_Source\PSoC4/System_Timer.c **** * Parameters:
 470:Generated_Source\PSoC4/System_Timer.c **** *  syncKillEnable
 471:Generated_Source\PSoC4/System_Timer.c **** *   Values:
ARM GAS  C:\Users\ADMINI~1.SC-\AppData\Local\Temp\ccEAhJMV.s 			page 18


 472:Generated_Source\PSoC4/System_Timer.c **** *     - 0 - Asynchronous
 473:Generated_Source\PSoC4/System_Timer.c **** *     - 1 - Synchronous
 474:Generated_Source\PSoC4/System_Timer.c **** *
 475:Generated_Source\PSoC4/System_Timer.c **** * Return:
 476:Generated_Source\PSoC4/System_Timer.c **** *  None
 477:Generated_Source\PSoC4/System_Timer.c **** *
 478:Generated_Source\PSoC4/System_Timer.c **** *******************************************************************************/
 479:Generated_Source\PSoC4/System_Timer.c **** void System_Timer_SetPWMSyncKill(uint32 syncKillEnable)
 480:Generated_Source\PSoC4/System_Timer.c **** {
 499              		.loc 1 480 0
 500              		.cfi_startproc
 501 0000 90B5     		push	{r4, r7, lr}
 502              		.cfi_def_cfa_offset 12
 503              		.cfi_offset 4, -12
 504              		.cfi_offset 7, -8
 505              		.cfi_offset 14, -4
 506 0002 85B0     		sub	sp, sp, #20
 507              		.cfi_def_cfa_offset 32
 508 0004 00AF     		add	r7, sp, #0
 509              		.cfi_def_cfa_register 7
 510 0006 7860     		str	r0, [r7, #4]
 481:Generated_Source\PSoC4/System_Timer.c ****     uint8 enableInterrupts;
 482:Generated_Source\PSoC4/System_Timer.c **** 
 483:Generated_Source\PSoC4/System_Timer.c ****     enableInterrupts = CyEnterCriticalSection();
 511              		.loc 1 483 0
 512 0008 0F23     		mov	r3, #15
 513 000a FC18     		add	r4, r7, r3
 514 000c FFF7FEFF 		bl	CyEnterCriticalSection
 515 0010 031C     		mov	r3, r0
 516 0012 2370     		strb	r3, [r4]
 484:Generated_Source\PSoC4/System_Timer.c **** 
 485:Generated_Source\PSoC4/System_Timer.c ****     System_Timer_CONTROL_REG &= (uint32)~System_Timer_PWM_SYNC_KILL_MASK;
 517              		.loc 1 485 0
 518 0014 0B4B     		ldr	r3, .L30
 519 0016 0B4A     		ldr	r2, .L30
 520 0018 1268     		ldr	r2, [r2]
 521 001a 0421     		mov	r1, #4
 522 001c 8A43     		bic	r2, r1
 523 001e 1A60     		str	r2, [r3]
 486:Generated_Source\PSoC4/System_Timer.c ****     System_Timer_CONTROL_REG |= ((uint32)((syncKillEnable & System_Timer_1BIT_MASK)  <<
 524              		.loc 1 486 0
 525 0020 084B     		ldr	r3, .L30
 526 0022 084A     		ldr	r2, .L30
 527 0024 1168     		ldr	r1, [r2]
 528 0026 7A68     		ldr	r2, [r7, #4]
 529 0028 0120     		mov	r0, #1
 530 002a 0240     		and	r2, r0
 531 002c 9200     		lsl	r2, r2, #2
 532 002e 0A43     		orr	r2, r1
 533 0030 1A60     		str	r2, [r3]
 487:Generated_Source\PSoC4/System_Timer.c ****                                                System_Timer_PWM_SYNC_KILL_SHIFT));
 488:Generated_Source\PSoC4/System_Timer.c **** 
 489:Generated_Source\PSoC4/System_Timer.c ****     CyExitCriticalSection(enableInterrupts);
 534              		.loc 1 489 0
 535 0032 0F23     		mov	r3, #15
 536 0034 FB18     		add	r3, r7, r3
 537 0036 1B78     		ldrb	r3, [r3]
ARM GAS  C:\Users\ADMINI~1.SC-\AppData\Local\Temp\ccEAhJMV.s 			page 19


 538 0038 181C     		mov	r0, r3
 539 003a FFF7FEFF 		bl	CyExitCriticalSection
 490:Generated_Source\PSoC4/System_Timer.c **** }
 540              		.loc 1 490 0
 541 003e BD46     		mov	sp, r7
 542 0040 05B0     		add	sp, sp, #20
 543              		@ sp needed
 544 0042 90BD     		pop	{r4, r7, pc}
 545              	.L31:
 546              		.align	2
 547              	.L30:
 548 0044 00012040 		.word	1075839232
 549              		.cfi_endproc
 550              	.LFE11:
 551              		.size	System_Timer_SetPWMSyncKill, .-System_Timer_SetPWMSyncKill
 552              		.section	.text.System_Timer_SetPWMStopOnKill,"ax",%progbits
 553              		.align	2
 554              		.global	System_Timer_SetPWMStopOnKill
 555              		.code	16
 556              		.thumb_func
 557              		.type	System_Timer_SetPWMStopOnKill, %function
 558              	System_Timer_SetPWMStopOnKill:
 559              	.LFB12:
 491:Generated_Source\PSoC4/System_Timer.c **** 
 492:Generated_Source\PSoC4/System_Timer.c **** 
 493:Generated_Source\PSoC4/System_Timer.c **** /*******************************************************************************
 494:Generated_Source\PSoC4/System_Timer.c **** * Function Name: System_Timer_SetPWMStopOnKill
 495:Generated_Source\PSoC4/System_Timer.c **** ********************************************************************************
 496:Generated_Source\PSoC4/System_Timer.c **** *
 497:Generated_Source\PSoC4/System_Timer.c **** * Summary:
 498:Generated_Source\PSoC4/System_Timer.c **** *  Writes the register that controls whether the PWM kill signal (stop input)
 499:Generated_Source\PSoC4/System_Timer.c **** *  causes the PWM counter to stop.  By default the kill operation does not stop
 500:Generated_Source\PSoC4/System_Timer.c **** *  the counter.  This functionality is only applicable to the three PWM modes.
 501:Generated_Source\PSoC4/System_Timer.c **** *
 502:Generated_Source\PSoC4/System_Timer.c **** *
 503:Generated_Source\PSoC4/System_Timer.c **** * Parameters:
 504:Generated_Source\PSoC4/System_Timer.c **** *  stopOnKillEnable
 505:Generated_Source\PSoC4/System_Timer.c **** *   Values:
 506:Generated_Source\PSoC4/System_Timer.c **** *     - 0 - Don't stop
 507:Generated_Source\PSoC4/System_Timer.c **** *     - 1 - Stop
 508:Generated_Source\PSoC4/System_Timer.c **** *
 509:Generated_Source\PSoC4/System_Timer.c **** * Return:
 510:Generated_Source\PSoC4/System_Timer.c **** *  None
 511:Generated_Source\PSoC4/System_Timer.c **** *
 512:Generated_Source\PSoC4/System_Timer.c **** *******************************************************************************/
 513:Generated_Source\PSoC4/System_Timer.c **** void System_Timer_SetPWMStopOnKill(uint32 stopOnKillEnable)
 514:Generated_Source\PSoC4/System_Timer.c **** {
 560              		.loc 1 514 0
 561              		.cfi_startproc
 562 0000 90B5     		push	{r4, r7, lr}
 563              		.cfi_def_cfa_offset 12
 564              		.cfi_offset 4, -12
 565              		.cfi_offset 7, -8
 566              		.cfi_offset 14, -4
 567 0002 85B0     		sub	sp, sp, #20
 568              		.cfi_def_cfa_offset 32
 569 0004 00AF     		add	r7, sp, #0
ARM GAS  C:\Users\ADMINI~1.SC-\AppData\Local\Temp\ccEAhJMV.s 			page 20


 570              		.cfi_def_cfa_register 7
 571 0006 7860     		str	r0, [r7, #4]
 515:Generated_Source\PSoC4/System_Timer.c ****     uint8 enableInterrupts;
 516:Generated_Source\PSoC4/System_Timer.c **** 
 517:Generated_Source\PSoC4/System_Timer.c ****     enableInterrupts = CyEnterCriticalSection();
 572              		.loc 1 517 0
 573 0008 0F23     		mov	r3, #15
 574 000a FC18     		add	r4, r7, r3
 575 000c FFF7FEFF 		bl	CyEnterCriticalSection
 576 0010 031C     		mov	r3, r0
 577 0012 2370     		strb	r3, [r4]
 518:Generated_Source\PSoC4/System_Timer.c **** 
 519:Generated_Source\PSoC4/System_Timer.c ****     System_Timer_CONTROL_REG &= (uint32)~System_Timer_PWM_STOP_KILL_MASK;
 578              		.loc 1 519 0
 579 0014 0B4B     		ldr	r3, .L33
 580 0016 0B4A     		ldr	r2, .L33
 581 0018 1268     		ldr	r2, [r2]
 582 001a 0821     		mov	r1, #8
 583 001c 8A43     		bic	r2, r1
 584 001e 1A60     		str	r2, [r3]
 520:Generated_Source\PSoC4/System_Timer.c ****     System_Timer_CONTROL_REG |= ((uint32)((stopOnKillEnable & System_Timer_1BIT_MASK)  <<
 585              		.loc 1 520 0
 586 0020 084B     		ldr	r3, .L33
 587 0022 084A     		ldr	r2, .L33
 588 0024 1168     		ldr	r1, [r2]
 589 0026 7A68     		ldr	r2, [r7, #4]
 590 0028 0120     		mov	r0, #1
 591 002a 0240     		and	r2, r0
 592 002c D200     		lsl	r2, r2, #3
 593 002e 0A43     		orr	r2, r1
 594 0030 1A60     		str	r2, [r3]
 521:Generated_Source\PSoC4/System_Timer.c ****                                                          System_Timer_PWM_STOP_KILL_SHIFT));
 522:Generated_Source\PSoC4/System_Timer.c **** 
 523:Generated_Source\PSoC4/System_Timer.c ****     CyExitCriticalSection(enableInterrupts);
 595              		.loc 1 523 0
 596 0032 0F23     		mov	r3, #15
 597 0034 FB18     		add	r3, r7, r3
 598 0036 1B78     		ldrb	r3, [r3]
 599 0038 181C     		mov	r0, r3
 600 003a FFF7FEFF 		bl	CyExitCriticalSection
 524:Generated_Source\PSoC4/System_Timer.c **** }
 601              		.loc 1 524 0
 602 003e BD46     		mov	sp, r7
 603 0040 05B0     		add	sp, sp, #20
 604              		@ sp needed
 605 0042 90BD     		pop	{r4, r7, pc}
 606              	.L34:
 607              		.align	2
 608              	.L33:
 609 0044 00012040 		.word	1075839232
 610              		.cfi_endproc
 611              	.LFE12:
 612              		.size	System_Timer_SetPWMStopOnKill, .-System_Timer_SetPWMStopOnKill
 613              		.section	.text.System_Timer_SetPWMDeadTime,"ax",%progbits
 614              		.align	2
 615              		.global	System_Timer_SetPWMDeadTime
 616              		.code	16
ARM GAS  C:\Users\ADMINI~1.SC-\AppData\Local\Temp\ccEAhJMV.s 			page 21


 617              		.thumb_func
 618              		.type	System_Timer_SetPWMDeadTime, %function
 619              	System_Timer_SetPWMDeadTime:
 620              	.LFB13:
 525:Generated_Source\PSoC4/System_Timer.c **** 
 526:Generated_Source\PSoC4/System_Timer.c **** 
 527:Generated_Source\PSoC4/System_Timer.c **** /*******************************************************************************
 528:Generated_Source\PSoC4/System_Timer.c **** * Function Name: System_Timer_SetPWMDeadTime
 529:Generated_Source\PSoC4/System_Timer.c **** ********************************************************************************
 530:Generated_Source\PSoC4/System_Timer.c **** *
 531:Generated_Source\PSoC4/System_Timer.c **** * Summary:
 532:Generated_Source\PSoC4/System_Timer.c **** *  Writes the dead time control value.  This value delays the rising edge of
 533:Generated_Source\PSoC4/System_Timer.c **** *  both the line and line_n signals the designated number of cycles resulting
 534:Generated_Source\PSoC4/System_Timer.c **** *  in both signals being inactive for that many cycles.  This functionality is
 535:Generated_Source\PSoC4/System_Timer.c **** *  only applicable to the PWM in the dead time mode.
 536:Generated_Source\PSoC4/System_Timer.c **** 
 537:Generated_Source\PSoC4/System_Timer.c **** *
 538:Generated_Source\PSoC4/System_Timer.c **** * Parameters:
 539:Generated_Source\PSoC4/System_Timer.c **** *  Dead time to insert
 540:Generated_Source\PSoC4/System_Timer.c **** *   Values: 0 to 255
 541:Generated_Source\PSoC4/System_Timer.c **** *
 542:Generated_Source\PSoC4/System_Timer.c **** * Return:
 543:Generated_Source\PSoC4/System_Timer.c **** *  None
 544:Generated_Source\PSoC4/System_Timer.c **** *
 545:Generated_Source\PSoC4/System_Timer.c **** *******************************************************************************/
 546:Generated_Source\PSoC4/System_Timer.c **** void System_Timer_SetPWMDeadTime(uint32 deadTime)
 547:Generated_Source\PSoC4/System_Timer.c **** {
 621              		.loc 1 547 0
 622              		.cfi_startproc
 623 0000 90B5     		push	{r4, r7, lr}
 624              		.cfi_def_cfa_offset 12
 625              		.cfi_offset 4, -12
 626              		.cfi_offset 7, -8
 627              		.cfi_offset 14, -4
 628 0002 85B0     		sub	sp, sp, #20
 629              		.cfi_def_cfa_offset 32
 630 0004 00AF     		add	r7, sp, #0
 631              		.cfi_def_cfa_register 7
 632 0006 7860     		str	r0, [r7, #4]
 548:Generated_Source\PSoC4/System_Timer.c ****     uint8 enableInterrupts;
 549:Generated_Source\PSoC4/System_Timer.c **** 
 550:Generated_Source\PSoC4/System_Timer.c ****     enableInterrupts = CyEnterCriticalSection();
 633              		.loc 1 550 0
 634 0008 0F23     		mov	r3, #15
 635 000a FC18     		add	r4, r7, r3
 636 000c FFF7FEFF 		bl	CyEnterCriticalSection
 637 0010 031C     		mov	r3, r0
 638 0012 2370     		strb	r3, [r4]
 551:Generated_Source\PSoC4/System_Timer.c **** 
 552:Generated_Source\PSoC4/System_Timer.c ****     System_Timer_CONTROL_REG &= (uint32)~System_Timer_PRESCALER_MASK;
 639              		.loc 1 552 0
 640 0014 0B4B     		ldr	r3, .L36
 641 0016 0B4A     		ldr	r2, .L36
 642 0018 1268     		ldr	r2, [r2]
 643 001a 0B49     		ldr	r1, .L36+4
 644 001c 0A40     		and	r2, r1
 645 001e 1A60     		str	r2, [r3]
ARM GAS  C:\Users\ADMINI~1.SC-\AppData\Local\Temp\ccEAhJMV.s 			page 22


 553:Generated_Source\PSoC4/System_Timer.c ****     System_Timer_CONTROL_REG |= ((uint32)((deadTime & System_Timer_8BIT_MASK) <<
 646              		.loc 1 553 0
 647 0020 084B     		ldr	r3, .L36
 648 0022 084A     		ldr	r2, .L36
 649 0024 1168     		ldr	r1, [r2]
 650 0026 7A68     		ldr	r2, [r7, #4]
 651 0028 1202     		lsl	r2, r2, #8
 652 002a 1204     		lsl	r2, r2, #16
 653 002c 120C     		lsr	r2, r2, #16
 654 002e 0A43     		orr	r2, r1
 655 0030 1A60     		str	r2, [r3]
 554:Generated_Source\PSoC4/System_Timer.c ****                                                           System_Timer_PRESCALER_SHIFT));
 555:Generated_Source\PSoC4/System_Timer.c **** 
 556:Generated_Source\PSoC4/System_Timer.c ****     CyExitCriticalSection(enableInterrupts);
 656              		.loc 1 556 0
 657 0032 0F23     		mov	r3, #15
 658 0034 FB18     		add	r3, r7, r3
 659 0036 1B78     		ldrb	r3, [r3]
 660 0038 181C     		mov	r0, r3
 661 003a FFF7FEFF 		bl	CyExitCriticalSection
 557:Generated_Source\PSoC4/System_Timer.c **** }
 662              		.loc 1 557 0
 663 003e BD46     		mov	sp, r7
 664 0040 05B0     		add	sp, sp, #20
 665              		@ sp needed
 666 0042 90BD     		pop	{r4, r7, pc}
 667              	.L37:
 668              		.align	2
 669              	.L36:
 670 0044 00012040 		.word	1075839232
 671 0048 FF00FFFF 		.word	-65281
 672              		.cfi_endproc
 673              	.LFE13:
 674              		.size	System_Timer_SetPWMDeadTime, .-System_Timer_SetPWMDeadTime
 675              		.section	.text.System_Timer_SetPWMInvert,"ax",%progbits
 676              		.align	2
 677              		.global	System_Timer_SetPWMInvert
 678              		.code	16
 679              		.thumb_func
 680              		.type	System_Timer_SetPWMInvert, %function
 681              	System_Timer_SetPWMInvert:
 682              	.LFB14:
 558:Generated_Source\PSoC4/System_Timer.c **** 
 559:Generated_Source\PSoC4/System_Timer.c **** 
 560:Generated_Source\PSoC4/System_Timer.c **** /*******************************************************************************
 561:Generated_Source\PSoC4/System_Timer.c **** * Function Name: System_Timer_SetPWMInvert
 562:Generated_Source\PSoC4/System_Timer.c **** ********************************************************************************
 563:Generated_Source\PSoC4/System_Timer.c **** *
 564:Generated_Source\PSoC4/System_Timer.c **** * Summary:
 565:Generated_Source\PSoC4/System_Timer.c **** *  Writes the bits that control whether the line and line_n outputs are
 566:Generated_Source\PSoC4/System_Timer.c **** *  inverted from their normal output values.  This functionality is only
 567:Generated_Source\PSoC4/System_Timer.c **** *  applicable to the three PWM modes.
 568:Generated_Source\PSoC4/System_Timer.c **** *
 569:Generated_Source\PSoC4/System_Timer.c **** * Parameters:
 570:Generated_Source\PSoC4/System_Timer.c **** *  mask: Mask of outputs to invert.
 571:Generated_Source\PSoC4/System_Timer.c **** *   Values:
 572:Generated_Source\PSoC4/System_Timer.c **** *         - System_Timer_INVERT_LINE   - Inverts the line output
ARM GAS  C:\Users\ADMINI~1.SC-\AppData\Local\Temp\ccEAhJMV.s 			page 23


 573:Generated_Source\PSoC4/System_Timer.c **** *         - System_Timer_INVERT_LINE_N - Inverts the line_n output
 574:Generated_Source\PSoC4/System_Timer.c **** *
 575:Generated_Source\PSoC4/System_Timer.c **** * Return:
 576:Generated_Source\PSoC4/System_Timer.c **** *  None
 577:Generated_Source\PSoC4/System_Timer.c **** *
 578:Generated_Source\PSoC4/System_Timer.c **** *******************************************************************************/
 579:Generated_Source\PSoC4/System_Timer.c **** void System_Timer_SetPWMInvert(uint32 mask)
 580:Generated_Source\PSoC4/System_Timer.c **** {
 683              		.loc 1 580 0
 684              		.cfi_startproc
 685 0000 90B5     		push	{r4, r7, lr}
 686              		.cfi_def_cfa_offset 12
 687              		.cfi_offset 4, -12
 688              		.cfi_offset 7, -8
 689              		.cfi_offset 14, -4
 690 0002 85B0     		sub	sp, sp, #20
 691              		.cfi_def_cfa_offset 32
 692 0004 00AF     		add	r7, sp, #0
 693              		.cfi_def_cfa_register 7
 694 0006 7860     		str	r0, [r7, #4]
 581:Generated_Source\PSoC4/System_Timer.c ****     uint8 enableInterrupts;
 582:Generated_Source\PSoC4/System_Timer.c **** 
 583:Generated_Source\PSoC4/System_Timer.c ****     enableInterrupts = CyEnterCriticalSection();
 695              		.loc 1 583 0
 696 0008 0F23     		mov	r3, #15
 697 000a FC18     		add	r4, r7, r3
 698 000c FFF7FEFF 		bl	CyEnterCriticalSection
 699 0010 031C     		mov	r3, r0
 700 0012 2370     		strb	r3, [r4]
 584:Generated_Source\PSoC4/System_Timer.c **** 
 585:Generated_Source\PSoC4/System_Timer.c ****     System_Timer_CONTROL_REG &= (uint32)~System_Timer_INV_OUT_MASK;
 701              		.loc 1 585 0
 702 0014 0A4B     		ldr	r3, .L39
 703 0016 0A4A     		ldr	r2, .L39
 704 0018 1268     		ldr	r2, [r2]
 705 001a 0A49     		ldr	r1, .L39+4
 706 001c 0A40     		and	r2, r1
 707 001e 1A60     		str	r2, [r3]
 586:Generated_Source\PSoC4/System_Timer.c ****     System_Timer_CONTROL_REG |= mask;
 708              		.loc 1 586 0
 709 0020 074B     		ldr	r3, .L39
 710 0022 074A     		ldr	r2, .L39
 711 0024 1168     		ldr	r1, [r2]
 712 0026 7A68     		ldr	r2, [r7, #4]
 713 0028 0A43     		orr	r2, r1
 714 002a 1A60     		str	r2, [r3]
 587:Generated_Source\PSoC4/System_Timer.c **** 
 588:Generated_Source\PSoC4/System_Timer.c ****     CyExitCriticalSection(enableInterrupts);
 715              		.loc 1 588 0
 716 002c 0F23     		mov	r3, #15
 717 002e FB18     		add	r3, r7, r3
 718 0030 1B78     		ldrb	r3, [r3]
 719 0032 181C     		mov	r0, r3
 720 0034 FFF7FEFF 		bl	CyExitCriticalSection
 589:Generated_Source\PSoC4/System_Timer.c **** }
 721              		.loc 1 589 0
 722 0038 BD46     		mov	sp, r7
ARM GAS  C:\Users\ADMINI~1.SC-\AppData\Local\Temp\ccEAhJMV.s 			page 24


 723 003a 05B0     		add	sp, sp, #20
 724              		@ sp needed
 725 003c 90BD     		pop	{r4, r7, pc}
 726              	.L40:
 727 003e C046     		.align	2
 728              	.L39:
 729 0040 00012040 		.word	1075839232
 730 0044 FFFFCFFF 		.word	-3145729
 731              		.cfi_endproc
 732              	.LFE14:
 733              		.size	System_Timer_SetPWMInvert, .-System_Timer_SetPWMInvert
 734              		.section	.text.System_Timer_WriteCounter,"ax",%progbits
 735              		.align	2
 736              		.global	System_Timer_WriteCounter
 737              		.code	16
 738              		.thumb_func
 739              		.type	System_Timer_WriteCounter, %function
 740              	System_Timer_WriteCounter:
 741              	.LFB15:
 590:Generated_Source\PSoC4/System_Timer.c **** 
 591:Generated_Source\PSoC4/System_Timer.c **** 
 592:Generated_Source\PSoC4/System_Timer.c **** 
 593:Generated_Source\PSoC4/System_Timer.c **** /*******************************************************************************
 594:Generated_Source\PSoC4/System_Timer.c **** * Function Name: System_Timer_WriteCounter
 595:Generated_Source\PSoC4/System_Timer.c **** ********************************************************************************
 596:Generated_Source\PSoC4/System_Timer.c **** *
 597:Generated_Source\PSoC4/System_Timer.c **** * Summary:
 598:Generated_Source\PSoC4/System_Timer.c **** *  Writes a new 16bit counter value directly into the counter register, thus
 599:Generated_Source\PSoC4/System_Timer.c **** *  setting the counter (not the period) to the value written. It is not
 600:Generated_Source\PSoC4/System_Timer.c **** *  advised to write to this field when the counter is running.
 601:Generated_Source\PSoC4/System_Timer.c **** *
 602:Generated_Source\PSoC4/System_Timer.c **** * Parameters:
 603:Generated_Source\PSoC4/System_Timer.c **** *  count: value to write
 604:Generated_Source\PSoC4/System_Timer.c **** *
 605:Generated_Source\PSoC4/System_Timer.c **** * Return:
 606:Generated_Source\PSoC4/System_Timer.c **** *  None
 607:Generated_Source\PSoC4/System_Timer.c **** *
 608:Generated_Source\PSoC4/System_Timer.c **** *******************************************************************************/
 609:Generated_Source\PSoC4/System_Timer.c **** void System_Timer_WriteCounter(uint32 count)
 610:Generated_Source\PSoC4/System_Timer.c **** {
 742              		.loc 1 610 0
 743              		.cfi_startproc
 744 0000 80B5     		push	{r7, lr}
 745              		.cfi_def_cfa_offset 8
 746              		.cfi_offset 7, -8
 747              		.cfi_offset 14, -4
 748 0002 82B0     		sub	sp, sp, #8
 749              		.cfi_def_cfa_offset 16
 750 0004 00AF     		add	r7, sp, #0
 751              		.cfi_def_cfa_register 7
 752 0006 7860     		str	r0, [r7, #4]
 611:Generated_Source\PSoC4/System_Timer.c ****     System_Timer_COUNTER_REG = (count & System_Timer_16BIT_MASK);
 753              		.loc 1 611 0
 754 0008 034B     		ldr	r3, .L42
 755 000a 7A68     		ldr	r2, [r7, #4]
 756 000c 1204     		lsl	r2, r2, #16
 757 000e 120C     		lsr	r2, r2, #16
ARM GAS  C:\Users\ADMINI~1.SC-\AppData\Local\Temp\ccEAhJMV.s 			page 25


 758 0010 1A60     		str	r2, [r3]
 612:Generated_Source\PSoC4/System_Timer.c **** }
 759              		.loc 1 612 0
 760 0012 BD46     		mov	sp, r7
 761 0014 02B0     		add	sp, sp, #8
 762              		@ sp needed
 763 0016 80BD     		pop	{r7, pc}
 764              	.L43:
 765              		.align	2
 766              	.L42:
 767 0018 08012040 		.word	1075839240
 768              		.cfi_endproc
 769              	.LFE15:
 770              		.size	System_Timer_WriteCounter, .-System_Timer_WriteCounter
 771              		.section	.text.System_Timer_ReadCounter,"ax",%progbits
 772              		.align	2
 773              		.global	System_Timer_ReadCounter
 774              		.code	16
 775              		.thumb_func
 776              		.type	System_Timer_ReadCounter, %function
 777              	System_Timer_ReadCounter:
 778              	.LFB16:
 613:Generated_Source\PSoC4/System_Timer.c **** 
 614:Generated_Source\PSoC4/System_Timer.c **** 
 615:Generated_Source\PSoC4/System_Timer.c **** /*******************************************************************************
 616:Generated_Source\PSoC4/System_Timer.c **** * Function Name: System_Timer_ReadCounter
 617:Generated_Source\PSoC4/System_Timer.c **** ********************************************************************************
 618:Generated_Source\PSoC4/System_Timer.c **** *
 619:Generated_Source\PSoC4/System_Timer.c **** * Summary:
 620:Generated_Source\PSoC4/System_Timer.c **** *  Reads the current counter value.
 621:Generated_Source\PSoC4/System_Timer.c **** *
 622:Generated_Source\PSoC4/System_Timer.c **** * Parameters:
 623:Generated_Source\PSoC4/System_Timer.c **** *  None
 624:Generated_Source\PSoC4/System_Timer.c **** *
 625:Generated_Source\PSoC4/System_Timer.c **** * Return:
 626:Generated_Source\PSoC4/System_Timer.c **** *  Current counter value
 627:Generated_Source\PSoC4/System_Timer.c **** *
 628:Generated_Source\PSoC4/System_Timer.c **** *******************************************************************************/
 629:Generated_Source\PSoC4/System_Timer.c **** uint32 System_Timer_ReadCounter(void)
 630:Generated_Source\PSoC4/System_Timer.c **** {
 779              		.loc 1 630 0
 780              		.cfi_startproc
 781 0000 80B5     		push	{r7, lr}
 782              		.cfi_def_cfa_offset 8
 783              		.cfi_offset 7, -8
 784              		.cfi_offset 14, -4
 785 0002 00AF     		add	r7, sp, #0
 786              		.cfi_def_cfa_register 7
 631:Generated_Source\PSoC4/System_Timer.c ****     return (System_Timer_COUNTER_REG & System_Timer_16BIT_MASK);
 787              		.loc 1 631 0
 788 0004 034B     		ldr	r3, .L46
 789 0006 1B68     		ldr	r3, [r3]
 790 0008 1B04     		lsl	r3, r3, #16
 791 000a 1B0C     		lsr	r3, r3, #16
 632:Generated_Source\PSoC4/System_Timer.c **** }
 792              		.loc 1 632 0
 793 000c 181C     		mov	r0, r3
ARM GAS  C:\Users\ADMINI~1.SC-\AppData\Local\Temp\ccEAhJMV.s 			page 26


 794 000e BD46     		mov	sp, r7
 795              		@ sp needed
 796 0010 80BD     		pop	{r7, pc}
 797              	.L47:
 798 0012 C046     		.align	2
 799              	.L46:
 800 0014 08012040 		.word	1075839240
 801              		.cfi_endproc
 802              	.LFE16:
 803              		.size	System_Timer_ReadCounter, .-System_Timer_ReadCounter
 804              		.section	.text.System_Timer_SetCounterMode,"ax",%progbits
 805              		.align	2
 806              		.global	System_Timer_SetCounterMode
 807              		.code	16
 808              		.thumb_func
 809              		.type	System_Timer_SetCounterMode, %function
 810              	System_Timer_SetCounterMode:
 811              	.LFB17:
 633:Generated_Source\PSoC4/System_Timer.c **** 
 634:Generated_Source\PSoC4/System_Timer.c **** 
 635:Generated_Source\PSoC4/System_Timer.c **** /*******************************************************************************
 636:Generated_Source\PSoC4/System_Timer.c **** * Function Name: System_Timer_SetCounterMode
 637:Generated_Source\PSoC4/System_Timer.c **** ********************************************************************************
 638:Generated_Source\PSoC4/System_Timer.c **** *
 639:Generated_Source\PSoC4/System_Timer.c **** * Summary:
 640:Generated_Source\PSoC4/System_Timer.c **** *  Sets the counter mode.  Applicable to all modes except Quadrature Decoder
 641:Generated_Source\PSoC4/System_Timer.c **** *  and the PWM with a pseudo random output.
 642:Generated_Source\PSoC4/System_Timer.c **** *
 643:Generated_Source\PSoC4/System_Timer.c **** * Parameters:
 644:Generated_Source\PSoC4/System_Timer.c **** *  counterMode: Enumerated counter type values
 645:Generated_Source\PSoC4/System_Timer.c **** *   Values:
 646:Generated_Source\PSoC4/System_Timer.c **** *     - System_Timer_COUNT_UP       - Counts up
 647:Generated_Source\PSoC4/System_Timer.c **** *     - System_Timer_COUNT_DOWN     - Counts down
 648:Generated_Source\PSoC4/System_Timer.c **** *     - System_Timer_COUNT_UPDOWN0  - Counts up and down. Terminal count
 649:Generated_Source\PSoC4/System_Timer.c **** *                                         generated when counter reaches 0
 650:Generated_Source\PSoC4/System_Timer.c **** *     - System_Timer_COUNT_UPDOWN1  - Counts up and down. Terminal count
 651:Generated_Source\PSoC4/System_Timer.c **** *                                         generated both when counter reaches 0
 652:Generated_Source\PSoC4/System_Timer.c **** *                                         and period
 653:Generated_Source\PSoC4/System_Timer.c **** *
 654:Generated_Source\PSoC4/System_Timer.c **** * Return:
 655:Generated_Source\PSoC4/System_Timer.c **** *  None
 656:Generated_Source\PSoC4/System_Timer.c **** *
 657:Generated_Source\PSoC4/System_Timer.c **** *******************************************************************************/
 658:Generated_Source\PSoC4/System_Timer.c **** void System_Timer_SetCounterMode(uint32 counterMode)
 659:Generated_Source\PSoC4/System_Timer.c **** {
 812              		.loc 1 659 0
 813              		.cfi_startproc
 814 0000 90B5     		push	{r4, r7, lr}
 815              		.cfi_def_cfa_offset 12
 816              		.cfi_offset 4, -12
 817              		.cfi_offset 7, -8
 818              		.cfi_offset 14, -4
 819 0002 85B0     		sub	sp, sp, #20
 820              		.cfi_def_cfa_offset 32
 821 0004 00AF     		add	r7, sp, #0
 822              		.cfi_def_cfa_register 7
 823 0006 7860     		str	r0, [r7, #4]
ARM GAS  C:\Users\ADMINI~1.SC-\AppData\Local\Temp\ccEAhJMV.s 			page 27


 660:Generated_Source\PSoC4/System_Timer.c ****     uint8 enableInterrupts;
 661:Generated_Source\PSoC4/System_Timer.c **** 
 662:Generated_Source\PSoC4/System_Timer.c ****     enableInterrupts = CyEnterCriticalSection();
 824              		.loc 1 662 0
 825 0008 0F23     		mov	r3, #15
 826 000a FC18     		add	r4, r7, r3
 827 000c FFF7FEFF 		bl	CyEnterCriticalSection
 828 0010 031C     		mov	r3, r0
 829 0012 2370     		strb	r3, [r4]
 663:Generated_Source\PSoC4/System_Timer.c **** 
 664:Generated_Source\PSoC4/System_Timer.c ****     System_Timer_CONTROL_REG &= (uint32)~System_Timer_UPDOWN_MASK;
 830              		.loc 1 664 0
 831 0014 0A4B     		ldr	r3, .L49
 832 0016 0A4A     		ldr	r2, .L49
 833 0018 1268     		ldr	r2, [r2]
 834 001a 0A49     		ldr	r1, .L49+4
 835 001c 0A40     		and	r2, r1
 836 001e 1A60     		str	r2, [r3]
 665:Generated_Source\PSoC4/System_Timer.c ****     System_Timer_CONTROL_REG |= counterMode;
 837              		.loc 1 665 0
 838 0020 074B     		ldr	r3, .L49
 839 0022 074A     		ldr	r2, .L49
 840 0024 1168     		ldr	r1, [r2]
 841 0026 7A68     		ldr	r2, [r7, #4]
 842 0028 0A43     		orr	r2, r1
 843 002a 1A60     		str	r2, [r3]
 666:Generated_Source\PSoC4/System_Timer.c **** 
 667:Generated_Source\PSoC4/System_Timer.c ****     CyExitCriticalSection(enableInterrupts);
 844              		.loc 1 667 0
 845 002c 0F23     		mov	r3, #15
 846 002e FB18     		add	r3, r7, r3
 847 0030 1B78     		ldrb	r3, [r3]
 848 0032 181C     		mov	r0, r3
 849 0034 FFF7FEFF 		bl	CyExitCriticalSection
 668:Generated_Source\PSoC4/System_Timer.c **** }
 850              		.loc 1 668 0
 851 0038 BD46     		mov	sp, r7
 852 003a 05B0     		add	sp, sp, #20
 853              		@ sp needed
 854 003c 90BD     		pop	{r4, r7, pc}
 855              	.L50:
 856 003e C046     		.align	2
 857              	.L49:
 858 0040 00012040 		.word	1075839232
 859 0044 FFFFFCFF 		.word	-196609
 860              		.cfi_endproc
 861              	.LFE17:
 862              		.size	System_Timer_SetCounterMode, .-System_Timer_SetCounterMode
 863              		.section	.text.System_Timer_WritePeriod,"ax",%progbits
 864              		.align	2
 865              		.global	System_Timer_WritePeriod
 866              		.code	16
 867              		.thumb_func
 868              		.type	System_Timer_WritePeriod, %function
 869              	System_Timer_WritePeriod:
 870              	.LFB18:
 669:Generated_Source\PSoC4/System_Timer.c **** 
ARM GAS  C:\Users\ADMINI~1.SC-\AppData\Local\Temp\ccEAhJMV.s 			page 28


 670:Generated_Source\PSoC4/System_Timer.c **** 
 671:Generated_Source\PSoC4/System_Timer.c **** /*******************************************************************************
 672:Generated_Source\PSoC4/System_Timer.c **** * Function Name: System_Timer_WritePeriod
 673:Generated_Source\PSoC4/System_Timer.c **** ********************************************************************************
 674:Generated_Source\PSoC4/System_Timer.c **** *
 675:Generated_Source\PSoC4/System_Timer.c **** * Summary:
 676:Generated_Source\PSoC4/System_Timer.c **** *  Writes the 16 bit period register with the new period value.
 677:Generated_Source\PSoC4/System_Timer.c **** *  To cause the counter to count for N cycles this register should be written
 678:Generated_Source\PSoC4/System_Timer.c **** *  with N-1 (counts from 0 to period inclusive).
 679:Generated_Source\PSoC4/System_Timer.c **** *
 680:Generated_Source\PSoC4/System_Timer.c **** * Parameters:
 681:Generated_Source\PSoC4/System_Timer.c **** *  period: Period value
 682:Generated_Source\PSoC4/System_Timer.c **** *
 683:Generated_Source\PSoC4/System_Timer.c **** * Return:
 684:Generated_Source\PSoC4/System_Timer.c **** *  None
 685:Generated_Source\PSoC4/System_Timer.c **** *
 686:Generated_Source\PSoC4/System_Timer.c **** *******************************************************************************/
 687:Generated_Source\PSoC4/System_Timer.c **** void System_Timer_WritePeriod(uint32 period)
 688:Generated_Source\PSoC4/System_Timer.c **** {
 871              		.loc 1 688 0
 872              		.cfi_startproc
 873 0000 80B5     		push	{r7, lr}
 874              		.cfi_def_cfa_offset 8
 875              		.cfi_offset 7, -8
 876              		.cfi_offset 14, -4
 877 0002 82B0     		sub	sp, sp, #8
 878              		.cfi_def_cfa_offset 16
 879 0004 00AF     		add	r7, sp, #0
 880              		.cfi_def_cfa_register 7
 881 0006 7860     		str	r0, [r7, #4]
 689:Generated_Source\PSoC4/System_Timer.c ****     System_Timer_PERIOD_REG = (period & System_Timer_16BIT_MASK);
 882              		.loc 1 689 0
 883 0008 034B     		ldr	r3, .L52
 884 000a 7A68     		ldr	r2, [r7, #4]
 885 000c 1204     		lsl	r2, r2, #16
 886 000e 120C     		lsr	r2, r2, #16
 887 0010 1A60     		str	r2, [r3]
 690:Generated_Source\PSoC4/System_Timer.c **** }
 888              		.loc 1 690 0
 889 0012 BD46     		mov	sp, r7
 890 0014 02B0     		add	sp, sp, #8
 891              		@ sp needed
 892 0016 80BD     		pop	{r7, pc}
 893              	.L53:
 894              		.align	2
 895              	.L52:
 896 0018 14012040 		.word	1075839252
 897              		.cfi_endproc
 898              	.LFE18:
 899              		.size	System_Timer_WritePeriod, .-System_Timer_WritePeriod
 900              		.section	.text.System_Timer_ReadPeriod,"ax",%progbits
 901              		.align	2
 902              		.global	System_Timer_ReadPeriod
 903              		.code	16
 904              		.thumb_func
 905              		.type	System_Timer_ReadPeriod, %function
 906              	System_Timer_ReadPeriod:
ARM GAS  C:\Users\ADMINI~1.SC-\AppData\Local\Temp\ccEAhJMV.s 			page 29


 907              	.LFB19:
 691:Generated_Source\PSoC4/System_Timer.c **** 
 692:Generated_Source\PSoC4/System_Timer.c **** 
 693:Generated_Source\PSoC4/System_Timer.c **** /*******************************************************************************
 694:Generated_Source\PSoC4/System_Timer.c **** * Function Name: System_Timer_ReadPeriod
 695:Generated_Source\PSoC4/System_Timer.c **** ********************************************************************************
 696:Generated_Source\PSoC4/System_Timer.c **** *
 697:Generated_Source\PSoC4/System_Timer.c **** * Summary:
 698:Generated_Source\PSoC4/System_Timer.c **** *  Reads the 16 bit period register.
 699:Generated_Source\PSoC4/System_Timer.c **** *
 700:Generated_Source\PSoC4/System_Timer.c **** * Parameters:
 701:Generated_Source\PSoC4/System_Timer.c **** *  None
 702:Generated_Source\PSoC4/System_Timer.c **** *
 703:Generated_Source\PSoC4/System_Timer.c **** * Return:
 704:Generated_Source\PSoC4/System_Timer.c **** *  Period value
 705:Generated_Source\PSoC4/System_Timer.c **** *
 706:Generated_Source\PSoC4/System_Timer.c **** *******************************************************************************/
 707:Generated_Source\PSoC4/System_Timer.c **** uint32 System_Timer_ReadPeriod(void)
 708:Generated_Source\PSoC4/System_Timer.c **** {
 908              		.loc 1 708 0
 909              		.cfi_startproc
 910 0000 80B5     		push	{r7, lr}
 911              		.cfi_def_cfa_offset 8
 912              		.cfi_offset 7, -8
 913              		.cfi_offset 14, -4
 914 0002 00AF     		add	r7, sp, #0
 915              		.cfi_def_cfa_register 7
 709:Generated_Source\PSoC4/System_Timer.c ****     return (System_Timer_PERIOD_REG & System_Timer_16BIT_MASK);
 916              		.loc 1 709 0
 917 0004 034B     		ldr	r3, .L56
 918 0006 1B68     		ldr	r3, [r3]
 919 0008 1B04     		lsl	r3, r3, #16
 920 000a 1B0C     		lsr	r3, r3, #16
 710:Generated_Source\PSoC4/System_Timer.c **** }
 921              		.loc 1 710 0
 922 000c 181C     		mov	r0, r3
 923 000e BD46     		mov	sp, r7
 924              		@ sp needed
 925 0010 80BD     		pop	{r7, pc}
 926              	.L57:
 927 0012 C046     		.align	2
 928              	.L56:
 929 0014 14012040 		.word	1075839252
 930              		.cfi_endproc
 931              	.LFE19:
 932              		.size	System_Timer_ReadPeriod, .-System_Timer_ReadPeriod
 933              		.section	.text.System_Timer_SetCompareSwap,"ax",%progbits
 934              		.align	2
 935              		.global	System_Timer_SetCompareSwap
 936              		.code	16
 937              		.thumb_func
 938              		.type	System_Timer_SetCompareSwap, %function
 939              	System_Timer_SetCompareSwap:
 940              	.LFB20:
 711:Generated_Source\PSoC4/System_Timer.c **** 
 712:Generated_Source\PSoC4/System_Timer.c **** 
 713:Generated_Source\PSoC4/System_Timer.c **** /*******************************************************************************
ARM GAS  C:\Users\ADMINI~1.SC-\AppData\Local\Temp\ccEAhJMV.s 			page 30


 714:Generated_Source\PSoC4/System_Timer.c **** * Function Name: System_Timer_SetCompareSwap
 715:Generated_Source\PSoC4/System_Timer.c **** ********************************************************************************
 716:Generated_Source\PSoC4/System_Timer.c **** *
 717:Generated_Source\PSoC4/System_Timer.c **** * Summary:
 718:Generated_Source\PSoC4/System_Timer.c **** *  Writes the register that controls whether the compare registers are
 719:Generated_Source\PSoC4/System_Timer.c **** *  swapped. When enabled in the Timer/Counter mode(without capture) the swap
 720:Generated_Source\PSoC4/System_Timer.c **** *  occurs at a TC event. In the PWM mode the swap occurs at the next TC event
 721:Generated_Source\PSoC4/System_Timer.c **** *  following a hardware switch event.
 722:Generated_Source\PSoC4/System_Timer.c **** *
 723:Generated_Source\PSoC4/System_Timer.c **** * Parameters:
 724:Generated_Source\PSoC4/System_Timer.c **** *  swapEnable
 725:Generated_Source\PSoC4/System_Timer.c **** *   Values:
 726:Generated_Source\PSoC4/System_Timer.c **** *     - 0 - Disable swap
 727:Generated_Source\PSoC4/System_Timer.c **** *     - 1 - Enable swap
 728:Generated_Source\PSoC4/System_Timer.c **** *
 729:Generated_Source\PSoC4/System_Timer.c **** * Return:
 730:Generated_Source\PSoC4/System_Timer.c **** *  None
 731:Generated_Source\PSoC4/System_Timer.c **** *
 732:Generated_Source\PSoC4/System_Timer.c **** *******************************************************************************/
 733:Generated_Source\PSoC4/System_Timer.c **** void System_Timer_SetCompareSwap(uint32 swapEnable)
 734:Generated_Source\PSoC4/System_Timer.c **** {
 941              		.loc 1 734 0
 942              		.cfi_startproc
 943 0000 90B5     		push	{r4, r7, lr}
 944              		.cfi_def_cfa_offset 12
 945              		.cfi_offset 4, -12
 946              		.cfi_offset 7, -8
 947              		.cfi_offset 14, -4
 948 0002 85B0     		sub	sp, sp, #20
 949              		.cfi_def_cfa_offset 32
 950 0004 00AF     		add	r7, sp, #0
 951              		.cfi_def_cfa_register 7
 952 0006 7860     		str	r0, [r7, #4]
 735:Generated_Source\PSoC4/System_Timer.c ****     uint8 enableInterrupts;
 736:Generated_Source\PSoC4/System_Timer.c **** 
 737:Generated_Source\PSoC4/System_Timer.c ****     enableInterrupts = CyEnterCriticalSection();
 953              		.loc 1 737 0
 954 0008 0F23     		mov	r3, #15
 955 000a FC18     		add	r4, r7, r3
 956 000c FFF7FEFF 		bl	CyEnterCriticalSection
 957 0010 031C     		mov	r3, r0
 958 0012 2370     		strb	r3, [r4]
 738:Generated_Source\PSoC4/System_Timer.c **** 
 739:Generated_Source\PSoC4/System_Timer.c ****     System_Timer_CONTROL_REG &= (uint32)~System_Timer_RELOAD_CC_MASK;
 959              		.loc 1 739 0
 960 0014 0B4B     		ldr	r3, .L59
 961 0016 0B4A     		ldr	r2, .L59
 962 0018 1268     		ldr	r2, [r2]
 963 001a 0121     		mov	r1, #1
 964 001c 8A43     		bic	r2, r1
 965 001e 1A60     		str	r2, [r3]
 740:Generated_Source\PSoC4/System_Timer.c ****     System_Timer_CONTROL_REG |= (swapEnable & System_Timer_1BIT_MASK);
 966              		.loc 1 740 0
 967 0020 084B     		ldr	r3, .L59
 968 0022 084A     		ldr	r2, .L59
 969 0024 1168     		ldr	r1, [r2]
 970 0026 7A68     		ldr	r2, [r7, #4]
ARM GAS  C:\Users\ADMINI~1.SC-\AppData\Local\Temp\ccEAhJMV.s 			page 31


 971 0028 0120     		mov	r0, #1
 972 002a 0240     		and	r2, r0
 973 002c 0A43     		orr	r2, r1
 974 002e 1A60     		str	r2, [r3]
 741:Generated_Source\PSoC4/System_Timer.c **** 
 742:Generated_Source\PSoC4/System_Timer.c ****     CyExitCriticalSection(enableInterrupts);
 975              		.loc 1 742 0
 976 0030 0F23     		mov	r3, #15
 977 0032 FB18     		add	r3, r7, r3
 978 0034 1B78     		ldrb	r3, [r3]
 979 0036 181C     		mov	r0, r3
 980 0038 FFF7FEFF 		bl	CyExitCriticalSection
 743:Generated_Source\PSoC4/System_Timer.c **** }
 981              		.loc 1 743 0
 982 003c BD46     		mov	sp, r7
 983 003e 05B0     		add	sp, sp, #20
 984              		@ sp needed
 985 0040 90BD     		pop	{r4, r7, pc}
 986              	.L60:
 987 0042 C046     		.align	2
 988              	.L59:
 989 0044 00012040 		.word	1075839232
 990              		.cfi_endproc
 991              	.LFE20:
 992              		.size	System_Timer_SetCompareSwap, .-System_Timer_SetCompareSwap
 993              		.section	.text.System_Timer_WritePeriodBuf,"ax",%progbits
 994              		.align	2
 995              		.global	System_Timer_WritePeriodBuf
 996              		.code	16
 997              		.thumb_func
 998              		.type	System_Timer_WritePeriodBuf, %function
 999              	System_Timer_WritePeriodBuf:
 1000              	.LFB21:
 744:Generated_Source\PSoC4/System_Timer.c **** 
 745:Generated_Source\PSoC4/System_Timer.c **** 
 746:Generated_Source\PSoC4/System_Timer.c **** /*******************************************************************************
 747:Generated_Source\PSoC4/System_Timer.c **** * Function Name: System_Timer_WritePeriodBuf
 748:Generated_Source\PSoC4/System_Timer.c **** ********************************************************************************
 749:Generated_Source\PSoC4/System_Timer.c **** *
 750:Generated_Source\PSoC4/System_Timer.c **** * Summary:
 751:Generated_Source\PSoC4/System_Timer.c **** *  Writes the 16 bit period buf register with the new period value.
 752:Generated_Source\PSoC4/System_Timer.c **** *
 753:Generated_Source\PSoC4/System_Timer.c **** * Parameters:
 754:Generated_Source\PSoC4/System_Timer.c **** *  periodBuf: Period value
 755:Generated_Source\PSoC4/System_Timer.c **** *
 756:Generated_Source\PSoC4/System_Timer.c **** * Return:
 757:Generated_Source\PSoC4/System_Timer.c **** *  None
 758:Generated_Source\PSoC4/System_Timer.c **** *
 759:Generated_Source\PSoC4/System_Timer.c **** *******************************************************************************/
 760:Generated_Source\PSoC4/System_Timer.c **** void System_Timer_WritePeriodBuf(uint32 periodBuf)
 761:Generated_Source\PSoC4/System_Timer.c **** {
 1001              		.loc 1 761 0
 1002              		.cfi_startproc
 1003 0000 80B5     		push	{r7, lr}
 1004              		.cfi_def_cfa_offset 8
 1005              		.cfi_offset 7, -8
 1006              		.cfi_offset 14, -4
ARM GAS  C:\Users\ADMINI~1.SC-\AppData\Local\Temp\ccEAhJMV.s 			page 32


 1007 0002 82B0     		sub	sp, sp, #8
 1008              		.cfi_def_cfa_offset 16
 1009 0004 00AF     		add	r7, sp, #0
 1010              		.cfi_def_cfa_register 7
 1011 0006 7860     		str	r0, [r7, #4]
 762:Generated_Source\PSoC4/System_Timer.c ****     System_Timer_PERIOD_BUF_REG = (periodBuf & System_Timer_16BIT_MASK);
 1012              		.loc 1 762 0
 1013 0008 034B     		ldr	r3, .L62
 1014 000a 7A68     		ldr	r2, [r7, #4]
 1015 000c 1204     		lsl	r2, r2, #16
 1016 000e 120C     		lsr	r2, r2, #16
 1017 0010 1A60     		str	r2, [r3]
 763:Generated_Source\PSoC4/System_Timer.c **** }
 1018              		.loc 1 763 0
 1019 0012 BD46     		mov	sp, r7
 1020 0014 02B0     		add	sp, sp, #8
 1021              		@ sp needed
 1022 0016 80BD     		pop	{r7, pc}
 1023              	.L63:
 1024              		.align	2
 1025              	.L62:
 1026 0018 18012040 		.word	1075839256
 1027              		.cfi_endproc
 1028              	.LFE21:
 1029              		.size	System_Timer_WritePeriodBuf, .-System_Timer_WritePeriodBuf
 1030              		.section	.text.System_Timer_ReadPeriodBuf,"ax",%progbits
 1031              		.align	2
 1032              		.global	System_Timer_ReadPeriodBuf
 1033              		.code	16
 1034              		.thumb_func
 1035              		.type	System_Timer_ReadPeriodBuf, %function
 1036              	System_Timer_ReadPeriodBuf:
 1037              	.LFB22:
 764:Generated_Source\PSoC4/System_Timer.c **** 
 765:Generated_Source\PSoC4/System_Timer.c **** 
 766:Generated_Source\PSoC4/System_Timer.c **** /*******************************************************************************
 767:Generated_Source\PSoC4/System_Timer.c **** * Function Name: System_Timer_ReadPeriodBuf
 768:Generated_Source\PSoC4/System_Timer.c **** ********************************************************************************
 769:Generated_Source\PSoC4/System_Timer.c **** *
 770:Generated_Source\PSoC4/System_Timer.c **** * Summary:
 771:Generated_Source\PSoC4/System_Timer.c **** *  Reads the 16 bit period buf register.
 772:Generated_Source\PSoC4/System_Timer.c **** *
 773:Generated_Source\PSoC4/System_Timer.c **** * Parameters:
 774:Generated_Source\PSoC4/System_Timer.c **** *  None
 775:Generated_Source\PSoC4/System_Timer.c **** *
 776:Generated_Source\PSoC4/System_Timer.c **** * Return:
 777:Generated_Source\PSoC4/System_Timer.c **** *  Period value
 778:Generated_Source\PSoC4/System_Timer.c **** *
 779:Generated_Source\PSoC4/System_Timer.c **** *******************************************************************************/
 780:Generated_Source\PSoC4/System_Timer.c **** uint32 System_Timer_ReadPeriodBuf(void)
 781:Generated_Source\PSoC4/System_Timer.c **** {
 1038              		.loc 1 781 0
 1039              		.cfi_startproc
 1040 0000 80B5     		push	{r7, lr}
 1041              		.cfi_def_cfa_offset 8
 1042              		.cfi_offset 7, -8
 1043              		.cfi_offset 14, -4
ARM GAS  C:\Users\ADMINI~1.SC-\AppData\Local\Temp\ccEAhJMV.s 			page 33


 1044 0002 00AF     		add	r7, sp, #0
 1045              		.cfi_def_cfa_register 7
 782:Generated_Source\PSoC4/System_Timer.c ****     return (System_Timer_PERIOD_BUF_REG & System_Timer_16BIT_MASK);
 1046              		.loc 1 782 0
 1047 0004 034B     		ldr	r3, .L66
 1048 0006 1B68     		ldr	r3, [r3]
 1049 0008 1B04     		lsl	r3, r3, #16
 1050 000a 1B0C     		lsr	r3, r3, #16
 783:Generated_Source\PSoC4/System_Timer.c **** }
 1051              		.loc 1 783 0
 1052 000c 181C     		mov	r0, r3
 1053 000e BD46     		mov	sp, r7
 1054              		@ sp needed
 1055 0010 80BD     		pop	{r7, pc}
 1056              	.L67:
 1057 0012 C046     		.align	2
 1058              	.L66:
 1059 0014 18012040 		.word	1075839256
 1060              		.cfi_endproc
 1061              	.LFE22:
 1062              		.size	System_Timer_ReadPeriodBuf, .-System_Timer_ReadPeriodBuf
 1063              		.section	.text.System_Timer_SetPeriodSwap,"ax",%progbits
 1064              		.align	2
 1065              		.global	System_Timer_SetPeriodSwap
 1066              		.code	16
 1067              		.thumb_func
 1068              		.type	System_Timer_SetPeriodSwap, %function
 1069              	System_Timer_SetPeriodSwap:
 1070              	.LFB23:
 784:Generated_Source\PSoC4/System_Timer.c **** 
 785:Generated_Source\PSoC4/System_Timer.c **** 
 786:Generated_Source\PSoC4/System_Timer.c **** /*******************************************************************************
 787:Generated_Source\PSoC4/System_Timer.c **** * Function Name: System_Timer_SetPeriodSwap
 788:Generated_Source\PSoC4/System_Timer.c **** ********************************************************************************
 789:Generated_Source\PSoC4/System_Timer.c **** *
 790:Generated_Source\PSoC4/System_Timer.c **** * Summary:
 791:Generated_Source\PSoC4/System_Timer.c **** *  Writes the register that controls whether the period registers are
 792:Generated_Source\PSoC4/System_Timer.c **** *  swapped. When enabled in Timer/Counter mode the swap occurs at a TC event.
 793:Generated_Source\PSoC4/System_Timer.c **** *  In the PWM mode the swap occurs at the next TC event following a hardware
 794:Generated_Source\PSoC4/System_Timer.c **** *  switch event.
 795:Generated_Source\PSoC4/System_Timer.c **** *
 796:Generated_Source\PSoC4/System_Timer.c **** * Parameters:
 797:Generated_Source\PSoC4/System_Timer.c **** *  swapEnable
 798:Generated_Source\PSoC4/System_Timer.c **** *   Values:
 799:Generated_Source\PSoC4/System_Timer.c **** *     - 0 - Disable swap
 800:Generated_Source\PSoC4/System_Timer.c **** *     - 1 - Enable swap
 801:Generated_Source\PSoC4/System_Timer.c **** *
 802:Generated_Source\PSoC4/System_Timer.c **** * Return:
 803:Generated_Source\PSoC4/System_Timer.c **** *  None
 804:Generated_Source\PSoC4/System_Timer.c **** *
 805:Generated_Source\PSoC4/System_Timer.c **** *******************************************************************************/
 806:Generated_Source\PSoC4/System_Timer.c **** void System_Timer_SetPeriodSwap(uint32 swapEnable)
 807:Generated_Source\PSoC4/System_Timer.c **** {
 1071              		.loc 1 807 0
 1072              		.cfi_startproc
 1073 0000 90B5     		push	{r4, r7, lr}
 1074              		.cfi_def_cfa_offset 12
ARM GAS  C:\Users\ADMINI~1.SC-\AppData\Local\Temp\ccEAhJMV.s 			page 34


 1075              		.cfi_offset 4, -12
 1076              		.cfi_offset 7, -8
 1077              		.cfi_offset 14, -4
 1078 0002 85B0     		sub	sp, sp, #20
 1079              		.cfi_def_cfa_offset 32
 1080 0004 00AF     		add	r7, sp, #0
 1081              		.cfi_def_cfa_register 7
 1082 0006 7860     		str	r0, [r7, #4]
 808:Generated_Source\PSoC4/System_Timer.c ****     uint8 enableInterrupts;
 809:Generated_Source\PSoC4/System_Timer.c **** 
 810:Generated_Source\PSoC4/System_Timer.c ****     enableInterrupts = CyEnterCriticalSection();
 1083              		.loc 1 810 0
 1084 0008 0F23     		mov	r3, #15
 1085 000a FC18     		add	r4, r7, r3
 1086 000c FFF7FEFF 		bl	CyEnterCriticalSection
 1087 0010 031C     		mov	r3, r0
 1088 0012 2370     		strb	r3, [r4]
 811:Generated_Source\PSoC4/System_Timer.c **** 
 812:Generated_Source\PSoC4/System_Timer.c ****     System_Timer_CONTROL_REG &= (uint32)~System_Timer_RELOAD_PERIOD_MASK;
 1089              		.loc 1 812 0
 1090 0014 0B4B     		ldr	r3, .L69
 1091 0016 0B4A     		ldr	r2, .L69
 1092 0018 1268     		ldr	r2, [r2]
 1093 001a 0221     		mov	r1, #2
 1094 001c 8A43     		bic	r2, r1
 1095 001e 1A60     		str	r2, [r3]
 813:Generated_Source\PSoC4/System_Timer.c ****     System_Timer_CONTROL_REG |= ((uint32)((swapEnable & System_Timer_1BIT_MASK) <<
 1096              		.loc 1 813 0
 1097 0020 084B     		ldr	r3, .L69
 1098 0022 084A     		ldr	r2, .L69
 1099 0024 1168     		ldr	r1, [r2]
 1100 0026 7A68     		ldr	r2, [r7, #4]
 1101 0028 0120     		mov	r0, #1
 1102 002a 0240     		and	r2, r0
 1103 002c 5200     		lsl	r2, r2, #1
 1104 002e 0A43     		orr	r2, r1
 1105 0030 1A60     		str	r2, [r3]
 814:Generated_Source\PSoC4/System_Timer.c ****                                                             System_Timer_RELOAD_PERIOD_SHIFT));
 815:Generated_Source\PSoC4/System_Timer.c **** 
 816:Generated_Source\PSoC4/System_Timer.c ****     CyExitCriticalSection(enableInterrupts);
 1106              		.loc 1 816 0
 1107 0032 0F23     		mov	r3, #15
 1108 0034 FB18     		add	r3, r7, r3
 1109 0036 1B78     		ldrb	r3, [r3]
 1110 0038 181C     		mov	r0, r3
 1111 003a FFF7FEFF 		bl	CyExitCriticalSection
 817:Generated_Source\PSoC4/System_Timer.c **** }
 1112              		.loc 1 817 0
 1113 003e BD46     		mov	sp, r7
 1114 0040 05B0     		add	sp, sp, #20
 1115              		@ sp needed
 1116 0042 90BD     		pop	{r4, r7, pc}
 1117              	.L70:
 1118              		.align	2
 1119              	.L69:
 1120 0044 00012040 		.word	1075839232
 1121              		.cfi_endproc
ARM GAS  C:\Users\ADMINI~1.SC-\AppData\Local\Temp\ccEAhJMV.s 			page 35


 1122              	.LFE23:
 1123              		.size	System_Timer_SetPeriodSwap, .-System_Timer_SetPeriodSwap
 1124              		.section	.text.System_Timer_WriteCompare,"ax",%progbits
 1125              		.align	2
 1126              		.global	System_Timer_WriteCompare
 1127              		.code	16
 1128              		.thumb_func
 1129              		.type	System_Timer_WriteCompare, %function
 1130              	System_Timer_WriteCompare:
 1131              	.LFB24:
 818:Generated_Source\PSoC4/System_Timer.c **** 
 819:Generated_Source\PSoC4/System_Timer.c **** 
 820:Generated_Source\PSoC4/System_Timer.c **** /*******************************************************************************
 821:Generated_Source\PSoC4/System_Timer.c **** * Function Name: System_Timer_WriteCompare
 822:Generated_Source\PSoC4/System_Timer.c **** ********************************************************************************
 823:Generated_Source\PSoC4/System_Timer.c **** *
 824:Generated_Source\PSoC4/System_Timer.c **** * Summary:
 825:Generated_Source\PSoC4/System_Timer.c **** *  Writes the 16 bit compare register with the new compare value. Not
 826:Generated_Source\PSoC4/System_Timer.c **** *  applicable for Timer/Counter with Capture or in Quadrature Decoder modes.
 827:Generated_Source\PSoC4/System_Timer.c **** *
 828:Generated_Source\PSoC4/System_Timer.c **** * Parameters:
 829:Generated_Source\PSoC4/System_Timer.c **** *  compare: Compare value
 830:Generated_Source\PSoC4/System_Timer.c **** *
 831:Generated_Source\PSoC4/System_Timer.c **** * Return:
 832:Generated_Source\PSoC4/System_Timer.c **** *  None
 833:Generated_Source\PSoC4/System_Timer.c **** *
 834:Generated_Source\PSoC4/System_Timer.c **** *******************************************************************************/
 835:Generated_Source\PSoC4/System_Timer.c **** void System_Timer_WriteCompare(uint32 compare)
 836:Generated_Source\PSoC4/System_Timer.c **** {
 1132              		.loc 1 836 0
 1133              		.cfi_startproc
 1134 0000 80B5     		push	{r7, lr}
 1135              		.cfi_def_cfa_offset 8
 1136              		.cfi_offset 7, -8
 1137              		.cfi_offset 14, -4
 1138 0002 82B0     		sub	sp, sp, #8
 1139              		.cfi_def_cfa_offset 16
 1140 0004 00AF     		add	r7, sp, #0
 1141              		.cfi_def_cfa_register 7
 1142 0006 7860     		str	r0, [r7, #4]
 837:Generated_Source\PSoC4/System_Timer.c ****     #if (System_Timer_CY_TCPWM_4000)
 838:Generated_Source\PSoC4/System_Timer.c ****         uint32 currentMode;
 839:Generated_Source\PSoC4/System_Timer.c ****     #endif /* (System_Timer_CY_TCPWM_4000) */
 840:Generated_Source\PSoC4/System_Timer.c **** 
 841:Generated_Source\PSoC4/System_Timer.c ****     #if (System_Timer_CY_TCPWM_4000)
 842:Generated_Source\PSoC4/System_Timer.c ****         currentMode = ((System_Timer_CONTROL_REG & System_Timer_UPDOWN_MASK) >> System_Timer_UPDOWN
 843:Generated_Source\PSoC4/System_Timer.c **** 
 844:Generated_Source\PSoC4/System_Timer.c ****         if (((uint32)System_Timer__COUNT_DOWN == currentMode) && (0xFFFFu != compare))
 845:Generated_Source\PSoC4/System_Timer.c ****         {
 846:Generated_Source\PSoC4/System_Timer.c ****             compare++;
 847:Generated_Source\PSoC4/System_Timer.c ****         }
 848:Generated_Source\PSoC4/System_Timer.c ****         else if (((uint32)System_Timer__COUNT_UP == currentMode) && (0u != compare))
 849:Generated_Source\PSoC4/System_Timer.c ****         {
 850:Generated_Source\PSoC4/System_Timer.c ****             compare--;
 851:Generated_Source\PSoC4/System_Timer.c ****         }
 852:Generated_Source\PSoC4/System_Timer.c ****         else
 853:Generated_Source\PSoC4/System_Timer.c ****         {
ARM GAS  C:\Users\ADMINI~1.SC-\AppData\Local\Temp\ccEAhJMV.s 			page 36


 854:Generated_Source\PSoC4/System_Timer.c ****         }
 855:Generated_Source\PSoC4/System_Timer.c ****         
 856:Generated_Source\PSoC4/System_Timer.c ****     
 857:Generated_Source\PSoC4/System_Timer.c ****     #endif /* (System_Timer_CY_TCPWM_4000) */
 858:Generated_Source\PSoC4/System_Timer.c ****     
 859:Generated_Source\PSoC4/System_Timer.c ****     System_Timer_COMP_CAP_REG = (compare & System_Timer_16BIT_MASK);
 1143              		.loc 1 859 0
 1144 0008 034B     		ldr	r3, .L72
 1145 000a 7A68     		ldr	r2, [r7, #4]
 1146 000c 1204     		lsl	r2, r2, #16
 1147 000e 120C     		lsr	r2, r2, #16
 1148 0010 1A60     		str	r2, [r3]
 860:Generated_Source\PSoC4/System_Timer.c **** }
 1149              		.loc 1 860 0
 1150 0012 BD46     		mov	sp, r7
 1151 0014 02B0     		add	sp, sp, #8
 1152              		@ sp needed
 1153 0016 80BD     		pop	{r7, pc}
 1154              	.L73:
 1155              		.align	2
 1156              	.L72:
 1157 0018 0C012040 		.word	1075839244
 1158              		.cfi_endproc
 1159              	.LFE24:
 1160              		.size	System_Timer_WriteCompare, .-System_Timer_WriteCompare
 1161              		.section	.text.System_Timer_ReadCompare,"ax",%progbits
 1162              		.align	2
 1163              		.global	System_Timer_ReadCompare
 1164              		.code	16
 1165              		.thumb_func
 1166              		.type	System_Timer_ReadCompare, %function
 1167              	System_Timer_ReadCompare:
 1168              	.LFB25:
 861:Generated_Source\PSoC4/System_Timer.c **** 
 862:Generated_Source\PSoC4/System_Timer.c **** 
 863:Generated_Source\PSoC4/System_Timer.c **** /*******************************************************************************
 864:Generated_Source\PSoC4/System_Timer.c **** * Function Name: System_Timer_ReadCompare
 865:Generated_Source\PSoC4/System_Timer.c **** ********************************************************************************
 866:Generated_Source\PSoC4/System_Timer.c **** *
 867:Generated_Source\PSoC4/System_Timer.c **** * Summary:
 868:Generated_Source\PSoC4/System_Timer.c **** *  Reads the compare register. Not applicable for Timer/Counter with Capture
 869:Generated_Source\PSoC4/System_Timer.c **** *  or in Quadrature Decoder modes.
 870:Generated_Source\PSoC4/System_Timer.c **** *
 871:Generated_Source\PSoC4/System_Timer.c **** * Parameters:
 872:Generated_Source\PSoC4/System_Timer.c **** *  None
 873:Generated_Source\PSoC4/System_Timer.c **** *
 874:Generated_Source\PSoC4/System_Timer.c **** * Return:
 875:Generated_Source\PSoC4/System_Timer.c **** *  Compare value
 876:Generated_Source\PSoC4/System_Timer.c **** *
 877:Generated_Source\PSoC4/System_Timer.c **** *******************************************************************************/
 878:Generated_Source\PSoC4/System_Timer.c **** uint32 System_Timer_ReadCompare(void)
 879:Generated_Source\PSoC4/System_Timer.c **** {
 1169              		.loc 1 879 0
 1170              		.cfi_startproc
 1171 0000 80B5     		push	{r7, lr}
 1172              		.cfi_def_cfa_offset 8
 1173              		.cfi_offset 7, -8
ARM GAS  C:\Users\ADMINI~1.SC-\AppData\Local\Temp\ccEAhJMV.s 			page 37


 1174              		.cfi_offset 14, -4
 1175 0002 00AF     		add	r7, sp, #0
 1176              		.cfi_def_cfa_register 7
 880:Generated_Source\PSoC4/System_Timer.c ****     #if (System_Timer_CY_TCPWM_4000)
 881:Generated_Source\PSoC4/System_Timer.c ****         uint32 currentMode;
 882:Generated_Source\PSoC4/System_Timer.c ****         uint32 regVal;
 883:Generated_Source\PSoC4/System_Timer.c ****     #endif /* (System_Timer_CY_TCPWM_4000) */
 884:Generated_Source\PSoC4/System_Timer.c **** 
 885:Generated_Source\PSoC4/System_Timer.c ****     #if (System_Timer_CY_TCPWM_4000)
 886:Generated_Source\PSoC4/System_Timer.c ****         currentMode = ((System_Timer_CONTROL_REG & System_Timer_UPDOWN_MASK) >> System_Timer_UPDOWN
 887:Generated_Source\PSoC4/System_Timer.c ****         
 888:Generated_Source\PSoC4/System_Timer.c ****         regVal = System_Timer_COMP_CAP_REG;
 889:Generated_Source\PSoC4/System_Timer.c ****         
 890:Generated_Source\PSoC4/System_Timer.c ****         if (((uint32)System_Timer__COUNT_DOWN == currentMode) && (0u != regVal))
 891:Generated_Source\PSoC4/System_Timer.c ****         {
 892:Generated_Source\PSoC4/System_Timer.c ****             regVal--;
 893:Generated_Source\PSoC4/System_Timer.c ****         }
 894:Generated_Source\PSoC4/System_Timer.c ****         else if (((uint32)System_Timer__COUNT_UP == currentMode) && (0xFFFFu != regVal))
 895:Generated_Source\PSoC4/System_Timer.c ****         {
 896:Generated_Source\PSoC4/System_Timer.c ****             regVal++;
 897:Generated_Source\PSoC4/System_Timer.c ****         }
 898:Generated_Source\PSoC4/System_Timer.c ****         else
 899:Generated_Source\PSoC4/System_Timer.c ****         {
 900:Generated_Source\PSoC4/System_Timer.c ****         }
 901:Generated_Source\PSoC4/System_Timer.c **** 
 902:Generated_Source\PSoC4/System_Timer.c ****         return (regVal & System_Timer_16BIT_MASK);
 903:Generated_Source\PSoC4/System_Timer.c ****     #else
 904:Generated_Source\PSoC4/System_Timer.c ****         return (System_Timer_COMP_CAP_REG & System_Timer_16BIT_MASK);
 1177              		.loc 1 904 0
 1178 0004 034B     		ldr	r3, .L76
 1179 0006 1B68     		ldr	r3, [r3]
 1180 0008 1B04     		lsl	r3, r3, #16
 1181 000a 1B0C     		lsr	r3, r3, #16
 905:Generated_Source\PSoC4/System_Timer.c ****     #endif /* (System_Timer_CY_TCPWM_4000) */
 906:Generated_Source\PSoC4/System_Timer.c **** }
 1182              		.loc 1 906 0
 1183 000c 181C     		mov	r0, r3
 1184 000e BD46     		mov	sp, r7
 1185              		@ sp needed
 1186 0010 80BD     		pop	{r7, pc}
 1187              	.L77:
 1188 0012 C046     		.align	2
 1189              	.L76:
 1190 0014 0C012040 		.word	1075839244
 1191              		.cfi_endproc
 1192              	.LFE25:
 1193              		.size	System_Timer_ReadCompare, .-System_Timer_ReadCompare
 1194              		.section	.text.System_Timer_WriteCompareBuf,"ax",%progbits
 1195              		.align	2
 1196              		.global	System_Timer_WriteCompareBuf
 1197              		.code	16
 1198              		.thumb_func
 1199              		.type	System_Timer_WriteCompareBuf, %function
 1200              	System_Timer_WriteCompareBuf:
 1201              	.LFB26:
 907:Generated_Source\PSoC4/System_Timer.c **** 
 908:Generated_Source\PSoC4/System_Timer.c **** 
ARM GAS  C:\Users\ADMINI~1.SC-\AppData\Local\Temp\ccEAhJMV.s 			page 38


 909:Generated_Source\PSoC4/System_Timer.c **** /*******************************************************************************
 910:Generated_Source\PSoC4/System_Timer.c **** * Function Name: System_Timer_WriteCompareBuf
 911:Generated_Source\PSoC4/System_Timer.c **** ********************************************************************************
 912:Generated_Source\PSoC4/System_Timer.c **** *
 913:Generated_Source\PSoC4/System_Timer.c **** * Summary:
 914:Generated_Source\PSoC4/System_Timer.c **** *  Writes the 16 bit compare buffer register with the new compare value. Not
 915:Generated_Source\PSoC4/System_Timer.c **** *  applicable for Timer/Counter with Capture or in Quadrature Decoder modes.
 916:Generated_Source\PSoC4/System_Timer.c **** *
 917:Generated_Source\PSoC4/System_Timer.c **** * Parameters:
 918:Generated_Source\PSoC4/System_Timer.c **** *  compareBuf: Compare value
 919:Generated_Source\PSoC4/System_Timer.c **** *
 920:Generated_Source\PSoC4/System_Timer.c **** * Return:
 921:Generated_Source\PSoC4/System_Timer.c **** *  None
 922:Generated_Source\PSoC4/System_Timer.c **** *
 923:Generated_Source\PSoC4/System_Timer.c **** *******************************************************************************/
 924:Generated_Source\PSoC4/System_Timer.c **** void System_Timer_WriteCompareBuf(uint32 compareBuf)
 925:Generated_Source\PSoC4/System_Timer.c **** {
 1202              		.loc 1 925 0
 1203              		.cfi_startproc
 1204 0000 80B5     		push	{r7, lr}
 1205              		.cfi_def_cfa_offset 8
 1206              		.cfi_offset 7, -8
 1207              		.cfi_offset 14, -4
 1208 0002 82B0     		sub	sp, sp, #8
 1209              		.cfi_def_cfa_offset 16
 1210 0004 00AF     		add	r7, sp, #0
 1211              		.cfi_def_cfa_register 7
 1212 0006 7860     		str	r0, [r7, #4]
 926:Generated_Source\PSoC4/System_Timer.c ****     #if (System_Timer_CY_TCPWM_4000)
 927:Generated_Source\PSoC4/System_Timer.c ****         uint32 currentMode;
 928:Generated_Source\PSoC4/System_Timer.c ****     #endif /* (System_Timer_CY_TCPWM_4000) */
 929:Generated_Source\PSoC4/System_Timer.c **** 
 930:Generated_Source\PSoC4/System_Timer.c ****     #if (System_Timer_CY_TCPWM_4000)
 931:Generated_Source\PSoC4/System_Timer.c ****         currentMode = ((System_Timer_CONTROL_REG & System_Timer_UPDOWN_MASK) >> System_Timer_UPDOWN
 932:Generated_Source\PSoC4/System_Timer.c **** 
 933:Generated_Source\PSoC4/System_Timer.c ****         if (((uint32)System_Timer__COUNT_DOWN == currentMode) && (0xFFFFu != compareBuf))
 934:Generated_Source\PSoC4/System_Timer.c ****         {
 935:Generated_Source\PSoC4/System_Timer.c ****             compareBuf++;
 936:Generated_Source\PSoC4/System_Timer.c ****         }
 937:Generated_Source\PSoC4/System_Timer.c ****         else if (((uint32)System_Timer__COUNT_UP == currentMode) && (0u != compareBuf))
 938:Generated_Source\PSoC4/System_Timer.c ****         {
 939:Generated_Source\PSoC4/System_Timer.c ****             compareBuf --;
 940:Generated_Source\PSoC4/System_Timer.c ****         }
 941:Generated_Source\PSoC4/System_Timer.c ****         else
 942:Generated_Source\PSoC4/System_Timer.c ****         {
 943:Generated_Source\PSoC4/System_Timer.c ****         }
 944:Generated_Source\PSoC4/System_Timer.c ****     #endif /* (System_Timer_CY_TCPWM_4000) */
 945:Generated_Source\PSoC4/System_Timer.c ****     
 946:Generated_Source\PSoC4/System_Timer.c ****     System_Timer_COMP_CAP_BUF_REG = (compareBuf & System_Timer_16BIT_MASK);
 1213              		.loc 1 946 0
 1214 0008 034B     		ldr	r3, .L79
 1215 000a 7A68     		ldr	r2, [r7, #4]
 1216 000c 1204     		lsl	r2, r2, #16
 1217 000e 120C     		lsr	r2, r2, #16
 1218 0010 1A60     		str	r2, [r3]
 947:Generated_Source\PSoC4/System_Timer.c **** }
 1219              		.loc 1 947 0
ARM GAS  C:\Users\ADMINI~1.SC-\AppData\Local\Temp\ccEAhJMV.s 			page 39


 1220 0012 BD46     		mov	sp, r7
 1221 0014 02B0     		add	sp, sp, #8
 1222              		@ sp needed
 1223 0016 80BD     		pop	{r7, pc}
 1224              	.L80:
 1225              		.align	2
 1226              	.L79:
 1227 0018 10012040 		.word	1075839248
 1228              		.cfi_endproc
 1229              	.LFE26:
 1230              		.size	System_Timer_WriteCompareBuf, .-System_Timer_WriteCompareBuf
 1231              		.section	.text.System_Timer_ReadCompareBuf,"ax",%progbits
 1232              		.align	2
 1233              		.global	System_Timer_ReadCompareBuf
 1234              		.code	16
 1235              		.thumb_func
 1236              		.type	System_Timer_ReadCompareBuf, %function
 1237              	System_Timer_ReadCompareBuf:
 1238              	.LFB27:
 948:Generated_Source\PSoC4/System_Timer.c **** 
 949:Generated_Source\PSoC4/System_Timer.c **** 
 950:Generated_Source\PSoC4/System_Timer.c **** /*******************************************************************************
 951:Generated_Source\PSoC4/System_Timer.c **** * Function Name: System_Timer_ReadCompareBuf
 952:Generated_Source\PSoC4/System_Timer.c **** ********************************************************************************
 953:Generated_Source\PSoC4/System_Timer.c **** *
 954:Generated_Source\PSoC4/System_Timer.c **** * Summary:
 955:Generated_Source\PSoC4/System_Timer.c **** *  Reads the compare buffer register. Not applicable for Timer/Counter with
 956:Generated_Source\PSoC4/System_Timer.c **** *  Capture or in Quadrature Decoder modes.
 957:Generated_Source\PSoC4/System_Timer.c **** *
 958:Generated_Source\PSoC4/System_Timer.c **** * Parameters:
 959:Generated_Source\PSoC4/System_Timer.c **** *  None
 960:Generated_Source\PSoC4/System_Timer.c **** *
 961:Generated_Source\PSoC4/System_Timer.c **** * Return:
 962:Generated_Source\PSoC4/System_Timer.c **** *  Compare buffer value
 963:Generated_Source\PSoC4/System_Timer.c **** *
 964:Generated_Source\PSoC4/System_Timer.c **** *******************************************************************************/
 965:Generated_Source\PSoC4/System_Timer.c **** uint32 System_Timer_ReadCompareBuf(void)
 966:Generated_Source\PSoC4/System_Timer.c **** {
 1239              		.loc 1 966 0
 1240              		.cfi_startproc
 1241 0000 80B5     		push	{r7, lr}
 1242              		.cfi_def_cfa_offset 8
 1243              		.cfi_offset 7, -8
 1244              		.cfi_offset 14, -4
 1245 0002 00AF     		add	r7, sp, #0
 1246              		.cfi_def_cfa_register 7
 967:Generated_Source\PSoC4/System_Timer.c ****     #if (System_Timer_CY_TCPWM_4000)
 968:Generated_Source\PSoC4/System_Timer.c ****         uint32 currentMode;
 969:Generated_Source\PSoC4/System_Timer.c ****         uint32 regVal;
 970:Generated_Source\PSoC4/System_Timer.c ****     #endif /* (System_Timer_CY_TCPWM_4000) */
 971:Generated_Source\PSoC4/System_Timer.c **** 
 972:Generated_Source\PSoC4/System_Timer.c ****     #if (System_Timer_CY_TCPWM_4000)
 973:Generated_Source\PSoC4/System_Timer.c ****         currentMode = ((System_Timer_CONTROL_REG & System_Timer_UPDOWN_MASK) >> System_Timer_UPDOWN
 974:Generated_Source\PSoC4/System_Timer.c **** 
 975:Generated_Source\PSoC4/System_Timer.c ****         regVal = System_Timer_COMP_CAP_BUF_REG;
 976:Generated_Source\PSoC4/System_Timer.c ****         
 977:Generated_Source\PSoC4/System_Timer.c ****         if (((uint32)System_Timer__COUNT_DOWN == currentMode) && (0u != regVal))
ARM GAS  C:\Users\ADMINI~1.SC-\AppData\Local\Temp\ccEAhJMV.s 			page 40


 978:Generated_Source\PSoC4/System_Timer.c ****         {
 979:Generated_Source\PSoC4/System_Timer.c ****             regVal--;
 980:Generated_Source\PSoC4/System_Timer.c ****         }
 981:Generated_Source\PSoC4/System_Timer.c ****         else if (((uint32)System_Timer__COUNT_UP == currentMode) && (0xFFFFu != regVal))
 982:Generated_Source\PSoC4/System_Timer.c ****         {
 983:Generated_Source\PSoC4/System_Timer.c ****             regVal++;
 984:Generated_Source\PSoC4/System_Timer.c ****         }
 985:Generated_Source\PSoC4/System_Timer.c ****         else
 986:Generated_Source\PSoC4/System_Timer.c ****         {
 987:Generated_Source\PSoC4/System_Timer.c ****         }
 988:Generated_Source\PSoC4/System_Timer.c **** 
 989:Generated_Source\PSoC4/System_Timer.c ****         return (regVal & System_Timer_16BIT_MASK);
 990:Generated_Source\PSoC4/System_Timer.c ****     #else
 991:Generated_Source\PSoC4/System_Timer.c ****         return (System_Timer_COMP_CAP_BUF_REG & System_Timer_16BIT_MASK);
 1247              		.loc 1 991 0
 1248 0004 034B     		ldr	r3, .L83
 1249 0006 1B68     		ldr	r3, [r3]
 1250 0008 1B04     		lsl	r3, r3, #16
 1251 000a 1B0C     		lsr	r3, r3, #16
 992:Generated_Source\PSoC4/System_Timer.c ****     #endif /* (System_Timer_CY_TCPWM_4000) */
 993:Generated_Source\PSoC4/System_Timer.c **** }
 1252              		.loc 1 993 0
 1253 000c 181C     		mov	r0, r3
 1254 000e BD46     		mov	sp, r7
 1255              		@ sp needed
 1256 0010 80BD     		pop	{r7, pc}
 1257              	.L84:
 1258 0012 C046     		.align	2
 1259              	.L83:
 1260 0014 10012040 		.word	1075839248
 1261              		.cfi_endproc
 1262              	.LFE27:
 1263              		.size	System_Timer_ReadCompareBuf, .-System_Timer_ReadCompareBuf
 1264              		.section	.text.System_Timer_ReadCapture,"ax",%progbits
 1265              		.align	2
 1266              		.global	System_Timer_ReadCapture
 1267              		.code	16
 1268              		.thumb_func
 1269              		.type	System_Timer_ReadCapture, %function
 1270              	System_Timer_ReadCapture:
 1271              	.LFB28:
 994:Generated_Source\PSoC4/System_Timer.c **** 
 995:Generated_Source\PSoC4/System_Timer.c **** 
 996:Generated_Source\PSoC4/System_Timer.c **** /*******************************************************************************
 997:Generated_Source\PSoC4/System_Timer.c **** * Function Name: System_Timer_ReadCapture
 998:Generated_Source\PSoC4/System_Timer.c **** ********************************************************************************
 999:Generated_Source\PSoC4/System_Timer.c **** *
1000:Generated_Source\PSoC4/System_Timer.c **** * Summary:
1001:Generated_Source\PSoC4/System_Timer.c **** *  Reads the captured counter value. This API is applicable only for
1002:Generated_Source\PSoC4/System_Timer.c **** *  Timer/Counter with the capture mode and Quadrature Decoder modes.
1003:Generated_Source\PSoC4/System_Timer.c **** *
1004:Generated_Source\PSoC4/System_Timer.c **** * Parameters:
1005:Generated_Source\PSoC4/System_Timer.c **** *  None
1006:Generated_Source\PSoC4/System_Timer.c **** *
1007:Generated_Source\PSoC4/System_Timer.c **** * Return:
1008:Generated_Source\PSoC4/System_Timer.c **** *  Capture value
1009:Generated_Source\PSoC4/System_Timer.c **** *
ARM GAS  C:\Users\ADMINI~1.SC-\AppData\Local\Temp\ccEAhJMV.s 			page 41


1010:Generated_Source\PSoC4/System_Timer.c **** *******************************************************************************/
1011:Generated_Source\PSoC4/System_Timer.c **** uint32 System_Timer_ReadCapture(void)
1012:Generated_Source\PSoC4/System_Timer.c **** {
 1272              		.loc 1 1012 0
 1273              		.cfi_startproc
 1274 0000 80B5     		push	{r7, lr}
 1275              		.cfi_def_cfa_offset 8
 1276              		.cfi_offset 7, -8
 1277              		.cfi_offset 14, -4
 1278 0002 00AF     		add	r7, sp, #0
 1279              		.cfi_def_cfa_register 7
1013:Generated_Source\PSoC4/System_Timer.c ****     return (System_Timer_COMP_CAP_REG & System_Timer_16BIT_MASK);
 1280              		.loc 1 1013 0
 1281 0004 034B     		ldr	r3, .L87
 1282 0006 1B68     		ldr	r3, [r3]
 1283 0008 1B04     		lsl	r3, r3, #16
 1284 000a 1B0C     		lsr	r3, r3, #16
1014:Generated_Source\PSoC4/System_Timer.c **** }
 1285              		.loc 1 1014 0
 1286 000c 181C     		mov	r0, r3
 1287 000e BD46     		mov	sp, r7
 1288              		@ sp needed
 1289 0010 80BD     		pop	{r7, pc}
 1290              	.L88:
 1291 0012 C046     		.align	2
 1292              	.L87:
 1293 0014 0C012040 		.word	1075839244
 1294              		.cfi_endproc
 1295              	.LFE28:
 1296              		.size	System_Timer_ReadCapture, .-System_Timer_ReadCapture
 1297              		.section	.text.System_Timer_ReadCaptureBuf,"ax",%progbits
 1298              		.align	2
 1299              		.global	System_Timer_ReadCaptureBuf
 1300              		.code	16
 1301              		.thumb_func
 1302              		.type	System_Timer_ReadCaptureBuf, %function
 1303              	System_Timer_ReadCaptureBuf:
 1304              	.LFB29:
1015:Generated_Source\PSoC4/System_Timer.c **** 
1016:Generated_Source\PSoC4/System_Timer.c **** 
1017:Generated_Source\PSoC4/System_Timer.c **** /*******************************************************************************
1018:Generated_Source\PSoC4/System_Timer.c **** * Function Name: System_Timer_ReadCaptureBuf
1019:Generated_Source\PSoC4/System_Timer.c **** ********************************************************************************
1020:Generated_Source\PSoC4/System_Timer.c **** *
1021:Generated_Source\PSoC4/System_Timer.c **** * Summary:
1022:Generated_Source\PSoC4/System_Timer.c **** *  Reads the capture buffer register. This API is applicable only for
1023:Generated_Source\PSoC4/System_Timer.c **** *  Timer/Counter with the capture mode and Quadrature Decoder modes.
1024:Generated_Source\PSoC4/System_Timer.c **** *
1025:Generated_Source\PSoC4/System_Timer.c **** * Parameters:
1026:Generated_Source\PSoC4/System_Timer.c **** *  None
1027:Generated_Source\PSoC4/System_Timer.c **** *
1028:Generated_Source\PSoC4/System_Timer.c **** * Return:
1029:Generated_Source\PSoC4/System_Timer.c **** *  Capture buffer value
1030:Generated_Source\PSoC4/System_Timer.c **** *
1031:Generated_Source\PSoC4/System_Timer.c **** *******************************************************************************/
1032:Generated_Source\PSoC4/System_Timer.c **** uint32 System_Timer_ReadCaptureBuf(void)
1033:Generated_Source\PSoC4/System_Timer.c **** {
ARM GAS  C:\Users\ADMINI~1.SC-\AppData\Local\Temp\ccEAhJMV.s 			page 42


 1305              		.loc 1 1033 0
 1306              		.cfi_startproc
 1307 0000 80B5     		push	{r7, lr}
 1308              		.cfi_def_cfa_offset 8
 1309              		.cfi_offset 7, -8
 1310              		.cfi_offset 14, -4
 1311 0002 00AF     		add	r7, sp, #0
 1312              		.cfi_def_cfa_register 7
1034:Generated_Source\PSoC4/System_Timer.c ****     return (System_Timer_COMP_CAP_BUF_REG & System_Timer_16BIT_MASK);
 1313              		.loc 1 1034 0
 1314 0004 034B     		ldr	r3, .L91
 1315 0006 1B68     		ldr	r3, [r3]
 1316 0008 1B04     		lsl	r3, r3, #16
 1317 000a 1B0C     		lsr	r3, r3, #16
1035:Generated_Source\PSoC4/System_Timer.c **** }
 1318              		.loc 1 1035 0
 1319 000c 181C     		mov	r0, r3
 1320 000e BD46     		mov	sp, r7
 1321              		@ sp needed
 1322 0010 80BD     		pop	{r7, pc}
 1323              	.L92:
 1324 0012 C046     		.align	2
 1325              	.L91:
 1326 0014 10012040 		.word	1075839248
 1327              		.cfi_endproc
 1328              	.LFE29:
 1329              		.size	System_Timer_ReadCaptureBuf, .-System_Timer_ReadCaptureBuf
 1330              		.section	.text.System_Timer_SetCaptureMode,"ax",%progbits
 1331              		.align	2
 1332              		.global	System_Timer_SetCaptureMode
 1333              		.code	16
 1334              		.thumb_func
 1335              		.type	System_Timer_SetCaptureMode, %function
 1336              	System_Timer_SetCaptureMode:
 1337              	.LFB30:
1036:Generated_Source\PSoC4/System_Timer.c **** 
1037:Generated_Source\PSoC4/System_Timer.c **** 
1038:Generated_Source\PSoC4/System_Timer.c **** /*******************************************************************************
1039:Generated_Source\PSoC4/System_Timer.c **** * Function Name: System_Timer_SetCaptureMode
1040:Generated_Source\PSoC4/System_Timer.c **** ********************************************************************************
1041:Generated_Source\PSoC4/System_Timer.c **** *
1042:Generated_Source\PSoC4/System_Timer.c **** * Summary:
1043:Generated_Source\PSoC4/System_Timer.c **** *  Sets the capture trigger mode. For PWM mode this is the switch input.
1044:Generated_Source\PSoC4/System_Timer.c **** *  This input is not applicable to the Timer/Counter without Capture and
1045:Generated_Source\PSoC4/System_Timer.c **** *  Quadrature Decoder modes.
1046:Generated_Source\PSoC4/System_Timer.c **** *
1047:Generated_Source\PSoC4/System_Timer.c **** * Parameters:
1048:Generated_Source\PSoC4/System_Timer.c **** *  triggerMode: Enumerated trigger mode value
1049:Generated_Source\PSoC4/System_Timer.c **** *   Values:
1050:Generated_Source\PSoC4/System_Timer.c **** *     - System_Timer_TRIG_LEVEL     - Level
1051:Generated_Source\PSoC4/System_Timer.c **** *     - System_Timer_TRIG_RISING    - Rising edge
1052:Generated_Source\PSoC4/System_Timer.c **** *     - System_Timer_TRIG_FALLING   - Falling edge
1053:Generated_Source\PSoC4/System_Timer.c **** *     - System_Timer_TRIG_BOTH      - Both rising and falling edge
1054:Generated_Source\PSoC4/System_Timer.c **** *
1055:Generated_Source\PSoC4/System_Timer.c **** * Return:
1056:Generated_Source\PSoC4/System_Timer.c **** *  None
1057:Generated_Source\PSoC4/System_Timer.c **** *
ARM GAS  C:\Users\ADMINI~1.SC-\AppData\Local\Temp\ccEAhJMV.s 			page 43


1058:Generated_Source\PSoC4/System_Timer.c **** *******************************************************************************/
1059:Generated_Source\PSoC4/System_Timer.c **** void System_Timer_SetCaptureMode(uint32 triggerMode)
1060:Generated_Source\PSoC4/System_Timer.c **** {
 1338              		.loc 1 1060 0
 1339              		.cfi_startproc
 1340 0000 90B5     		push	{r4, r7, lr}
 1341              		.cfi_def_cfa_offset 12
 1342              		.cfi_offset 4, -12
 1343              		.cfi_offset 7, -8
 1344              		.cfi_offset 14, -4
 1345 0002 85B0     		sub	sp, sp, #20
 1346              		.cfi_def_cfa_offset 32
 1347 0004 00AF     		add	r7, sp, #0
 1348              		.cfi_def_cfa_register 7
 1349 0006 7860     		str	r0, [r7, #4]
1061:Generated_Source\PSoC4/System_Timer.c ****     uint8 enableInterrupts;
1062:Generated_Source\PSoC4/System_Timer.c **** 
1063:Generated_Source\PSoC4/System_Timer.c ****     enableInterrupts = CyEnterCriticalSection();
 1350              		.loc 1 1063 0
 1351 0008 0F23     		mov	r3, #15
 1352 000a FC18     		add	r4, r7, r3
 1353 000c FFF7FEFF 		bl	CyEnterCriticalSection
 1354 0010 031C     		mov	r3, r0
 1355 0012 2370     		strb	r3, [r4]
1064:Generated_Source\PSoC4/System_Timer.c **** 
1065:Generated_Source\PSoC4/System_Timer.c ****     System_Timer_TRIG_CONTROL1_REG &= (uint32)~System_Timer_CAPTURE_MASK;
 1356              		.loc 1 1065 0
 1357 0014 0A4B     		ldr	r3, .L94
 1358 0016 0A4A     		ldr	r2, .L94
 1359 0018 1268     		ldr	r2, [r2]
 1360 001a 0321     		mov	r1, #3
 1361 001c 8A43     		bic	r2, r1
 1362 001e 1A60     		str	r2, [r3]
1066:Generated_Source\PSoC4/System_Timer.c ****     System_Timer_TRIG_CONTROL1_REG |= triggerMode;
 1363              		.loc 1 1066 0
 1364 0020 074B     		ldr	r3, .L94
 1365 0022 074A     		ldr	r2, .L94
 1366 0024 1168     		ldr	r1, [r2]
 1367 0026 7A68     		ldr	r2, [r7, #4]
 1368 0028 0A43     		orr	r2, r1
 1369 002a 1A60     		str	r2, [r3]
1067:Generated_Source\PSoC4/System_Timer.c **** 
1068:Generated_Source\PSoC4/System_Timer.c ****     CyExitCriticalSection(enableInterrupts);
 1370              		.loc 1 1068 0
 1371 002c 0F23     		mov	r3, #15
 1372 002e FB18     		add	r3, r7, r3
 1373 0030 1B78     		ldrb	r3, [r3]
 1374 0032 181C     		mov	r0, r3
 1375 0034 FFF7FEFF 		bl	CyExitCriticalSection
1069:Generated_Source\PSoC4/System_Timer.c **** }
 1376              		.loc 1 1069 0
 1377 0038 BD46     		mov	sp, r7
 1378 003a 05B0     		add	sp, sp, #20
 1379              		@ sp needed
 1380 003c 90BD     		pop	{r4, r7, pc}
 1381              	.L95:
 1382 003e C046     		.align	2
ARM GAS  C:\Users\ADMINI~1.SC-\AppData\Local\Temp\ccEAhJMV.s 			page 44


 1383              	.L94:
 1384 0040 24012040 		.word	1075839268
 1385              		.cfi_endproc
 1386              	.LFE30:
 1387              		.size	System_Timer_SetCaptureMode, .-System_Timer_SetCaptureMode
 1388              		.section	.text.System_Timer_SetReloadMode,"ax",%progbits
 1389              		.align	2
 1390              		.global	System_Timer_SetReloadMode
 1391              		.code	16
 1392              		.thumb_func
 1393              		.type	System_Timer_SetReloadMode, %function
 1394              	System_Timer_SetReloadMode:
 1395              	.LFB31:
1070:Generated_Source\PSoC4/System_Timer.c **** 
1071:Generated_Source\PSoC4/System_Timer.c **** 
1072:Generated_Source\PSoC4/System_Timer.c **** /*******************************************************************************
1073:Generated_Source\PSoC4/System_Timer.c **** * Function Name: System_Timer_SetReloadMode
1074:Generated_Source\PSoC4/System_Timer.c **** ********************************************************************************
1075:Generated_Source\PSoC4/System_Timer.c **** *
1076:Generated_Source\PSoC4/System_Timer.c **** * Summary:
1077:Generated_Source\PSoC4/System_Timer.c **** *  Sets the reload trigger mode. For Quadrature Decoder mode this is the index
1078:Generated_Source\PSoC4/System_Timer.c **** *  input.
1079:Generated_Source\PSoC4/System_Timer.c **** *
1080:Generated_Source\PSoC4/System_Timer.c **** * Parameters:
1081:Generated_Source\PSoC4/System_Timer.c **** *  triggerMode: Enumerated trigger mode value
1082:Generated_Source\PSoC4/System_Timer.c **** *   Values:
1083:Generated_Source\PSoC4/System_Timer.c **** *     - System_Timer_TRIG_LEVEL     - Level
1084:Generated_Source\PSoC4/System_Timer.c **** *     - System_Timer_TRIG_RISING    - Rising edge
1085:Generated_Source\PSoC4/System_Timer.c **** *     - System_Timer_TRIG_FALLING   - Falling edge
1086:Generated_Source\PSoC4/System_Timer.c **** *     - System_Timer_TRIG_BOTH      - Both rising and falling edge
1087:Generated_Source\PSoC4/System_Timer.c **** *
1088:Generated_Source\PSoC4/System_Timer.c **** * Return:
1089:Generated_Source\PSoC4/System_Timer.c **** *  None
1090:Generated_Source\PSoC4/System_Timer.c **** *
1091:Generated_Source\PSoC4/System_Timer.c **** *******************************************************************************/
1092:Generated_Source\PSoC4/System_Timer.c **** void System_Timer_SetReloadMode(uint32 triggerMode)
1093:Generated_Source\PSoC4/System_Timer.c **** {
 1396              		.loc 1 1093 0
 1397              		.cfi_startproc
 1398 0000 90B5     		push	{r4, r7, lr}
 1399              		.cfi_def_cfa_offset 12
 1400              		.cfi_offset 4, -12
 1401              		.cfi_offset 7, -8
 1402              		.cfi_offset 14, -4
 1403 0002 85B0     		sub	sp, sp, #20
 1404              		.cfi_def_cfa_offset 32
 1405 0004 00AF     		add	r7, sp, #0
 1406              		.cfi_def_cfa_register 7
 1407 0006 7860     		str	r0, [r7, #4]
1094:Generated_Source\PSoC4/System_Timer.c ****     uint8 enableInterrupts;
1095:Generated_Source\PSoC4/System_Timer.c **** 
1096:Generated_Source\PSoC4/System_Timer.c ****     enableInterrupts = CyEnterCriticalSection();
 1408              		.loc 1 1096 0
 1409 0008 0F23     		mov	r3, #15
 1410 000a FC18     		add	r4, r7, r3
 1411 000c FFF7FEFF 		bl	CyEnterCriticalSection
 1412 0010 031C     		mov	r3, r0
ARM GAS  C:\Users\ADMINI~1.SC-\AppData\Local\Temp\ccEAhJMV.s 			page 45


 1413 0012 2370     		strb	r3, [r4]
1097:Generated_Source\PSoC4/System_Timer.c **** 
1098:Generated_Source\PSoC4/System_Timer.c ****     System_Timer_TRIG_CONTROL1_REG &= (uint32)~System_Timer_RELOAD_MASK;
 1414              		.loc 1 1098 0
 1415 0014 0A4B     		ldr	r3, .L97
 1416 0016 0A4A     		ldr	r2, .L97
 1417 0018 1268     		ldr	r2, [r2]
 1418 001a 3021     		mov	r1, #48
 1419 001c 8A43     		bic	r2, r1
 1420 001e 1A60     		str	r2, [r3]
1099:Generated_Source\PSoC4/System_Timer.c ****     System_Timer_TRIG_CONTROL1_REG |= ((uint32)(triggerMode << System_Timer_RELOAD_SHIFT));
 1421              		.loc 1 1099 0
 1422 0020 074B     		ldr	r3, .L97
 1423 0022 074A     		ldr	r2, .L97
 1424 0024 1168     		ldr	r1, [r2]
 1425 0026 7A68     		ldr	r2, [r7, #4]
 1426 0028 1201     		lsl	r2, r2, #4
 1427 002a 0A43     		orr	r2, r1
 1428 002c 1A60     		str	r2, [r3]
1100:Generated_Source\PSoC4/System_Timer.c **** 
1101:Generated_Source\PSoC4/System_Timer.c ****     CyExitCriticalSection(enableInterrupts);
 1429              		.loc 1 1101 0
 1430 002e 0F23     		mov	r3, #15
 1431 0030 FB18     		add	r3, r7, r3
 1432 0032 1B78     		ldrb	r3, [r3]
 1433 0034 181C     		mov	r0, r3
 1434 0036 FFF7FEFF 		bl	CyExitCriticalSection
1102:Generated_Source\PSoC4/System_Timer.c **** }
 1435              		.loc 1 1102 0
 1436 003a BD46     		mov	sp, r7
 1437 003c 05B0     		add	sp, sp, #20
 1438              		@ sp needed
 1439 003e 90BD     		pop	{r4, r7, pc}
 1440              	.L98:
 1441              		.align	2
 1442              	.L97:
 1443 0040 24012040 		.word	1075839268
 1444              		.cfi_endproc
 1445              	.LFE31:
 1446              		.size	System_Timer_SetReloadMode, .-System_Timer_SetReloadMode
 1447              		.section	.text.System_Timer_SetStartMode,"ax",%progbits
 1448              		.align	2
 1449              		.global	System_Timer_SetStartMode
 1450              		.code	16
 1451              		.thumb_func
 1452              		.type	System_Timer_SetStartMode, %function
 1453              	System_Timer_SetStartMode:
 1454              	.LFB32:
1103:Generated_Source\PSoC4/System_Timer.c **** 
1104:Generated_Source\PSoC4/System_Timer.c **** 
1105:Generated_Source\PSoC4/System_Timer.c **** /*******************************************************************************
1106:Generated_Source\PSoC4/System_Timer.c **** * Function Name: System_Timer_SetStartMode
1107:Generated_Source\PSoC4/System_Timer.c **** ********************************************************************************
1108:Generated_Source\PSoC4/System_Timer.c **** *
1109:Generated_Source\PSoC4/System_Timer.c **** * Summary:
1110:Generated_Source\PSoC4/System_Timer.c **** *  Sets the start trigger mode. For Quadrature Decoder mode this is the
1111:Generated_Source\PSoC4/System_Timer.c **** *  phiB input.
ARM GAS  C:\Users\ADMINI~1.SC-\AppData\Local\Temp\ccEAhJMV.s 			page 46


1112:Generated_Source\PSoC4/System_Timer.c **** *
1113:Generated_Source\PSoC4/System_Timer.c **** * Parameters:
1114:Generated_Source\PSoC4/System_Timer.c **** *  triggerMode: Enumerated trigger mode value
1115:Generated_Source\PSoC4/System_Timer.c **** *   Values:
1116:Generated_Source\PSoC4/System_Timer.c **** *     - System_Timer_TRIG_LEVEL     - Level
1117:Generated_Source\PSoC4/System_Timer.c **** *     - System_Timer_TRIG_RISING    - Rising edge
1118:Generated_Source\PSoC4/System_Timer.c **** *     - System_Timer_TRIG_FALLING   - Falling edge
1119:Generated_Source\PSoC4/System_Timer.c **** *     - System_Timer_TRIG_BOTH      - Both rising and falling edge
1120:Generated_Source\PSoC4/System_Timer.c **** *
1121:Generated_Source\PSoC4/System_Timer.c **** * Return:
1122:Generated_Source\PSoC4/System_Timer.c **** *  None
1123:Generated_Source\PSoC4/System_Timer.c **** *
1124:Generated_Source\PSoC4/System_Timer.c **** *******************************************************************************/
1125:Generated_Source\PSoC4/System_Timer.c **** void System_Timer_SetStartMode(uint32 triggerMode)
1126:Generated_Source\PSoC4/System_Timer.c **** {
 1455              		.loc 1 1126 0
 1456              		.cfi_startproc
 1457 0000 90B5     		push	{r4, r7, lr}
 1458              		.cfi_def_cfa_offset 12
 1459              		.cfi_offset 4, -12
 1460              		.cfi_offset 7, -8
 1461              		.cfi_offset 14, -4
 1462 0002 85B0     		sub	sp, sp, #20
 1463              		.cfi_def_cfa_offset 32
 1464 0004 00AF     		add	r7, sp, #0
 1465              		.cfi_def_cfa_register 7
 1466 0006 7860     		str	r0, [r7, #4]
1127:Generated_Source\PSoC4/System_Timer.c ****     uint8 enableInterrupts;
1128:Generated_Source\PSoC4/System_Timer.c **** 
1129:Generated_Source\PSoC4/System_Timer.c ****     enableInterrupts = CyEnterCriticalSection();
 1467              		.loc 1 1129 0
 1468 0008 0F23     		mov	r3, #15
 1469 000a FC18     		add	r4, r7, r3
 1470 000c FFF7FEFF 		bl	CyEnterCriticalSection
 1471 0010 031C     		mov	r3, r0
 1472 0012 2370     		strb	r3, [r4]
1130:Generated_Source\PSoC4/System_Timer.c **** 
1131:Generated_Source\PSoC4/System_Timer.c ****     System_Timer_TRIG_CONTROL1_REG &= (uint32)~System_Timer_START_MASK;
 1473              		.loc 1 1131 0
 1474 0014 0A4B     		ldr	r3, .L100
 1475 0016 0A4A     		ldr	r2, .L100
 1476 0018 1268     		ldr	r2, [r2]
 1477 001a 0A49     		ldr	r1, .L100+4
 1478 001c 0A40     		and	r2, r1
 1479 001e 1A60     		str	r2, [r3]
1132:Generated_Source\PSoC4/System_Timer.c ****     System_Timer_TRIG_CONTROL1_REG |= ((uint32)(triggerMode << System_Timer_START_SHIFT));
 1480              		.loc 1 1132 0
 1481 0020 074B     		ldr	r3, .L100
 1482 0022 074A     		ldr	r2, .L100
 1483 0024 1168     		ldr	r1, [r2]
 1484 0026 7A68     		ldr	r2, [r7, #4]
 1485 0028 1202     		lsl	r2, r2, #8
 1486 002a 0A43     		orr	r2, r1
 1487 002c 1A60     		str	r2, [r3]
1133:Generated_Source\PSoC4/System_Timer.c **** 
1134:Generated_Source\PSoC4/System_Timer.c ****     CyExitCriticalSection(enableInterrupts);
 1488              		.loc 1 1134 0
ARM GAS  C:\Users\ADMINI~1.SC-\AppData\Local\Temp\ccEAhJMV.s 			page 47


 1489 002e 0F23     		mov	r3, #15
 1490 0030 FB18     		add	r3, r7, r3
 1491 0032 1B78     		ldrb	r3, [r3]
 1492 0034 181C     		mov	r0, r3
 1493 0036 FFF7FEFF 		bl	CyExitCriticalSection
1135:Generated_Source\PSoC4/System_Timer.c **** }
 1494              		.loc 1 1135 0
 1495 003a BD46     		mov	sp, r7
 1496 003c 05B0     		add	sp, sp, #20
 1497              		@ sp needed
 1498 003e 90BD     		pop	{r4, r7, pc}
 1499              	.L101:
 1500              		.align	2
 1501              	.L100:
 1502 0040 24012040 		.word	1075839268
 1503 0044 FFFCFFFF 		.word	-769
 1504              		.cfi_endproc
 1505              	.LFE32:
 1506              		.size	System_Timer_SetStartMode, .-System_Timer_SetStartMode
 1507              		.section	.text.System_Timer_SetStopMode,"ax",%progbits
 1508              		.align	2
 1509              		.global	System_Timer_SetStopMode
 1510              		.code	16
 1511              		.thumb_func
 1512              		.type	System_Timer_SetStopMode, %function
 1513              	System_Timer_SetStopMode:
 1514              	.LFB33:
1136:Generated_Source\PSoC4/System_Timer.c **** 
1137:Generated_Source\PSoC4/System_Timer.c **** 
1138:Generated_Source\PSoC4/System_Timer.c **** /*******************************************************************************
1139:Generated_Source\PSoC4/System_Timer.c **** * Function Name: System_Timer_SetStopMode
1140:Generated_Source\PSoC4/System_Timer.c **** ********************************************************************************
1141:Generated_Source\PSoC4/System_Timer.c **** *
1142:Generated_Source\PSoC4/System_Timer.c **** * Summary:
1143:Generated_Source\PSoC4/System_Timer.c **** *  Sets the stop trigger mode. For PWM mode this is the kill input.
1144:Generated_Source\PSoC4/System_Timer.c **** *
1145:Generated_Source\PSoC4/System_Timer.c **** * Parameters:
1146:Generated_Source\PSoC4/System_Timer.c **** *  triggerMode: Enumerated trigger mode value
1147:Generated_Source\PSoC4/System_Timer.c **** *   Values:
1148:Generated_Source\PSoC4/System_Timer.c **** *     - System_Timer_TRIG_LEVEL     - Level
1149:Generated_Source\PSoC4/System_Timer.c **** *     - System_Timer_TRIG_RISING    - Rising edge
1150:Generated_Source\PSoC4/System_Timer.c **** *     - System_Timer_TRIG_FALLING   - Falling edge
1151:Generated_Source\PSoC4/System_Timer.c **** *     - System_Timer_TRIG_BOTH      - Both rising and falling edge
1152:Generated_Source\PSoC4/System_Timer.c **** *
1153:Generated_Source\PSoC4/System_Timer.c **** * Return:
1154:Generated_Source\PSoC4/System_Timer.c **** *  None
1155:Generated_Source\PSoC4/System_Timer.c **** *
1156:Generated_Source\PSoC4/System_Timer.c **** *******************************************************************************/
1157:Generated_Source\PSoC4/System_Timer.c **** void System_Timer_SetStopMode(uint32 triggerMode)
1158:Generated_Source\PSoC4/System_Timer.c **** {
 1515              		.loc 1 1158 0
 1516              		.cfi_startproc
 1517 0000 90B5     		push	{r4, r7, lr}
 1518              		.cfi_def_cfa_offset 12
 1519              		.cfi_offset 4, -12
 1520              		.cfi_offset 7, -8
 1521              		.cfi_offset 14, -4
ARM GAS  C:\Users\ADMINI~1.SC-\AppData\Local\Temp\ccEAhJMV.s 			page 48


 1522 0002 85B0     		sub	sp, sp, #20
 1523              		.cfi_def_cfa_offset 32
 1524 0004 00AF     		add	r7, sp, #0
 1525              		.cfi_def_cfa_register 7
 1526 0006 7860     		str	r0, [r7, #4]
1159:Generated_Source\PSoC4/System_Timer.c ****     uint8 enableInterrupts;
1160:Generated_Source\PSoC4/System_Timer.c **** 
1161:Generated_Source\PSoC4/System_Timer.c ****     enableInterrupts = CyEnterCriticalSection();
 1527              		.loc 1 1161 0
 1528 0008 0F23     		mov	r3, #15
 1529 000a FC18     		add	r4, r7, r3
 1530 000c FFF7FEFF 		bl	CyEnterCriticalSection
 1531 0010 031C     		mov	r3, r0
 1532 0012 2370     		strb	r3, [r4]
1162:Generated_Source\PSoC4/System_Timer.c **** 
1163:Generated_Source\PSoC4/System_Timer.c ****     System_Timer_TRIG_CONTROL1_REG &= (uint32)~System_Timer_STOP_MASK;
 1533              		.loc 1 1163 0
 1534 0014 0A4B     		ldr	r3, .L103
 1535 0016 0A4A     		ldr	r2, .L103
 1536 0018 1268     		ldr	r2, [r2]
 1537 001a C021     		mov	r1, #192
 1538 001c 8A43     		bic	r2, r1
 1539 001e 1A60     		str	r2, [r3]
1164:Generated_Source\PSoC4/System_Timer.c ****     System_Timer_TRIG_CONTROL1_REG |= ((uint32)(triggerMode << System_Timer_STOP_SHIFT));
 1540              		.loc 1 1164 0
 1541 0020 074B     		ldr	r3, .L103
 1542 0022 074A     		ldr	r2, .L103
 1543 0024 1168     		ldr	r1, [r2]
 1544 0026 7A68     		ldr	r2, [r7, #4]
 1545 0028 9201     		lsl	r2, r2, #6
 1546 002a 0A43     		orr	r2, r1
 1547 002c 1A60     		str	r2, [r3]
1165:Generated_Source\PSoC4/System_Timer.c **** 
1166:Generated_Source\PSoC4/System_Timer.c ****     CyExitCriticalSection(enableInterrupts);
 1548              		.loc 1 1166 0
 1549 002e 0F23     		mov	r3, #15
 1550 0030 FB18     		add	r3, r7, r3
 1551 0032 1B78     		ldrb	r3, [r3]
 1552 0034 181C     		mov	r0, r3
 1553 0036 FFF7FEFF 		bl	CyExitCriticalSection
1167:Generated_Source\PSoC4/System_Timer.c **** }
 1554              		.loc 1 1167 0
 1555 003a BD46     		mov	sp, r7
 1556 003c 05B0     		add	sp, sp, #20
 1557              		@ sp needed
 1558 003e 90BD     		pop	{r4, r7, pc}
 1559              	.L104:
 1560              		.align	2
 1561              	.L103:
 1562 0040 24012040 		.word	1075839268
 1563              		.cfi_endproc
 1564              	.LFE33:
 1565              		.size	System_Timer_SetStopMode, .-System_Timer_SetStopMode
 1566              		.section	.text.System_Timer_SetCountMode,"ax",%progbits
 1567              		.align	2
 1568              		.global	System_Timer_SetCountMode
 1569              		.code	16
ARM GAS  C:\Users\ADMINI~1.SC-\AppData\Local\Temp\ccEAhJMV.s 			page 49


 1570              		.thumb_func
 1571              		.type	System_Timer_SetCountMode, %function
 1572              	System_Timer_SetCountMode:
 1573              	.LFB34:
1168:Generated_Source\PSoC4/System_Timer.c **** 
1169:Generated_Source\PSoC4/System_Timer.c **** 
1170:Generated_Source\PSoC4/System_Timer.c **** /*******************************************************************************
1171:Generated_Source\PSoC4/System_Timer.c **** * Function Name: System_Timer_SetCountMode
1172:Generated_Source\PSoC4/System_Timer.c **** ********************************************************************************
1173:Generated_Source\PSoC4/System_Timer.c **** *
1174:Generated_Source\PSoC4/System_Timer.c **** * Summary:
1175:Generated_Source\PSoC4/System_Timer.c **** *  Sets the count trigger mode. For Quadrature Decoder mode this is the phiA
1176:Generated_Source\PSoC4/System_Timer.c **** *  input.
1177:Generated_Source\PSoC4/System_Timer.c **** *
1178:Generated_Source\PSoC4/System_Timer.c **** * Parameters:
1179:Generated_Source\PSoC4/System_Timer.c **** *  triggerMode: Enumerated trigger mode value
1180:Generated_Source\PSoC4/System_Timer.c **** *   Values:
1181:Generated_Source\PSoC4/System_Timer.c **** *     - System_Timer_TRIG_LEVEL     - Level
1182:Generated_Source\PSoC4/System_Timer.c **** *     - System_Timer_TRIG_RISING    - Rising edge
1183:Generated_Source\PSoC4/System_Timer.c **** *     - System_Timer_TRIG_FALLING   - Falling edge
1184:Generated_Source\PSoC4/System_Timer.c **** *     - System_Timer_TRIG_BOTH      - Both rising and falling edge
1185:Generated_Source\PSoC4/System_Timer.c **** *
1186:Generated_Source\PSoC4/System_Timer.c **** * Return:
1187:Generated_Source\PSoC4/System_Timer.c **** *  None
1188:Generated_Source\PSoC4/System_Timer.c **** *
1189:Generated_Source\PSoC4/System_Timer.c **** *******************************************************************************/
1190:Generated_Source\PSoC4/System_Timer.c **** void System_Timer_SetCountMode(uint32 triggerMode)
1191:Generated_Source\PSoC4/System_Timer.c **** {
 1574              		.loc 1 1191 0
 1575              		.cfi_startproc
 1576 0000 90B5     		push	{r4, r7, lr}
 1577              		.cfi_def_cfa_offset 12
 1578              		.cfi_offset 4, -12
 1579              		.cfi_offset 7, -8
 1580              		.cfi_offset 14, -4
 1581 0002 85B0     		sub	sp, sp, #20
 1582              		.cfi_def_cfa_offset 32
 1583 0004 00AF     		add	r7, sp, #0
 1584              		.cfi_def_cfa_register 7
 1585 0006 7860     		str	r0, [r7, #4]
1192:Generated_Source\PSoC4/System_Timer.c ****     uint8 enableInterrupts;
1193:Generated_Source\PSoC4/System_Timer.c **** 
1194:Generated_Source\PSoC4/System_Timer.c ****     enableInterrupts = CyEnterCriticalSection();
 1586              		.loc 1 1194 0
 1587 0008 0F23     		mov	r3, #15
 1588 000a FC18     		add	r4, r7, r3
 1589 000c FFF7FEFF 		bl	CyEnterCriticalSection
 1590 0010 031C     		mov	r3, r0
 1591 0012 2370     		strb	r3, [r4]
1195:Generated_Source\PSoC4/System_Timer.c **** 
1196:Generated_Source\PSoC4/System_Timer.c ****     System_Timer_TRIG_CONTROL1_REG &= (uint32)~System_Timer_COUNT_MASK;
 1592              		.loc 1 1196 0
 1593 0014 0A4B     		ldr	r3, .L106
 1594 0016 0A4A     		ldr	r2, .L106
 1595 0018 1268     		ldr	r2, [r2]
 1596 001a 0C21     		mov	r1, #12
 1597 001c 8A43     		bic	r2, r1
ARM GAS  C:\Users\ADMINI~1.SC-\AppData\Local\Temp\ccEAhJMV.s 			page 50


 1598 001e 1A60     		str	r2, [r3]
1197:Generated_Source\PSoC4/System_Timer.c ****     System_Timer_TRIG_CONTROL1_REG |= ((uint32)(triggerMode << System_Timer_COUNT_SHIFT));
 1599              		.loc 1 1197 0
 1600 0020 074B     		ldr	r3, .L106
 1601 0022 074A     		ldr	r2, .L106
 1602 0024 1168     		ldr	r1, [r2]
 1603 0026 7A68     		ldr	r2, [r7, #4]
 1604 0028 9200     		lsl	r2, r2, #2
 1605 002a 0A43     		orr	r2, r1
 1606 002c 1A60     		str	r2, [r3]
1198:Generated_Source\PSoC4/System_Timer.c **** 
1199:Generated_Source\PSoC4/System_Timer.c ****     CyExitCriticalSection(enableInterrupts);
 1607              		.loc 1 1199 0
 1608 002e 0F23     		mov	r3, #15
 1609 0030 FB18     		add	r3, r7, r3
 1610 0032 1B78     		ldrb	r3, [r3]
 1611 0034 181C     		mov	r0, r3
 1612 0036 FFF7FEFF 		bl	CyExitCriticalSection
1200:Generated_Source\PSoC4/System_Timer.c **** }
 1613              		.loc 1 1200 0
 1614 003a BD46     		mov	sp, r7
 1615 003c 05B0     		add	sp, sp, #20
 1616              		@ sp needed
 1617 003e 90BD     		pop	{r4, r7, pc}
 1618              	.L107:
 1619              		.align	2
 1620              	.L106:
 1621 0040 24012040 		.word	1075839268
 1622              		.cfi_endproc
 1623              	.LFE34:
 1624              		.size	System_Timer_SetCountMode, .-System_Timer_SetCountMode
 1625              		.section	.text.System_Timer_TriggerCommand,"ax",%progbits
 1626              		.align	2
 1627              		.global	System_Timer_TriggerCommand
 1628              		.code	16
 1629              		.thumb_func
 1630              		.type	System_Timer_TriggerCommand, %function
 1631              	System_Timer_TriggerCommand:
 1632              	.LFB35:
1201:Generated_Source\PSoC4/System_Timer.c **** 
1202:Generated_Source\PSoC4/System_Timer.c **** 
1203:Generated_Source\PSoC4/System_Timer.c **** /*******************************************************************************
1204:Generated_Source\PSoC4/System_Timer.c **** * Function Name: System_Timer_TriggerCommand
1205:Generated_Source\PSoC4/System_Timer.c **** ********************************************************************************
1206:Generated_Source\PSoC4/System_Timer.c **** *
1207:Generated_Source\PSoC4/System_Timer.c **** * Summary:
1208:Generated_Source\PSoC4/System_Timer.c **** *  Triggers the designated command to occur on the designated TCPWM instances.
1209:Generated_Source\PSoC4/System_Timer.c **** *  The mask can be used to apply this command simultaneously to more than one
1210:Generated_Source\PSoC4/System_Timer.c **** *  instance.  This allows multiple TCPWM instances to be synchronized.
1211:Generated_Source\PSoC4/System_Timer.c **** *
1212:Generated_Source\PSoC4/System_Timer.c **** * Parameters:
1213:Generated_Source\PSoC4/System_Timer.c **** *  mask: A combination of mask bits for each instance of the TCPWM that the
1214:Generated_Source\PSoC4/System_Timer.c **** *        command should apply to.  This function from one instance can be used
1215:Generated_Source\PSoC4/System_Timer.c **** *        to apply the command to any of the instances in the design.
1216:Generated_Source\PSoC4/System_Timer.c **** *        The mask value for a specific instance is available with the MASK
1217:Generated_Source\PSoC4/System_Timer.c **** *        define.
1218:Generated_Source\PSoC4/System_Timer.c **** *  command: Enumerated command values. Capture command only applicable for
ARM GAS  C:\Users\ADMINI~1.SC-\AppData\Local\Temp\ccEAhJMV.s 			page 51


1219:Generated_Source\PSoC4/System_Timer.c **** *           Timer/Counter with Capture and PWM modes.
1220:Generated_Source\PSoC4/System_Timer.c **** *   Values:
1221:Generated_Source\PSoC4/System_Timer.c **** *     - System_Timer_CMD_CAPTURE    - Trigger Capture command
1222:Generated_Source\PSoC4/System_Timer.c **** *     - System_Timer_CMD_RELOAD     - Trigger Reload command
1223:Generated_Source\PSoC4/System_Timer.c **** *     - System_Timer_CMD_STOP       - Trigger Stop command
1224:Generated_Source\PSoC4/System_Timer.c **** *     - System_Timer_CMD_START      - Trigger Start command
1225:Generated_Source\PSoC4/System_Timer.c **** *
1226:Generated_Source\PSoC4/System_Timer.c **** * Return:
1227:Generated_Source\PSoC4/System_Timer.c **** *  None
1228:Generated_Source\PSoC4/System_Timer.c **** *
1229:Generated_Source\PSoC4/System_Timer.c **** *******************************************************************************/
1230:Generated_Source\PSoC4/System_Timer.c **** void System_Timer_TriggerCommand(uint32 mask, uint32 command)
1231:Generated_Source\PSoC4/System_Timer.c **** {
 1633              		.loc 1 1231 0
 1634              		.cfi_startproc
 1635 0000 90B5     		push	{r4, r7, lr}
 1636              		.cfi_def_cfa_offset 12
 1637              		.cfi_offset 4, -12
 1638              		.cfi_offset 7, -8
 1639              		.cfi_offset 14, -4
 1640 0002 85B0     		sub	sp, sp, #20
 1641              		.cfi_def_cfa_offset 32
 1642 0004 00AF     		add	r7, sp, #0
 1643              		.cfi_def_cfa_register 7
 1644 0006 7860     		str	r0, [r7, #4]
 1645 0008 3960     		str	r1, [r7]
1232:Generated_Source\PSoC4/System_Timer.c ****     uint8 enableInterrupts;
1233:Generated_Source\PSoC4/System_Timer.c **** 
1234:Generated_Source\PSoC4/System_Timer.c ****     enableInterrupts = CyEnterCriticalSection();
 1646              		.loc 1 1234 0
 1647 000a 0F23     		mov	r3, #15
 1648 000c FC18     		add	r4, r7, r3
 1649 000e FFF7FEFF 		bl	CyEnterCriticalSection
 1650 0012 031C     		mov	r3, r0
 1651 0014 2370     		strb	r3, [r4]
1235:Generated_Source\PSoC4/System_Timer.c **** 
1236:Generated_Source\PSoC4/System_Timer.c ****     System_Timer_COMMAND_REG = ((uint32)(mask << command));
 1652              		.loc 1 1236 0
 1653 0016 074B     		ldr	r3, .L109
 1654 0018 3A68     		ldr	r2, [r7]
 1655 001a 7968     		ldr	r1, [r7, #4]
 1656 001c 9140     		lsl	r1, r1, r2
 1657 001e 0A1C     		mov	r2, r1
 1658 0020 1A60     		str	r2, [r3]
1237:Generated_Source\PSoC4/System_Timer.c **** 
1238:Generated_Source\PSoC4/System_Timer.c ****     CyExitCriticalSection(enableInterrupts);
 1659              		.loc 1 1238 0
 1660 0022 0F23     		mov	r3, #15
 1661 0024 FB18     		add	r3, r7, r3
 1662 0026 1B78     		ldrb	r3, [r3]
 1663 0028 181C     		mov	r0, r3
 1664 002a FFF7FEFF 		bl	CyExitCriticalSection
1239:Generated_Source\PSoC4/System_Timer.c **** }
 1665              		.loc 1 1239 0
 1666 002e BD46     		mov	sp, r7
 1667 0030 05B0     		add	sp, sp, #20
 1668              		@ sp needed
ARM GAS  C:\Users\ADMINI~1.SC-\AppData\Local\Temp\ccEAhJMV.s 			page 52


 1669 0032 90BD     		pop	{r4, r7, pc}
 1670              	.L110:
 1671              		.align	2
 1672              	.L109:
 1673 0034 08002040 		.word	1075838984
 1674              		.cfi_endproc
 1675              	.LFE35:
 1676              		.size	System_Timer_TriggerCommand, .-System_Timer_TriggerCommand
 1677              		.section	.text.System_Timer_ReadStatus,"ax",%progbits
 1678              		.align	2
 1679              		.global	System_Timer_ReadStatus
 1680              		.code	16
 1681              		.thumb_func
 1682              		.type	System_Timer_ReadStatus, %function
 1683              	System_Timer_ReadStatus:
 1684              	.LFB36:
1240:Generated_Source\PSoC4/System_Timer.c **** 
1241:Generated_Source\PSoC4/System_Timer.c **** 
1242:Generated_Source\PSoC4/System_Timer.c **** /*******************************************************************************
1243:Generated_Source\PSoC4/System_Timer.c **** * Function Name: System_Timer_ReadStatus
1244:Generated_Source\PSoC4/System_Timer.c **** ********************************************************************************
1245:Generated_Source\PSoC4/System_Timer.c **** *
1246:Generated_Source\PSoC4/System_Timer.c **** * Summary:
1247:Generated_Source\PSoC4/System_Timer.c **** *  Reads the status of the System_Timer.
1248:Generated_Source\PSoC4/System_Timer.c **** *
1249:Generated_Source\PSoC4/System_Timer.c **** * Parameters:
1250:Generated_Source\PSoC4/System_Timer.c **** *  None
1251:Generated_Source\PSoC4/System_Timer.c **** *
1252:Generated_Source\PSoC4/System_Timer.c **** * Return:
1253:Generated_Source\PSoC4/System_Timer.c **** *  Status
1254:Generated_Source\PSoC4/System_Timer.c **** *   Values:
1255:Generated_Source\PSoC4/System_Timer.c **** *     - System_Timer_STATUS_DOWN    - Set if counting down
1256:Generated_Source\PSoC4/System_Timer.c **** *     - System_Timer_STATUS_RUNNING - Set if counter is running
1257:Generated_Source\PSoC4/System_Timer.c **** *
1258:Generated_Source\PSoC4/System_Timer.c **** *******************************************************************************/
1259:Generated_Source\PSoC4/System_Timer.c **** uint32 System_Timer_ReadStatus(void)
1260:Generated_Source\PSoC4/System_Timer.c **** {
 1685              		.loc 1 1260 0
 1686              		.cfi_startproc
 1687 0000 80B5     		push	{r7, lr}
 1688              		.cfi_def_cfa_offset 8
 1689              		.cfi_offset 7, -8
 1690              		.cfi_offset 14, -4
 1691 0002 00AF     		add	r7, sp, #0
 1692              		.cfi_def_cfa_register 7
1261:Generated_Source\PSoC4/System_Timer.c ****     return ((System_Timer_STATUS_REG >> System_Timer_RUNNING_STATUS_SHIFT) |
 1693              		.loc 1 1261 0
 1694 0004 054B     		ldr	r3, .L113
 1695 0006 1B68     		ldr	r3, [r3]
 1696 0008 9A0F     		lsr	r2, r3, #30
1262:Generated_Source\PSoC4/System_Timer.c ****             (System_Timer_STATUS_REG & System_Timer_STATUS_DOWN));
 1697              		.loc 1 1262 0
 1698 000a 044B     		ldr	r3, .L113
 1699 000c 1B68     		ldr	r3, [r3]
 1700 000e 0121     		mov	r1, #1
 1701 0010 0B40     		and	r3, r1
1261:Generated_Source\PSoC4/System_Timer.c ****     return ((System_Timer_STATUS_REG >> System_Timer_RUNNING_STATUS_SHIFT) |
ARM GAS  C:\Users\ADMINI~1.SC-\AppData\Local\Temp\ccEAhJMV.s 			page 53


 1702              		.loc 1 1261 0
 1703 0012 1343     		orr	r3, r2
1263:Generated_Source\PSoC4/System_Timer.c **** }
 1704              		.loc 1 1263 0
 1705 0014 181C     		mov	r0, r3
 1706 0016 BD46     		mov	sp, r7
 1707              		@ sp needed
 1708 0018 80BD     		pop	{r7, pc}
 1709              	.L114:
 1710 001a C046     		.align	2
 1711              	.L113:
 1712 001c 04012040 		.word	1075839236
 1713              		.cfi_endproc
 1714              	.LFE36:
 1715              		.size	System_Timer_ReadStatus, .-System_Timer_ReadStatus
 1716              		.section	.text.System_Timer_SetInterruptMode,"ax",%progbits
 1717              		.align	2
 1718              		.global	System_Timer_SetInterruptMode
 1719              		.code	16
 1720              		.thumb_func
 1721              		.type	System_Timer_SetInterruptMode, %function
 1722              	System_Timer_SetInterruptMode:
 1723              	.LFB37:
1264:Generated_Source\PSoC4/System_Timer.c **** 
1265:Generated_Source\PSoC4/System_Timer.c **** 
1266:Generated_Source\PSoC4/System_Timer.c **** /*******************************************************************************
1267:Generated_Source\PSoC4/System_Timer.c **** * Function Name: System_Timer_SetInterruptMode
1268:Generated_Source\PSoC4/System_Timer.c **** ********************************************************************************
1269:Generated_Source\PSoC4/System_Timer.c **** *
1270:Generated_Source\PSoC4/System_Timer.c **** * Summary:
1271:Generated_Source\PSoC4/System_Timer.c **** *  Sets the interrupt mask to control which interrupt
1272:Generated_Source\PSoC4/System_Timer.c **** *  requests generate the interrupt signal.
1273:Generated_Source\PSoC4/System_Timer.c **** *
1274:Generated_Source\PSoC4/System_Timer.c **** * Parameters:
1275:Generated_Source\PSoC4/System_Timer.c **** *   interruptMask: Mask of bits to be enabled
1276:Generated_Source\PSoC4/System_Timer.c **** *   Values:
1277:Generated_Source\PSoC4/System_Timer.c **** *     - System_Timer_INTR_MASK_TC       - Terminal count mask
1278:Generated_Source\PSoC4/System_Timer.c **** *     - System_Timer_INTR_MASK_CC_MATCH - Compare count / capture mask
1279:Generated_Source\PSoC4/System_Timer.c **** *
1280:Generated_Source\PSoC4/System_Timer.c **** * Return:
1281:Generated_Source\PSoC4/System_Timer.c **** *  None
1282:Generated_Source\PSoC4/System_Timer.c **** *
1283:Generated_Source\PSoC4/System_Timer.c **** *******************************************************************************/
1284:Generated_Source\PSoC4/System_Timer.c **** void System_Timer_SetInterruptMode(uint32 interruptMask)
1285:Generated_Source\PSoC4/System_Timer.c **** {
 1724              		.loc 1 1285 0
 1725              		.cfi_startproc
 1726 0000 80B5     		push	{r7, lr}
 1727              		.cfi_def_cfa_offset 8
 1728              		.cfi_offset 7, -8
 1729              		.cfi_offset 14, -4
 1730 0002 82B0     		sub	sp, sp, #8
 1731              		.cfi_def_cfa_offset 16
 1732 0004 00AF     		add	r7, sp, #0
 1733              		.cfi_def_cfa_register 7
 1734 0006 7860     		str	r0, [r7, #4]
1286:Generated_Source\PSoC4/System_Timer.c ****     System_Timer_INTERRUPT_MASK_REG =  interruptMask;
ARM GAS  C:\Users\ADMINI~1.SC-\AppData\Local\Temp\ccEAhJMV.s 			page 54


 1735              		.loc 1 1286 0
 1736 0008 024B     		ldr	r3, .L116
 1737 000a 7A68     		ldr	r2, [r7, #4]
 1738 000c 1A60     		str	r2, [r3]
1287:Generated_Source\PSoC4/System_Timer.c **** }
 1739              		.loc 1 1287 0
 1740 000e BD46     		mov	sp, r7
 1741 0010 02B0     		add	sp, sp, #8
 1742              		@ sp needed
 1743 0012 80BD     		pop	{r7, pc}
 1744              	.L117:
 1745              		.align	2
 1746              	.L116:
 1747 0014 38012040 		.word	1075839288
 1748              		.cfi_endproc
 1749              	.LFE37:
 1750              		.size	System_Timer_SetInterruptMode, .-System_Timer_SetInterruptMode
 1751              		.section	.text.System_Timer_GetInterruptSourceMasked,"ax",%progbits
 1752              		.align	2
 1753              		.global	System_Timer_GetInterruptSourceMasked
 1754              		.code	16
 1755              		.thumb_func
 1756              		.type	System_Timer_GetInterruptSourceMasked, %function
 1757              	System_Timer_GetInterruptSourceMasked:
 1758              	.LFB38:
1288:Generated_Source\PSoC4/System_Timer.c **** 
1289:Generated_Source\PSoC4/System_Timer.c **** 
1290:Generated_Source\PSoC4/System_Timer.c **** /*******************************************************************************
1291:Generated_Source\PSoC4/System_Timer.c **** * Function Name: System_Timer_GetInterruptSourceMasked
1292:Generated_Source\PSoC4/System_Timer.c **** ********************************************************************************
1293:Generated_Source\PSoC4/System_Timer.c **** *
1294:Generated_Source\PSoC4/System_Timer.c **** * Summary:
1295:Generated_Source\PSoC4/System_Timer.c **** *  Gets the interrupt requests masked by the interrupt mask.
1296:Generated_Source\PSoC4/System_Timer.c **** *
1297:Generated_Source\PSoC4/System_Timer.c **** * Parameters:
1298:Generated_Source\PSoC4/System_Timer.c **** *   None
1299:Generated_Source\PSoC4/System_Timer.c **** *
1300:Generated_Source\PSoC4/System_Timer.c **** * Return:
1301:Generated_Source\PSoC4/System_Timer.c **** *  Masked interrupt source
1302:Generated_Source\PSoC4/System_Timer.c **** *   Values:
1303:Generated_Source\PSoC4/System_Timer.c **** *     - System_Timer_INTR_MASK_TC       - Terminal count mask
1304:Generated_Source\PSoC4/System_Timer.c **** *     - System_Timer_INTR_MASK_CC_MATCH - Compare count / capture mask
1305:Generated_Source\PSoC4/System_Timer.c **** *
1306:Generated_Source\PSoC4/System_Timer.c **** *******************************************************************************/
1307:Generated_Source\PSoC4/System_Timer.c **** uint32 System_Timer_GetInterruptSourceMasked(void)
1308:Generated_Source\PSoC4/System_Timer.c **** {
 1759              		.loc 1 1308 0
 1760              		.cfi_startproc
 1761 0000 80B5     		push	{r7, lr}
 1762              		.cfi_def_cfa_offset 8
 1763              		.cfi_offset 7, -8
 1764              		.cfi_offset 14, -4
 1765 0002 00AF     		add	r7, sp, #0
 1766              		.cfi_def_cfa_register 7
1309:Generated_Source\PSoC4/System_Timer.c ****     return (System_Timer_INTERRUPT_MASKED_REG);
 1767              		.loc 1 1309 0
 1768 0004 024B     		ldr	r3, .L120
ARM GAS  C:\Users\ADMINI~1.SC-\AppData\Local\Temp\ccEAhJMV.s 			page 55


 1769 0006 1B68     		ldr	r3, [r3]
1310:Generated_Source\PSoC4/System_Timer.c **** }
 1770              		.loc 1 1310 0
 1771 0008 181C     		mov	r0, r3
 1772 000a BD46     		mov	sp, r7
 1773              		@ sp needed
 1774 000c 80BD     		pop	{r7, pc}
 1775              	.L121:
 1776 000e C046     		.align	2
 1777              	.L120:
 1778 0010 3C012040 		.word	1075839292
 1779              		.cfi_endproc
 1780              	.LFE38:
 1781              		.size	System_Timer_GetInterruptSourceMasked, .-System_Timer_GetInterruptSourceMasked
 1782              		.section	.text.System_Timer_GetInterruptSource,"ax",%progbits
 1783              		.align	2
 1784              		.global	System_Timer_GetInterruptSource
 1785              		.code	16
 1786              		.thumb_func
 1787              		.type	System_Timer_GetInterruptSource, %function
 1788              	System_Timer_GetInterruptSource:
 1789              	.LFB39:
1311:Generated_Source\PSoC4/System_Timer.c **** 
1312:Generated_Source\PSoC4/System_Timer.c **** 
1313:Generated_Source\PSoC4/System_Timer.c **** /*******************************************************************************
1314:Generated_Source\PSoC4/System_Timer.c **** * Function Name: System_Timer_GetInterruptSource
1315:Generated_Source\PSoC4/System_Timer.c **** ********************************************************************************
1316:Generated_Source\PSoC4/System_Timer.c **** *
1317:Generated_Source\PSoC4/System_Timer.c **** * Summary:
1318:Generated_Source\PSoC4/System_Timer.c **** *  Gets the interrupt requests (without masking).
1319:Generated_Source\PSoC4/System_Timer.c **** *
1320:Generated_Source\PSoC4/System_Timer.c **** * Parameters:
1321:Generated_Source\PSoC4/System_Timer.c **** *  None
1322:Generated_Source\PSoC4/System_Timer.c **** *
1323:Generated_Source\PSoC4/System_Timer.c **** * Return:
1324:Generated_Source\PSoC4/System_Timer.c **** *  Interrupt request value
1325:Generated_Source\PSoC4/System_Timer.c **** *   Values:
1326:Generated_Source\PSoC4/System_Timer.c **** *     - System_Timer_INTR_MASK_TC       - Terminal count mask
1327:Generated_Source\PSoC4/System_Timer.c **** *     - System_Timer_INTR_MASK_CC_MATCH - Compare count / capture mask
1328:Generated_Source\PSoC4/System_Timer.c **** *
1329:Generated_Source\PSoC4/System_Timer.c **** *******************************************************************************/
1330:Generated_Source\PSoC4/System_Timer.c **** uint32 System_Timer_GetInterruptSource(void)
1331:Generated_Source\PSoC4/System_Timer.c **** {
 1790              		.loc 1 1331 0
 1791              		.cfi_startproc
 1792 0000 80B5     		push	{r7, lr}
 1793              		.cfi_def_cfa_offset 8
 1794              		.cfi_offset 7, -8
 1795              		.cfi_offset 14, -4
 1796 0002 00AF     		add	r7, sp, #0
 1797              		.cfi_def_cfa_register 7
1332:Generated_Source\PSoC4/System_Timer.c ****     return (System_Timer_INTERRUPT_REQ_REG);
 1798              		.loc 1 1332 0
 1799 0004 024B     		ldr	r3, .L124
 1800 0006 1B68     		ldr	r3, [r3]
1333:Generated_Source\PSoC4/System_Timer.c **** }
 1801              		.loc 1 1333 0
ARM GAS  C:\Users\ADMINI~1.SC-\AppData\Local\Temp\ccEAhJMV.s 			page 56


 1802 0008 181C     		mov	r0, r3
 1803 000a BD46     		mov	sp, r7
 1804              		@ sp needed
 1805 000c 80BD     		pop	{r7, pc}
 1806              	.L125:
 1807 000e C046     		.align	2
 1808              	.L124:
 1809 0010 30012040 		.word	1075839280
 1810              		.cfi_endproc
 1811              	.LFE39:
 1812              		.size	System_Timer_GetInterruptSource, .-System_Timer_GetInterruptSource
 1813              		.section	.text.System_Timer_ClearInterrupt,"ax",%progbits
 1814              		.align	2
 1815              		.global	System_Timer_ClearInterrupt
 1816              		.code	16
 1817              		.thumb_func
 1818              		.type	System_Timer_ClearInterrupt, %function
 1819              	System_Timer_ClearInterrupt:
 1820              	.LFB40:
1334:Generated_Source\PSoC4/System_Timer.c **** 
1335:Generated_Source\PSoC4/System_Timer.c **** 
1336:Generated_Source\PSoC4/System_Timer.c **** /*******************************************************************************
1337:Generated_Source\PSoC4/System_Timer.c **** * Function Name: System_Timer_ClearInterrupt
1338:Generated_Source\PSoC4/System_Timer.c **** ********************************************************************************
1339:Generated_Source\PSoC4/System_Timer.c **** *
1340:Generated_Source\PSoC4/System_Timer.c **** * Summary:
1341:Generated_Source\PSoC4/System_Timer.c **** *  Clears the interrupt request.
1342:Generated_Source\PSoC4/System_Timer.c **** *
1343:Generated_Source\PSoC4/System_Timer.c **** * Parameters:
1344:Generated_Source\PSoC4/System_Timer.c **** *   interruptMask: Mask of interrupts to clear
1345:Generated_Source\PSoC4/System_Timer.c **** *   Values:
1346:Generated_Source\PSoC4/System_Timer.c **** *     - System_Timer_INTR_MASK_TC       - Terminal count mask
1347:Generated_Source\PSoC4/System_Timer.c **** *     - System_Timer_INTR_MASK_CC_MATCH - Compare count / capture mask
1348:Generated_Source\PSoC4/System_Timer.c **** *
1349:Generated_Source\PSoC4/System_Timer.c **** * Return:
1350:Generated_Source\PSoC4/System_Timer.c **** *  None
1351:Generated_Source\PSoC4/System_Timer.c **** *
1352:Generated_Source\PSoC4/System_Timer.c **** *******************************************************************************/
1353:Generated_Source\PSoC4/System_Timer.c **** void System_Timer_ClearInterrupt(uint32 interruptMask)
1354:Generated_Source\PSoC4/System_Timer.c **** {
 1821              		.loc 1 1354 0
 1822              		.cfi_startproc
 1823 0000 80B5     		push	{r7, lr}
 1824              		.cfi_def_cfa_offset 8
 1825              		.cfi_offset 7, -8
 1826              		.cfi_offset 14, -4
 1827 0002 82B0     		sub	sp, sp, #8
 1828              		.cfi_def_cfa_offset 16
 1829 0004 00AF     		add	r7, sp, #0
 1830              		.cfi_def_cfa_register 7
 1831 0006 7860     		str	r0, [r7, #4]
1355:Generated_Source\PSoC4/System_Timer.c ****     System_Timer_INTERRUPT_REQ_REG = interruptMask;
 1832              		.loc 1 1355 0
 1833 0008 024B     		ldr	r3, .L127
 1834 000a 7A68     		ldr	r2, [r7, #4]
 1835 000c 1A60     		str	r2, [r3]
1356:Generated_Source\PSoC4/System_Timer.c **** }
ARM GAS  C:\Users\ADMINI~1.SC-\AppData\Local\Temp\ccEAhJMV.s 			page 57


 1836              		.loc 1 1356 0
 1837 000e BD46     		mov	sp, r7
 1838 0010 02B0     		add	sp, sp, #8
 1839              		@ sp needed
 1840 0012 80BD     		pop	{r7, pc}
 1841              	.L128:
 1842              		.align	2
 1843              	.L127:
 1844 0014 30012040 		.word	1075839280
 1845              		.cfi_endproc
 1846              	.LFE40:
 1847              		.size	System_Timer_ClearInterrupt, .-System_Timer_ClearInterrupt
 1848              		.section	.text.System_Timer_SetInterrupt,"ax",%progbits
 1849              		.align	2
 1850              		.global	System_Timer_SetInterrupt
 1851              		.code	16
 1852              		.thumb_func
 1853              		.type	System_Timer_SetInterrupt, %function
 1854              	System_Timer_SetInterrupt:
 1855              	.LFB41:
1357:Generated_Source\PSoC4/System_Timer.c **** 
1358:Generated_Source\PSoC4/System_Timer.c **** 
1359:Generated_Source\PSoC4/System_Timer.c **** /*******************************************************************************
1360:Generated_Source\PSoC4/System_Timer.c **** * Function Name: System_Timer_SetInterrupt
1361:Generated_Source\PSoC4/System_Timer.c **** ********************************************************************************
1362:Generated_Source\PSoC4/System_Timer.c **** *
1363:Generated_Source\PSoC4/System_Timer.c **** * Summary:
1364:Generated_Source\PSoC4/System_Timer.c **** *  Sets a software interrupt request.
1365:Generated_Source\PSoC4/System_Timer.c **** *
1366:Generated_Source\PSoC4/System_Timer.c **** * Parameters:
1367:Generated_Source\PSoC4/System_Timer.c **** *   interruptMask: Mask of interrupts to set
1368:Generated_Source\PSoC4/System_Timer.c **** *   Values:
1369:Generated_Source\PSoC4/System_Timer.c **** *     - System_Timer_INTR_MASK_TC       - Terminal count mask
1370:Generated_Source\PSoC4/System_Timer.c **** *     - System_Timer_INTR_MASK_CC_MATCH - Compare count / capture mask
1371:Generated_Source\PSoC4/System_Timer.c **** *
1372:Generated_Source\PSoC4/System_Timer.c **** * Return:
1373:Generated_Source\PSoC4/System_Timer.c **** *  None
1374:Generated_Source\PSoC4/System_Timer.c **** *
1375:Generated_Source\PSoC4/System_Timer.c **** *******************************************************************************/
1376:Generated_Source\PSoC4/System_Timer.c **** void System_Timer_SetInterrupt(uint32 interruptMask)
1377:Generated_Source\PSoC4/System_Timer.c **** {
 1856              		.loc 1 1377 0
 1857              		.cfi_startproc
 1858 0000 80B5     		push	{r7, lr}
 1859              		.cfi_def_cfa_offset 8
 1860              		.cfi_offset 7, -8
 1861              		.cfi_offset 14, -4
 1862 0002 82B0     		sub	sp, sp, #8
 1863              		.cfi_def_cfa_offset 16
 1864 0004 00AF     		add	r7, sp, #0
 1865              		.cfi_def_cfa_register 7
 1866 0006 7860     		str	r0, [r7, #4]
1378:Generated_Source\PSoC4/System_Timer.c ****     System_Timer_INTERRUPT_SET_REG = interruptMask;
 1867              		.loc 1 1378 0
 1868 0008 024B     		ldr	r3, .L130
 1869 000a 7A68     		ldr	r2, [r7, #4]
 1870 000c 1A60     		str	r2, [r3]
ARM GAS  C:\Users\ADMINI~1.SC-\AppData\Local\Temp\ccEAhJMV.s 			page 58


1379:Generated_Source\PSoC4/System_Timer.c **** }
 1871              		.loc 1 1379 0
 1872 000e BD46     		mov	sp, r7
 1873 0010 02B0     		add	sp, sp, #8
 1874              		@ sp needed
 1875 0012 80BD     		pop	{r7, pc}
 1876              	.L131:
 1877              		.align	2
 1878              	.L130:
 1879 0014 34012040 		.word	1075839284
 1880              		.cfi_endproc
 1881              	.LFE41:
 1882              		.size	System_Timer_SetInterrupt, .-System_Timer_SetInterrupt
 1883              		.text
 1884              	.Letext0:
 1885              		.file 2 "Generated_Source\\PSoC4\\cytypes.h"