ARM GAS  C:\Users\ADMINI~1.SC-\AppData\Local\Temp\ccEAhJMV.s 			page 1


   1              		.cpu cortex-m0
   2              		.fpu softvfp
   3              		.eabi_attribute 20, 1
   4              		.eabi_attribute 21, 1
   5              		.eabi_attribute 23, 3
   6              		.eabi_attribute 24, 1
   7              		.eabi_attribute 25, 1
   8              		.eabi_attribute 26, 1
   9              		.eabi_attribute 30, 6
  10              		.eabi_attribute 34, 0
  11              		.eabi_attribute 18, 4
  12              		.code	16
  13              		.file	"System_Timer.c"
  14              		.text
  15              	.Ltext0:
  16              		.cfi_sections	.debug_frame
  17              		.global	System_Timer_initVar
  18              		.bss
  19              		.type	System_Timer_initVar, %object
  20              		.size	System_Timer_initVar, 1
  21              	System_Timer_initVar:
  22 0000 00       		.space	1
  23              		.section	.text.System_Timer_Init,"ax",%progbits
  24              		.align	2
  25              		.global	System_Timer_Init
  26              		.code	16
  27              		.thumb_func
  28              		.type	System_Timer_Init, %function
  29              	System_Timer_Init:
  30              	.LFB2:
  31              		.file 1 "Generated_Source\\PSoC4\\System_Timer.c"
   1:Generated_Source\PSoC4/System_Timer.c **** /*******************************************************************************
   2:Generated_Source\PSoC4/System_Timer.c **** * File Name: System_Timer.c
   3:Generated_Source\PSoC4/System_Timer.c **** * Version 2.0
   4:Generated_Source\PSoC4/System_Timer.c **** *
   5:Generated_Source\PSoC4/System_Timer.c **** * Description:
   6:Generated_Source\PSoC4/System_Timer.c **** *  This file provides the source code to the API for the System_Timer
   7:Generated_Source\PSoC4/System_Timer.c **** *  component
   8:Generated_Source\PSoC4/System_Timer.c **** *
   9:Generated_Source\PSoC4/System_Timer.c **** * Note:
  10:Generated_Source\PSoC4/System_Timer.c **** *  None
  11:Generated_Source\PSoC4/System_Timer.c **** *
  12:Generated_Source\PSoC4/System_Timer.c **** ********************************************************************************
  13:Generated_Source\PSoC4/System_Timer.c **** * Copyright 2013-2014, Cypress Semiconductor Corporation.  All rights reserved.
  14:Generated_Source\PSoC4/System_Timer.c **** * You may use this file only in accordance with the license, terms, conditions,
  15:Generated_Source\PSoC4/System_Timer.c **** * disclaimers, and limitations in the end user license agreement accompanying
  16:Generated_Source\PSoC4/System_Timer.c **** * the software package with which this file was provided.
  17:Generated_Source\PSoC4/System_Timer.c **** *******************************************************************************/
  18:Generated_Source\PSoC4/System_Timer.c **** 
  19:Generated_Source\PSoC4/System_Timer.c **** #include "System_Timer.h"
  20:Generated_Source\PSoC4/System_Timer.c **** 
  21:Generated_Source\PSoC4/System_Timer.c **** uint8 System_Timer_initVar = 0u;
  22:Generated_Source\PSoC4/System_Timer.c **** 
  23:Generated_Source\PSoC4/System_Timer.c **** 
  24:Generated_Source\PSoC4/System_Timer.c **** /*******************************************************************************
  25:Generated_Source\PSoC4/System_Timer.c **** * Function Name: System_Timer_Init
  26:Generated_Source\PSoC4/System_Timer.c **** ********************************************************************************
ARM GAS  C:\Users\ADMINI~1.SC-\AppData\Local\Temp\ccEAhJMV.s 			page 2


  27:Generated_Source\PSoC4/System_Timer.c **** *
  28:Generated_Source\PSoC4/System_Timer.c **** * Summary:
  29:Generated_Source\PSoC4/System_Timer.c **** *  Initialize/Restore default System_Timer configuration.
  30:Generated_Source\PSoC4/System_Timer.c **** *
  31:Generated_Source\PSoC4/System_Timer.c **** * Parameters:
  32:Generated_Source\PSoC4/System_Timer.c **** *  None
  33:Generated_Source\PSoC4/System_Timer.c **** *
  34:Generated_Source\PSoC4/System_Timer.c **** * Return:
  35:Generated_Source\PSoC4/System_Timer.c **** *  None
  36:Generated_Source\PSoC4/System_Timer.c **** *
  37:Generated_Source\PSoC4/System_Timer.c **** *******************************************************************************/
  38:Generated_Source\PSoC4/System_Timer.c **** void System_Timer_Init(void)
  39:Generated_Source\PSoC4/System_Timer.c **** {
  32              		.loc 1 39 0
  33              		.cfi_startproc
  34 0000 80B5     		push	{r7, lr}
  35              		.cfi_def_cfa_offset 8
  36              		.cfi_offset 7, -8
  37              		.cfi_offset 14, -4
  38 0002 00AF     		add	r7, sp, #0
  39              		.cfi_def_cfa_register 7
  40:Generated_Source\PSoC4/System_Timer.c **** 
  41:Generated_Source\PSoC4/System_Timer.c ****     /* Set values from customizer to CTRL */
  42:Generated_Source\PSoC4/System_Timer.c ****     #if (System_Timer__QUAD == System_Timer_CONFIG)
  43:Generated_Source\PSoC4/System_Timer.c ****         System_Timer_CONTROL_REG = System_Timer_CTRL_QUAD_BASE_CONFIG;
  44:Generated_Source\PSoC4/System_Timer.c ****         
  45:Generated_Source\PSoC4/System_Timer.c ****         /* Set values from customizer to CTRL1 */
  46:Generated_Source\PSoC4/System_Timer.c ****         System_Timer_TRIG_CONTROL1_REG  = System_Timer_QUAD_SIGNALS_MODES;
  47:Generated_Source\PSoC4/System_Timer.c **** 
  48:Generated_Source\PSoC4/System_Timer.c ****         /* Set values from customizer to INTR */
  49:Generated_Source\PSoC4/System_Timer.c ****         System_Timer_SetInterruptMode(System_Timer_QUAD_INTERRUPT_MASK);
  50:Generated_Source\PSoC4/System_Timer.c ****         
  51:Generated_Source\PSoC4/System_Timer.c ****          /* Set other values */
  52:Generated_Source\PSoC4/System_Timer.c ****         System_Timer_SetCounterMode(System_Timer_COUNT_DOWN);
  53:Generated_Source\PSoC4/System_Timer.c ****         System_Timer_WritePeriod(System_Timer_QUAD_PERIOD_INIT_VALUE);
  54:Generated_Source\PSoC4/System_Timer.c ****         System_Timer_WriteCounter(System_Timer_QUAD_PERIOD_INIT_VALUE);
  55:Generated_Source\PSoC4/System_Timer.c ****     #endif  /* (System_Timer__QUAD == System_Timer_CONFIG) */
  56:Generated_Source\PSoC4/System_Timer.c **** 
  57:Generated_Source\PSoC4/System_Timer.c ****     #if (System_Timer__TIMER == System_Timer_CONFIG)
  58:Generated_Source\PSoC4/System_Timer.c ****         System_Timer_CONTROL_REG = System_Timer_CTRL_TIMER_BASE_CONFIG;
  40              		.loc 1 58 0
  41 0004 0A4B     		ldr	r3, .L2
  42 0006 0022     		mov	r2, #0
  43 0008 1A60     		str	r2, [r3]
  59:Generated_Source\PSoC4/System_Timer.c ****         
  60:Generated_Source\PSoC4/System_Timer.c ****         /* Set values from customizer to CTRL1 */
  61:Generated_Source\PSoC4/System_Timer.c ****         System_Timer_TRIG_CONTROL1_REG  = System_Timer_TIMER_SIGNALS_MODES;
  44              		.loc 1 61 0
  45 000a 0A4B     		ldr	r3, .L2+4
  46 000c 0C22     		mov	r2, #12
  47 000e 1A60     		str	r2, [r3]
  62:Generated_Source\PSoC4/System_Timer.c ****     
  63:Generated_Source\PSoC4/System_Timer.c ****         /* Set values from customizer to INTR */
  64:Generated_Source\PSoC4/System_Timer.c ****         System_Timer_SetInterruptMode(System_Timer_TC_INTERRUPT_MASK);
  48              		.loc 1 64 0
  49 0010 0120     		mov	r0, #1
  50 0012 FFF7FEFF 		bl	System_Timer_SetInterruptMode
ARM GAS  C:\Users\ADMINI~1.SC-\AppData\Local\Temp\ccEAhJMV.s 			page 3


  65:Generated_Source\PSoC4/System_Timer.c ****         
  66:Generated_Source\PSoC4/System_Timer.c ****         /* Set other values from customizer */
  67:Generated_Source\PSoC4/System_Timer.c ****         System_Timer_WritePeriod(System_Timer_TC_PERIOD_VALUE );
  51              		.loc 1 67 0
  52 0016 FA23     		mov	r3, #250
  53 0018 9B00     		lsl	r3, r3, #2
  54 001a 181C     		mov	r0, r3
  55 001c FFF7FEFF 		bl	System_Timer_WritePeriod
  68:Generated_Source\PSoC4/System_Timer.c **** 
  69:Generated_Source\PSoC4/System_Timer.c ****         #if (System_Timer__COMPARE == System_Timer_TC_COMP_CAP_MODE)
  70:Generated_Source\PSoC4/System_Timer.c ****             System_Timer_WriteCompare(System_Timer_TC_COMPARE_VALUE);
  56              		.loc 1 70 0
  57 0020 6420     		mov	r0, #100
  58 0022 FFF7FEFF 		bl	System_Timer_WriteCompare
  71:Generated_Source\PSoC4/System_Timer.c **** 
  72:Generated_Source\PSoC4/System_Timer.c ****             #if (1u == System_Timer_TC_COMPARE_SWAP)
  73:Generated_Source\PSoC4/System_Timer.c ****                 System_Timer_SetCompareSwap(1u);
  74:Generated_Source\PSoC4/System_Timer.c ****                 System_Timer_WriteCompareBuf(System_Timer_TC_COMPARE_BUF_VALUE);
  75:Generated_Source\PSoC4/System_Timer.c ****             #endif  /* (1u == System_Timer_TC_COMPARE_SWAP) */
  76:Generated_Source\PSoC4/System_Timer.c ****         #endif  /* (System_Timer__COMPARE == System_Timer_TC_COMP_CAP_MODE) */
  77:Generated_Source\PSoC4/System_Timer.c **** 
  78:Generated_Source\PSoC4/System_Timer.c ****         /* Initialize counter value */
  79:Generated_Source\PSoC4/System_Timer.c ****         #if (System_Timer_CY_TCPWM_V2 && System_Timer_TIMER_UPDOWN_CNT_USED && !System_Timer_CY_TCP
  80:Generated_Source\PSoC4/System_Timer.c ****             System_Timer_WriteCounter(1u);
  81:Generated_Source\PSoC4/System_Timer.c ****         #elif(System_Timer__COUNT_DOWN == System_Timer_TC_COUNTER_MODE)
  82:Generated_Source\PSoC4/System_Timer.c ****             System_Timer_WriteCounter(System_Timer_TC_PERIOD_VALUE);
  83:Generated_Source\PSoC4/System_Timer.c ****         #else
  84:Generated_Source\PSoC4/System_Timer.c ****             System_Timer_WriteCounter(0u);
  59              		.loc 1 84 0
  60 0026 0020     		mov	r0, #0
  61 0028 FFF7FEFF 		bl	System_Timer_WriteCounter
  85:Generated_Source\PSoC4/System_Timer.c ****         #endif /* (System_Timer_CY_TCPWM_V2 && System_Timer_TIMER_UPDOWN_CNT_USED && !System_Timer_
  86:Generated_Source\PSoC4/System_Timer.c ****     #endif  /* (System_Timer__TIMER == System_Timer_CONFIG) */
  87:Generated_Source\PSoC4/System_Timer.c **** 
  88:Generated_Source\PSoC4/System_Timer.c ****     #if (System_Timer__PWM_SEL == System_Timer_CONFIG)
  89:Generated_Source\PSoC4/System_Timer.c ****         System_Timer_CONTROL_REG = System_Timer_CTRL_PWM_BASE_CONFIG;
  90:Generated_Source\PSoC4/System_Timer.c **** 
  91:Generated_Source\PSoC4/System_Timer.c ****         #if (System_Timer__PWM_PR == System_Timer_PWM_MODE)
  92:Generated_Source\PSoC4/System_Timer.c ****             System_Timer_CONTROL_REG |= System_Timer_CTRL_PWM_RUN_MODE;
  93:Generated_Source\PSoC4/System_Timer.c ****             System_Timer_WriteCounter(System_Timer_PWM_PR_INIT_VALUE);
  94:Generated_Source\PSoC4/System_Timer.c ****         #else
  95:Generated_Source\PSoC4/System_Timer.c ****             System_Timer_CONTROL_REG |= System_Timer_CTRL_PWM_ALIGN | System_Timer_CTRL_PWM_KILL_EV
  96:Generated_Source\PSoC4/System_Timer.c ****             
  97:Generated_Source\PSoC4/System_Timer.c ****             /* Initialize counter value */
  98:Generated_Source\PSoC4/System_Timer.c ****             #if (System_Timer_CY_TCPWM_V2 && System_Timer_PWM_UPDOWN_CNT_USED && !System_Timer_CY_T
  99:Generated_Source\PSoC4/System_Timer.c ****                 System_Timer_WriteCounter(1u);
 100:Generated_Source\PSoC4/System_Timer.c ****             #elif (System_Timer__RIGHT == System_Timer_PWM_ALIGN)
 101:Generated_Source\PSoC4/System_Timer.c ****                 System_Timer_WriteCounter(System_Timer_PWM_PERIOD_VALUE);
 102:Generated_Source\PSoC4/System_Timer.c ****             #else 
 103:Generated_Source\PSoC4/System_Timer.c ****                 System_Timer_WriteCounter(0u);
 104:Generated_Source\PSoC4/System_Timer.c ****             #endif  /* (System_Timer_CY_TCPWM_V2 && System_Timer_PWM_UPDOWN_CNT_USED && !System_Tim
 105:Generated_Source\PSoC4/System_Timer.c ****         #endif  /* (System_Timer__PWM_PR == System_Timer_PWM_MODE) */
 106:Generated_Source\PSoC4/System_Timer.c **** 
 107:Generated_Source\PSoC4/System_Timer.c ****         #if (System_Timer__PWM_DT == System_Timer_PWM_MODE)
 108:Generated_Source\PSoC4/System_Timer.c ****             System_Timer_CONTROL_REG |= System_Timer_CTRL_PWM_DEAD_TIME_CYCLE;
 109:Generated_Source\PSoC4/System_Timer.c ****         #endif  /* (System_Timer__PWM_DT == System_Timer_PWM_MODE) */
 110:Generated_Source\PSoC4/System_Timer.c **** 
ARM GAS  C:\Users\ADMINI~1.SC-\AppData\Local\Temp\ccEAhJMV.s 			page 4


 111:Generated_Source\PSoC4/System_Timer.c ****         #if (System_Timer__PWM == System_Timer_PWM_MODE)
 112:Generated_Source\PSoC4/System_Timer.c ****             System_Timer_CONTROL_REG |= System_Timer_CTRL_PWM_PRESCALER;
 113:Generated_Source\PSoC4/System_Timer.c ****         #endif  /* (System_Timer__PWM == System_Timer_PWM_MODE) */
 114:Generated_Source\PSoC4/System_Timer.c **** 
 115:Generated_Source\PSoC4/System_Timer.c ****         /* Set values from customizer to CTRL1 */
 116:Generated_Source\PSoC4/System_Timer.c ****         System_Timer_TRIG_CONTROL1_REG  = System_Timer_PWM_SIGNALS_MODES;
 117:Generated_Source\PSoC4/System_Timer.c ****     
 118:Generated_Source\PSoC4/System_Timer.c ****         /* Set values from customizer to INTR */
 119:Generated_Source\PSoC4/System_Timer.c ****         System_Timer_SetInterruptMode(System_Timer_PWM_INTERRUPT_MASK);
 120:Generated_Source\PSoC4/System_Timer.c **** 
 121:Generated_Source\PSoC4/System_Timer.c ****         /* Set values from customizer to CTRL2 */
 122:Generated_Source\PSoC4/System_Timer.c ****         #if (System_Timer__PWM_PR == System_Timer_PWM_MODE)
 123:Generated_Source\PSoC4/System_Timer.c ****             System_Timer_TRIG_CONTROL2_REG =
 124:Generated_Source\PSoC4/System_Timer.c ****                     (System_Timer_CC_MATCH_NO_CHANGE    |
 125:Generated_Source\PSoC4/System_Timer.c ****                     System_Timer_OVERLOW_NO_CHANGE      |
 126:Generated_Source\PSoC4/System_Timer.c ****                     System_Timer_UNDERFLOW_NO_CHANGE);
 127:Generated_Source\PSoC4/System_Timer.c ****         #else
 128:Generated_Source\PSoC4/System_Timer.c ****             #if (System_Timer__LEFT == System_Timer_PWM_ALIGN)
 129:Generated_Source\PSoC4/System_Timer.c ****                 System_Timer_TRIG_CONTROL2_REG = System_Timer_PWM_MODE_LEFT;
 130:Generated_Source\PSoC4/System_Timer.c ****             #endif  /* ( System_Timer_PWM_LEFT == System_Timer_PWM_ALIGN) */
 131:Generated_Source\PSoC4/System_Timer.c **** 
 132:Generated_Source\PSoC4/System_Timer.c ****             #if (System_Timer__RIGHT == System_Timer_PWM_ALIGN)
 133:Generated_Source\PSoC4/System_Timer.c ****                 System_Timer_TRIG_CONTROL2_REG = System_Timer_PWM_MODE_RIGHT;
 134:Generated_Source\PSoC4/System_Timer.c ****             #endif  /* ( System_Timer_PWM_RIGHT == System_Timer_PWM_ALIGN) */
 135:Generated_Source\PSoC4/System_Timer.c **** 
 136:Generated_Source\PSoC4/System_Timer.c ****             #if (System_Timer__CENTER == System_Timer_PWM_ALIGN)
 137:Generated_Source\PSoC4/System_Timer.c ****                 System_Timer_TRIG_CONTROL2_REG = System_Timer_PWM_MODE_CENTER;
 138:Generated_Source\PSoC4/System_Timer.c ****             #endif  /* ( System_Timer_PWM_CENTER == System_Timer_PWM_ALIGN) */
 139:Generated_Source\PSoC4/System_Timer.c **** 
 140:Generated_Source\PSoC4/System_Timer.c ****             #if (System_Timer__ASYMMETRIC == System_Timer_PWM_ALIGN)
 141:Generated_Source\PSoC4/System_Timer.c ****                 System_Timer_TRIG_CONTROL2_REG = System_Timer_PWM_MODE_ASYM;
 142:Generated_Source\PSoC4/System_Timer.c ****             #endif  /* (System_Timer__ASYMMETRIC == System_Timer_PWM_ALIGN) */
 143:Generated_Source\PSoC4/System_Timer.c ****         #endif  /* (System_Timer__PWM_PR == System_Timer_PWM_MODE) */
 144:Generated_Source\PSoC4/System_Timer.c **** 
 145:Generated_Source\PSoC4/System_Timer.c ****         /* Set other values from customizer */
 146:Generated_Source\PSoC4/System_Timer.c ****         System_Timer_WritePeriod(System_Timer_PWM_PERIOD_VALUE );
 147:Generated_Source\PSoC4/System_Timer.c ****         System_Timer_WriteCompare(System_Timer_PWM_COMPARE_VALUE);
 148:Generated_Source\PSoC4/System_Timer.c **** 
 149:Generated_Source\PSoC4/System_Timer.c ****         #if (1u == System_Timer_PWM_COMPARE_SWAP)
 150:Generated_Source\PSoC4/System_Timer.c ****             System_Timer_SetCompareSwap(1u);
 151:Generated_Source\PSoC4/System_Timer.c ****             System_Timer_WriteCompareBuf(System_Timer_PWM_COMPARE_BUF_VALUE);
 152:Generated_Source\PSoC4/System_Timer.c ****         #endif  /* (1u == System_Timer_PWM_COMPARE_SWAP) */
 153:Generated_Source\PSoC4/System_Timer.c **** 
 154:Generated_Source\PSoC4/System_Timer.c ****         #if (1u == System_Timer_PWM_PERIOD_SWAP)
 155:Generated_Source\PSoC4/System_Timer.c ****             System_Timer_SetPeriodSwap(1u);
 156:Generated_Source\PSoC4/System_Timer.c ****             System_Timer_WritePeriodBuf(System_Timer_PWM_PERIOD_BUF_VALUE);
 157:Generated_Source\PSoC4/System_Timer.c ****         #endif  /* (1u == System_Timer_PWM_PERIOD_SWAP) */
 158:Generated_Source\PSoC4/System_Timer.c ****     #endif  /* (System_Timer__PWM_SEL == System_Timer_CONFIG) */
 159:Generated_Source\PSoC4/System_Timer.c ****     
 160:Generated_Source\PSoC4/System_Timer.c **** }
  62              		.loc 1 160 0
  63 002c BD46     		mov	sp, r7
  64              		@ sp needed
  65 002e 80BD     		pop	{r7, pc}
  66              	.L3:
  67              		.align	2
  68              	.L2:
ARM GAS  C:\Users\ADMINI~1.SC-\AppData\Local\Temp\ccEAhJMV.s 			page 5


  69 0030 00012040 		.word	1075839232
  70 0034 24012040 		.word	1075839268
  71              		.cfi_endproc
  72              	.LFE2:
  73              		.size	System_Timer_Init, .-System_Timer_Init
  74              		.section	.text.System_Timer_Enable,"ax",%progbits
  75              		.align	2
  76              		.global	System_Timer_Enable
  77              		.code	16
  78              		.thumb_func
  79              		.type	System_Timer_Enable, %function
  80              	System_Timer_Enable:
  81              	.LFB3:
 161:Generated_Source\PSoC4/System_Timer.c **** 
 162:Generated_Source\PSoC4/System_Timer.c **** 
 163:Generated_Source\PSoC4/System_Timer.c **** /*******************************************************************************
 164:Generated_Source\PSoC4/System_Timer.c **** * Function Name: System_Timer_Enable
 165:Generated_Source\PSoC4/System_Timer.c **** ********************************************************************************
 166:Generated_Source\PSoC4/System_Timer.c **** *
 167:Generated_Source\PSoC4/System_Timer.c **** * Summary:
 168:Generated_Source\PSoC4/System_Timer.c **** *  Enables the System_Timer.
 169:Generated_Source\PSoC4/System_Timer.c **** *
 170:Generated_Source\PSoC4/System_Timer.c **** * Parameters:
 171:Generated_Source\PSoC4/System_Timer.c **** *  None
 172:Generated_Source\PSoC4/System_Timer.c **** *
 173:Generated_Source\PSoC4/System_Timer.c **** * Return:
 174:Generated_Source\PSoC4/System_Timer.c **** *  None
 175:Generated_Source\PSoC4/System_Timer.c **** *
 176:Generated_Source\PSoC4/System_Timer.c **** *******************************************************************************/
 177:Generated_Source\PSoC4/System_Timer.c **** void System_Timer_Enable(void)
 178:Generated_Source\PSoC4/System_Timer.c **** {
  82              		.loc 1 178 0
  83              		.cfi_startproc
  84 0000 90B5     		push	{r4, r7, lr}
  85              		.cfi_def_cfa_offset 12
  86              		.cfi_offset 4, -12
  87              		.cfi_offset 7, -8
  88              		.cfi_offset 14, -4
  89 0002 83B0     		sub	sp, sp, #12
  90              		.cfi_def_cfa_offset 24
  91 0004 00AF     		add	r7, sp, #0
  92              		.cfi_def_cfa_register 7
 179:Generated_Source\PSoC4/System_Timer.c ****     uint8 enableInterrupts;
 180:Generated_Source\PSoC4/System_Timer.c **** 
 181:Generated_Source\PSoC4/System_Timer.c ****     enableInterrupts = CyEnterCriticalSection();
  93              		.loc 1 181 0
  94 0006 FC1D     		add	r4, r7, #7
  95 0008 FFF7FEFF 		bl	CyEnterCriticalSection
  96 000c 031C     		mov	r3, r0
  97 000e 2370     		strb	r3, [r4]
 182:Generated_Source\PSoC4/System_Timer.c ****     System_Timer_BLOCK_CONTROL_REG |= System_Timer_MASK;
  98              		.loc 1 182 0
  99 0010 084B     		ldr	r3, .L5
 100 0012 084A     		ldr	r2, .L5
 101 0014 1268     		ldr	r2, [r2]
 102 0016 0121     		mov	r1, #1
 103 0018 0A43     		orr	r2, r1
ARM GAS  C:\Users\ADMINI~1.SC-\AppData\Local\Temp\ccEAhJMV.s 			page 6


 104 001a 1A60     		str	r2, [r3]
 183:Generated_Source\PSoC4/System_Timer.c ****     CyExitCriticalSection(enableInterrupts);
 105              		.loc 1 183 0
 106 001c FB1D     		add	r3, r7, #7
 107 001e 1B78     		ldrb	r3, [r3]
 108 0020 181C     		mov	r0, r3
 109 0022 FFF7FEFF 		bl	CyExitCriticalSection
 184:Generated_Source\PSoC4/System_Timer.c **** 
 185:Generated_Source\PSoC4/System_Timer.c ****     /* Start Timer or PWM if start input is absent */
 186:Generated_Source\PSoC4/System_Timer.c ****     #if (System_Timer__PWM_SEL == System_Timer_CONFIG)
 187:Generated_Source\PSoC4/System_Timer.c ****         #if (0u == System_Timer_PWM_START_SIGNAL_PRESENT)
 188:Generated_Source\PSoC4/System_Timer.c ****             System_Timer_TriggerCommand(System_Timer_MASK, System_Timer_CMD_START);
 189:Generated_Source\PSoC4/System_Timer.c ****         #endif /* (0u == System_Timer_PWM_START_SIGNAL_PRESENT) */
 190:Generated_Source\PSoC4/System_Timer.c ****     #endif /* (System_Timer__PWM_SEL == System_Timer_CONFIG) */
 191:Generated_Source\PSoC4/System_Timer.c **** 
 192:Generated_Source\PSoC4/System_Timer.c ****     #if (System_Timer__TIMER == System_Timer_CONFIG)
 193:Generated_Source\PSoC4/System_Timer.c ****         #if (0u == System_Timer_TC_START_SIGNAL_PRESENT)
 194:Generated_Source\PSoC4/System_Timer.c ****             System_Timer_TriggerCommand(System_Timer_MASK, System_Timer_CMD_START);
 110              		.loc 1 194 0
 111 0026 0120     		mov	r0, #1
 112 0028 1821     		mov	r1, #24
 113 002a FFF7FEFF 		bl	System_Timer_TriggerCommand
 195:Generated_Source\PSoC4/System_Timer.c ****         #endif /* (0u == System_Timer_TC_START_SIGNAL_PRESENT) */
 196:Generated_Source\PSoC4/System_Timer.c ****     #endif /* (System_Timer__TIMER == System_Timer_CONFIG) */
 197:Generated_Source\PSoC4/System_Timer.c **** }
 114              		.loc 1 197 0
 115 002e BD46     		mov	sp, r7
 116 0030 03B0     		add	sp, sp, #12
 117              		@ sp needed
 118 0032 90BD     		pop	{r4, r7, pc}
 119              	.L6:
 120              		.align	2
 121              	.L5:
 122 0034 00002040 		.word	1075838976
 123              		.cfi_endproc
 124              	.LFE3:
 125              		.size	System_Timer_Enable, .-System_Timer_Enable
 126              		.section	.text.System_Timer_Start,"ax",%progbits
 127              		.align	2
 128              		.global	System_Timer_Start
 129              		.code	16
 130              		.thumb_func
 131              		.type	System_Timer_Start, %function
 132              	System_Timer_Start:
 133              	.LFB4:
 198:Generated_Source\PSoC4/System_Timer.c **** 
 199:Generated_Source\PSoC4/System_Timer.c **** 
 200:Generated_Source\PSoC4/System_Timer.c **** /*******************************************************************************
 201:Generated_Source\PSoC4/System_Timer.c **** * Function Name: System_Timer_Start
 202:Generated_Source\PSoC4/System_Timer.c **** ********************************************************************************
 203:Generated_Source\PSoC4/System_Timer.c **** *
 204:Generated_Source\PSoC4/System_Timer.c **** * Summary:
 205:Generated_Source\PSoC4/System_Timer.c **** *  Initializes the System_Timer with default customizer
 206:Generated_Source\PSoC4/System_Timer.c **** *  values when called the first time and enables the System_Timer.
 207:Generated_Source\PSoC4/System_Timer.c **** *  For subsequent calls the configuration is left unchanged and the component is
 208:Generated_Source\PSoC4/System_Timer.c **** *  just enabled.
 209:Generated_Source\PSoC4/System_Timer.c **** *
ARM GAS  C:\Users\ADMINI~1.SC-\AppData\Local\Temp\ccEAhJMV.s 			page 7


 210:Generated_Source\PSoC4/System_Timer.c **** * Parameters:
 211:Generated_Source\PSoC4/System_Timer.c **** *  None
 212:Generated_Source\PSoC4/System_Timer.c **** *
 213:Generated_Source\PSoC4/System_Timer.c **** * Return:
 214:Generated_Source\PSoC4/System_Timer.c **** *  None
 215:Generated_Source\PSoC4/System_Timer.c **** *
 216:Generated_Source\PSoC4/System_Timer.c **** * Global variables:
 217:Generated_Source\PSoC4/System_Timer.c **** *  System_Timer_initVar: global variable is used to indicate initial
 218:Generated_Source\PSoC4/System_Timer.c **** *  configuration of this component.  The variable is initialized to zero and set
 219:Generated_Source\PSoC4/System_Timer.c **** *  to 1 the first time System_Timer_Start() is called. This allows
 220:Generated_Source\PSoC4/System_Timer.c **** *  enabling/disabling a component without re-initialization in all subsequent
 221:Generated_Source\PSoC4/System_Timer.c **** *  calls to the System_Timer_Start() routine.
 222:Generated_Source\PSoC4/System_Timer.c **** *
 223:Generated_Source\PSoC4/System_Timer.c **** *******************************************************************************/
 224:Generated_Source\PSoC4/System_Timer.c **** void System_Timer_Start(void)
 225:Generated_Source\PSoC4/System_Timer.c **** {
 134              		.loc 1 225 0
 135              		.cfi_startproc
 136 0000 80B5     		push	{r7, lr}
 137              		.cfi_def_cfa_offset 8
 138              		.cfi_offset 7, -8
 139              		.cfi_offset 14, -4
 140 0002 00AF     		add	r7, sp, #0
 141              		.cfi_def_cfa_register 7
 226:Generated_Source\PSoC4/System_Timer.c ****     if (0u == System_Timer_initVar)
 142              		.loc 1 226 0
 143 0004 064B     		ldr	r3, .L9
 144 0006 1B78     		ldrb	r3, [r3]
 145 0008 002B     		cmp	r3, #0
 146 000a 04D1     		bne	.L8
 227:Generated_Source\PSoC4/System_Timer.c ****     {
 228:Generated_Source\PSoC4/System_Timer.c ****         System_Timer_Init();
 147              		.loc 1 228 0
 148 000c FFF7FEFF 		bl	System_Timer_Init
 229:Generated_Source\PSoC4/System_Timer.c ****         System_Timer_initVar = 1u;
 149              		.loc 1 229 0
 150 0010 034B     		ldr	r3, .L9
 151 0012 0122     		mov	r2, #1
 152 0014 1A70     		strb	r2, [r3]
 153              	.L8:
 230:Generated_Source\PSoC4/System_Timer.c ****     }
 231:Generated_Source\PSoC4/System_Timer.c **** 
 232:Generated_Source\PSoC4/System_Timer.c ****     System_Timer_Enable();
 154              		.loc 1 232 0
 155 0016 FFF7FEFF 		bl	System_Timer_Enable
 233:Generated_Source\PSoC4/System_Timer.c **** }
 156              		.loc 1 233 0
 157 001a BD46     		mov	sp, r7
 158              		@ sp needed
 159 001c 80BD     		pop	{r7, pc}
 160              	.L10:
 161 001e C046     		.align	2
 162              	.L9:
 163 0020 00000000 		.word	System_Timer_initVar
 164              		.cfi_endproc
 165              	.LFE4:
 166              		.size	System_Timer_Start, .-System_Timer_Start
ARM GAS  C:\Users\ADMINI~1.SC-\AppData\Local\Temp\ccEAhJMV.s 			page 8


 167              		.section	.text.System_Timer_Stop,"ax",%progbits
 168              		.align	2
 169              		.global	System_Timer_Stop
 170              		.code	16
 171              		.thumb_func
 172              		.type	System_Timer_Stop, %function
 173              	System_Timer_Stop:
 174              	.LFB5:
 234:Generated_Source\PSoC4/System_Timer.c **** 
 235:Generated_Source\PSoC4/System_Timer.c **** 
 236:Generated_Source\PSoC4/System_Timer.c **** /*******************************************************************************
 237:Generated_Source\PSoC4/System_Timer.c **** * Function Name: System_Timer_Stop
 238:Generated_Source\PSoC4/System_Timer.c **** ********************************************************************************
 239:Generated_Source\PSoC4/System_Timer.c **** *
 240:Generated_Source\PSoC4/System_Timer.c **** * Summary:
 241:Generated_Source\PSoC4/System_Timer.c **** *  Disables the System_Timer.
 242:Generated_Source\PSoC4/System_Timer.c **** *
 243:Generated_Source\PSoC4/System_Timer.c **** * Parameters:
 244:Generated_Source\PSoC4/System_Timer.c **** *  None
 245:Generated_Source\PSoC4/System_Timer.c **** *
 246:Generated_Source\PSoC4/System_Timer.c **** * Return:
 247:Generated_Source\PSoC4/System_Timer.c **** *  None
 248:Generated_Source\PSoC4/System_Timer.c **** *
 249:Generated_Source\PSoC4/System_Timer.c **** *******************************************************************************/
 250:Generated_Source\PSoC4/System_Timer.c **** void System_Timer_Stop(void)
 251:Generated_Source\PSoC4/System_Timer.c **** {
 175              		.loc 1 251 0
 176              		.cfi_startproc
 177 0000 90B5     		push	{r4, r7, lr}
 178              		.cfi_def_cfa_offset 12
 179              		.cfi_offset 4, -12
 180              		.cfi_offset 7, -8
 181              		.cfi_offset 14, -4
 182 0002 83B0     		sub	sp, sp, #12
 183              		.cfi_def_cfa_offset 24
 184 0004 00AF     		add	r7, sp, #0
 185              		.cfi_def_cfa_register 7
 252:Generated_Source\PSoC4/System_Timer.c ****     uint8 enableInterrupts;
 253:Generated_Source\PSoC4/System_Timer.c **** 
 254:Generated_Source\PSoC4/System_Timer.c ****     enableInterrupts = CyEnterCriticalSection();
 186              		.loc 1 254 0
 187 0006 FC1D     		add	r4, r7, #7
 188 0008 FFF7FEFF 		bl	CyEnterCriticalSection
 189 000c 031C     		mov	r3, r0
 190 000e 2370     		strb	r3, [r4]
 255:Generated_Source\PSoC4/System_Timer.c **** 
 256:Generated_Source\PSoC4/System_Timer.c ****     System_Timer_BLOCK_CONTROL_REG &= (uint32)~System_Timer_MASK;
 191              		.loc 1 256 0
 192 0010 064B     		ldr	r3, .L12
 193 0012 064A     		ldr	r2, .L12
 194 0014 1268     		ldr	r2, [r2]
 195 0016 0121     		mov	r1, #1
 196 0018 8A43     		bic	r2, r1
 197 001a 1A60     		str	r2, [r3]
 257:Generated_Source\PSoC4/System_Timer.c **** 
 258:Generated_Source\PSoC4/System_Timer.c ****     CyExitCriticalSection(enableInterrupts);
 198              		.loc 1 258 0
ARM GAS  C:\Users\ADMINI~1.SC-\AppData\Local\Temp\ccEAhJMV.s 			page 9


 199 001c FB1D     		add	r3, r7, #7
 200 001e 1B78     		ldrb	r3, [r3]
 201 0020 181C     		mov	r0, r3
 202 0022 FFF7FEFF 		bl	CyExitCriticalSection
 259:Generated_Source\PSoC4/System_Timer.c **** }
 203              		.loc 1 259 0
 204 0026 BD46     		mov	sp, r7
 205 0028 03B0     		add	sp, sp, #12
 206              		@ sp needed
 207 002a 90BD     		pop	{r4, r7, pc}
 208              	.L13:
 209              		.align	2
 210              	.L12:
 211 002c 00002040 		.word	1075838976
 212              		.cfi_endproc
 213              	.LFE5:
 214              		.size	System_Timer_Stop, .-System_Timer_Stop
 215              		.section	.text.System_Timer_SetMode,"ax",%progbits
 216              		.align	2
 217              		.global	System_Timer_SetMode
 218              		.code	16
 219              		.thumb_func
 220              		.type	System_Timer_SetMode, %function
 221              	System_Timer_SetMode:
 222              	.LFB6:
 260:Generated_Source\PSoC4/System_Timer.c **** 
 261:Generated_Source\PSoC4/System_Timer.c **** 
 262:Generated_Source\PSoC4/System_Timer.c **** /*******************************************************************************
 263:Generated_Source\PSoC4/System_Timer.c **** * Function Name: System_Timer_SetMode
 264:Generated_Source\PSoC4/System_Timer.c **** ********************************************************************************
 265:Generated_Source\PSoC4/System_Timer.c **** *
 266:Generated_Source\PSoC4/System_Timer.c **** * Summary:
 267:Generated_Source\PSoC4/System_Timer.c **** *  Sets the operation mode of the System_Timer. This function is used when
 268:Generated_Source\PSoC4/System_Timer.c **** *  configured as a generic System_Timer and the actual mode of operation is
 269:Generated_Source\PSoC4/System_Timer.c **** *  set at runtime. The mode must be set while the component is disabled.
 270:Generated_Source\PSoC4/System_Timer.c **** *
 271:Generated_Source\PSoC4/System_Timer.c **** * Parameters:
 272:Generated_Source\PSoC4/System_Timer.c **** *  mode: Mode for the System_Timer to operate in
 273:Generated_Source\PSoC4/System_Timer.c **** *   Values:
 274:Generated_Source\PSoC4/System_Timer.c **** *   - System_Timer_MODE_TIMER_COMPARE - Timer / Counter with
 275:Generated_Source\PSoC4/System_Timer.c **** *                                                 compare capability
 276:Generated_Source\PSoC4/System_Timer.c **** *         - System_Timer_MODE_TIMER_CAPTURE - Timer / Counter with
 277:Generated_Source\PSoC4/System_Timer.c **** *                                                 capture capability
 278:Generated_Source\PSoC4/System_Timer.c **** *         - System_Timer_MODE_QUAD - Quadrature decoder
 279:Generated_Source\PSoC4/System_Timer.c **** *         - System_Timer_MODE_PWM - PWM
 280:Generated_Source\PSoC4/System_Timer.c **** *         - System_Timer_MODE_PWM_DT - PWM with dead time
 281:Generated_Source\PSoC4/System_Timer.c **** *         - System_Timer_MODE_PWM_PR - PWM with pseudo random capability
 282:Generated_Source\PSoC4/System_Timer.c **** *
 283:Generated_Source\PSoC4/System_Timer.c **** * Return:
 284:Generated_Source\PSoC4/System_Timer.c **** *  None
 285:Generated_Source\PSoC4/System_Timer.c **** *
 286:Generated_Source\PSoC4/System_Timer.c **** *******************************************************************************/
 287:Generated_Source\PSoC4/System_Timer.c **** void System_Timer_SetMode(uint32 mode)
 288:Generated_Source\PSoC4/System_Timer.c **** {
 223              		.loc 1 288 0
 224              		.cfi_startproc
 225 0000 90B5     		push	{r4, r7, lr}
ARM GAS  C:\Users\ADMINI~1.SC-\AppData\Local\Temp\ccEAhJMV.s 			page 10


 226              		.cfi_def_cfa_offset 12
 227              		.cfi_offset 4, -12
 228              		.cfi_offset 7, -8
 229              		.cfi_offset 14, -4
 230 0002 85B0     		sub	sp, sp, #20
 231              		.cfi_def_cfa_offset 32
 232 0004 00AF     		add	r7, sp, #0
 233              		.cfi_def_cfa_register 7
 234 0006 7860     		str	r0, [r7, #4]
 289:Generated_Source\PSoC4/System_Timer.c ****     uint8 enableInterrupts;
 290:Generated_Source\PSoC4/System_Timer.c **** 
 291:Generated_Source\PSoC4/System_Timer.c ****     enableInterrupts = CyEnterCriticalSection();
 235              		.loc 1 291 0
 236 0008 0F23     		mov	r3, #15
 237 000a FC18     		add	r4, r7, r3
 238 000c FFF7FEFF 		bl	CyEnterCriticalSection
 239 0010 031C     		mov	r3, r0
 240 0012 2370     		strb	r3, [r4]
 292:Generated_Source\PSoC4/System_Timer.c **** 
 293:Generated_Source\PSoC4/System_Timer.c ****     System_Timer_CONTROL_REG &= (uint32)~System_Timer_MODE_MASK;
 241              		.loc 1 293 0
 242 0014 0A4B     		ldr	r3, .L15
 243 0016 0A4A     		ldr	r2, .L15
 244 0018 1268     		ldr	r2, [r2]
 245 001a 0A49     		ldr	r1, .L15+4
 246 001c 0A40     		and	r2, r1
 247 001e 1A60     		str	r2, [r3]
 294:Generated_Source\PSoC4/System_Timer.c ****     System_Timer_CONTROL_REG |= mode;
 248              		.loc 1 294 0
 249 0020 074B     		ldr	r3, .L15
 250 0022 074A     		ldr	r2, .L15
 251 0024 1168     		ldr	r1, [r2]
 252 0026 7A68     		ldr	r2, [r7, #4]
 253 0028 0A43     		orr	r2, r1
 254 002a 1A60     		str	r2, [r3]
 295:Generated_Source\PSoC4/System_Timer.c **** 
 296:Generated_Source\PSoC4/System_Timer.c ****     CyExitCriticalSection(enableInterrupts);
 255              		.loc 1 296 0
 256 002c 0F23     		mov	r3, #15
 257 002e FB18     		add	r3, r7, r3
 258 0030 1B78     		ldrb	r3, [r3]
 259 0032 181C     		mov	r0, r3
 260 0034 FFF7FEFF 		bl	CyExitCriticalSection
 297:Generated_Source\PSoC4/System_Timer.c **** }
 261              		.loc 1 297 0
 262 0038 BD46     		mov	sp, r7
 263 003a 05B0     		add	sp, sp, #20
 264              		@ sp needed
 265 003c 90BD     		pop	{r4, r7, pc}
 266              	.L16:
 267 003e C046     		.align	2
 268              	.L15:
 269 0040 00012040 		.word	1075839232
 270 0044 FFFFFFF8 		.word	-117440513
 271              		.cfi_endproc
 272              	.LFE6:
 273              		.size	System_Timer_SetMode, .-System_Timer_SetMode
ARM GAS  C:\Users\ADMINI~1.SC-\AppData\Local\Temp\ccEAhJMV.s 			page 11


 274              		.section	.text.System_Timer_SetQDMode,"ax",%progbits
 275              		.align	2
 276              		.global	System_Timer_SetQDMode
 277              		.code	16
 278              		.thumb_func
 279              		.type	System_Timer_SetQDMode, %function
 280              	System_Timer_SetQDMode:
 281              	.LFB7:
 298:Generated_Source\PSoC4/System_Timer.c **** 
 299:Generated_Source\PSoC4/System_Timer.c **** 
 300:Generated_Source\PSoC4/System_Timer.c **** /*******************************************************************************
 301:Generated_Source\PSoC4/System_Timer.c **** * Function Name: System_Timer_SetQDMode
 302:Generated_Source\PSoC4/System_Timer.c **** ********************************************************************************
 303:Generated_Source\PSoC4/System_Timer.c **** *
 304:Generated_Source\PSoC4/System_Timer.c **** * Summary:
 305:Generated_Source\PSoC4/System_Timer.c **** *  Sets the the Quadrature Decoder to one of the 3 supported modes.
 306:Generated_Source\PSoC4/System_Timer.c **** *  Its functionality is only applicable to Quadrature Decoder operation.
 307:Generated_Source\PSoC4/System_Timer.c **** *
 308:Generated_Source\PSoC4/System_Timer.c **** * Parameters:
 309:Generated_Source\PSoC4/System_Timer.c **** *  qdMode: Quadrature Decoder mode
 310:Generated_Source\PSoC4/System_Timer.c **** *   Values:
 311:Generated_Source\PSoC4/System_Timer.c **** *         - System_Timer_MODE_X1 - Counts on phi 1 rising
 312:Generated_Source\PSoC4/System_Timer.c **** *         - System_Timer_MODE_X2 - Counts on both edges of phi1 (2x faster)
 313:Generated_Source\PSoC4/System_Timer.c **** *         - System_Timer_MODE_X4 - Counts on both edges of phi1 and phi2
 314:Generated_Source\PSoC4/System_Timer.c **** *                                        (4x faster)
 315:Generated_Source\PSoC4/System_Timer.c **** *
 316:Generated_Source\PSoC4/System_Timer.c **** * Return:
 317:Generated_Source\PSoC4/System_Timer.c **** *  None
 318:Generated_Source\PSoC4/System_Timer.c **** *
 319:Generated_Source\PSoC4/System_Timer.c **** *******************************************************************************/
 320:Generated_Source\PSoC4/System_Timer.c **** void System_Timer_SetQDMode(uint32 qdMode)
 321:Generated_Source\PSoC4/System_Timer.c **** {
 282              		.loc 1 321 0
 283              		.cfi_startproc
 284 0000 90B5     		push	{r4, r7, lr}
 285              		.cfi_def_cfa_offset 12
 286              		.cfi_offset 4, -12
 287              		.cfi_offset 7, -8
 288              		.cfi_offset 14, -4
 289 0002 85B0     		sub	sp, sp, #20
 290              		.cfi_def_cfa_offset 32
 291 0004 00AF     		add	r7, sp, #0
 292              		.cfi_def_cfa_register 7
 293 0006 7860     		str	r0, [r7, #4]
 322:Generated_Source\PSoC4/System_Timer.c ****     uint8 enableInterrupts;
 323:Generated_Source\PSoC4/System_Timer.c **** 
 324:Generated_Source\PSoC4/System_Timer.c ****     enableInterrupts = CyEnterCriticalSection();
 294              		.loc 1 324 0
 295 0008 0F23     		mov	r3, #15
 296 000a FC18     		add	r4, r7, r3
 297 000c FFF7FEFF 		bl	CyEnterCriticalSection
 298 0010 031C     		mov	r3, r0
 299 0012 2370     		strb	r3, [r4]
 325:Generated_Source\PSoC4/System_Timer.c **** 
 326:Generated_Source\PSoC4/System_Timer.c ****     System_Timer_CONTROL_REG &= (uint32)~System_Timer_QUAD_MODE_MASK;
 300              		.loc 1 326 0
 301 0014 0A4B     		ldr	r3, .L18
ARM GAS  C:\Users\ADMINI~1.SC-\AppData\Local\Temp\ccEAhJMV.s 			page 12


 302 0016 0A4A     		ldr	r2, .L18
 303 0018 1268     		ldr	r2, [r2]
 304 001a 0A49     		ldr	r1, .L18+4
 305 001c 0A40     		and	r2, r1
 306 001e 1A60     		str	r2, [r3]
 327:Generated_Source\PSoC4/System_Timer.c ****     System_Timer_CONTROL_REG |= qdMode;
 307              		.loc 1 327 0
 308 0020 074B     		ldr	r3, .L18
 309 0022 074A     		ldr	r2, .L18
 310 0024 1168     		ldr	r1, [r2]
 311 0026 7A68     		ldr	r2, [r7, #4]
 312 0028 0A43     		orr	r2, r1
 313 002a 1A60     		str	r2, [r3]
 328:Generated_Source\PSoC4/System_Timer.c **** 
 329:Generated_Source\PSoC4/System_Timer.c ****     CyExitCriticalSection(enableInterrupts);
 314              		.loc 1 329 0
 315 002c 0F23     		mov	r3, #15
 316 002e FB18     		add	r3, r7, r3
 317 0030 1B78     		ldrb	r3, [r3]
 318 0032 181C     		mov	r0, r3
 319 0034 FFF7FEFF 		bl	CyExitCriticalSection
 330:Generated_Source\PSoC4/System_Timer.c **** }
 320              		.loc 1 330 0
 321 0038 BD46     		mov	sp, r7
 322 003a 05B0     		add	sp, sp, #20
 323              		@ sp needed
 324 003c 90BD     		pop	{r4, r7, pc}
 325              	.L19:
 326 003e C046     		.align	2
 327              	.L18:
 328 0040 00012040 		.word	1075839232
 329 0044 FFFF8FFF 		.word	-7340033
 330              		.cfi_endproc
 331              	.LFE7:
 332              		.size	System_Timer_SetQDMode, .-System_Timer_SetQDMode
 333              		.section	.text.System_Timer_SetPrescaler,"ax",%progbits
 334              		.align	2
 335              		.global	System_Timer_SetPrescaler
 336              		.code	16
 337              		.thumb_func
 338              		.type	System_Timer_SetPrescaler, %function
 339              	System_Timer_SetPrescaler:
 340              	.LFB8:
 331:Generated_Source\PSoC4/System_Timer.c **** 
 332:Generated_Source\PSoC4/System_Timer.c **** 
 333:Generated_Source\PSoC4/System_Timer.c **** /*******************************************************************************
 334:Generated_Source\PSoC4/System_Timer.c **** * Function Name: System_Timer_SetPrescaler
 335:Generated_Source\PSoC4/System_Timer.c **** ********************************************************************************
 336:Generated_Source\PSoC4/System_Timer.c **** *
 337:Generated_Source\PSoC4/System_Timer.c **** * Summary:
 338:Generated_Source\PSoC4/System_Timer.c **** *  Sets the prescaler value that is applied to the clock input.  Not applicable
 339:Generated_Source\PSoC4/System_Timer.c **** *  to a PWM with the dead time mode or Quadrature Decoder mode.
 340:Generated_Source\PSoC4/System_Timer.c **** *
 341:Generated_Source\PSoC4/System_Timer.c **** * Parameters:
 342:Generated_Source\PSoC4/System_Timer.c **** *  prescaler: Prescaler divider value
 343:Generated_Source\PSoC4/System_Timer.c **** *   Values:
 344:Generated_Source\PSoC4/System_Timer.c **** *         - System_Timer_PRESCALE_DIVBY1    - Divide by 1 (no prescaling)
ARM GAS  C:\Users\ADMINI~1.SC-\AppData\Local\Temp\ccEAhJMV.s 			page 13


 345:Generated_Source\PSoC4/System_Timer.c **** *         - System_Timer_PRESCALE_DIVBY2    - Divide by 2
 346:Generated_Source\PSoC4/System_Timer.c **** *         - System_Timer_PRESCALE_DIVBY4    - Divide by 4
 347:Generated_Source\PSoC4/System_Timer.c **** *         - System_Timer_PRESCALE_DIVBY8    - Divide by 8
 348:Generated_Source\PSoC4/System_Timer.c **** *         - System_Timer_PRESCALE_DIVBY16   - Divide by 16
 349:Generated_Source\PSoC4/System_Timer.c **** *         - System_Timer_PRESCALE_DIVBY32   - Divide by 32
 350:Generated_Source\PSoC4/System_Timer.c **** *         - System_Timer_PRESCALE_DIVBY64   - Divide by 64
 351:Generated_Source\PSoC4/System_Timer.c **** *         - System_Timer_PRESCALE_DIVBY128  - Divide by 128
 352:Generated_Source\PSoC4/System_Timer.c **** *
 353:Generated_Source\PSoC4/System_Timer.c **** * Return:
 354:Generated_Source\PSoC4/System_Timer.c **** *  None
 355:Generated_Source\PSoC4/System_Timer.c **** *
 356:Generated_Source\PSoC4/System_Timer.c **** *******************************************************************************/
 357:Generated_Source\PSoC4/System_Timer.c **** void System_Timer_SetPrescaler(uint32 prescaler)
 358:Generated_Source\PSoC4/System_Timer.c **** {
 341              		.loc 1 358 0
 342              		.cfi_startproc
 343 0000 90B5     		push	{r4, r7, lr}
 344              		.cfi_def_cfa_offset 12
 345              		.cfi_offset 4, -12
 346              		.cfi_offset 7, -8
 347              		.cfi_offset 14, -4
 348 0002 85B0     		sub	sp, sp, #20
 349              		.cfi_def_cfa_offset 32
 350 0004 00AF     		add	r7, sp, #0
 351              		.cfi_def_cfa_register 7
 352 0006 7860     		str	r0, [r7, #4]
 359:Generated_Source\PSoC4/System_Timer.c ****     uint8 enableInterrupts;
 360:Generated_Source\PSoC4/System_Timer.c **** 
 361:Generated_Source\PSoC4/System_Timer.c ****     enableInterrupts = CyEnterCriticalSection();
 353              		.loc 1 361 0
 354 0008 0F23     		mov	r3, #15
 355 000a FC18     		add	r4, r7, r3
 356 000c FFF7FEFF 		bl	CyEnterCriticalSection
 357 0010 031C     		mov	r3, r0
 358 0012 2370     		strb	r3, [r4]
 362:Generated_Source\PSoC4/System_Timer.c **** 
 363:Generated_Source\PSoC4/System_Timer.c ****     System_Timer_CONTROL_REG &= (uint32)~System_Timer_PRESCALER_MASK;
 359              		.loc 1 363 0
 360 0014 0A4B     		ldr	r3, .L21
 361 0016 0A4A     		ldr	r2, .L21
 362 0018 1268     		ldr	r2, [r2]
 363 001a 0A49     		ldr	r1, .L21+4
 364 001c 0A40     		and	r2, r1
 365 001e 1A60     		str	r2, [r3]
 364:Generated_Source\PSoC4/System_Timer.c ****     System_Timer_CONTROL_REG |= prescaler;
 366              		.loc 1 364 0
 367 0020 074B     		ldr	r3, .L21
 368 0022 074A     		ldr	r2, .L21
 369 0024 1168     		ldr	r1, [r2]
 370 0026 7A68     		ldr	r2, [r7, #4]
 371 0028 0A43     		orr	r2, r1
 372 002a 1A60     		str	r2, [r3]
 365:Generated_Source\PSoC4/System_Timer.c **** 
 366:Generated_Source\PSoC4/System_Timer.c ****     CyExitCriticalSection(enableInterrupts);
 373              		.loc 1 366 0
 374 002c 0F23     		mov	r3, #15
 375 002e FB18     		add	r3, r7, r3
ARM GAS  C:\Users\ADMINI~1.SC-\AppData\Local\Temp\ccEAhJMV.s 			page 14


 376 0030 1B78     		ldrb	r3, [r3]
 377 0032 181C     		mov	r0, r3
 378 0034 FFF7FEFF 		bl	CyExitCriticalSection
 367:Generated_Source\PSoC4/System_Timer.c **** }
 379              		.loc 1 367 0
 380 0038 BD46     		mov	sp, r7
 381 003a 05B0     		add	sp, sp, #20
 382              		@ sp needed
 383 003c 90BD     		pop	{r4, r7, pc}
 384              	.L22:
 385 003e C046     		.align	2
 386              	.L21:
 387 0040 00012040 		.word	1075839232
 388 0044 FF00FFFF 		.word	-65281
 389              		.cfi_endproc
 390              	.LFE8:
 391              		.size	System_Timer_SetPrescaler, .-System_Timer_SetPrescaler
 392              		.section	.text.System_Timer_SetOneShot,"ax",%progbits
 393              		.align	2
 394              		.global	System_Timer_SetOneShot
 395              		.code	16
 396              		.thumb_func
 397              		.type	System_Timer_SetOneShot, %function
 398              	System_Timer_SetOneShot:
 399              	.LFB9:
 368:Generated_Source\PSoC4/System_Timer.c **** 
 369:Generated_Source\PSoC4/System_Timer.c **** 
 370:Generated_Source\PSoC4/System_Timer.c **** /*******************************************************************************
 371:Generated_Source\PSoC4/System_Timer.c **** * Function Name: System_Timer_SetOneShot
 372:Generated_Source\PSoC4/System_Timer.c **** ********************************************************************************
 373:Generated_Source\PSoC4/System_Timer.c **** *
 374:Generated_Source\PSoC4/System_Timer.c **** * Summary:
 375:Generated_Source\PSoC4/System_Timer.c **** *  Writes the register that controls whether the System_Timer runs
 376:Generated_Source\PSoC4/System_Timer.c **** *  continuously or stops when terminal count is reached.  By default the
 377:Generated_Source\PSoC4/System_Timer.c **** *  System_Timer operates in the continuous mode.
 378:Generated_Source\PSoC4/System_Timer.c **** *
 379:Generated_Source\PSoC4/System_Timer.c **** * Parameters:
 380:Generated_Source\PSoC4/System_Timer.c **** *  oneShotEnable
 381:Generated_Source\PSoC4/System_Timer.c **** *   Values:
 382:Generated_Source\PSoC4/System_Timer.c **** *     - 0 - Continuous
 383:Generated_Source\PSoC4/System_Timer.c **** *     - 1 - Enable One Shot
 384:Generated_Source\PSoC4/System_Timer.c **** *
 385:Generated_Source\PSoC4/System_Timer.c **** * Return:
 386:Generated_Source\PSoC4/System_Timer.c **** *  None
 387:Generated_Source\PSoC4/System_Timer.c **** *
 388:Generated_Source\PSoC4/System_Timer.c **** *******************************************************************************/
 389:Generated_Source\PSoC4/System_Timer.c **** void System_Timer_SetOneShot(uint32 oneShotEnable)
 390:Generated_Source\PSoC4/System_Timer.c **** {
 400              		.loc 1 390 0
 401              		.cfi_startproc
 402 0000 90B5     		push	{r4, r7, lr}
 403              		.cfi_def_cfa_offset 12
 404              		.cfi_offset 4, -12
 405              		.cfi_offset 7, -8
 406              		.cfi_offset 14, -4
 407 0002 85B0     		sub	sp, sp, #20
 408              		.cfi_def_cfa_offset 32
ARM GAS  C:\Users\ADMINI~1.SC-\AppData\Local\Temp\ccEAhJMV.s 			page 15


 409 0004 00AF     		add	r7, sp, #0
 410              		.cfi_def_cfa_register 7
 411 0006 7860     		str	r0, [r7, #4]
 391:Generated_Source\PSoC4/System_Timer.c ****     uint8 enableInterrupts;
 392:Generated_Source\PSoC4/System_Timer.c **** 
 393:Generated_Source\PSoC4/System_Timer.c ****     enableInterrupts = CyEnterCriticalSection();
 412              		.loc 1 393 0
 413 0008 0F23     		mov	r3, #15
 414 000a FC18     		add	r4, r7, r3
 415 000c FFF7FEFF 		bl	CyEnterCriticalSection
 416 0010 031C     		mov	r3, r0
 417 0012 2370     		strb	r3, [r4]
 394:Generated_Source\PSoC4/System_Timer.c **** 
 395:Generated_Source\PSoC4/System_Timer.c ****     System_Timer_CONTROL_REG &= (uint32)~System_Timer_ONESHOT_MASK;
 418              		.loc 1 395 0
 419 0014 0B4B     		ldr	r3, .L24
 420 0016 0B4A     		ldr	r2, .L24
 421 0018 1268     		ldr	r2, [r2]
 422 001a 0B49     		ldr	r1, .L24+4
 423 001c 0A40     		and	r2, r1
 424 001e 1A60     		str	r2, [r3]
 396:Generated_Source\PSoC4/System_Timer.c ****     System_Timer_CONTROL_REG |= ((uint32)((oneShotEnable & System_Timer_1BIT_MASK) <<
 425              		.loc 1 396 0
 426 0020 084B     		ldr	r3, .L24
 427 0022 084A     		ldr	r2, .L24
 428 0024 1168     		ldr	r1, [r2]
 429 0026 7A68     		ldr	r2, [r7, #4]
 430 0028 0120     		mov	r0, #1
 431 002a 0240     		and	r2, r0
 432 002c 9204     		lsl	r2, r2, #18
 433 002e 0A43     		orr	r2, r1
 434 0030 1A60     		str	r2, [r3]
 397:Generated_Source\PSoC4/System_Timer.c ****                                                                System_Timer_ONESHOT_SHIFT));
 398:Generated_Source\PSoC4/System_Timer.c **** 
 399:Generated_Source\PSoC4/System_Timer.c ****     CyExitCriticalSection(enableInterrupts);
 435              		.loc 1 399 0
 436 0032 0F23     		mov	r3, #15
 437 0034 FB18     		add	r3, r7, r3
 438 0036 1B78     		ldrb	r3, [r3]
 439 0038 181C     		mov	r0, r3
 440 003a FFF7FEFF 		bl	CyExitCriticalSection
 400:Generated_Source\PSoC4/System_Timer.c **** }
 441              		.loc 1 400 0
 442 003e BD46     		mov	sp, r7
 443 0040 05B0     		add	sp, sp, #20
 444              		@ sp needed
 445 0042 90BD     		pop	{r4, r7, pc}
 446              	.L25:
 447              		.align	2
 448              	.L24:
 449 0044 00012040 		.word	1075839232
 450 0048 FFFFFBFF 		.word	-262145
 451              		.cfi_endproc
 452              	.LFE9:
 453              		.size	System_Timer_SetOneShot, .-System_Timer_SetOneShot
 454              		.section	.text.System_Timer_SetPWMMode,"ax",%progbits
 455              		.align	2
ARM GAS  C:\Users\ADMINI~1.SC-\AppData\Local\Temp\ccEAhJMV.s 			page 16


 456              		.global	System_Timer_SetPWMMode
 457              		.code	16
 458              		.thumb_func
 459              		.type	System_Timer_SetPWMMode, %function
 460              	System_Timer_SetPWMMode:
 461              	.LFB10:
 401:Generated_Source\PSoC4/System_Timer.c **** 
 402:Generated_Source\PSoC4/System_Timer.c **** 
 403:Generated_Source\PSoC4/System_Timer.c **** /*******************************************************************************
 404:Generated_Source\PSoC4/System_Timer.c **** * Function Name: System_Timer_SetPWMMode
 405:Generated_Source\PSoC4/System_Timer.c **** ********************************************************************************
 406:Generated_Source\PSoC4/System_Timer.c **** *
 407:Generated_Source\PSoC4/System_Timer.c **** * Summary:
 408:Generated_Source\PSoC4/System_Timer.c **** *  Writes the control register that determines what mode of operation the PWM
 409:Generated_Source\PSoC4/System_Timer.c **** *  output lines are driven in.  There is a setting for what to do on a
 410:Generated_Source\PSoC4/System_Timer.c **** *  comparison match (CC_MATCH), on an overflow (OVERFLOW) and on an underflow
 411:Generated_Source\PSoC4/System_Timer.c **** *  (UNDERFLOW).  The value for each of the three must be ORed together to form
 412:Generated_Source\PSoC4/System_Timer.c **** *  the mode.
 413:Generated_Source\PSoC4/System_Timer.c **** *
 414:Generated_Source\PSoC4/System_Timer.c **** * Parameters:
 415:Generated_Source\PSoC4/System_Timer.c **** *  modeMask: A combination of three mode settings.  Mask must include a value
 416:Generated_Source\PSoC4/System_Timer.c **** *  for each of the three or use one of the preconfigured PWM settings.
 417:Generated_Source\PSoC4/System_Timer.c **** *   Values:
 418:Generated_Source\PSoC4/System_Timer.c **** *     - CC_MATCH_SET        - Set on comparison match
 419:Generated_Source\PSoC4/System_Timer.c **** *     - CC_MATCH_CLEAR      - Clear on comparison match
 420:Generated_Source\PSoC4/System_Timer.c **** *     - CC_MATCH_INVERT     - Invert on comparison match
 421:Generated_Source\PSoC4/System_Timer.c **** *     - CC_MATCH_NO_CHANGE  - No change on comparison match
 422:Generated_Source\PSoC4/System_Timer.c **** *     - OVERLOW_SET         - Set on overflow
 423:Generated_Source\PSoC4/System_Timer.c **** *     - OVERLOW_CLEAR       - Clear on  overflow
 424:Generated_Source\PSoC4/System_Timer.c **** *     - OVERLOW_INVERT      - Invert on overflow
 425:Generated_Source\PSoC4/System_Timer.c **** *     - OVERLOW_NO_CHANGE   - No change on overflow
 426:Generated_Source\PSoC4/System_Timer.c **** *     - UNDERFLOW_SET       - Set on underflow
 427:Generated_Source\PSoC4/System_Timer.c **** *     - UNDERFLOW_CLEAR     - Clear on underflow
 428:Generated_Source\PSoC4/System_Timer.c **** *     - UNDERFLOW_INVERT    - Invert on underflow
 429:Generated_Source\PSoC4/System_Timer.c **** *     - UNDERFLOW_NO_CHANGE - No change on underflow
 430:Generated_Source\PSoC4/System_Timer.c **** *     - PWM_MODE_LEFT       - Setting for left aligned PWM.  Should be combined
 431:Generated_Source\PSoC4/System_Timer.c **** *                             with up counting mode
 432:Generated_Source\PSoC4/System_Timer.c **** *     - PWM_MODE_RIGHT      - Setting for right aligned PWM.  Should be combined
 433:Generated_Source\PSoC4/System_Timer.c **** *                             with down counting mode
 434:Generated_Source\PSoC4/System_Timer.c **** *     - PWM_MODE_CENTER     - Setting for center aligned PWM.  Should be
 435:Generated_Source\PSoC4/System_Timer.c **** *                             combined with up/down 0 mode
 436:Generated_Source\PSoC4/System_Timer.c **** *     - PWM_MODE_ASYM       - Setting for asymmetric PWM.  Should be combined
 437:Generated_Source\PSoC4/System_Timer.c **** *                             with up/down 1 mode
 438:Generated_Source\PSoC4/System_Timer.c **** *
 439:Generated_Source\PSoC4/System_Timer.c **** * Return:
 440:Generated_Source\PSoC4/System_Timer.c **** *  None
 441:Generated_Source\PSoC4/System_Timer.c **** *
 442:Generated_Source\PSoC4/System_Timer.c **** *******************************************************************************/
 443:Generated_Source\PSoC4/System_Timer.c **** void System_Timer_SetPWMMode(uint32 modeMask)
 444:Generated_Source\PSoC4/System_Timer.c **** {
 462              		.loc 1 444 0
 463              		.cfi_startproc
 464 0000 80B5     		push	{r7, lr}
 465              		.cfi_def_cfa_offset 8
 466              		.cfi_offset 7, -8
 467              		.cfi_offset 14, -4
 468 0002 82B0     		sub	sp, sp, #8
ARM GAS  C:\Users\ADMINI~1.SC-\AppData\Local\Temp\ccEAhJMV.s 			page 17


 469              		.cfi_def_cfa_offset 16
 470 0004 00AF     		add	r7, sp, #0
 471              		.cfi_def_cfa_register 7
 472 0006 7860     		str	r0, [r7, #4]
 445:Generated_Source\PSoC4/System_Timer.c ****     System_Timer_TRIG_CONTROL2_REG = (modeMask & System_Timer_6BIT_MASK);
 473              		.loc 1 445 0
 474 0008 034B     		ldr	r3, .L27
 475 000a 7A68     		ldr	r2, [r7, #4]
 476 000c 3F21     		mov	r1, #63
 477 000e 0A40     		and	r2, r1
 478 0010 1A60     		str	r2, [r3]
 446:Generated_Source\PSoC4/System_Timer.c **** }
 479              		.loc 1 446 0
 480 0012 BD46     		mov	sp, r7
 481 0014 02B0     		add	sp, sp, #8
 482              		@ sp needed
 483 0016 80BD     		pop	{r7, pc}
 484              	.L28:
 485              		.align	2
 486              	.L27:
 487 0018 28012040 		.word	1075839272
 488              		.cfi_endproc
 489              	.LFE10:
 490              		.size	System_Timer_SetPWMMode, .-System_Timer_SetPWMMode
 491              		.section	.text.System_Timer_SetPWMSyncKill,"ax",%progbits
 492              		.align	2
 493              		.global	System_Timer_SetPWMSyncKill
 494              		.code	16
 495              		.thumb_func
 496              		.type	System_Timer_SetPWMSyncKill, %function
 497              	System_Timer_SetPWMSyncKill:
 498              	.LFB11:
 447:Generated_Source\PSoC4/System_Timer.c **** 
 448:Generated_Source\PSoC4/System_Timer.c **** 
 449:Generated_Source\PSoC4/System_Timer.c **** 
 450:Generated_Source\PSoC4/System_Timer.c **** /*******************************************************************************
 451:Generated_Source\PSoC4/System_Timer.c **** * Function Name: System_Timer_SetPWMSyncKill
 452:Generated_Source\PSoC4/System_Timer.c **** ********************************************************************************
 453:Generated_Source\PSoC4/System_Timer.c **** *
 454:Generated_Source\PSoC4/System_Timer.c **** * Summary:
 455:Generated_Source\PSoC4/System_Timer.c **** *  Writes the register that controls whether the PWM kill signal (stop input)
 456:Generated_Source\PSoC4/System_Timer.c **** *  causes asynchronous or synchronous kill operation.  By default the kill
 457:Generated_Source\PSoC4/System_Timer.c **** *  operation is asynchronous.  This functionality is only applicable to the PWM
 458:Generated_Source\PSoC4/System_Timer.c **** *  and PWM with dead time modes.
 459:Generated_Source\PSoC4/System_Timer.c **** *
 460:Generated_Source\PSoC4/System_Timer.c **** *  For Synchronous mode the kill signal disables both the line and line_n
 461:Generated_Source\PSoC4/System_Timer.c **** *  signals until the next terminal count.
 462:Generated_Source\PSoC4/System_Timer.c **** *
 463:Generated_Source\PSoC4/System_Timer.c **** *  For Asynchronous mode the kill signal disables both the line and line_n
 464:Generated_Source\PSoC4/System_Timer.c **** *  signals when the kill signal is present.  This mode should only be used
 465:Generated_Source\PSoC4/System_Timer.c **** *  when the kill signal (stop input) is configured in the pass through mode
 466:Generated_Source\PSoC4/System_Timer.c **** *  (Level sensitive signal).
 467:Generated_Source\PSoC4/System_Timer.c **** 
 468:Generated_Source\PSoC4/System_Timer.c **** *
 469:Generated_Source\PSoC4/System_Timer.c **** * Parameters:
 470:Generated_Source\PSoC4/System_Timer.c **** *  syncKillEnable
 471:Generated_Source\PSoC4/System_Timer.c **** *   Values:
ARM GAS  C:\Users\ADMINI~1.SC-\AppData\Local\Temp\ccEAhJMV.s 			page 18


 472:Generated_Source\PSoC4/System_Timer.c **** *     - 0 - Asynchronous
 473:Generated_Source\PSoC4/System_Timer.c **** *     - 1 - Synchronous
 474:Generated_Source\PSoC4/System_Timer.c **** *
 475:Generated_Source\PSoC4/System_Timer.c **** * Return:
 476:Generated_Source\PSoC4/System_Timer.c **** *  None
 477:Generated_Source\PSoC4/System_Timer.c **** *
 478:Generated_Source\PSoC4/System_Timer.c **** *******************************************************************************/
 479:Generated_Source\PSoC4/System_Timer.c **** void System_Timer_SetPWMSyncKill(uint32 syncKillEnable)
 480:Generated_Source\PSoC4/System_Timer.c **** {
 499              		.loc 1 480 0
 500              		.cfi_startproc
 501 0000 90B5     		push	{r4, r7, lr}
 502              		.cfi_def_cfa_offset 12
 503              		.cfi_offset 4, -12
 504              		.cfi_offset 7, -8
 505              		.cfi_offset 14, -4
 506 0002 85B0     		sub	sp, sp, #20
 507              		.cfi_def_cfa_offset 32
 508 0004 00AF     		add	r7, sp, #0
 509              		.cfi_def_cfa_register 7
 510 0006 7860     		str	r0, [r7, #4]
 481:Generated_Source\PSoC4/System_Timer.c ****     uint8 enableInterrupts;
 482:Generated_Source\PSoC4/System_Timer.c **** 
 483:Generated_Source\PSoC4/System_Timer.c ****     enableInterrupts = CyEnterCriticalSection();
 511              		.loc 1 483 0
 512 0008 0F23     		mov	r3, #15
 513 000a FC18     		add	r4, r7, r3
 514 000c FFF7FEFF 		bl	CyEnterCriticalSection
 515 0010 031C     		mov	r3, r0
 516 0012 2370     		strb	r3, [r4]
 484:Generated_Source\PSoC4/System_Timer.c **** 
 485:Generated_Source\PSoC4/System_Timer.c ****     System_Timer_CONTROL_REG &= (uint32)~System_Timer_PWM_SYNC_KILL_MASK;
 517              		.loc 1 485 0
 518 0014 0B4B     		ldr	r3, .L30
 519 0016 0B4A     		ldr	r2, .L30
 520 0018 1268     		ldr	r2, [r2]
 521 001a 0421     		mov	r1, #4
 522 001c 8A43     		bic	r2, r1
 523 001e 1A60     		str	r2, [r3]
 486:Generated_Source\PSoC4/System_Timer.c ****     System_Timer_CONTROL_REG |= ((uint32)((syncKillEnable & System_Timer_1BIT_MASK)  <<
 524              		.loc 1 486 0
 525 0020 084B     		ldr	r3, .L30
 526 0022 084A     		ldr	r2, .L30
 527 0024 1168     		ldr	r1, [r2]
 528 0026 7A68     		ldr	r2, [r7, #4]
 529 0028 0120     		mov	r0, #1
 530 002a 0240     		and	r2, r0
 531 002c 9200     		lsl	r2, r2, #2
 532 002e 0A43     		orr	r2, r1
 533 0030 1A60     		str	r2, [r3]
 487:Generated_Source\PSoC4/System_Timer.c ****                                                System_Timer_PWM_SYNC_KILL_SHIFT));
 488:Generated_Source\PSoC4/System_Timer.c **** 
 489:Generated_Source\PSoC4/System_Timer.c ****     CyExitCriticalSection(enableInterrupts);
 534              		.loc 1 489 0
 535 0032 0F23     		mov	r3, #15
 536 0034 FB18     		add	r3, r7, r3
 537 0036 1B78     		ldrb	r3, [r3]
ARM GAS  C:\Users\ADMINI~1.SC-\AppData\Local\Temp\ccEAhJMV.s 			page 19


 538 0038 181C     		mov	r0, r3
 539 003a FFF7FEFF 		bl	CyExitCriticalSection
 490:Generated_Source\PSoC4/System_Timer.c **** }
 540              		.loc 1 490 0
 541 003e BD46     		mov	sp, r7
 542 0040 05B0     		add	sp, sp, #20
 543              		@ sp needed
 544 0042 90BD     		pop	{r4, r7, pc}
 545              	.L31:
 546              		.align	2
 547              	.L30:
 548 0044 00012040 		.word	1075839232
 549              		.cfi_endproc
 550              	.LFE11:
 551              		.size	System_Timer_SetPWMSyncKill, .-System_Timer_SetPWMSyncKill
 552              		.section	.text.System_Timer_SetPWMStopOnKill,"ax",%progbits
 553              		.align	2
 554              		.global	System_Timer_SetPWMStopOnKill
 555              		.code	16
 556              		.thumb_func
 557              		.type	System_Timer_SetPWMStopOnKill, %function
 558              	System_Timer_SetPWMStopOnKill:
 559              	.LFB12:
 491:Generated_Source\PSoC4/System_Timer.c **** 
 492:Generated_Source\PSoC4/System_Timer.c **** 
 493:Generated_Source\PSoC4/System_Timer.c **** /*******************************************************************************
 494:Generated_Source\PSoC4/System_Timer.c **** * Function Name: System_Timer_SetPWMStopOnKill
 495:Generated_Source\PSoC4/System_Timer.c **** ********************************************************************************
 496:Generated_Source\PSoC4/System_Timer.c **** *
 497:Generated_Source\PSoC4/System_Timer.c **** * Summary:
 498:Generated_Source\PSoC4/System_Timer.c **** *  Writes the register that controls whether the PWM kill signal (stop input)
 499:Generated_Source\PSoC4/System_Timer.c **** *  causes the PWM counter to stop.  By default the kill operation does not stop
 500:Generated_Source\PSoC4/System_Timer.c **** *  the counter.  This functionality is only applicable to the three PWM modes.
 501:Generated_Source\PSoC4/System_Timer.c **** *
 502:Generated_Source\PSoC4/System_Timer.c **** *
 503:Generated_Source\PSoC4/System_Timer.c **** * Parameters:
 504:Generated_Source\PSoC4/System_Timer.c **** *  stopOnKillEnable
 505:Generated_Source\PSoC4/System_Timer.c **** *   Values:
 506:Generated_Source\PSoC4/System_Timer.c **** *     - 0 - Don't stop
 507:Generated_Source\PSoC4/System_Timer.c **** *     - 1 - Stop
 508:Generated_Source\PSoC4/System_Timer.c **** *
 509:Generated_Source\PSoC4/System_Timer.c **** * Return:
 510:Generated_Source\PSoC4/System_Timer.c **** *  None
 511:Generated_Source\PSoC4/System_Timer.c **** *
 512:Generated_Source\PSoC4/System_Timer.c **** *******************************************************************************/
 513:Generated_Source\PSoC4/System_Timer.c **** void System_Timer_SetPWMStopOnKill(uint32 stopOnKillEnable)
 514:Generated_Source\PSoC4/System_Timer.c **** {
 560              		.loc 1 514 0
 561              		.cfi_startproc
 562 0000 90B5     		push	{r4, r7, lr}
 563              		.cfi_def_cfa_offset 12
 564              		.cfi_offset 4, -12
 565              		.cfi_offset 7, -8
 566              		.cfi_offset 14, -4
 567 0002 85B0     		sub	sp, sp, #20
 568              		.cfi_def_cfa_offset 32
 569 0004 00AF     		add	r7, sp, #0
ARM GAS  C:\Users\ADMINI~1.SC-\AppData\Local\Temp\ccEAhJMV.s 			page 20


 570              		.cfi_def_cfa_register 7
 571 0006 7860     		str	r0, [r7, #4]
 515:Generated_Source\PSoC4/System_Timer.c ****     uint8 enableInterrupts;
 516:Generated_Source\PSoC4/System_Timer.c **** 
 517:Generated_Source\PSoC4/System_Timer.c ****     enableInterrupts = CyEnterCriticalSection();
 572              		.loc 1 517 0
 573 0008 0F23     		mov	r3, #15
 574 000a FC18     		add	r4, r7, r3
 575 000c FFF7FEFF 		bl	CyEnterCriticalSection
 576 0010 031C     		mov	r3, r0
 577 0012 2370     		strb	r3, [r4]
 518:Generated_Source\PSoC4/System_Timer.c **** 
 519:Generated_Source\PSoC4/System_Timer.c ****     System_Timer_CONTROL_REG &= (uint32)~System_Timer_PWM_STOP_KILL_MASK;
 578              		.loc 1 519 0
 579 0014 0B4B     		ldr	r3, .L33
 580 0016 0B4A     		ldr	r2, .L33
 581 0018 1268     		ldr	r2, [r2]
 582 001a 0821     		mov	r1, #8
 583 001c 8A43     		bic	r2, r1
 584 001e 1A60     		str	r2, [r3]
 520:Generated_Source\PSoC4/System_Timer.c ****     System_Timer_CONTROL_REG |= ((uint32)((stopOnKillEnable & System_Timer_1BIT_MASK)  <<
 585              		.loc 1 520 0
 586 0020 084B     		ldr	r3, .L33
 587 0022 084A     		ldr	r2, .L33
 588 0024 1168     		ldr	r1, [r2]
 589 0026 7A68     		ldr	r2, [r7, #4]
 590 0028 0120     		mov	r0, #1
 591 002a 0240     		and	r2, r0
 592 002c D200     		lsl	r2, r2, #3
 593 002e 0A43     		orr	r2, r1
 594 0030 1A60     		str	r2, [r3]
 521:Generated_Source\PSoC4/System_Timer.c ****                                                          System_Timer_PWM_STOP_KILL_SHIFT));
 522:Generated_Source\PSoC4/System_Timer.c **** 
 523:Generated_Source\PSoC4/System_Timer.c ****     CyExitCriticalSection(enableInterrupts);
 595              		.loc 1 523 0
 596 0032 0F23     		mov	r3, #15
 597 0034 FB18     		add	r3, r7, r3
 598 0036 1B78     		ldrb	r3, [r3]
 599 0038 181C     		mov	r0, r3
 600 003a FFF7FEFF 		bl	CyExitCriticalSection
 524:Generated_Source\PSoC4/System_Timer.c **** }
 601              		.loc 1 524 0
 602 003e BD46     		mov	sp, r7
 603 0040 05B0     		add	sp, sp, #20
 604              		@ sp needed
 605 0042 90BD     		pop	{r4, r7, pc}
 606              	.L34:
 607              		.align	2
 608              	.L33:
 609 0044 00012040 		.word	1075839232
 610              		.cfi_endproc
 611              	.LFE12:
 612              		.size	System_Timer_SetPWMStopOnKill, .-System_Timer_SetPWMStopOnKill
 613              		.section	.text.System_Timer_SetPWMDeadTime,"ax",%progbits
 614              		.align	2
 615              		.global	System_Timer_SetPWMDeadTime
 616              		.code	16
ARM GAS  C:\Users\ADMINI~1.SC-\AppData\Local\Temp\ccEAhJMV.s 			page 21


 617              		.thumb_func
 618              		.type	System_Timer_SetPWMDeadTime, %function
 619              	System_Timer_SetPWMDeadTime:
 620              	.LFB13:
 525:Generated_Source\PSoC4/System_Timer.c **** 
 526:Generated_Source\PSoC4/System_Timer.c **** 
 527:Generated_Source\PSoC4/System_Timer.c **** /*******************************************************************************
 528:Generated_Source\PSoC4/System_Timer.c **** * Function Name: System_Timer_SetPWMDeadTime
 529:Generated_Source\PSoC4/System_Timer.c **** ********************************************************************************
 530:Generated_Source\PSoC4/System_Timer.c **** *
 531:Generated_Source\PSoC4/System_Timer.c **** * Summary:
 532:Generated_Source\PSoC4/System_Timer.c **** *  Writes the dead time control value.  This value delays the rising edge of
 533:Generated_Source\PSoC4/System_Timer.c **** *  both the line and line_n signals the designated number of cycles resulting
 534:Generated_Source\PSoC4/System_Timer.c **** *  in both signals being inactive for that many cycles.  This functionality is
 535:Generated_Source\PSoC4/System_Timer.c **** *  only applicable to the PWM in the dead time mode.
 536:Generated_Source\PSoC4/System_Timer.c **** 
 537:Generated_Source\PSoC4/System_Timer.c **** *
 538:Generated_Source\PSoC4/System_Timer.c **** * Parameters:
 539:Generated_Source\PSoC4/System_Timer.c **** *  Dead time to insert
 540:Generated_Source\PSoC4/System_Timer.c **** *   Values: 0 to 255
 541:Generated_Source\PSoC4/System_Timer.c **** *
 542:Generated_Source\PSoC4/System_Timer.c **** * Return:
 543:Generated_Source\PSoC4/System_Timer.c **** *  None
 544:Generated_Source\PSoC4/System_Timer.c **** *
 545:Generated_Source\PSoC4/System_Timer.c **** *******************************************************************************/
 546:Generated_Source\PSoC4/System_Timer.c **** void System_Timer_SetPWMDeadTime(uint32 deadTime)
 547:Generated_Source\PSoC4/System_Timer.c **** {
 621              		.loc 1 547 0
 622              		.cfi_startproc
 623 0000 90B5     		push	{r4, r7, lr}
 624              		.cfi_def_cfa_offset 12
 625              		.cfi_offset 4, -12
 626              		.cfi_offset 7, -8
 627              		.cfi_offset 14, -4
 628 0002 85B0     		sub	sp, sp, #20
 629              		.cfi_def_cfa_offset 32
 630 0004 00AF     		add	r7, sp, #0
 631              		.cfi_def_cfa_register 7
 632 0006 7860     		str	r0, [r7, #4]
 548:Generated_Source\PSoC4/System_Timer.c ****     uint8 enableInterrupts;
 549:Generated_Source\PSoC4/System_Timer.c **** 
 550:Generated_Source\PSoC4/System_Timer.c ****     enableInterrupts = CyEnterCriticalSection();
 633              		.loc 1 550 0
 634 0008 0F23     		mov	r3, #15
 635 000a FC18     		add	r4, r7, r3
 636 000c FFF7FEFF 		bl	CyEnterCriticalSection
 637 0010 031C     		mov	r3, r0
 638 0012 2370     		strb	r3, [r4]
 551:Generated_Source\PSoC4/System_Timer.c **** 
 552:Generated_Source\PSoC4/System_Timer.c ****     System_Timer_CONTROL_REG &= (uint32)~System_Timer_PRESCALER_MASK;
 639              		.loc 1 552 0
 640 0014 0B4B     		ldr	r3, .L36
 641 0016 0B4A     		ldr	r2, .L36
 642 0018 1268     		ldr	r2, [r2]
 643 001a 0B49     		ldr	r1, .L36+4
 644 001c 0A40     		and	r2, r1
 645 001e 1A60     		str	r2, [r3]
ARM GAS  C:\Users\ADMINI~1.SC-\AppData\Local\Temp\ccEAhJMV.s 			page 22


 553:Generated_Source\PSoC4/System_Timer.c ****     System_Timer_CONTROL_REG |= ((uint32)((deadTime & System_Timer_8BIT_MASK) <<
 646              		.loc 1 553 0
 647 0020 084B     		ldr	r3, .L36
 648 0022 084A     		ldr	r2, .L36
 649 0024 1168     		ldr	r1, [r2]
 650 0026 7A68     		ldr	r2, [r7, #4]
 651 0028 1202     		lsl	r2, r2, #8
 652 002a 1204     		lsl	r2, r2, #16
 653 002c 120C     		lsr	r2, r2, #16
 654 002e 0A43     		orr	r2, r1
 655 0030 1A60     		str	r2, [r3]
 554:Generated_Source\PSoC4/System_Timer.c ****                                                           System_Timer_PRESCALER_SHIFT));
 555:Generated_Source\PSoC4/System_Timer.c **** 
 556:Generated_Source\PSoC4/System_Timer.c ****     CyExitCriticalSection(enableInterrupts);
 656              		.loc 1 556 0
 657 0032 0F23     		mov	r3, #15
 658 0034 FB18     		add	r3, r7, r3
 659 0036 1B78     		ldrb	r3, [r3]
 660 0038 181C     		mov	r0, r3
 661 003a FFF7FEFF 		bl	CyExitCriticalSection
 557:Generated_Source\PSoC4/System_Timer.c **** }
 662              		.loc 1 557 0
 663 003e BD46     		mov	sp, r7
 664 0040 05B0     		add	sp, sp, #20
 665              		@ sp needed
 666 0042 90BD     		pop	{r4, r7, pc}
 667              	.L37:
 668              		.align	2
 669              	.L36:
 670 0044 00012040 		.word	1075839232
 671 0048 FF00FFFF 		.word	-65281
 672              		.cfi_endproc
 673              	.LFE13:
 674              		.size	System_Timer_SetPWMDeadTime, .-System_Timer_SetPWMDeadTime
 675              		.section	.text.System_Timer_SetPWMInvert,"ax",%progbits
 676              		.align	2
 677              		.global	System_Timer_SetPWMInvert
 678              		.code	16
 679              		.thumb_func
 680              		.type	System_Timer_SetPWMInvert, %function
 681              	System_Timer_SetPWMInvert:
 682              	.LFB14:
 558:Generated_Source\PSoC4/System_Timer.c **** 
 559:Generated_Source\PSoC4/System_Timer.c **** 
 560:Generated_Source\PSoC4/System_Timer.c **** /*******************************************************************************
 561:Generated_Source\PSoC4/System_Timer.c **** * Function Name: System_Timer_SetPWMInvert
 562:Generated_Source\PSoC4/System_Timer.c **** ********************************************************************************
 563:Generated_Source\PSoC4/System_Timer.c **** *
 564:Generated_Source\PSoC4/System_Timer.c **** * Summary:
 565:Generated_Source\PSoC4/System_Timer.c **** *  Writes the bits that control whether the line and line_n outputs are
 566:Generated_Source\PSoC4/System_Timer.c **** *  inverted from their normal output values.  This functionality is only
 567:Generated_Source\PSoC4/System_Timer.c **** *  applicable to the three PWM modes.
 568:Generated_Source\PSoC4/System_Timer.c **** *
 569:Generated_Source\PSoC4/System_Timer.c **** * Parameters:
 570:Generated_Source\PSoC4/System_Timer.c **** *  mask: Mask of outputs to invert.
 571:Generated_Source\PSoC4/System_Timer.c **** *   Values:
 572:Generated_Source\PSoC4/System_Timer.c **** *         - System_Timer_INVERT_LINE   - Inverts the line output
ARM GAS  C:\Users\ADMINI~1.SC-\AppData\Local\Temp\ccEAhJMV.s 			page 23


 573:Generated_Source\PSoC4/System_Timer.c **** *         - System_Timer_INVERT_LINE_N - Inverts the line_n output
 574:Generated_Source\PSoC4/System_Timer.c **** *
 575:Generated_Source\PSoC4/System_Timer.c **** * Return:
 576:Generated_Source\PSoC4/System_Timer.c **** *  None
 577:Generated_Source\PSoC4/System_Timer.c **** *
 578:Generated_Source\PSoC4/System_Timer.c **** *******************************************************************************/
 579:Generated_Source\PSoC4/System_Timer.c **** void System_Timer_SetPWMInvert(uint32 mask)
 580:Generated_Source\PSoC4/System_Timer.c **** {
 683              		.loc 1 580 0
 684              		.cfi_startproc
 685 0000 90B5     		push	{r4, r7, lr}
 686              		.cfi_def_cfa_offset 12
 687              		.cfi_offset 4, -12
 688              		.cfi_offset 7, -8
 689              		.cfi_offset 14, -4
 690 0002 85B0     		sub	sp, sp, #20
 691              		.cfi_def_cfa_offset 32
 692 0004 00AF     		add	r7, sp, #0
 693              		.cfi_def_cfa_register 7
 694 0006 7860     		str	r0, [r7, #4]
 581:Generated_Source\PSoC4/System_Timer.c ****     uint8 enableInterrupts;
 582:Generated_Source\PSoC4/System_Timer.c **** 
 583:Generated_Source\PSoC4/System_Timer.c ****     enableInterrupts = CyEnterCriticalSection();
 695              		.loc 1 583 0
 696 0008 0F23     		mov	r3, #15
 697 000a FC18     		add	r4, r7, r3
 698 000c FFF7FEFF 		bl	CyEnterCriticalSection
 699 0010 031C     		mov	r3, r0
 700 0012 2370     		strb	r3, [r4]
 584:Generated_Source\PSoC4/System_Timer.c **** 
 585:Generated_Source\PSoC4/System_Timer.c ****     System_Timer_CONTROL_REG &= (uint32)~System_Timer_INV_OUT_MASK;
 701              		.loc 1 585 0
 702 0014 0A4B     		ldr	r3, .L39
 703 0016 0A4A     		ldr	r2, .L39
 704 0018 1268     		ldr	r2, [r2]
 705 001a 0A49     		ldr	r1, .L39+4
 706 001c 0A40     		and	r2, r1
 707 001e 1A60     		str	r2, [r3]
 586:Generated_Source\PSoC4/System_Timer.c ****     System_Timer_CONTROL_REG |= mask;
 708              		.loc 1 586 0
 709 0020 074B     		ldr	r3, .L39
 710 0022 074A     		ldr	r2, .L39
 711 0024 1168     		ldr	r1, [r2]
 712 0026 7A68     		ldr	r2, [r7, #4]
 713 0028 0A43     		orr	r2, r1
 714 002a 1A60     		str	r2, [r3]
 587:Generated_Source\PSoC4/System_Timer.c **** 
 588:Generated_Source\PSoC4/System_Timer.c ****     CyExitCriticalSection(enableInterrupts);
 715              		.loc 1 588 0
 716 002c 0F23     		mov	r3, #15
 717 002e FB18     		add	r3, r7, r3
 718 0030 1B78     		ldrb	r3, [r3]
 719 0032 181C     		mov	r0, r3
 720 0034 FFF7FEFF 		bl	CyExitCriticalSection
 589:Generated_Source\PSoC4/System_Timer.c **** }
 721              		.loc 1 589 0
 722 0038 BD46     		mov	sp, r7
ARM GAS  C:\Users\ADMINI~1.SC-\AppData\Local\Temp\ccEAhJMV.s 			page 24


 723 003a 05B0     		add	sp, sp, #20
 724              		@ sp needed
 725 003c 90BD     		pop	{r4, r7, pc}
 726              	.L40:
 727 003e C046     		.align	2
 728              	.L39:
 729 0040 00012040 		.word	1075839232
 730 0044 FFFFCFFF 		.word	-3145729
 731              		.cfi_endproc
 732              	.LFE14:
 733              		.size	System_Timer_SetPWMInvert, .-System_Timer_SetPWMInvert
 734              		.section	.text.System_Timer_WriteCounter,"ax",%progbits
 735              		.align	2
 736              		.global	System_Timer_WriteCounter
 737              		.code	16
 738              		.thumb_func
 739              		.type	System_Timer_WriteCounter, %function
 740              	System_Timer_WriteCounter:
 741              	.LFB15:
 590:Generated_Source\PSoC4/System_Timer.c **** 
 591:Generated_Source\PSoC4/System_Timer.c **** 
 592:Generated_Source\PSoC4/System_Timer.c **** 
 593:Generated_Source\PSoC4/System_Timer.c **** /*******************************************************************************
 594:Generated_Source\PSoC4/System_Timer.c **** * Function Name: System_Timer_WriteCounter
 595:Generated_Source\PSoC4/System_Timer.c **** ********************************************************************************
 596:Generated_Source\PSoC4/System_Timer.c **** *
 597:Generated_Source\PSoC4/System_Timer.c **** * Summary:
 598:Generated_Source\PSoC4/System_Timer.c **** *  Writes a new 16bit counter value directly into the counter register, thus
 599:Generated_Source\PSoC4/System_Timer.c **** *  setting the counter (not the period) to the value written. It is not
 600:Generated_Source\PSoC4/System_Timer.c **** *  advised to write to this field when the counter is running.
 601:Generated_Source\PSoC4/System_Timer.c **** *
 602:Generated_Source\PSoC4/System_Timer.c **** * Parameters:
 603:Generated_Source\PSoC4/System_Timer.c **** *  count: value to write
 604:Generated_Source\PSoC4/System_Timer.c **** *
 605:Generated_Source\PSoC4/System_Timer.c **** * Return:
 606:Generated_Source\PSoC4/System_Timer.c **** *  None
 607:Generated_Source\PSoC4/System_Timer.c **** *
 608:Generated_Source\PSoC4/System_Timer.c **** *******************************************************************************/
 609:Generated_Source\PSoC4/System_Timer.c **** void System_Timer_WriteCounter(uint32 count)
 610:Generated_Source\PSoC4/System_Timer.c **** {
 742              		.loc 1 610 0
 743              		.cfi_startproc
 744 0000 80B5     		push	{r7, lr}
 745              		.cfi_def_cfa_offset 8
 746              		.cfi_offset 7, -8
 747              		.cfi_offset 14, -4
 748 0002 82B0     		sub	sp, sp, #8
 749              		.cfi_def_cfa_offset 16
 750 0004 00AF     		add	r7, sp, #0
 751              		.cfi_def_cfa_register 7
 752 0006 7860     		str	r0, [r7, #4]
 611:Generated_Source\PSoC4/System_Timer.c ****     System_Timer_COUNTER_REG = (count & System_Timer_16BIT_MASK);
 753              		.loc 1 611 0
 754 0008 034B     		ldr	r3, .L42
 755 000a 7A68     		ldr	r2, [r7, #4]
 756 000c 1204     		lsl	r2, r2, #16
 757 000e 120C     		lsr	r2, r2, #16
ARM GAS  C:\Users\ADMINI~1.SC-\AppData\Local\Temp\ccEAhJMV.s 			page 25


 758 0010 1A60     		str	r2, [r3]
 612:Generated_Source\PSoC4/System_Timer.c **** }
 759              		.loc 1 612 0
 760 0012 BD46     		mov	sp, r7
 761 0014 02B0     		add	sp, sp, #8
 762              		@ sp needed
 763 0016 80BD     		pop	{r7, pc}
 764              	.L43:
 765              		.align	2
 766              	.L42:
 767 0018 08012040 		.word	1075839240
 768              		.cfi_endproc
 769              	.LFE15:
 770              		.size	System_Timer_WriteCounter, .-System_Timer_WriteCounter
 771              		.section	.text.System_Timer_ReadCounter,"ax",%progbits
 772              		.align	2
 773              		.global	System_Timer_ReadCounter
 774              		.code	16
 775              		.thumb_func
 776              		.type	System_Timer_ReadCounter, %function
 777              	System_Timer_ReadCounter:
 778              	.LFB16:
 613:Generated_Source\PSoC4/System_Timer.c **** 
 614:Generated_Source\PSoC4/System_Timer.c **** 
 615:Generated_Source\PSoC4/System_Timer.c **** /*******************************************************************************
 616:Generated_Source\PSoC4/System_Timer.c **** * Function Name: System_Timer_ReadCounter
 617:Generated_Source\PSoC4/System_Timer.c **** ********************************************************************************
 618:Generated_Source\PSoC4/System_Timer.c **** *
 619:Generated_Source\PSoC4/System_Timer.c **** * Summary:
 620:Generated_Source\PSoC4/System_Timer.c **** *  Reads the current counter value.
 621:Generated_Source\PSoC4/System_Timer.c **** *
 622:Generated_Source\PSoC4/System_Timer.c **** * Parameters:
 623:Generated_Source\PSoC4/System_Timer.c **** *  None
 624:Generated_Source\PSoC4/System_Timer.c **** *
 625:Generated_Source\PSoC4/System_Timer.c **** * Return:
 626:Generated_Source\PSoC4/System_Timer.c **** *  Current counter value
 627:Generated_Source\PSoC4/System_Timer.c **** *
 628:Generated_Source\PSoC4/System_Timer.c **** *******************************************************************************/
 629:Generated_Source\PSoC4/System_Timer.c **** uint32 System_Timer_ReadCounter(void)
 630:Generated_Source\PSoC4/System_Timer.c **** {
 779              		.loc 1 630 0
 780              		.cfi_startproc
 781 0000 80B5     		push	{r7, lr}
 782              		.cfi_def_cfa_offset 8
 783              		.cfi_offset 7, -8
 784              		.cfi_offset 14, -4
 785 0002 00AF     		add	r7, sp, #0
 786              		.cfi_def_cfa_register 7
 631:Generated_Source\PSoC4/System_Timer.c ****     return (System_Timer_COUNTER_REG & System_Timer_16BIT_MASK);
 787              		.loc 1 631 0
 788 0004 034B     		ldr	r3, .L46
 789 0006 1B68     		ldr	r3, [r3]
 790 0008 1B04     		lsl	r3, r3, #16
 791 000a 1B0C     		lsr	r3, r3, #16
 632:Generated_Source\PSoC4/System_Timer.c **** }
 792              		.loc 1 632 0
 793 000c 181C     		mov	r0, r3
ARM GAS  C:\Users\ADMINI~1.SC-\AppData\Local\Temp\ccEAhJMV.s 			page 26


 794 000e BD46     		mov	sp, r7
 795              		@ sp needed
 796 0010 80BD     		pop	{r7, pc}
 797              	.L47:
 798 0012 C046     		.align	2
 799              	.L46:
 800 0014 08012040 		.word	1075839240
 801              		.cfi_endproc
 802              	.LFE16:
 803              		.size	System_Timer_ReadCounter, .-System_Timer_ReadCounter
 804              		.section	.text.System_Timer_SetCounterMode,"ax",%progbits
 805              		.align	2
 806              		.global	System_Timer_SetCounterMode
 807              		.code	16
 808              		.thumb_func
 809              		.type	System_Timer_SetCounterMode, %function
 810              	System_Timer_SetCounterMode:
 811              	.LFB17:
 633:Generated_Source\PSoC4/System_Timer.c **** 
 634:Generated_Source\PSoC4/System_Timer.c **** 
 635:Generated_Source\PSoC4/System_Timer.c **** /*******************************************************************************
 636:Generated_Source\PSoC4/System_Timer.c **** * Function Name: System_Timer_SetCounterMode
 637:Generated_Source\PSoC4/System_Timer.c **** ********************************************************************************
 638:Generated_Source\PSoC4/System_Timer.c **** *
 639:Generated_Source\PSoC4/System_Timer.c **** * Summary:
 640:Generated_Source\PSoC4/System_Timer.c **** *  Sets the counter mode.  Applicable to all modes except Quadrature Decoder
 641:Generated_Source\PSoC4/System_Timer.c **** *  and the PWM with a pseudo random output.
 642:Generated_Source\PSoC4/System_Timer.c **** *
 643:Generated_Source\PSoC4/System_Timer.c **** * Parameters:
 644:Generated_Source\PSoC4/System_Timer.c **** *  counterMode: Enumerated counter type values
 645:Generated_Source\PSoC4/System_Timer.c **** *   Values:
 646:Generated_Source\PSoC4/System_Timer.c **** *     - System_Timer_COUNT_UP       - Counts up
 647:Generated_Source\PSoC4/System_Timer.c **** *     - System_Timer_COUNT_DOWN     - Counts down
 648:Generated_Source\PSoC4/System_Timer.c **** *     - System_Timer_COUNT_UPDOWN0  - Counts up and down. Terminal count
 649:Generated_Source\PSoC4/System_Timer.c **** *                                         generated when counter reaches 0
 650:Generated_Source\PSoC4/System_Timer.c **** *     - System_Timer_COUNT_UPDOWN1  - Counts up and down. Terminal count
 651:Generated_Source\PSoC4/System_Timer.c **** *                                         generated both when counter reaches 0
 652:Generated_Source\PSoC4/System_Timer.c **** *                                         and period
 653:Generated_Source\PSoC4/System_Timer.c **** *
 654:Generated_Source\PSoC4/System_Timer.c **** * Return:
 655:Generated_Source\PSoC4/System_Timer.c **** *  None
 656:Generated_Source\PSoC4/System_Timer.c **** *
 657:Generated_Source\PSoC4/System_Timer.c **** *******************************************************************************/
 658:Generated_Source\PSoC4/System_Timer.c **** void System_Timer_SetCounterMode(uint32 counterMode)
 659:Generated_Source\PSoC4/System_Timer.c **** {
 812              		.loc 1 659 0
 813              		.cfi_startproc
 814 0000 90B5     		push	{r4, r7, lr}
 815              		.cfi_def_cfa_offset 12
 816              		.cfi_offset 4, -12
 817              		.cfi_offset 7, -8
 818              		.cfi_offset 14, -4
 819 0002 85B0     		sub	sp, sp, #20
 820              		.cfi_def_cfa_offset 32
 821 0004 00AF     		add	r7, sp, #0
 822              		.cfi_def_cfa_register 7
 823 0006 7860     		str	r0, [r7, #4]
ARM GAS  C:\Users\ADMINI~1.SC-\AppData\Local\Temp\ccEAhJMV.s 			page 27


 660:Generated_Source\PSoC4/System_Timer.c ****     uint8 enableInterrupts;
 661:Generated_Source\PSoC4/System_Timer.c **** 
 662:Generated_Source\PSoC4/System_Timer.c ****     enableInterrupts = CyEnterCriticalSection();
 824              		.loc 1 662 0
 825 0008 0F23     		mov	r3, #15
 826 000a FC18     		add	r4, r7, r3
 827 000c FFF7FEFF 		bl	CyEnterCriticalSection
 828 0010 031C     		mov	r3, r0
 829 0012 2370     		strb	r3, [r4]
 663:Generated_Source\PSoC4/System_Timer.c **** 
 664:Generated_Source\PSoC4/System_Timer.c ****     System_Timer_CONTROL_REG &= (uint32)~System_Timer_UPDOWN_MASK;
 830              		.loc 1 664 0
 831 0014 0A4B     		ldr	r3, .L49
 832 0016 0A4A     		ldr	r2, .L49
 833 0018 1268     		ldr	r2, [r2]
 834 001a 0A49     		ldr	r1, .L49+4
 835 001c 0A40     		and	r2, r1
 836 001e 1A60     		str	r2, [r3]
 665:Generated_Source\PSoC4/System_Timer.c ****     System_Timer_CONTROL_REG |= counterMode;
 837              		.loc 1 665 0
 838 0020 074B     		ldr	r3, .L49
 839 0022 074A     		ldr	r2, .L49
 840 0024 1168     		ldr	r1, [r2]
 841 0026 7A68     		ldr	r2, [r7, #4]
 842 0028 0A43     		orr	r2, r1
 843 002a 1A60     		str	r2, [r3]
 666:Generated_Source\PSoC4/System_Timer.c **** 
 667:Generated_Source\PSoC4/System_Timer.c ****     CyExitCriticalSection(enableInterrupts);
 844              		.loc 1 667 0
 845 002c 0F23     		mov	r3, #15
 846 002e FB18     		add	r3, r7, r3
 847 0030 1B78     		ldrb	r3, [r3]
 848 0032 181C     		mov	r0, r3
 849 0034 FFF7FEFF 		bl	CyExitCriticalSection
 668:Generated_Source\PSoC4/System_Timer.c **** }
 850              		.loc 1 668 0
 851 0038 BD46     		mov	sp, r7
 852 003a 05B0     		add	sp, sp, #20
 853              		@ sp needed
 854 003c 90BD     		pop	{r4, r7, pc}
 855              	.L50:
 856 003e C046     		.align	2
 857              	.L49:
 858 0040 00012040 		.word	1075839232
 859 0044 FFFFFCFF 		.word	-196609
 860              		.cfi_endproc
 861              	.LFE17:
 862              		.size	System_Timer_SetCounterMode, .-System_Timer_SetCounterMode
 863              		.section	.text.System_Timer_WritePeriod,"ax",%progbits
 864              		.align	2
 865              		.global	System_Timer_WritePeriod
 866              		.code	16
 867              		.thumb_func
 868              		.type	System_Timer_WritePeriod, %function
 869              	System_Timer_WritePeriod:
 870              	.LFB18:
 669:Generated_Source\PSoC4/System_Timer.c **** 
ARM GAS  C:\Users\ADMINI~1.SC-\AppData\Local\Temp\ccEAhJMV.s 			page 28


 670:Generated_Source\PSoC4/System_Timer.c **** 
 671:Generated_Source\PSoC4/System_Timer.c **** /*******************************************************************************
 672:Generated_Source\PSoC4/System_Timer.c **** * Function Name: System_Timer_WritePeriod
 673:Generated_Source\PSoC4/System_Timer.c **** ********************************************************************************
 674:Generated_Source\PSoC4/System_Timer.c **** *
 675:Generated_Source\PSoC4/System_Timer.c **** * Summary:
 676:Generated_Source\PSoC4/System_Timer.c **** *  Writes the 16 bit period register with the new period value.
 677:Generated_Source\PSoC4/System_Timer.c **** *  To cause the counter to count for N cycles this register should be written
 678:Generated_Source\PSoC4/System_Timer.c **** *  with N-1 (counts from 0 to period inclusive).
 679:Generated_Source\PSoC4/System_Timer.c **** *
 680:Generated_Source\PSoC4/System_Timer.c **** * Parameters:
 681:Generated_Source\PSoC4/System_Timer.c **** *  period: Period value
 682:Generated_Source\PSoC4/System_Timer.c **** *
 683:Generated_Source\PSoC4/System_Timer.c **** * Return:
 684:Generated_Source\PSoC4/System_Timer.c **** *  None
 685:Generated_Source\PSoC4/System_Timer.c **** *
 686:Generated_Source\PSoC4/System_Timer.c **** *******************************************************************************/
 687:Generated_Source\PSoC4/System_Timer.c **** void System_Timer_WritePeriod(uint32 period)
 688:Generated_Source\PSoC4/System_Timer.c **** {
 871              		.loc 1 688 0
 872              		.cfi_startproc
 873 0000 80B5     		push	{r7, lr}
 874              		.cfi_def_cfa_offset 8
 875              		.cfi_offset 7, -8
 876              		.cfi_offset 14, -4
 877 0002 82B0     		sub	sp, sp, #8
 878              		.cfi_def_cfa_offset 16
 879 0004 00AF     		add	r7, sp, #0
 880              		.cfi_def_cfa_register 7
 881 0006 7860     		str	r0, [r7, #4]
 689:Generated_Source\PSoC4/System_Timer.c ****     System_Timer_PERIOD_REG = (period & System_Timer_16BIT_MASK);
 882              		.loc 1 689 0
 883 0008 034B     		ldr	r3, .L52
 884 000a 7A68     		ldr	r2, [r7, #4]
 885 000c 1204     		lsl	r2, r2, #16
 886 000e 120C     		lsr	r2, r2, #16
 887 0010 1A60     		str	r2, [r3]
 690:Generated_Source\PSoC4/System_Timer.c **** }
 888              		.loc 1 690 0
 889 0012 BD46     		mov	sp, r7
 890 0014 02B0     		add	sp, sp, #8
 891              		@ sp needed
 892 0016 80BD     		pop	{r7, pc}
 893              	.L53:
 894              		.align	2
 895              	.L52:
 896 0018 14012040 		.word	1075839252
 897              		.cfi_endproc
 898              	.LFE18:
 899              		.size	System_Timer_WritePeriod, .-System_Timer_WritePeriod
 900              		.section	.text.System_Timer_ReadPeriod,"ax",%progbits
 901              		.align	2
 902              		.global	System_Timer_ReadPeriod
 903              		.code	16
 904              		.thumb_func
 905              		.type	System_Timer_ReadPeriod, %function
 906              	System_Timer_ReadPeriod:
ARM GAS  C:\Users\ADMINI~1.SC-\AppData\Local\Temp\ccEAhJMV.s 			page 29


 907              	.LFB19:
 691:Generated_Source\PSoC4/System_Timer.c **** 
 692:Generated_Source\PSoC4/System_Timer.c **** 
 693:Generated_Source\PSoC4/System_Timer.c **** /*******************************************************************************
 694:Generated_Source\PSoC4/System_Timer.c **** * Function Name: System_Timer_ReadPeriod
 695:Generated_Source\PSoC4/System_Timer.c **** ********************************************************************************
 696:Generated_Source\PSoC4/System_Timer.c **** *
 697:Generated_Source\PSoC4/System_Timer.c **** * Summary:
 698:Generated_Source\PSoC4/System_Timer.c **** *  Reads the 16 bit period register.
 699:Generated_Source\PSoC4/System_Timer.c **** *
 700:Generated_Source\PSoC4/System_Timer.c **** * Parameters:
 701:Generated_Source\PSoC4/System_Timer.c **** *  None
 702:Generated_Source\PSoC4/System_Timer.c **** *
 703:Generated_Source\PSoC4/System_Timer.c **** * Return:
 704:Generated_Source\PSoC4/System_Timer.c **** *  Period value
 705:Generated_Source\PSoC4/System_Timer.c **** *
 706:Generated_Source\PSoC4/System_Timer.c **** *******************************************************************************/
 707:Generated_Source\PSoC4/System_Timer.c **** uint32 System_Timer_ReadPeriod(void)
 708:Generated_Source\PSoC4/System_Timer.c **** {
 908              		.loc 1 708 0
 909              		.cfi_startproc
 910 0000 80B5     		push	{r7, lr}
 911              		.cfi_def_cfa_offset 8
 912              		.cfi_offset 7, -8
 913              		.cfi_offset 14, -4
 914 0002 00AF     		add	r7, sp, #0
 915              		.cfi_def_cfa_register 7
 709:Generated_Source\PSoC4/System_Timer.c ****     return (System_Timer_PERIOD_REG & System_Timer_16BIT_MASK);
 916              		.loc 1 709 0
 917 0004 034B     		ldr	r3, .L56
 918 0006 1B68     		ldr	r3, [r3]
 919 0008 1B04     		lsl	r3, r3, #16
 920 000a 1B0C     		lsr	r3, r3, #16
 710:Generated_Source\PSoC4/System_Timer.c **** }
 921              		.loc 1 710 0
 922 000c 181C     		mov	r0, r3
 923 000e BD46     		mov	sp, r7
 924              		@ sp needed
 925 0010 80BD     		pop	{r7, pc}
 926              	.L57:
 927 0012 C046     		.align	2
 928              	.L56:
 929 0014 14012040 		.word	1075839252
 930              		.cfi_endproc
 931              	.LFE19:
 932              		.size	System_Timer_ReadPeriod, .-System_Timer_ReadPeriod
 933              		.section	.text.System_Timer_SetCompareSwap,"ax",%progbits
 934              		.align	2
 935              		.global	System_Timer_SetCompareSwap
 936              		.code	16
 937              		.thumb_func
 938              		.type	System_Timer_SetCompareSwap, %function
 939              	System_Timer_SetCompareSwap:
 940              	.LFB20:
 711:Generated_Source\PSoC4/System_Timer.c **** 
 712:Generated_Source\PSoC4/System_Timer.c **** 
 713:Generated_Source\PSoC4/System_Timer.c **** /*******************************************************************************
ARM GAS  C:\Users\ADMINI~1.SC-\AppData\Local\Temp\ccEAhJMV.s 			page 30


 714:Generated_Source\PSoC4/System_Timer.c **** * Function Name: System_Timer_SetCompareSwap
 715:Generated_Source\PSoC4/System_Timer.c **** ********************************************************************************
 716:Generated_Source\PSoC4/System_Timer.c **** *
 717:Generated_Source\PSoC4/System_Timer.c **** * Summary:
 718:Generated_Source\PSoC4/System_Timer.c **** *  Writes the register that controls whether the compare registers are
 719:Generated_Source\PSoC4/System_Timer.c **** *  swapped. When enabled in the Timer/Counter mode(without capture) the swap
 720:Generated_Source\PSoC4/System_Timer.c **** *  occurs at a TC event. In the PWM mode the swap occurs at the next TC event
 721:Generated_Source\PSoC4/System_Timer.c **** *  following a hardware switch event.
 722:Generated_Source\PSoC4/System_Timer.c **** *
 723:Generated_Source\PSoC4/System_Timer.c **** * Parameters:
 724:Generated_Source\PSoC4/System_Timer.c **** *  swapEnable
 725:Generated_Source\PSoC4/System_Timer.c **** *   Values:
 726:Generated_Source\PSoC4/System_Timer.c **** *     - 0 - Disable swap
 727:Generated_Source\PSoC4/System_Timer.c **** *     - 1 - Enable swap
 728:Generated_Source\PSoC4/System_Timer.c **** *
 729:Generated_Source\PSoC4/System_Timer.c **** * Return:
 730:Generated_Source\PSoC4/System_Timer.c **** *  None
 731:Generated_Source\PSoC4/System_Timer.c **** *
 732:Generated_Source\PSoC4/System_Timer.c **** *******************************************************************************/
 733:Generated_Source\PSoC4/System_Timer.c **** void System_Timer_SetCompareSwap(uint32 swapEnable)
 734:Generated_Source\PSoC4/System_Timer.c **** {
 941              		.loc 1 734 0
 942              		.cfi_startproc
 943 0000 90B5     		push	{r4, r7, lr}
 944              		.cfi_def_cfa_offset 12
 945              		.cfi_offset 4, -12
 946              		.cfi_offset 7, -8
 947              		.cfi_offset 14, -4
 948 0002 85B0     		sub	sp, sp, #20
 949              		.cfi_def_cfa_offset 32
 950 0004 00AF     		add	r7, sp, #0
 951              		.cfi_def_cfa_register 7
 952 0006 7860     		str	r0, [r7, #4]
 735:Generated_Source\PSoC4/System_Timer.c ****     uint8 enableInterrupts;
 736:Generated_Source\PSoC4/System_Timer.c **** 
 737:Generated_Source\PSoC4/System_Timer.c ****     enableInterrupts = CyEnterCriticalSection();
 953              		.loc 1 737 0
 954 0008 0F23     		mov	r3, #15
 955 000a FC18     		add	r4, r7, r3
 956 000c FFF7FEFF 		bl	CyEnterCriticalSection
 957 0010 031C     		mov	r3, r0
 958 0012 2370     		strb	r3, [r4]
 738:Generated_Source\PSoC4/System_Timer.c **** 
 739:Generated_Source\PSoC4/System_Timer.c ****     System_Timer_CONTROL_REG &= (uint32)~System_Timer_RELOAD_CC_MASK;
 959              		.loc 1 739 0
 960 0014 0B4B     		ldr	r3, .L59
 961 0016 0B4A     		ldr	r2, .L59
 962 0018 1268     		ldr	r2, [r2]
 963 001a 0121     		mov	r1, #1
 964 001c 8A43     		bic	r2, r1
 965 001e 1A60     		str	r2, [r3]
 740:Generated_Source\PSoC4/System_Timer.c ****     System_Timer_CONTROL_REG |= (swapEnable & System_Timer_1BIT_MASK);
 966              		.loc 1 740 0
 967 0020 084B     		ldr	r3, .L59
 968 0022 084A     		ldr	r2, .L59
 969 0024 1168     		ldr	r1, [r2]
 970 0026 7A68     		ldr	r2, [r7, #4]
ARM GAS  C:\Users\ADMINI~1.SC-\AppData\Local\Temp\ccEAhJMV.s 			page 31


 971 0028 0120     		mov	r0, #1
 972 002a 0240     		and	r2, r0
 973 002c 0A43     		orr	r2, r1
 974 002e 1A60     		str	r2, [r3]
 741:Generated_Source\PSoC4/System_Timer.c **** 
 742:Generated_Source\PSoC4/System_Timer.c ****     CyExitCriticalSection(enableInterrupts);
 975              		.loc 1 742 0
 976 0030 0F23     		mov	r3, #15
 977 0032 FB18     		add	r3, r7, r3
 978 0034 1B78     		ldrb	r3, [r3]
 979 0036 181C     		mov	r0, r3
 980 0038 FFF7FEFF 		bl	CyExitCriticalSection
 743:Generated_Source\PSoC4/System_Timer.c **** }
 981              		.loc 1 743 0
 982 003c BD46     		mov	sp, r7
 983 003e 05B0     		add	sp, sp, #20
 984              		@ sp needed
 985 0040 90BD     		pop	{r4, r7, pc}
 986              	.L60:
 987 0042 C046     		.align	2
 988              	.L59:
 989 0044 00012040 		.word	1075839232
 990              		.cfi_endproc
 991              	.LFE20:
 992              		.size	System_Timer_SetCompareSwap, .-System_Timer_SetCompareSwap
 993              		.section	.text.System_Timer_WritePeriodBuf,"ax",%progbits
 994              		.align	2
 995              		.global	System_Timer_WritePeriodBuf
 996              		.code	16
 997              		.thumb_func
 998              		.type	System_Timer_WritePeriodBuf, %function
 999              	System_Timer_WritePeriodBuf:
 1000              	.LFB21:
 744:Generated_Source\PSoC4/System_Timer.c **** 
 745:Generated_Source\PSoC4/System_Timer.c **** 
 746:Generated_Source\PSoC4/System_Timer.c **** /*******************************************************************************
 747:Generated_Source\PSoC4/System_Timer.c **** * Function Name: System_Timer_WritePeriodBuf
 748:Generated_Source\PSoC4/System_Timer.c **** ********************************************************************************
 749:Generated_Source\PSoC4/System_Timer.c **** *
 750:Generated_Source\PSoC4/System_Timer.c **** * Summary:
 751:Generated_Source\PSoC4/System_Timer.c **** *  Writes the 16 bit period buf register with the new period value.
 752:Generated_Source\PSoC4/System_Timer.c **** *
 753:Generated_Source\PSoC4/System_Timer.c **** * Parameters:
 754:Generated_Source\PSoC4/System_Timer.c **** *  periodBuf: Period value
 755:Generated_Source\PSoC4/System_Timer.c **** *
 756:Generated_Source\PSoC4/System_Timer.c **** * Return:
 757:Generated_Source\PSoC4/System_Timer.c **** *  None
 758:Generated_Source\PSoC4/System_Timer.c **** *
 759:Generated_Source\PSoC4/System_Timer.c **** *******************************************************************************/
 760:Generated_Source\PSoC4/System_Timer.c **** void System_Timer_WritePeriodBuf(uint32 periodBuf)
 761:Generated_Source\PSoC4/System_Timer.c **** {
 1001              		.loc 1 761 0
 1002              		.cfi_startproc
 1003 0000 80B5     		push	{r7, lr}
 1004              		.cfi_def_cfa_offset 8
 1005              		.cfi_offset 7, -8
 1006              		.cfi_offset 14, -4
ARM GAS  C:\Users\ADMINI~1.SC-\AppData\Local\Temp\ccEAhJMV.s 			page 32


 1007 0002 82B0     		sub	sp, sp, #8
 1008              		.cfi_def_cfa_offset 16
 1009 0004 00AF     		add	r7, sp, #0
 1010              		.cfi_def_cfa_register 7
 1011 0006 7860     		str	r0, [r7, #4]
 762:Generated_Source\PSoC4/System_Timer.c ****     System_Timer_PERIOD_BUF_REG = (periodBuf & System_Timer_16BIT_MASK);
 1012              		.loc 1 762 0
 1013 0008 034B     		ldr	r3, .L62
 1014 000a 7A68     		ldr	r2, [r7, #4]
 1015 000c 1204     		lsl	r2, r2, #16
 1016 000e 120C     		lsr	r2, r2, #16
 1017 0010 1A60     		str	r2, [r3]
 763:Generated_Source\PSoC4/System_Timer.c **** }
 1018              		.loc 1 763 0
 1019 0012 BD46     		mov	sp, r7
 1020 0014 02B0     		add	sp, sp, #8
 1021              		@ sp needed
 1022 0016 80BD     		pop	{r7, pc}
 1023              	.L63:
 1024              		.align	2
 1025              	.L62:
 1026 0018 18012040 		.word	1075839256
 1027              		.cfi_endproc
 1028              	.LFE21:
 1029              		.size	System_Timer_WritePeriodBuf, .-System_Timer_WritePeriodBuf
 1030              		.section	.text.System_Timer_ReadPeriodBuf,"ax",%progbits
 1031              		.align	2
 1032              		.global	System_Timer_ReadPeriodBuf
 1033              		.code	16
 1034              		.thumb_func
 1035              		.type	System_Timer_ReadPeriodBuf, %function
 1036              	System_Timer_ReadPeriodBuf:
 1037              	.LFB22:
 764:Generated_Source\PSoC4/System_Timer.c **** 
 765:Generated_Source\PSoC4/System_Timer.c **** 
 766:Generated_Source\PSoC4/System_Timer.c **** /*******************************************************************************
 767:Generated_Source\PSoC4/System_Timer.c **** * Function Name: System_Timer_ReadPeriodBuf
 768:Generated_Source\PSoC4/System_Timer.c **** ********************************************************************************
 769:Generated_Source\PSoC4/System_Timer.c **** *
 770:Generated_Source\PSoC4/System_Timer.c **** * Summary:
 771:Generated_Source\PSoC4/System_Timer.c **** *  Reads the 16 bit period buf register.
 772:Generated_Source\PSoC4/System_Timer.c **** *
 773:Generated_Source\PSoC4/System_Timer.c **** * Parameters:
 774:Generated_Source\PSoC4/System_Timer.c **** *  None
 775:Generated_Source\PSoC4/System_Timer.c **** *
 776:Generated_Source\PSoC4/System_Timer.c **** * Return:
 777:Generated_Source\PSoC4/System_Timer.c **** *  Period value
 778:Generated_Source\PSoC4/System_Timer.c **** *
 779:Generated_Source\PSoC4/System_Timer.c **** *******************************************************************************/
 780:Generated_Source\PSoC4/System_Timer.c **** uint32 System_Timer_ReadPeriodBuf(void)
 781:Generated_Source\PSoC4/System_Timer.c **** {
 1038              		.loc 1 781 0
 1039              		.cfi_startproc
 1040 0000 80B5     		push	{r7, lr}
 1041              		.cfi_def_cfa_offset 8
 1042              		.cfi_offset 7, -8
 1043              		.cfi_offset 14, -4
ARM GAS  C:\Users\ADMINI~1.SC-\AppData\Local\Temp\ccEAhJMV.s 			page 33


 1044 0002 00AF     		add	r7, sp, #0
 1045              		.cfi_def_cfa_register 7
 782:Generated_Source\PSoC4/System_Timer.c ****     return (System_Timer_PERIOD_BUF_REG & System_Timer_16BIT_MASK);
 1046              		.loc 1 782 0
 1047 0004 034B     		ldr	r3, .L66
 1048 0006 1B68     		ldr	r3, [r3]
 1049 0008 1B04     		lsl	r3, r3, #16
 1050 000a 1B0C     		lsr	r3, r3, #16
 783:Generated_Source\PSoC4/System_Timer.c **** }
 1051              		.loc 1 783 0
 1052 000c 181C     		mov	r0, r3
 1053 000e BD46     		mov	sp, r7
 1054              		@ sp needed
 1055 0010 80BD     		pop	{r7, pc}
 1056              	.L67:
 1057 0012 C046     		.align	2
 1058              	.L66:
 1059 0014 18012040 		.word	1075839256
 1060              		.cfi_endproc
 1061              	.LFE22:
 1062              		.size	System_Timer_ReadPeriodBuf, .-System_Timer_ReadPeriodBuf
 1063              		.section	.text.System_Timer_SetPeriodSwap,"ax",%progbits
 1064              		.align	2
 1065              		.global	System_Timer_SetPeriodSwap
 1066              		.code	16
 1067              		.thumb_func
 1068              		.type	System_Timer_SetPeriodSwap, %function
 1069              	System_Timer_SetPeriodSwap:
 1070              	.LFB23:
 784:Generated_Source\PSoC4/System_Timer.c **** 
 785:Generated_Source\PSoC4/System_Timer.c **** 
 786:Generated_Source\PSoC4/System_Timer.c **** /*******************************************************************************
 787:Generated_Source\PSoC4/System_Timer.c **** * Function Name: System_Timer_SetPeriodSwap
 788:Generated_Source\PSoC4/System_Timer.c **** ********************************************************************************
 789:Generated_Source\PSoC4/System_Timer.c **** *
 790:Generated_Source\PSoC4/System_Timer.c **** * Summary:
 791:Generated_Source\PSoC4/System_Timer.c **** *  Writes the register that controls whether the period registers are
 792:Generated_Source\PSoC4/System_Timer.c **** *  swapped. When enabled in Timer/Counter mode the swap occurs at a TC event.
 793:Generated_Source\PSoC4/System_Timer.c **** *  In the PWM mode the swap occurs at the next TC event following a hardware
 794:Generated_Source\PSoC4/System_Timer.c **** *  switch event.
 795:Generated_Source\PSoC4/System_Timer.c **** *
 796:Generated_Source\PSoC4/System_Timer.c **** * Parameters:
 797:Generated_Source\PSoC4/System_Timer.c **** *  swapEnable
 798:Generated_Source\PSoC4/System_Timer.c **** *   Values:
 799:Generated_Source\PSoC4/System_Timer.c **** *     - 0 - Disable swap
 800:Generated_Source\PSoC4/System_Timer.c **** *     - 1 - Enable swap
 801:Generated_Source\PSoC4/System_Timer.c **** *
 802:Generated_Source\PSoC4/System_Timer.c **** * Return:
 803:Generated_Source\PSoC4/System_Timer.c **** *  None
 804:Generated_Source\PSoC4/System_Timer.c **** *
 805:Generated_Source\PSoC4/System_Timer.c **** *******************************************************************************/
 806:Generated_Source\PSoC4/System_Timer.c **** void System_Timer_SetPeriodSwap(uint32 swapEnable)
 807:Generated_Source\PSoC4/System_Timer.c **** {
 1071              		.loc 1 807 0
 1072              		.cfi_startproc
 1073 0000 90B5     		push	{r4, r7, lr}
 1074              		.cfi_def_cfa_offset 12
ARM GAS  C:\Users\ADMINI~1.SC-\AppData\Local\Temp\ccEAhJMV.s 			page 34


 1075              		.cfi_offset 4, -12
 1076              		.cfi_offset 7, -8
 1077              		.cfi_offset 14, -4
 1078 0002 85B0     		sub	sp, sp, #20
 1079              		.cfi_def_cfa_offset 32
 1080 0004 00AF     		add	r7, sp, #0
 1081              		.cfi_def_cfa_register 7
 1082 0006 7860     		str	r0, [r7, #4]
 808:Generated_Source\PSoC4/System_Timer.c ****     uint8 enableInterrupts;
 809:Generated_Source\PSoC4/System_Timer.c **** 
 810:Generated_Source\PSoC4/System_Timer.c ****     enableInterrupts = CyEnterCriticalSection();
 1083              		.loc 1 810 0
 1084 0008 0F23     		mov	r3, #15
 1085 000a FC18     		add	r4, r7, r3
 1086 000c FFF7FEFF 		bl	CyEnterCriticalSection
 1087 0010 031C     		mov	r3, r0
 1088 0012 2370     		strb	r3, [r4]
 811:Generated_Source\PSoC4/System_Timer.c **** 
 812:Generated_Source\PSoC4/System_Timer.c ****     System_Timer_CONTROL_REG &= (uint32)~System_Timer_RELOAD_PERIOD_MASK;
 1089              		.loc 1 812 0
 1090 0014 0B4B     		ldr	r3, .L69
 1091 0016 0B4A     		ldr	r2, .L69
 1092 0018 1268     		ldr	r2, [r2]
 1093 001a 0221     		mov	r1, #2
 1094 001c 8A43     		bic	r2, r1
 1095 001e 1A60     		str	r2, [r3]
 813:Generated_Source\PSoC4/System_Timer.c ****     System_Timer_CONTROL_REG |= ((uint32)((swapEnable & System_Timer_1BIT_MASK) <<
 1096              		.loc 1 813 0
 1097 0020 084B     		ldr	r3, .L69
 1098 0022 084A     		ldr	r2, .L69
 1099 0024 1168     		ldr	r1, [r2]
 1100 0026 7A68     		ldr	r2, [r7, #4]
 1101 0028 0120     		mov	r0, #1
 1102 002a 0240     		and	r2, r0
 1103 002c 5200     		lsl	r2, r2, #1
 1104 002e 0A43     		orr	r2, r1
 1105 0030 1A60     		str	r2, [r3]
 814:Generated_Source\PSoC4/System_Timer.c ****                                                             System_Timer_RELOAD_PERIOD_SHIFT));
 815:Generated_Source\PSoC4/System_Timer.c **** 
 816:Generated_Source\PSoC4/System_Timer.c ****     CyExitCriticalSection(enableInterrupts);
 1106              		.loc 1 816 0
 1107 0032 0F23     		mov	r3, #15
 1108 0034 FB18     		add	r3, r7, r3
 1109 0036 1B78     		ldrb	r3, [r3]
 1110 0038 181C     		mov	r0, r3
 1111 003a FFF7FEFF 		bl	CyExitCriticalSection
 817:Generated_Source\PSoC4/System_Timer.c **** }
 1112              		.loc 1 817 0
 1113 003e BD46     		mov	sp, r7
 1114 0040 05B0     		add	sp, sp, #20
 1115              		@ sp needed
 1116 0042 90BD     		pop	{r4, r7, pc}
 1117              	.L70:
 1118              		.align	2
 1119              	.L69:
 1120 0044 00012040 		.word	1075839232
 1121              		.cfi_endproc
ARM GAS  C:\Users\ADMINI~1.SC-\AppData\Local\Temp\ccEAhJMV.s 			page 35


 1122              	.LFE23:
 1123              		.size	System_Timer_SetPeriodSwap, .-System_Timer_SetPeriodSwap
 1124              		.section	.text.System_Timer_WriteCompare,"ax",%progbits
 1125              		.align	2
 1126              		.global	System_Timer_WriteCompare
 1127              		.code	16
 1128              		.thumb_func
 1129              		.type	System_Timer_WriteCompare, %function
 1130              	System_Timer_WriteCompare:
 1131              	.LFB24:
 818:Generated_Source\PSoC4/System_Timer.c **** 
 819:Generated_Source\PSoC4/System_Timer.c **** 
 820:Generated_Source\PSoC4/System_Timer.c **** /*******************************************************************************
 821:Generated_Source\PSoC4/System_Timer.c **** * Function Name: System_Timer_WriteCompare
 822:Generated_Source\PSoC4/System_Timer.c **** ********************************************************************************
 823:Generated_Source\PSoC4/System_Timer.c **** *
 824:Generated_Source\PSoC4/System_Timer.c **** * Summary:
 825:Generated_Source\PSoC4/System_Timer.c **** *  Writes the 16 bit compare register with the new compare value. Not
 826:Generated_Source\PSoC4/System_Timer.c **** *  applicable for Timer/Counter with Capture or in Quadrature Decoder modes.
 827:Generated_Source\PSoC4/System_Timer.c **** *
 828:Generated_Source\PSoC4/System_Timer.c **** * Parameters:
 829:Generated_Source\PSoC4/System_Timer.c **** *  compare: Compare value
 830:Generated_Source\PSoC4/System_Timer.c **** *
 831:Generated_Source\PSoC4/System_Timer.c **** * Return:
 832:Generated_Source\PSoC4/System_Timer.c **** *  None
 833:Generated_Source\PSoC4/System_Timer.c **** *
 834:Generated_Source\PSoC4/System_Timer.c **** *******************************************************************************/
 835:Generated_Source\PSoC4/System_Timer.c **** void System_Timer_WriteCompare(uint32 compare)
 836:Generated_Source\PSoC4/System_Timer.c **** {
 1132              		.loc 1 836 0
 1133              		.cfi_startproc
 1134 0000 80B5     		push	{r7, lr}
 1135              		.cfi_def_cfa_offset 8
 1136              		.cfi_offset 7, -8
 1137              		.cfi_offset 14, -4
 1138 0002 82B0     		sub	sp, sp, #8
 1139              		.cfi_def_cfa_offset 16
 1140 0004 00AF     		add	r7, sp, #0
 1141              		.cfi_def_cfa_register 7
 1142 0006 7860     		str	r0, [r7, #4]
 837:Generated_Source\PSoC4/System_Timer.c ****     #if (System_Timer_CY_TCPWM_4000)
 838:Generated_Source\PSoC4/System_Timer.c ****         uint32 currentMode;
 839:Generated_Source\PSoC4/System_Timer.c ****     #endif /* (System_Timer_CY_TCPWM_4000) */
 840:Generated_Source\PSoC4/System_Timer.c **** 
 841:Generated_Source\PSoC4/System_Timer.c ****     #if (System_Timer_CY_TCPWM_4000)
 842:Generated_Source\PSoC4/System_Timer.c ****         currentMode = ((System_Timer_CONTROL_REG & System_Timer_UPDOWN_MASK) >> System_Timer_UPDOWN
 843:Generated_Source\PSoC4/System_Timer.c **** 
 844:Generated_Source\PSoC4/System_Timer.c ****         if (((uint32)System_Timer__COUNT_DOWN == currentMode) && (0xFFFFu != compare))
 845:Generated_Source\PSoC4/System_Timer.c ****         {
 846:Generated_Source\PSoC4/System_Timer.c ****             compare++;
 847:Generated_Source\PSoC4/System_Timer.c ****         }
 848:Generated_Source\PSoC4/System_Timer.c ****         else if (((uint32)System_Timer__COUNT_UP == currentMode) && (0u != compare))
 849:Generated_Source\PSoC4/System_Timer.c ****         {
 850:Generated_Source\PSoC4/System_Timer.c ****             compare--;
 851:Generated_Source\PSoC4/System_Timer.c ****         }
 852:Generated_Source\PSoC4/System_Timer.c ****         else
 853:Generated_Source\PSoC4/System_Timer.c ****         {
ARM GAS  C:\Users\ADMINI~1.SC-\AppData\Local\Temp\ccEAhJMV.s 			page 36


 854:Generated_Source\PSoC4/System_Timer.c ****         }
 855:Generated_Source\PSoC4/System_Timer.c ****         
 856:Generated_Source\PSoC4/System_Timer.c ****     
 857:Generated_Source\PSoC4/System_Timer.c ****     #endif /* (System_Timer_CY_TCPWM_4000) */
 858:Generated_Source\PSoC4/System_Timer.c ****     
 859:Generated_Source\PSoC4/System_Timer.c ****     System_Timer_COMP_CAP_REG = (compare & System_Timer_16BIT_MASK);
 1143              		.loc 1 859 0
 1144 0008 034B     		ldr	r3, .L72
 1145 000a 7A68     		ldr	r2, [r7, #4]
 1146 000c 1204     		lsl	r2, r2, #16
 1147 000e 120C     		lsr	r2, r2, #16
 1148 0010 1A60     		str	r2, [r3]
 860:Generated_Source\PSoC4/System_Timer.c **** }
 1149              		.loc 1 860 0
 1150 0012 BD46     		mov	sp, r7
 1151 0014 02B0     		add	sp, sp, #8
 1152              		@ sp needed
 1153 0016 80BD     		pop	{r7, pc}
 1154              	.L73:
 1155              		.align	2
 1156              	.L72:
 1157 0018 0C012040 		.word	1075839244
 1158              		.cfi_endproc
 1159              	.LFE24:
 1160              		.size	System_Timer_WriteCompare, .-System_Timer_WriteCompare
 1161              		.section	.text.System_Timer_ReadCompare,"ax",%progbits
 1162              		.align	2
 1163              		.global	System_Timer_ReadCompare
 1164              		.code	16
 1165              		.thumb_func
 1166              		.type	System_Timer_ReadCompare, %function
 1167              	System_Timer_ReadCompare:
 1168              	.LFB25:
 861:Generated_Source\PSoC4/System_Timer.c **** 
 862:Generated_Source\PSoC4/System_Timer.c **** 
 863:Generated_Source\PSoC4/System_Timer.c **** /*******************************************************************************
 864:Generated_Source\PSoC4/System_Timer.c **** * Function Name: System_Timer_ReadCompare
 865:Generated_Source\PSoC4/System_Timer.c **** ********************************************************************************
 866:Generated_Source\PSoC4/System_Timer.c **** *
 867:Generated_Source\PSoC4/System_Timer.c **** * Summary:
 868:Generated_Source\PSoC4/System_Timer.c **** *  Reads the compare register. Not applicable for Timer/Counter with Capture
 869:Generated_Source\PSoC4/System_Timer.c **** *  or in Quadrature Decoder modes.
 870:Generated_Source\PSoC4/System_Timer.c **** *
 871:Generated_Source\PSoC4/System_Timer.c **** * Parameters:
 872:Generated_Source\PSoC4/System_Timer.c **** *  None
 873:Generated_Source\PSoC4/System_Timer.c **** *
 874:Generated_Source\PSoC4/System_Timer.c **** * Return:
 875:Generated_Source\PSoC4/System_Timer.c **** *  Compare value
 876:Generated_Source\PSoC4/System_Timer.c **** *
 877:Generated_Source\PSoC4/System_Timer.c **** *******************************************************************************/
 878:Generated_Source\PSoC4/System_Timer.c **** uint32 System_Timer_ReadCompare(void)
 879:Generated_Source\PSoC4/System_Timer.c **** {
 1169              		.loc 1 879 0
 1170              		.cfi_startproc
 1171 0000 80B5     		push	{r7, lr}
 1172              		.cfi_def_cfa_offset 8
 1173              		.cfi_offset 7, -8
ARM GAS  C:\Users\ADMINI~1.SC-\AppData\Local\Temp\ccEAhJMV.s 			page 37


 1174              		.cfi_offset 14, -4
 1175 0002 00AF     		add	r7, sp, #0
 1176              		.cfi_def_cfa_register 7
 880:Generated_Source\PSoC4/System_Timer.c ****     #if (System_Timer_CY_TCPWM_4000)
 881:Generated_Source\PSoC4/System_Timer.c ****         uint32 currentMode;
 882:Generated_Source\PSoC4/System_Timer.c ****         uint32 regVal;
 883:Generated_Source\PSoC4/System_Timer.c ****     #endif /* (System_Timer_CY_TCPWM_4000) */
 884:Generated_Source\PSoC4/System_Timer.c **** 
 885:Generated_Source\PSoC4/System_Timer.c ****     #if (System_Timer_CY_TCPWM_4000)
 886:Generated_Source\PSoC4/System_Timer.c ****         currentMode = ((System_Timer_CONTROL_REG & System_Timer_UPDOWN_MASK) >> System_Timer_UPDOWN
 887:Generated_Source\PSoC4/System_Timer.c ****         
 888:Generated_Source\PSoC4/System_Timer.c ****         regVal = System_Timer_COMP_CAP_REG;
 889:Generated_Source\PSoC4/System_Timer.c ****         
 890:Generated_Source\PSoC4/System_Timer.c ****         if (((uint32)System_Timer__COUNT_DOWN == currentMode) && (0u != regVal))
 891:Generated_Source\PSoC4/System_Timer.c ****         {
 892:Generated_Source\PSoC4/System_Timer.c ****             regVal--;
 893:Generated_Source\PSoC4/System_Timer.c ****         }
 894:Generated_Source\PSoC4/System_Timer.c ****         else if (((uint32)System_Timer__COUNT_UP == currentMode) && (0xFFFFu != regVal))
 895:Generated_Source\PSoC4/System_Timer.c ****         {
 896:Generated_Source\PSoC4/System_Timer.c ****             regVal++;
 897:Generated_Source\PSoC4/System_Timer.c ****         }
 898:Generated_Source\PSoC4/System_Timer.c ****         else
 899:Generated_Source\PSoC4/System_Timer.c ****         {
 900:Generated_Source\PSoC4/System_Timer.c ****         }
 901:Generated_Source\PSoC4/System_Timer.c **** 
 902:Generated_Source\PSoC4/System_Timer.c ****         return (regVal & System_Timer_16BIT_MASK);
 903:Generated_Source\PSoC4/System_Timer.c ****     #else
 904:Generated_Source\PSoC4/System_Timer.c ****         return (System_Timer_COMP_CAP_REG & System_Timer_16BIT_MASK);
 1177              		.loc 1 904 0
 1178 0004 034B     		ldr	r3, .L76
 1179 0006 1B68     		ldr	r3, [r3]
 1180 0008 1B04     		lsl	r3, r3, #16
 1181 000a 1B0C     		lsr	r3, r3, #16
 905:Generated_Source\PSoC4/System_Timer.c ****     #endif /* (System_Timer_CY_TCPWM_4000) */
 906:Generated_Source\PSoC4/System_Timer.c **** }
 1182              		.loc 1 906 0
 1183 000c 181C     		mov	r0, r3
 1184 000e BD46     		mov	sp, r7
 1185              		@ sp needed
 1186 0010 80BD     		pop	{r7, pc}
 1187              	.L77:
 1188 0012 C046     		.align	2
 1189              	.L76:
 1190 0014 0C012040 		.word	1075839244
 1191              		.cfi_endproc
 1192              	.LFE25:
 1193              		.size	System_Timer_ReadCompare, .-System_Timer_ReadCompare
 1194              		.section	.text.System_Timer_WriteCompareBuf,"ax",%progbits
 1195              		.align	2
 1196              		.global	System_Timer_WriteCompareBuf
 1197              		.code	16
 1198              		.thumb_func
 1199              		.type	System_Timer_WriteCompareBuf, %function
 1200              	System_Timer_WriteCompareBuf:
 1201              	.LFB26:
 907:Generated_Source\PSoC4/System_Timer.c **** 
 908:Generated_Source\PSoC4/System_Timer.c **** 
ARM GAS  C:\Users\ADMINI~1.SC-\AppData\Local\Temp\ccEAhJMV.s 			page 38


 909:Generated_Source\PSoC4/System_Timer.c **** /*******************************************************************************
 910:Generated_Source\PSoC4/System_Timer.c **** * Function Name: System_Timer_WriteCompareBuf
 911:Generated_Source\PSoC4/System_Timer.c **** ********************************************************************************
 912:Generated_Source\PSoC4/System_Timer.c **** *
 913:Generated_Source\PSoC4/System_Timer.c **** * Summary:
 914:Generated_Source\PSoC4/System_Timer.c **** *  Writes the 16 bit compare buffer register with the new compare value. Not
 915:Generated_Source\PSoC4/System_Timer.c **** *  applicable for Timer/Counter with Capture or in Quadrature Decoder modes.
 916:Generated_Source\PSoC4/System_Timer.c **** *
 917:Generated_Source\PSoC4/System_Timer.c **** * Parameters:
 918:Generated_Source\PSoC4/System_Timer.c **** *  compareBuf: Compare value
 919:Generated_Source\PSoC4/System_Timer.c **** *
 920:Generated_Source\PSoC4/System_Timer.c **** * Return:
 921:Generated_Source\PSoC4/System_Timer.c **** *  None
 922:Generated_Source\PSoC4/System_Timer.c **** *
 923:Generated_Source\PSoC4/System_Timer.c **** *******************************************************************************/
 924:Generated_Source\PSoC4/System_Timer.c **** void System_Timer_WriteCompareBuf(uint32 compareBuf)
 925:Generated_Source\PSoC4/System_Timer.c **** {
 1202              		.loc 1 925 0
 1203              		.cfi_startproc
 1204 0000 80B5     		push	{r7, lr}
 1205              		.cfi_def_cfa_offset 8
 1206              		.cfi_offset 7, -8
 1207              		.cfi_offset 14, -4
 1208 0002 82B0     		sub	sp, sp, #8
 1209              		.cfi_def_cfa_offset 16
 1210 0004 00AF     		add	r7, sp, #0
 1211              		.cfi_def_cfa_register 7
 1212 0006 7860     		str	r0, [r7, #4]
 926:Generated_Source\PSoC4/System_Timer.c ****     #if (System_Timer_CY_TCPWM_4000)
 927:Generated_Source\PSoC4/System_Timer.c ****         uint32 currentMode;
 928:Generated_Source\PSoC4/System_Timer.c ****     #endif /* (System_Timer_CY_TCPWM_4000) */
 929:Generated_Source\PSoC4/System_Timer.c **** 
 930:Generated_Source\PSoC4/System_Timer.c ****     #if (System_Timer_CY_TCPWM_4000)
 931:Generated_Source\PSoC4/System_Timer.c ****         currentMode = ((System_Timer_CONTROL_REG & System_Timer_UPDOWN_MASK) >> System_Timer_UPDOWN
 932:Generated_Source\PSoC4/System_Timer.c **** 
 933:Generated_Source\PSoC4/System_Timer.c ****         if (((uint32)System_Timer__COUNT_DOWN == currentMode) && (0xFFFFu != compareBuf))
 934:Generated_Source\PSoC4/System_Timer.c ****         {
 935:Generated_Source\PSoC4/System_Timer.c ****             compareBuf++;
 936:Generated_Source\PSoC4/System_Timer.c ****         }
 937:Generated_Source\PSoC4/System_Timer.c ****         else if (((uint32)System_Timer__COUNT_UP == currentMode) && (0u != compareBuf))
 938:Generated_Source\PSoC4/System_Timer.c ****         {
 939:Generated_Source\PSoC4/System_Timer.c ****             compareBuf --;
 940:Generated_Source\PSoC4/System_Timer.c ****         }
 941:Generated_Source\PSoC4/System_Timer.c ****         else
 942:Generated_Source\PSoC4/System_Timer.c ****         {
 943:Generated_Source\PSoC4/System_Timer.c ****         }
 944:Generated_Source\PSoC4/System_Timer.c ****     #endif /* (System_Timer_CY_TCPWM_4000) */
 945:Generated_Source\PSoC4/System_Timer.c ****     
 946:Generated_Source\PSoC4/System_Timer.c ****     System_Timer_COMP_CAP_BUF_REG = (compareBuf & System_Timer_16BIT_MASK);
 1213              		.loc 1 946 0
 1214 0008 034B     		ldr	r3, .L79
 1215 000a 7A68     		ldr	r2, [r7, #4]
 1216 000c 1204     		lsl	r2, r2, #16
 1217 000e 120C     		lsr	r2, r2, #16
 1218 0010 1A60     		str	r2, [r3]
 947:Generated_Source\PSoC4/System_Timer.c **** }
 1219              		.loc 1 947 0
ARM GAS  C:\Users\ADMINI~1.SC-\AppData\Local\Temp\ccEAhJMV.s 			page 39


 1220 0012 BD46     		mov	sp, r7
 1221 0014 02B0     		add	sp, sp, #8
 1222              		@ sp needed
 1223 0016 80BD     		pop	{r7, pc}
 1224              	.L80:
 1225              		.align	2
 1226              	.L79:
 1227 0018 10012040 		.word	1075839248
 1228              		.cfi_endproc
 1229              	.LFE26:
 1230              		.size	System_Timer_WriteCompareBuf, .-System_Timer_WriteCompareBuf
 1231              		.section	.text.System_Timer_ReadCompareBuf,"ax",%progbits
 1232              		.align	2
 1233              		.global	System_Timer_ReadCompareBuf
 1234              		.code	16
 1235              		.thumb_func
 1236              		.type	System_Timer_ReadCompareBuf, %function
 1237              	System_Timer_ReadCompareBuf:
 1238              	.LFB27:
 948:Generated_Source\PSoC4/System_Timer.c **** 
 949:Generated_Source\PSoC4/System_Timer.c **** 
 950:Generated_Source\PSoC4/System_Timer.c **** /*******************************************************************************
 951:Generated_Source\PSoC4/System_Timer.c **** * Function Name: System_Timer_ReadCompareBuf
 952:Generated_Source\PSoC4/System_Timer.c **** ********************************************************************************
 953:Generated_Source\PSoC4/System_Timer.c **** *
 954:Generated_Source\PSoC4/System_Timer.c **** * Summary:
 955:Generated_Source\PSoC4/System_Timer.c **** *  Reads the compare buffer register. Not applicable for Timer/Counter with
 956:Generated_Source\PSoC4/System_Timer.c **** *  Capture or in Quadrature Decoder modes.
 957:Generated_Source\PSoC4/System_Timer.c **** *
 958:Generated_Source\PSoC4/System_Timer.c **** * Parameters:
 959:Generated_Source\PSoC4/System_Timer.c **** *  None
 960:Generated_Source\PSoC4/System_Timer.c **** *
 961:Generated_Source\PSoC4/System_Timer.c **** * Return:
 962:Generated_Source\PSoC4/System_Timer.c **** *  Compare buffer value
 963:Generated_Source\PSoC4/System_Timer.c **** *
 964:Generated_Source\PSoC4/System_Timer.c **** *******************************************************************************/
 965:Generated_Source\PSoC4/System_Timer.c **** uint32 System_Timer_ReadCompareBuf(void)
 966:Generated_Source\PSoC4/System_Timer.c **** {
 1239              		.loc 1 966 0
 1240              		.cfi_startproc
 1241 0000 80B5     		push	{r7, lr}
 1242              		.cfi_def_cfa_offset 8
 1243              		.cfi_offset 7, -8
 1244              		.cfi_offset 14, -4
 1245 0002 00AF     		add	r7, sp, #0
 1246              		.cfi_def_cfa_register 7
 967:Generated_Source\PSoC4/System_Timer.c ****     #if (System_Timer_CY_TCPWM_4000)
 968:Generated_Source\PSoC4/System_Timer.c ****         uint32 currentMode;
 969:Generated_Source\PSoC4/System_Timer.c ****         uint32 regVal;
 970:Generated_Source\PSoC4/System_Timer.c ****     #endif /* (System_Timer_CY_TCPWM_4000) */
 971:Generated_Source\PSoC4/System_Timer.c **** 
 972:Generated_Source\PSoC4/System_Timer.c ****     #if (System_Timer_CY_TCPWM_4000)
 973:Generated_Source\PSoC4/System_Timer.c ****         currentMode = ((System_Timer_CONTROL_REG & System_Timer_UPDOWN_MASK) >> System_Timer_UPDOWN
 974:Generated_Source\PSoC4/System_Timer.c **** 
 975:Generated_Source\PSoC4/System_Timer.c ****         regVal = System_Timer_COMP_CAP_BUF_REG;
 976:Generated_Source\PSoC4/System_Timer.c ****         
 977:Generated_Source\PSoC4/System_Timer.c ****         if (((uint32)System_Timer__COUNT_DOWN == currentMode) && (0u != regVal))
ARM GAS  C:\Users\ADMINI~1.SC-\AppData\Local\Temp\ccEAhJMV.s 			page 40


 978:Generated_Source\PSoC4/System_Timer.c ****         {
 979:Generated_Source\PSoC4/System_Timer.c ****             regVal--;
 980:Generated_Source\PSoC4/System_Timer.c ****         }
 981:Generated_Source\PSoC4/System_Timer.c ****         else if (((uint32)System_Timer__COUNT_UP == currentMode) && (0xFFFFu != regVal))
 982:Generated_Source\PSoC4/System_Timer.c ****         {
 983:Generated_Source\PSoC4/System_Timer.c ****             regVal++;
 984:Generated_Source\PSoC4/System_Timer.c ****         }
 985:Generated_Source\PSoC4/System_Timer.c ****         else
 986:Generated_Source\PSoC4/System_Timer.c ****         {
 987:Generated_Source\PSoC4/System_Timer.c ****         }
 988:Generated_Source\PSoC4/System_Timer.c **** 
 989:Generated_Source\PSoC4/System_Timer.c ****         return (regVal & System_Timer_16BIT_MASK);
 990:Generated_Source\PSoC4/System_Timer.c ****     #else
 991:Generated_Source\PSoC4/System_Timer.c ****         return (System_Timer_COMP_CAP_BUF_REG & System_Timer_16BIT_MASK);
 1247              		.loc 1 991 0
 1248 0004 034B     		ldr	r3, .L83
 1249 0006 1B68     		ldr	r3, [r3]
 1250 0008 1B04     		lsl	r3, r3, #16
 1251 000a 1B0C     		lsr	r3, r3, #16
 992:Generated_Source\PSoC4/System_Timer.c ****     #endif /* (System_Timer_CY_TCPWM_4000) */
 993:Generated_Source\PSoC4/System_Timer.c **** }
 1252              		.loc 1 993 0
 1253 000c 181C     		mov	r0, r3
 1254 000e BD46     		mov	sp, r7
 1255              		@ sp needed
 1256 0010 80BD     		pop	{r7, pc}
 1257              	.L84:
 1258 0012 C046     		.align	2
 1259              	.L83:
 1260 0014 10012040 		.word	1075839248
 1261              		.cfi_endproc
 1262              	.LFE27:
 1263              		.size	System_Timer_ReadCompareBuf, .-System_Timer_ReadCompareBuf
 1264              		.section	.text.System_Timer_ReadCapture,"ax",%progbits
 1265              		.align	2
 1266              		.global	System_Timer_ReadCapture
 1267              		.code	16
 1268              		.thumb_func
 1269              		.type	System_Timer_ReadCapture, %function
 1270              	System_Timer_ReadCapture:
 1271              	.LFB28:
 994:Generated_Source\PSoC4/System_Timer.c **** 
 995:Generated_Source\PSoC4/System_Timer.c **** 
 996:Generated_Source\PSoC4/System_Timer.c **** /*******************************************************************************
 997:Generated_Source\PSoC4/System_Timer.c **** * Function Name: System_Timer_ReadCapture
 998:Generated_Source\PSoC4/System_Timer.c **** ********************************************************************************
 999:Generated_Source\PSoC4/System_Timer.c **** *
1000:Generated_Source\PSoC4/System_Timer.c **** * Summary:
1001:Generated_Source\PSoC4/System_Timer.c **** *  Reads the captured counter value. This API is applicable only for
1002:Generated_Source\PSoC4/System_Timer.c **** *  Timer/Counter with the capture mode and Quadrature Decoder modes.
1003:Generated_Source\PSoC4/System_Timer.c **** *
1004:Generated_Source\PSoC4/System_Timer.c **** * Parameters:
1005:Generated_Source\PSoC4/System_Timer.c **** *  None
1006:Generated_Source\PSoC4/System_Timer.c **** *
1007:Generated_Source\PSoC4/System_Timer.c **** * Return:
1008:Generated_Source\PSoC4/System_Timer.c **** *  Capture value
1009:Generated_Source\PSoC4/System_Timer.c **** *
ARM GAS  C:\Users\ADMINI~1.SC-\AppData\Local\Temp\ccEAhJMV.s 			page 41


1010:Generated_Source\PSoC4/System_Timer.c **** *******************************************************************************/
1011:Generated_Source\PSoC4/System_Timer.c **** uint32 System_Timer_ReadCapture(void)
1012:Generated_Source\PSoC4/System_Timer.c **** {
 1272              		.loc 1 1012 0
 1273              		.cfi_startproc
 1274 0000 80B5     		push	{r7, lr}
 1275              		.cfi_def_cfa_offset 8
 1276              		.cfi_offset 7, -8
 1277              		.cfi_offset 14, -4
 1278 0002 00AF     		add	r7, sp, #0
 1279              		.cfi_def_cfa_register 7
1013:Generated_Source\PSoC4/System_Timer.c ****     return (System_Timer_COMP_CAP_REG & System_Timer_16BIT_MASK);
 1280              		.loc 1 1013 0
 1281 0004 034B     		ldr	r3, .L87
 1282 0006 1B68     		ldr	r3, [r3]
 1283 0008 1B04     		lsl	r3, r3, #16
 1284 000a 1B0C     		lsr	r3, r3, #16
1014:Generated_Source\PSoC4/System_Timer.c **** }
 1285              		.loc 1 1014 0
 1286 000c 181C     		mov	r0, r3
 1287 000e BD46     		mov	sp, r7
 1288              		@ sp needed
 1289 0010 80BD     		pop	{r7, pc}
 1290              	.L88:
 1291 0012 C046     		.align	2
 1292              	.L87:
 1293 0014 0C012040 		.word	1075839244
 1294              		.cfi_endproc
 1295              	.LFE28:
 1296              		.size	System_Timer_ReadCapture, .-System_Timer_ReadCapture
 1297              		.section	.text.System_Timer_ReadCaptureBuf,"ax",%progbits
 1298              		.align	2
 1299              		.global	System_Timer_ReadCaptureBuf
 1300              		.code	16
 1301              		.thumb_func
 1302              		.type	System_Timer_ReadCaptureBuf, %function
 1303              	System_Timer_ReadCaptureBuf:
 1304              	.LFB29:
1015:Generated_Source\PSoC4/System_Timer.c **** 
1016:Generated_Source\PSoC4/System_Timer.c **** 
1017:Generated_Source\PSoC4/System_Timer.c **** /*******************************************************************************
1018:Generated_Source\PSoC4/System_Timer.c **** * Function Name: System_Timer_ReadCaptureBuf
1019:Generated_Source\PSoC4/System_Timer.c **** ********************************************************************************
1020:Generated_Source\PSoC4/System_Timer.c **** *
1021:Generated_Source\PSoC4/System_Timer.c **** * Summary:
1022:Generated_Source\PSoC4/System_Timer.c **** *  Reads the capture buffer register. This API is applicable only for
1023:Generated_Source\PSoC4/System_Timer.c **** *  Timer/Counter with the capture mode and Quadrature Decoder modes.
1024:Generated_Source\PSoC4/System_Timer.c **** *
1025:Generated_Source\PSoC4/System_Timer.c **** * Parameters:
1026:Generated_Source\PSoC4/System_Timer.c **** *  None
1027:Generated_Source\PSoC4/System_Timer.c **** *
1028:Generated_Source\PSoC4/System_Timer.c **** * Return:
1029:Generated_Source\PSoC4/System_Timer.c **** *  Capture buffer value
1030:Generated_Source\PSoC4/System_Timer.c **** *
1031:Generated_Source\PSoC4/System_Timer.c **** *******************************************************************************/
1032:Generated_Source\PSoC4/System_Timer.c **** uint32 System_Timer_ReadCaptureBuf(void)
1033:Generated_Source\PSoC4/System_Timer.c **** {
ARM GAS  C:\Users\ADMINI~1.SC-\AppData\Local\Temp\ccEAhJMV.s 			page 42


 1305              		.loc 1 1033 0
 1306              		.cfi_startproc
 1307 0000 80B5     		push	{r7, lr}
 1308              		.cfi_def_cfa_offset 8
 1309              		.cfi_offset 7, -8
 1310              		.cfi_offset 14, -4
 1311 0002 00AF     		add	r7, sp, #0
 1312              		.cfi_def_cfa_register 7
1034:Generated_Source\PSoC4/System_Timer.c ****     return (System_Timer_COMP_CAP_BUF_REG & System_Timer_16BIT_MASK);
 1313              		.loc 1 1034 0
 1314 0004 034B     		ldr	r3, .L91
 1315 0006 1B68     		ldr	r3, [r3]
 1316 0008 1B04     		lsl	r3, r3, #16
 1317 000a 1B0C     		lsr	r3, r3, #16
1035:Generated_Source\PSoC4/System_Timer.c **** }
 1318              		.loc 1 1035 0
 1319 000c 181C     		mov	r0, r3
 1320 000e BD46     		mov	sp, r7
 1321              		@ sp needed
 1322 0010 80BD     		pop	{r7, pc}
 1323              	.L92:
 1324 0012 C046     		.align	2
 1325              	.L91:
 1326 0014 10012040 		.word	1075839248
 1327              		.cfi_endproc
 1328              	.LFE29:
 1329              		.size	System_Timer_ReadCaptureBuf, .-System_Timer_ReadCaptureBuf
 1330              		.section	.text.System_Timer_SetCaptureMode,"ax",%progbits
 1331              		.align	2
 1332              		.global	System_Timer_SetCaptureMode
 1333              		.code	16
 1334              		.thumb_func
 1335              		.type	System_Timer_SetCaptureMode, %function
 1336              	System_Timer_SetCaptureMode:
 1337              	.LFB30:
1036:Generated_Source\PSoC4/System_Timer.c **** 
1037:Generated_Source\PSoC4/System_Timer.c **** 
1038:Generated_Source\PSoC4/System_Timer.c **** /*******************************************************************************
1039:Generated_Source\PSoC4/System_Timer.c **** * Function Name: System_Timer_SetCaptureMode
1040:Generated_Source\PSoC4/System_Timer.c **** ********************************************************************************
1041:Generated_Source\PSoC4/System_Timer.c **** *
1042:Generated_Source\PSoC4/System_Timer.c **** * Summary:
1043:Generated_Source\PSoC4/System_Timer.c **** *  Sets the capture trigger mode. For PWM mode this is the switch input.
1044:Generated_Source\PSoC4/System_Timer.c **** *  This input is not applicable to the Timer/Counter without Capture and
1045:Generated_Source\PSoC4/System_Timer.c **** *  Quadrature Decoder modes.
1046:Generated_Source\PSoC4/System_Timer.c **** *
1047:Generated_Source\PSoC4/System_Timer.c **** * Parameters:
1048:Generated_Source\PSoC4/System_Timer.c **** *  triggerMode: Enumerated trigger mode value
1049:Generated_Source\PSoC4/System_Timer.c **** *   Values:
1050:Generated_Source\PSoC4/System_Timer.c **** *     - System_Timer_TRIG_LEVEL     - Level
1051:Generated_Source\PSoC4/System_Timer.c **** *     - System_Timer_TRIG_RISING    - Rising edge
1052:Generated_Source\PSoC4/System_Timer.c **** *     - System_Timer_TRIG_FALLING   - Falling edge
1053:Generated_Source\PSoC4/System_Timer.c **** *     - System_Timer_TRIG_BOTH      - Both rising and falling edge
1054:Generated_Source\PSoC4/System_Timer.c **** *
1055:Generated_Source\PSoC4/System_Timer.c **** * Return:
1056:Generated_Source\PSoC4/System_Timer.c **** *  None
1057:Generated_Source\PSoC4/System_Timer.c **** *
ARM GAS  C:\Users\ADMINI~1.SC-\AppData\Local\Temp\ccEAhJMV.s 			page 43


1058:Generated_Source\PSoC4/System_Timer.c **** *******************************************************************************/
1059:Generated_Source\PSoC4/System_Timer.c **** void System_Timer_SetCaptureMode(uint32 triggerMode)
1060:Generated_Source\PSoC4/System_Timer.c **** {
 1338              		.loc 1 1060 0
 1339              		.cfi_startproc
 1340 0000 90B5     		push	{r4, r7, lr}
 1341              		.cfi_def_cfa_offset 12
 1342              		.cfi_offset 4, -12
 1343              		.cfi_offset 7, -8
 1344              		.cfi_offset 14, -4
 1345 0002 85B0     		sub	sp, sp, #20
 1346              		.cfi_def_cfa_offset 32
 1347 0004 00AF     		add	r7, sp, #0
 1348              		.cfi_def_cfa_register 7
 1349 0006 7860     		str	r0, [r7, #4]
1061:Generated_Source\PSoC4/System_Timer.c ****     uint8 enableInterrupts;
1062:Generated_Source\PSoC4/System_Timer.c **** 
1063:Generated_Source\PSoC4/System_Timer.c ****     enableInterrupts = CyEnterCriticalSection();
 1350              		.loc 1 1063 0
 1351 0008 0F23     		mov	r3, #15
 1352 000a FC18     		add	r4, r7, r3
 1353 000c FFF7FEFF 		bl	CyEnterCriticalSection
 1354 0010 031C     		mov	r3, r0
 1355 0012 2370     		strb	r3, [r4]
1064:Generated_Source\PSoC4/System_Timer.c **** 
1065:Generated_Source\PSoC4/System_Timer.c ****     System_Timer_TRIG_CONTROL1_REG &= (uint32)~System_Timer_CAPTURE_MASK;
 1356              		.loc 1 1065 0
 1357 0014 0A4B     		ldr	r3, .L94
 1358 0016 0A4A     		ldr	r2, .L94
 1359 0018 1268     		ldr	r2, [r2]
 1360 001a 0321     		mov	r1, #3
 1361 001c 8A43     		bic	r2, r1
 1362 001e 1A60     		str	r2, [r3]
1066:Generated_Source\PSoC4/System_Timer.c ****     System_Timer_TRIG_CONTROL1_REG |= triggerMode;
 1363              		.loc 1 1066 0
 1364 0020 074B     		ldr	r3, .L94
 1365 0022 074A     		ldr	r2, .L94
 1366 0024 1168     		ldr	r1, [r2]
 1367 0026 7A68     		ldr	r2, [r7, #4]
 1368 0028 0A43     		orr	r2, r1
 1369 002a 1A60     		str	r2, [r3]
1067:Generated_Source\PSoC4/System_Timer.c **** 
1068:Generated_Source\PSoC4/System_Timer.c ****     CyExitCriticalSection(enableInterrupts);
 1370              		.loc 1 1068 0
 1371 002c 0F23     		mov	r3, #15
 1372 002e FB18     		add	r3, r7, r3
 1373 0030 1B78     		ldrb	r3, [r3]
 1374 0032 181C     		mov	r0, r3
 1375 0034 FFF7FEFF 		bl	CyExitCriticalSection
1069:Generated_Source\PSoC4/System_Timer.c **** }
 1376              		.loc 1 1069 0
 1377 0038 BD46     		mov	sp, r7
 1378 003a 05B0     		add	sp, sp, #20
 1379              		@ sp needed
 1380 003c 90BD     		pop	{r4, r7, pc}
 1381              	.L95:
 1382 003e C046     		.align	2
ARM GAS  C:\Users\ADMINI~1.SC-\AppData\Local\Temp\ccEAhJMV.s 			page 44


 1383              	.L94:
 1384 0040 24012040 		.word	1075839268
 1385              		.cfi_endproc
 1386              	.LFE30:
 1387              		.size	System_Timer_SetCaptureMode, .-System_Timer_SetCaptureMode
 1388              		.section	.text.System_Timer_SetReloadMode,"ax",%progbits
 1389              		.align	2
 1390              		.global	System_Timer_SetReloadMode
 1391              		.code	16
 1392              		.thumb_func
 1393              		.type	System_Timer_SetReloadMode, %function
 1394              	System_Timer_SetReloadMode:
 1395              	.LFB31:
1070:Generated_Source\PSoC4/System_Timer.c **** 
1071:Generated_Source\PSoC4/System_Timer.c **** 
1072:Generated_Source\PSoC4/System_Timer.c **** /*******************************************************************************
1073:Generated_Source\PSoC4/System_Timer.c **** * Function Name: System_Timer_SetReloadMode
1074:Generated_Source\PSoC4/System_Timer.c **** ********************************************************************************
1075:Generated_Source\PSoC4/System_Timer.c **** *
1076:Generated_Source\PSoC4/System_Timer.c **** * Summary:
1077:Generated_Source\PSoC4/System_Timer.c **** *  Sets the reload trigger mode. For Quadrature Decoder mode this is the index
1078:Generated_Source\PSoC4/System_Timer.c **** *  input.
1079:Generated_Source\PSoC4/System_Timer.c **** *
1080:Generated_Source\PSoC4/System_Timer.c **** * Parameters:
1081:Generated_Source\PSoC4/System_Timer.c **** *  triggerMode: Enumerated trigger mode value
1082:Generated_Source\PSoC4/System_Timer.c **** *   Values:
1083:Generated_Source\PSoC4/System_Timer.c **** *     - System_Timer_TRIG_LEVEL     - Level
1084:Generated_Source\PSoC4/System_Timer.c **** *     - System_Timer_TRIG_RISING    - Rising edge
1085:Generated_Source\PSoC4/System_Timer.c **** *     - System_Timer_TRIG_FALLING   - Falling edge
1086:Generated_Source\PSoC4/System_Timer.c **** *     - System_Timer_TRIG_BOTH      - Both rising and falling edge
1087:Generated_Source\PSoC4/System_Timer.c **** *
1088:Generated_Source\PSoC4/System_Timer.c **** * Return:
1089:Generated_Source\PSoC4/System_Timer.c **** *  None
1090:Generated_Source\PSoC4/System_Timer.c **** *
1091:Generated_Source\PSoC4/System_Timer.c **** *******************************************************************************/
1092:Generated_Source\PSoC4/System_Timer.c **** void System_Timer_SetReloadMode(uint32 triggerMode)
1093:Generated_Source\PSoC4/System_Timer.c **** {
 1396              		.loc 1 1093 0
 1397              		.cfi_startproc
 1398 0000 90B5     		push	{r4, r7, lr}
 1399              		.cfi_def_cfa_offset 12
 1400              		.cfi_offset 4, -12
 1401              		.cfi_offset 7, -8
 1402              		.cfi_offset 14, -4
 1403 0002 85B0     		sub	sp, sp, #20
 1404              		.cfi_def_cfa_offset 32
 1405 0004 00AF     		add	r7, sp, #0
 1406              		.cfi_def_cfa_register 7
 1407 0006 7860     		str	r0, [r7, #4]
1094:Generated_Source\PSoC4/System_Timer.c ****     uint8 enableInterrupts;
1095:Generated_Source\PSoC4/System_Timer.c **** 
1096:Generated_Source\PSoC4/System_Timer.c ****     enableInterrupts = CyEnterCriticalSection();
 1408              		.loc 1 1096 0
 1409 0008 0F23     		mov	r3, #15
 1410 000a FC18     		add	r4, r7, r3
 1411 000c FFF7FEFF 		bl	CyEnterCriticalSection
 1412 0010 031C     		mov	r3, r0
ARM GAS  C:\Users\ADMINI~1.SC-\AppData\Local\Temp\ccEAhJMV.s 			page 45


 1413 0012 2370     		strb	r3, [r4]
1097:Generated_Source\PSoC4/System_Timer.c **** 
1098:Generated_Source\PSoC4/System_Timer.c ****     System_Timer_TRIG_CONTROL1_REG &= (uint32)~System_Timer_RELOAD_MASK;
 1414              		.loc 1 1098 0
 1415 0014 0A4B     		ldr	r3, .L97
 1416 0016 0A4A     		ldr	r2, .L97
 1417 0018 1268     		ldr	r2, [r2]
 1418 001a 3021     		mov	r1, #48
 1419 001c 8A43     		bic	r2, r1
 1420 001e 1A60     		str	r2, [r3]
1099:Generated_Source\PSoC4/System_Timer.c ****     System_Timer_TRIG_CONTROL1_REG |= ((uint32)(triggerMode << System_Timer_RELOAD_SHIFT));
 1421              		.loc 1 1099 0
 1422 0020 074B     		ldr	r3, .L97
 1423 0022 074A     		ldr	r2, .L97
 1424 0024 1168     		ldr	r1, [r2]
 1425 0026 7A68     		ldr	r2, [r7, #4]
 1426 0028 1201     		lsl	r2, r2, #4
 1427 002a 0A43     		orr	r2, r1
 1428 002c 1A60     		str	r2, [r3]
1100:Generated_Source\PSoC4/System_Timer.c **** 
1101:Generated_Source\PSoC4/System_Timer.c ****     CyExitCriticalSection(enableInterrupts);
 1429              		.loc 1 1101 0
 1430 002e 0F23     		mov	r3, #15
 1431 0030 FB18     		add	r3, r7, r3
 1432 0032 1B78     		ldrb	r3, [r3]
 1433 0034 181C     		mov	r0, r3
 1434 0036 FFF7FEFF 		bl	CyExitCriticalSection
1102:Generated_Source\PSoC4/System_Timer.c **** }
 1435              		.loc 1 1102 0
 1436 003a BD46     		mov	sp, r7
 1437 003c 05B0     		add	sp, sp, #20
 1438              		@ sp needed
 1439 003e 90BD     		pop	{r4, r7, pc}
 1440              	.L98:
 1441              		.align	2
 1442              	.L97:
 1443 0040 24012040 		.word	1075839268
 1444              		.cfi_endproc
 1445              	.LFE31:
 1446              		.size	System_Timer_SetReloadMode, .-System_Timer_SetReloadMode
 1447              		.section	.text.System_Timer_SetStartMode,"ax",%progbits
 1448              		.align	2
 1449              		.global	System_Timer_SetStartMode
 1450              		.code	16
 1451              		.thumb_func
 1452              		.type	System_Timer_SetStartMode, %function
 1453              	System_Timer_SetStartMode:
 1454              	.LFB32:
1103:Generated_Source\PSoC4/System_Timer.c **** 
1104:Generated_Source\PSoC4/System_Timer.c **** 
1105:Generated_Source\PSoC4/System_Timer.c **** /*******************************************************************************
1106:Generated_Source\PSoC4/System_Timer.c **** * Function Name: System_Timer_SetStartMode
1107:Generated_Source\PSoC4/System_Timer.c **** ********************************************************************************
1108:Generated_Source\PSoC4/System_Timer.c **** *
1109:Generated_Source\PSoC4/System_Timer.c **** * Summary:
1110:Generated_Source\PSoC4/System_Timer.c **** *  Sets the start trigger mode. For Quadrature Decoder mode this is the
1111:Generated_Source\PSoC4/System_Timer.c **** *  phiB input.
ARM GAS  C:\Users\ADMINI~1.SC-\AppData\Local\Temp\ccEAhJMV.s 			page 46


1112:Generated_Source\PSoC4/System_Timer.c **** *
1113:Generated_Source\PSoC4/System_Timer.c **** * Parameters:
1114:Generated_Source\PSoC4/System_Timer.c **** *  triggerMode: Enumerated trigger mode value
1115:Generated_Source\PSoC4/System_Timer.c **** *   Values:
1116:Generated_Source\PSoC4/System_Timer.c **** *     - System_Timer_TRIG_LEVEL     - Level
1117:Generated_Source\PSoC4/System_Timer.c **** *     - System_Timer_TRIG_RISING    - Rising edge
1118:Generated_Source\PSoC4/System_Timer.c **** *     - System_Timer_TRIG_FALLING   - Falling edge
1119:Generated_Source\PSoC4/System_Timer.c **** *     - System_Timer_TRIG_BOTH      - Both rising and falling edge
1120:Generated_Source\PSoC4/System_Timer.c **** *
1121:Generated_Source\PSoC4/System_Timer.c **** * Return:
1122:Generated_Source\PSoC4/System_Timer.c **** *  None
1123:Generated_Source\PSoC4/System_Timer.c **** *
1124:Generated_Source\PSoC4/System_Timer.c **** *******************************************************************************/
1125:Generated_Source\PSoC4/System_Timer.c **** void System_Timer_SetStartMode(uint32 triggerMode)
1126:Generated_Source\PSoC4/System_Timer.c **** {
 1455              		.loc 1 1126 0
 1456              		.cfi_startproc
 1457 0000 90B5     		push	{r4, r7, lr}
 1458              		.cfi_def_cfa_offset 12
 1459              		.cfi_offset 4, -12
 1460              		.cfi_offset 7, -8
 1461              		.cfi_offset 14, -4
 1462 0002 85B0     		sub	sp, sp, #20
 1463              		.cfi_def_cfa_offset 32
 1464 0004 00AF     		add	r7, sp, #0
 1465              		.cfi_def_cfa_register 7
 1466 0006 7860     		str	r0, [r7, #4]
1127:Generated_Source\PSoC4/System_Timer.c ****     uint8 enableInterrupts;
1128:Generated_Source\PSoC4/System_Timer.c **** 
1129:Generated_Source\PSoC4/System_Timer.c ****     enableInterrupts = CyEnterCriticalSection();
 1467              		.loc 1 1129 0
 1468 0008 0F23     		mov	r3, #15
 1469 000a FC18     		add	r4, r7, r3
 1470 000c FFF7FEFF 		bl	CyEnterCriticalSection
 1471 0010 031C     		mov	r3, r0
 1472 0012 2370     		strb	r3, [r4]
1130:Generated_Source\PSoC4/System_Timer.c **** 
1131:Generated_Source\PSoC4/System_Timer.c ****     System_Timer_TRIG_CONTROL1_REG &= (uint32)~System_Timer_START_MASK;
 1473              		.loc 1 1131 0
 1474 0014 0A4B     		ldr	r3, .L100
 1475 0016 0A4A     		ldr	r2, .L100
 1476 0018 1268     		ldr	r2, [r2]
 1477 001a 0A49     		ldr	r1, .L100+4
 1478 001c 0A40     		and	r2, r1
 1479 001e 1A60     		str	r2, [r3]
1132:Generated_Source\PSoC4/System_Timer.c ****     System_Timer_TRIG_CONTROL1_REG |= ((uint32)(triggerMode << System_Timer_START_SHIFT));
 1480              		.loc 1 1132 0
 1481 0020 074B     		ldr	r3, .L100
 1482 0022 074A     		ldr	r2, .L100
 1483 0024 1168     		ldr	r1, [r2]
 1484 0026 7A68     		ldr	r2, [r7, #4]
 1485 0028 1202     		lsl	r2, r2, #8
 1486 002a 0A43     		orr	r2, r1
 1487 002c 1A60     		str	r2, [r3]
1133:Generated_Source\PSoC4/System_Timer.c **** 
1134:Generated_Source\PSoC4/System_Timer.c ****     CyExitCriticalSection(enableInterrupts);
 1488              		.loc 1 1134 0
ARM GAS  C:\Users\ADMINI~1.SC-\AppData\Local\Temp\ccEAhJMV.s 			page 47


 1489 002e 0F23     		mov	r3, #15
 1490 0030 FB18     		add	r3, r7, r3
 1491 0032 1B78     		ldrb	r3, [r3]
 1492 0034 181C     		mov	r0, r3
 1493 0036 FFF7FEFF 		bl	CyExitCriticalSection
1135:Generated_Source\PSoC4/System_Timer.c **** }
 1494              		.loc 1 1135 0
 1495 003a BD46     		mov	sp, r7
 1496 003c 05B0     		add	sp, sp, #20
 1497              		@ sp needed
 1498 003e 90BD     		pop	{r4, r7, pc}
 1499              	.L101:
 1500              		.align	2
 1501              	.L100:
 1502 0040 24012040 		.word	1075839268
 1503 0044 FFFCFFFF 		.word	-769
 1504              		.cfi_endproc
 1505              	.LFE32:
 1506              		.size	System_Timer_SetStartMode, .-System_Timer_SetStartMode
 1507              		.section	.text.System_Timer_SetStopMode,"ax",%progbits
 1508              		.align	2
 1509              		.global	System_Timer_SetStopMode
 1510              		.code	16
 1511              		.thumb_func
 1512              		.type	System_Timer_SetStopMode, %function
 1513              	System_Timer_SetStopMode:
 1514              	.LFB33:
1136:Generated_Source\PSoC4/System_Timer.c **** 
1137:Generated_Source\PSoC4/System_Timer.c **** 
1138:Generated_Source\PSoC4/System_Timer.c **** /*******************************************************************************
1139:Generated_Source\PSoC4/System_Timer.c **** * Function Name: System_Timer_SetStopMode
1140:Generated_Source\PSoC4/System_Timer.c **** ********************************************************************************
1141:Generated_Source\PSoC4/System_Timer.c **** *
1142:Generated_Source\PSoC4/System_Timer.c **** * Summary:
1143:Generated_Source\PSoC4/System_Timer.c **** *  Sets the stop trigger mode. For PWM mode this is the kill input.
1144:Generated_Source\PSoC4/System_Timer.c **** *
1145:Generated_Source\PSoC4/System_Timer.c **** * Parameters:
1146:Generated_Source\PSoC4/System_Timer.c **** *  triggerMode: Enumerated trigger mode value
1147:Generated_Source\PSoC4/System_Timer.c **** *   Values:
1148:Generated_Source\PSoC4/System_Timer.c **** *     - System_Timer_TRIG_LEVEL     - Level
1149:Generated_Source\PSoC4/System_Timer.c **** *     - System_Timer_TRIG_RISING    - Rising edge
1150:Generated_Source\PSoC4/System_Timer.c **** *     - System_Timer_TRIG_FALLING   - Falling edge
1151:Generated_Source\PSoC4/System_Timer.c **** *     - System_Timer_TRIG_BOTH      - Both rising and falling edge
1152:Generated_Source\PSoC4/System_Timer.c **** *
1153:Generated_Source\PSoC4/System_Timer.c **** * Return:
1154:Generated_Source\PSoC4/System_Timer.c **** *  None
1155:Generated_Source\PSoC4/System_Timer.c **** *
1156:Generated_Source\PSoC4/System_Timer.c **** *******************************************************************************/
1157:Generated_Source\PSoC4/System_Timer.c **** void System_Timer_SetStopMode(uint32 triggerMode)
1158:Generated_Source\PSoC4/System_Timer.c **** {
 1515              		.loc 1 1158 0
 1516              		.cfi_startproc
 1517 0000 90B5     		push	{r4, r7, lr}
 1518              		.cfi_def_cfa_offset 12
 1519              		.cfi_offset 4, -12
 1520              		.cfi_offset 7, -8
 1521              		.cfi_offset 14, -4
ARM GAS  C:\Users\ADMINI~1.SC-\AppData\Local\Temp\ccEAhJMV.s 			page 48


 1522 0002 85B0     		sub	sp, sp, #20
 1523              		.cfi_def_cfa_offset 32
 1524 0004 00AF     		add	r7, sp, #0
 1525              		.cfi_def_cfa_register 7
 1526 0006 7860     		str	r0, [r7, #4]
1159:Generated_Source\PSoC4/System_Timer.c ****     uint8 enableInterrupts;
1160:Generated_Source\PSoC4/System_Timer.c **** 
1161:Generated_Source\PSoC4/System_Timer.c ****     enableInterrupts = CyEnterCriticalSection();
 1527              		.loc 1 1161 0
 1528 0008 0F23     		mov	r3, #15
 1529 000a FC18     		add	r4, r7, r3
 1530 000c FFF7FEFF 		bl	CyEnterCriticalSection
 1531 0010 031C     		mov	r3, r0
 1532 0012 2370     		strb	r3, [r4]
1162:Generated_Source\PSoC4/System_Timer.c **** 
1163:Generated_Source\PSoC4/System_Timer.c ****     System_Timer_TRIG_CONTROL1_REG &= (uint32)~System_Timer_STOP_MASK;
 1533              		.loc 1 1163 0
 1534 0014 0A4B     		ldr	r3, .L103
 1535 0016 0A4A     		ldr	r2, .L103
 1536 0018 1268     		ldr	r2, [r2]
 1537 001a C021     		mov	r1, #192
 1538 001c 8A43     		bic	r2, r1
 1539 001e 1A60     		str	r2, [r3]
1164:Generated_Source\PSoC4/System_Timer.c ****     System_Timer_TRIG_CONTROL1_REG |= ((uint32)(triggerMode << System_Timer_STOP_SHIFT));
 1540              		.loc 1 1164 0
 1541 0020 074B     		ldr	r3, .L103
 1542 0022 074A     		ldr	r2, .L103
 1543 0024 1168     		ldr	r1, [r2]
 1544 0026 7A68     		ldr	r2, [r7, #4]
 1545 0028 9201     		lsl	r2, r2, #6
 1546 002a 0A43     		orr	r2, r1
 1547 002c 1A60     		str	r2, [r3]
1165:Generated_Source\PSoC4/System_Timer.c **** 
1166:Generated_Source\PSoC4/System_Timer.c ****     CyExitCriticalSection(enableInterrupts);
 1548              		.loc 1 1166 0
 1549 002e 0F23     		mov	r3, #15
 1550 0030 FB18     		add	r3, r7, r3
 1551 0032 1B78     		ldrb	r3, [r3]
 1552 0034 181C     		mov	r0, r3
 1553 0036 FFF7FEFF 		bl	CyExitCriticalSection
1167:Generated_Source\PSoC4/System_Timer.c **** }
 1554              		.loc 1 1167 0
 1555 003a BD46     		mov	sp, r7
 1556 003c 05B0     		add	sp, sp, #20
 1557              		@ sp needed
 1558 003e 90BD     		pop	{r4, r7, pc}
 1559              	.L104:
 1560              		.align	2
 1561              	.L103:
 1562 0040 24012040 		.word	1075839268
 1563              		.cfi_endproc
 1564              	.LFE33:
 1565              		.size	System_Timer_SetStopMode, .-System_Timer_SetStopMode
 1566              		.section	.text.System_Timer_SetCountMode,"ax",%progbits
 1567              		.align	2
 1568              		.global	System_Timer_SetCountMode
 1569              		.code	16
ARM GAS  C:\Users\ADMINI~1.SC-\AppData\Local\Temp\ccEAhJMV.s 			page 49


 1570              		.thumb_func
 1571              		.type	System_Timer_SetCountMode, %function
 1572              	System_Timer_SetCountMode:
 1573              	.LFB34:
1168:Generated_Source\PSoC4/System_Timer.c **** 
1169:Generated_Source\PSoC4/System_Timer.c **** 
1170:Generated_Source\PSoC4/System_Timer.c **** /*******************************************************************************
1171:Generated_Source\PSoC4/System_Timer.c **** * Function Name: System_Timer_SetCountMode
1172:Generated_Source\PSoC4/System_Timer.c **** ********************************************************************************
1173:Generated_Source\PSoC4/System_Timer.c **** *
1174:Generated_Source\PSoC4/System_Timer.c **** * Summary:
1175:Generated_Source\PSoC4/System_Timer.c **** *  Sets the count trigger mode. For Quadrature Decoder mode this is the phiA
1176:Generated_Source\PSoC4/System_Timer.c **** *  input.
1177:Generated_Source\PSoC4/System_Timer.c **** *
1178:Generated_Source\PSoC4/System_Timer.c **** * Parameters:
1179:Generated_Source\PSoC4/System_Timer.c **** *  triggerMode: Enumerated trigger mode value
1180:Generated_Source\PSoC4/System_Timer.c **** *   Values:
1181:Generated_Source\PSoC4/System_Timer.c **** *     - System_Timer_TRIG_LEVEL     - Level
1182:Generated_Source\PSoC4/System_Timer.c **** *     - System_Timer_TRIG_RISING    - Rising edge
1183:Generated_Source\PSoC4/System_Timer.c **** *     - System_Timer_TRIG_FALLING   - Falling edge
1184:Generated_Source\PSoC4/System_Timer.c **** *     - System_Timer_TRIG_BOTH      - Both rising and falling edge
1185:Generated_Source\PSoC4/System_Timer.c **** *
1186:Generated_Source\PSoC4/System_Timer.c **** * Return:
1187:Generated_Source\PSoC4/System_Timer.c **** *  None
1188:Generated_Source\PSoC4/System_Timer.c **** *
1189:Generated_Source\PSoC4/System_Timer.c **** *******************************************************************************/
1190:Generated_Source\PSoC4/System_Timer.c **** void System_Timer_SetCountMode(uint32 triggerMode)
1191:Generated_Source\PSoC4/System_Timer.c **** {
 1574              		.loc 1 1191 0
 1575              		.cfi_startproc
 1576 0000 90B5     		push	{r4, r7, lr}
 1577              		.cfi_def_cfa_offset 12
 1578              		.cfi_offset 4, -12
 1579              		.cfi_offset 7, -8
 1580              		.cfi_offset 14, -4
 1581 0002 85B0     		sub	sp, sp, #20
 1582              		.cfi_def_cfa_offset 32
 1583 0004 00AF     		add	r7, sp, #0
 1584              		.cfi_def_cfa_register 7
 1585 0006 7860     		str	r0, [r7, #4]
1192:Generated_Source\PSoC4/System_Timer.c ****     uint8 enableInterrupts;
1193:Generated_Source\PSoC4/System_Timer.c **** 
1194:Generated_Source\PSoC4/System_Timer.c ****     enableInterrupts = CyEnterCriticalSection();
 1586              		.loc 1 1194 0
 1587 0008 0F23     		mov	r3, #15
 1588 000a FC18     		add	r4, r7, r3
 1589 000c FFF7FEFF 		bl	CyEnterCriticalSection
 1590 0010 031C     		mov	r3, r0
 1591 0012 2370     		strb	r3, [r4]
1195:Generated_Source\PSoC4/System_Timer.c **** 
1196:Generated_Source\PSoC4/System_Timer.c ****     System_Timer_TRIG_CONTROL1_REG &= (uint32)~System_Timer_COUNT_MASK;
 1592              		.loc 1 1196 0
 1593 0014 0A4B     		ldr	r3, .L106
 1594 0016 0A4A     		ldr	r2, .L106
 1595 0018 1268     		ldr	r2, [r2]
 1596 001a 0C21     		mov	r1, #12
 1597 001c 8A43     		bic	r2, r1
ARM GAS  C:\Users\ADMINI~1.SC-\AppData\Local\Temp\ccEAhJMV.s 			page 50


 1598 001e 1A60     		str	r2, [r3]
1197:Generated_Source\PSoC4/System_Timer.c ****     System_Timer_TRIG_CONTROL1_REG |= ((uint32)(triggerMode << System_Timer_COUNT_SHIFT));
 1599              		.loc 1 1197 0
 1600 0020 074B     		ldr	r3, .L106
 1601 0022 074A     		ldr	r2, .L106
 1602 0024 1168     		ldr	r1, [r2]
 1603 0026 7A68     		ldr	r2, [r7, #4]
 1604 0028 9200     		lsl	r2, r2, #2
 1605 002a 0A43     		orr	r2, r1
 1606 002c 1A60     		str	r2, [r3]
1198:Generated_Source\PSoC4/System_Timer.c **** 
1199:Generated_Source\PSoC4/System_Timer.c ****     CyExitCriticalSection(enableInterrupts);
 1607              		.loc 1 1199 0
 1608 002e 0F23     		mov	r3, #15
 1609 0030 FB18     		add	r3, r7, r3
 1610 0032 1B78     		ldrb	r3, [r3]
 1611 0034 181C     		mov	r0, r3
 1612 0036 FFF7FEFF 		bl	CyExitCriticalSection
1200:Generated_Source\PSoC4/System_Timer.c **** }
 1613              		.loc 1 1200 0
 1614 003a BD46     		mov	sp, r7
 1615 003c 05B0     		add	sp, sp, #20
 1616              		@ sp needed
 1617 003e 90BD     		pop	{r4, r7, pc}
 1618              	.L107:
 1619              		.align	2
 1620              	.L106:
 1621 0040 24012040 		.word	1075839268
 1622              		.cfi_endproc
 1623              	.LFE34:
 1624              		.size	System_Timer_SetCountMode, .-System_Timer_SetCountMode
 1625              		.section	.text.System_Timer_TriggerCommand,"ax",%progbits
 1626              		.align	2
 1627              		.global	System_Timer_TriggerCommand
 1628              		.code	16
 1629              		.thumb_func
 1630              		.type	System_Timer_TriggerCommand, %function
 1631              	System_Timer_TriggerCommand:
 1632              	.LFB35:
1201:Generated_Source\PSoC4/System_Timer.c **** 
1202:Generated_Source\PSoC4/System_Timer.c **** 
1203:Generated_Source\PSoC4/System_Timer.c **** /*******************************************************************************
1204:Generated_Source\PSoC4/System_Timer.c **** * Function Name: System_Timer_TriggerCommand
1205:Generated_Source\PSoC4/System_Timer.c **** ********************************************************************************
1206:Generated_Source\PSoC4/System_Timer.c **** *
1207:Generated_Source\PSoC4/System_Timer.c **** * Summary:
1208:Generated_Source\PSoC4/System_Timer.c **** *  Triggers the designated command to occur on the designated TCPWM instances.
1209:Generated_Source\PSoC4/System_Timer.c **** *  The mask can be used to apply this command simultaneously to more than one
1210:Generated_Source\PSoC4/System_Timer.c **** *  instance.  This allows multiple TCPWM instances to be synchronized.
1211:Generated_Source\PSoC4/System_Timer.c **** *
1212:Generated_Source\PSoC4/System_Timer.c **** * Parameters:
1213:Generated_Source\PSoC4/System_Timer.c **** *  mask: A combination of mask bits for each instance of the TCPWM that the
1214:Generated_Source\PSoC4/System_Timer.c **** *        command should apply to.  This function from one instance can be used
1215:Generated_Source\PSoC4/System_Timer.c **** *        to apply the command to any of the instances in the design.
1216:Generated_Source\PSoC4/System_Timer.c **** *        The mask value for a specific instance is available with the MASK
1217:Generated_Source\PSoC4/System_Timer.c **** *        define.
1218:Generated_Source\PSoC4/System_Timer.c **** *  command: Enumerated command values. Capture command only applicable for
ARM GAS  C:\Users\ADMINI~1.SC-\AppData\Local\Temp\ccEAhJMV.s 			page 51


1219:Generated_Source\PSoC4/System_Timer.c **** *           Timer/Counter with Capture and PWM modes.
1220:Generated_Source\PSoC4/System_Timer.c **** *   Values:
1221:Generated_Source\PSoC4/System_Timer.c **** *     - System_Timer_CMD_CAPTURE    - Trigger Capture command
1222:Generated_Source\PSoC4/System_Timer.c **** *     - System_Timer_CMD_RELOAD     - Trigger Reload command
1223:Generated_Source\PSoC4/System_Timer.c **** *     - System_Timer_CMD_STOP       - Trigger Stop command
1224:Generated_Source\PSoC4/System_Timer.c **** *     - System_Timer_CMD_START      - Trigger Start command
1225:Generated_Source\PSoC4/System_Timer.c **** *
1226:Generated_Source\PSoC4/System_Timer.c **** * Return:
1227:Generated_Source\PSoC4/System_Timer.c **** *  None
1228:Generated_Source\PSoC4/System_Timer.c **** *
1229:Generated_Source\PSoC4/System_Timer.c **** *******************************************************************************/
1230:Generated_Source\PSoC4/System_Timer.c **** void System_Timer_TriggerCommand(uint32 mask, uint32 command)
1231:Generated_Source\PSoC4/System_Timer.c **** {
 1633              		.loc 1 1231 0
 1634              		.cfi_startproc
 1635 0000 90B5     		push	{r4, r7, lr}
 1636              		.cfi_def_cfa_offset 12
 1637              		.cfi_offset 4, -12
 1638              		.cfi_offset 7, -8
 1639              		.cfi_offset 14, -4
 1640 0002 85B0     		sub	sp, sp, #20
 1641              		.cfi_def_cfa_offset 32
 1642 0004 00AF     		add	r7, sp, #0
 1643              		.cfi_def_cfa_register 7
 1644 0006 7860     		str	r0, [r7, #4]
 1645 0008 3960     		str	r1, [r7]
1232:Generated_Source\PSoC4/System_Timer.c ****     uint8 enableInterrupts;
1233:Generated_Source\PSoC4/System_Timer.c **** 
1234:Generated_Source\PSoC4/System_Timer.c ****     enableInterrupts = CyEnterCriticalSection();
 1646              		.loc 1 1234 0
 1647 000a 0F23     		mov	r3, #15
 1648 000c FC18     		add	r4, r7, r3
 1649 000e FFF7FEFF 		bl	CyEnterCriticalSection
 1650 0012 031C     		mov	r3, r0
 1651 0014 2370     		strb	r3, [r4]
1235:Generated_Source\PSoC4/System_Timer.c **** 
1236:Generated_Source\PSoC4/System_Timer.c ****     System_Timer_COMMAND_REG = ((uint32)(mask << command));
 1652              		.loc 1 1236 0
 1653 0016 074B     		ldr	r3, .L109
 1654 0018 3A68     		ldr	r2, [r7]
 1655 001a 7968     		ldr	r1, [r7, #4]
 1656 001c 9140     		lsl	r1, r1, r2
 1657 001e 0A1C     		mov	r2, r1
 1658 0020 1A60     		str	r2, [r3]
1237:Generated_Source\PSoC4/System_Timer.c **** 
1238:Generated_Source\PSoC4/System_Timer.c ****     CyExitCriticalSection(enableInterrupts);
 1659              		.loc 1 1238 0
 1660 0022 0F23     		mov	r3, #15
 1661 0024 FB18     		add	r3, r7, r3
 1662 0026 1B78     		ldrb	r3, [r3]
 1663 0028 181C     		mov	r0, r3
 1664 002a FFF7FEFF 		bl	CyExitCriticalSection
1239:Generated_Source\PSoC4/System_Timer.c **** }
 1665              		.loc 1 1239 0
 1666 002e BD46     		mov	sp, r7
 1667 0030 05B0     		add	sp, sp, #20
 1668              		@ sp needed
ARM GAS  C:\Users\ADMINI~1.SC-\AppData\Local\Temp\ccEAhJMV.s 			page 52


 1669 0032 90BD     		pop	{r4, r7, pc}
 1670              	.L110:
 1671              		.align	2
 1672              	.L109:
 1673 0034 08002040 		.word	1075838984
 1674              		.cfi_endproc
 1675              	.LFE35:
 1676              		.size	System_Timer_TriggerCommand, .-System_Timer_TriggerCommand
 1677              		.section	.text.System_Timer_ReadStatus,"ax",%progbits
 1678              		.align	2
 1679              		.global	System_Timer_ReadStatus
 1680              		.code	16
 1681              		.thumb_func
 1682              		.type	System_Timer_ReadStatus, %function
 1683              	System_Timer_ReadStatus:
 1684              	.LFB36:
1240:Generated_Source\PSoC4/System_Timer.c **** 
1241:Generated_Source\PSoC4/System_Timer.c **** 
1242:Generated_Source\PSoC4/System_Timer.c **** /*******************************************************************************
1243:Generated_Source\PSoC4/System_Timer.c **** * Function Name: System_Timer_ReadStatus
1244:Generated_Source\PSoC4/System_Timer.c **** ********************************************************************************
1245:Generated_Source\PSoC4/System_Timer.c **** *
1246:Generated_Source\PSoC4/System_Timer.c **** * Summary:
1247:Generated_Source\PSoC4/System_Timer.c **** *  Reads the status of the System_Timer.
1248:Generated_Source\PSoC4/System_Timer.c **** *
1249:Generated_Source\PSoC4/System_Timer.c **** * Parameters:
1250:Generated_Source\PSoC4/System_Timer.c **** *  None
1251:Generated_Source\PSoC4/System_Timer.c **** *
1252:Generated_Source\PSoC4/System_Timer.c **** * Return:
1253:Generated_Source\PSoC4/System_Timer.c **** *  Status
1254:Generated_Source\PSoC4/System_Timer.c **** *   Values:
1255:Generated_Source\PSoC4/System_Timer.c **** *     - System_Timer_STATUS_DOWN    - Set if counting down
1256:Generated_Source\PSoC4/System_Timer.c **** *     - System_Timer_STATUS_RUNNING - Set if counter is running
1257:Generated_Source\PSoC4/System_Timer.c **** *
1258:Generated_Source\PSoC4/System_Timer.c **** *******************************************************************************/
1259:Generated_Source\PSoC4/System_Timer.c **** uint32 System_Timer_ReadStatus(void)
1260:Generated_Source\PSoC4/System_Timer.c **** {
 1685              		.loc 1 1260 0
 1686              		.cfi_startproc
 1687 0000 80B5     		push	{r7, lr}
 1688              		.cfi_def_cfa_offset 8
 1689              		.cfi_offset 7, -8
 1690              		.cfi_offset 14, -4
 1691 0002 00AF     		add	r7, sp, #0
 1692              		.cfi_def_cfa_register 7
1261:Generated_Source\PSoC4/System_Timer.c ****     return ((System_Timer_STATUS_REG >> System_Timer_RUNNING_STATUS_SHIFT) |
 1693              		.loc 1 1261 0
 1694 0004 054B     		ldr	r3, .L113
 1695 0006 1B68     		ldr	r3, [r3]
 1696 0008 9A0F     		lsr	r2, r3, #30
1262:Generated_Source\PSoC4/System_Timer.c ****             (System_Timer_STATUS_REG & System_Timer_STATUS_DOWN));
 1697              		.loc 1 1262 0
 1698 000a 044B     		ldr	r3, .L113
 1699 000c 1B68     		ldr	r3, [r3]
 1700 000e 0121     		mov	r1, #1
 1701 0010 0B40     		and	r3, r1
1261:Generated_Source\PSoC4/System_Timer.c ****     return ((System_Timer_STATUS_REG >> System_Timer_RUNNING_STATUS_SHIFT) |
ARM GAS  C:\Users\ADMINI~1.SC-\AppData\Local\Temp\ccEAhJMV.s 			page 53


 1702              		.loc 1 1261 0
 1703 0012 1343     		orr	r3, r2
1263:Generated_Source\PSoC4/System_Timer.c **** }
 1704              		.loc 1 1263 0
 1705 0014 181C     		mov	r0, r3
 1706 0016 BD46     		mov	sp, r7
 1707              		@ sp needed
 1708 0018 80BD     		pop	{r7, pc}
 1709              	.L114:
 1710 001a C046     		.align	2
 1711              	.L113:
 1712 001c 04012040 		.word	1075839236
 1713              		.cfi_endproc
 1714              	.LFE36:
 1715              		.size	System_Timer_ReadStatus, .-System_Timer_ReadStatus
 1716              		.section	.text.System_Timer_SetInterruptMode,"ax",%progbits
 1717              		.align	2
 1718              		.global	System_Timer_SetInterruptMode
 1719              		.code	16
 1720              		.thumb_func
 1721              		.type	System_Timer_SetInterruptMode, %function
 1722              	System_Timer_SetInterruptMode:
 1723              	.LFB37:
1264:Generated_Source\PSoC4/System_Timer.c **** 
1265:Generated_Source\PSoC4/System_Timer.c **** 
1266:Generated_Source\PSoC4/System_Timer.c **** /*******************************************************************************
1267:Generated_Source\PSoC4/System_Timer.c **** * Function Name: System_Timer_SetInterruptMode
1268:Generated_Source\PSoC4/System_Timer.c **** ********************************************************************************
1269:Generated_Source\PSoC4/System_Timer.c **** *
1270:Generated_Source\PSoC4/System_Timer.c **** * Summary:
1271:Generated_Source\PSoC4/System_Timer.c **** *  Sets the interrupt mask to control which interrupt
1272:Generated_Source\PSoC4/System_Timer.c **** *  requests generate the interrupt signal.
1273:Generated_Source\PSoC4/System_Timer.c **** *
1274:Generated_Source\PSoC4/System_Timer.c **** * Parameters:
1275:Generated_Source\PSoC4/System_Timer.c **** *   interruptMask: Mask of bits to be enabled
1276:Generated_Source\PSoC4/System_Timer.c **** *   Values:
1277:Generated_Source\PSoC4/System_Timer.c **** *     - System_Timer_INTR_MASK_TC       - Terminal count mask
1278:Generated_Source\PSoC4/System_Timer.c **** *     - System_Timer_INTR_MASK_CC_MATCH - Compare count / capture mask
1279:Generated_Source\PSoC4/System_Timer.c **** *
1280:Generated_Source\PSoC4/System_Timer.c **** * Return:
1281:Generated_Source\PSoC4/System_Timer.c **** *  None
1282:Generated_Source\PSoC4/System_Timer.c **** *
1283:Generated_Source\PSoC4/System_Timer.c **** *******************************************************************************/
1284:Generated_Source\PSoC4/System_Timer.c **** void System_Timer_SetInterruptMode(uint32 interruptMask)
1285:Generated_Source\PSoC4/System_Timer.c **** {
 1724              		.loc 1 1285 0
 1725              		.cfi_startproc
 1726 0000 80B5     		push	{r7, lr}
 1727              		.cfi_def_cfa_offset 8
 1728              		.cfi_offset 7, -8
 1729              		.cfi_offset 14, -4
 1730 0002 82B0     		sub	sp, sp, #8
 1731              		.cfi_def_cfa_offset 16
 1732 0004 00AF     		add	r7, sp, #0
 1733              		.cfi_def_cfa_register 7
 1734 0006 7860     		str	r0, [r7, #4]
1286:Generated_Source\PSoC4/System_Timer.c ****     System_Timer_INTERRUPT_MASK_REG =  interruptMask;
ARM GAS  C:\Users\ADMINI~1.SC-\AppData\Local\Temp\ccEAhJMV.s 			page 54


 1735              		.loc 1 1286 0
 1736 0008 024B     		ldr	r3, .L116
 1737 000a 7A68     		ldr	r2, [r7, #4]
 1738 000c 1A60     		str	r2, [r3]
1287:Generated_Source\PSoC4/System_Timer.c **** }
 1739              		.loc 1 1287 0
 1740 000e BD46     		mov	sp, r7
 1741 0010 02B0     		add	sp, sp, #8
 1742              		@ sp needed
 1743 0012 80BD     		pop	{r7, pc}
 1744              	.L117:
 1745              		.align	2
 1746              	.L116:
 1747 0014 38012040 		.word	1075839288
 1748              		.cfi_endproc
 1749              	.LFE37:
 1750              		.size	System_Timer_SetInterruptMode, .-System_Timer_SetInterruptMode
 1751              		.section	.text.System_Timer_GetInterruptSourceMasked,"ax",%progbits
 1752              		.align	2
 1753              		.global	System_Timer_GetInterruptSourceMasked
 1754              		.code	16
 1755              		.thumb_func
 1756              		.type	System_Timer_GetInterruptSourceMasked, %function
 1757              	System_Timer_GetInterruptSourceMasked:
 1758              	.LFB38:
1288:Generated_Source\PSoC4/System_Timer.c **** 
1289:Generated_Source\PSoC4/System_Timer.c **** 
1290:Generated_Source\PSoC4/System_Timer.c **** /*******************************************************************************
1291:Generated_Source\PSoC4/System_Timer.c **** * Function Name: System_Timer_GetInterruptSourceMasked
1292:Generated_Source\PSoC4/System_Timer.c **** ********************************************************************************
1293:Generated_Source\PSoC4/System_Timer.c **** *
1294:Generated_Source\PSoC4/System_Timer.c **** * Summary:
1295:Generated_Source\PSoC4/System_Timer.c **** *  Gets the interrupt requests masked by the interrupt mask.
1296:Generated_Source\PSoC4/System_Timer.c **** *
1297:Generated_Source\PSoC4/System_Timer.c **** * Parameters:
1298:Generated_Source\PSoC4/System_Timer.c **** *   None
1299:Generated_Source\PSoC4/System_Timer.c **** *
1300:Generated_Source\PSoC4/System_Timer.c **** * Return:
1301:Generated_Source\PSoC4/System_Timer.c **** *  Masked interrupt source
1302:Generated_Source\PSoC4/System_Timer.c **** *   Values:
1303:Generated_Source\PSoC4/System_Timer.c **** *     - System_Timer_INTR_MASK_TC       - Terminal count mask
1304:Generated_Source\PSoC4/System_Timer.c **** *     - System_Timer_INTR_MASK_CC_MATCH - Compare count / capture mask
1305:Generated_Source\PSoC4/System_Timer.c **** *
1306:Generated_Source\PSoC4/System_Timer.c **** *******************************************************************************/
1307:Generated_Source\PSoC4/System_Timer.c **** uint32 System_Timer_GetInterruptSourceMasked(void)
1308:Generated_Source\PSoC4/System_Timer.c **** {
 1759              		.loc 1 1308 0
 1760              		.cfi_startproc
 1761 0000 80B5     		push	{r7, lr}
 1762              		.cfi_def_cfa_offset 8
 1763              		.cfi_offset 7, -8
 1764              		.cfi_offset 14, -4
 1765 0002 00AF     		add	r7, sp, #0
 1766              		.cfi_def_cfa_register 7
1309:Generated_Source\PSoC4/System_Timer.c ****     return (System_Timer_INTERRUPT_MASKED_REG);
 1767              		.loc 1 1309 0
 1768 0004 024B     		ldr	r3, .L120
ARM GAS  C:\Users\ADMINI~1.SC-\AppData\Local\Temp\ccEAhJMV.s 			page 55


 1769 0006 1B68     		ldr	r3, [r3]
1310:Generated_Source\PSoC4/System_Timer.c **** }
 1770              		.loc 1 1310 0
 1771 0008 181C     		mov	r0, r3
 1772 000a BD46     		mov	sp, r7
 1773              		@ sp needed
 1774 000c 80BD     		pop	{r7, pc}
 1775              	.L121:
 1776 000e C046     		.align	2
 1777              	.L120:
 1778 0010 3C012040 		.word	1075839292
 1779              		.cfi_endproc
 1780              	.LFE38:
 1781              		.size	System_Timer_GetInterruptSourceMasked, .-System_Timer_GetInterruptSourceMasked
 1782              		.section	.text.System_Timer_GetInterruptSource,"ax",%progbits
 1783              		.align	2
 1784              		.global	System_Timer_GetInterruptSource
 1785              		.code	16
 1786              		.thumb_func
 1787              		.type	System_Timer_GetInterruptSource, %function
 1788              	System_Timer_GetInterruptSource:
 1789              	.LFB39:
1311:Generated_Source\PSoC4/System_Timer.c **** 
1312:Generated_Source\PSoC4/System_Timer.c **** 
1313:Generated_Source\PSoC4/System_Timer.c **** /*******************************************************************************
1314:Generated_Source\PSoC4/System_Timer.c **** * Function Name: System_Timer_GetInterruptSource
1315:Generated_Source\PSoC4/System_Timer.c **** ********************************************************************************
1316:Generated_Source\PSoC4/System_Timer.c **** *
1317:Generated_Source\PSoC4/System_Timer.c **** * Summary:
1318:Generated_Source\PSoC4/System_Timer.c **** *  Gets the interrupt requests (without masking).
1319:Generated_Source\PSoC4/System_Timer.c **** *
1320:Generated_Source\PSoC4/System_Timer.c **** * Parameters:
1321:Generated_Source\PSoC4/System_Timer.c **** *  None
1322:Generated_Source\PSoC4/System_Timer.c **** *
1323:Generated_Source\PSoC4/System_Timer.c **** * Return:
1324:Generated_Source\PSoC4/System_Timer.c **** *  Interrupt request value
1325:Generated_Source\PSoC4/System_Timer.c **** *   Values:
1326:Generated_Source\PSoC4/System_Timer.c **** *     - System_Timer_INTR_MASK_TC       - Terminal count mask
1327:Generated_Source\PSoC4/System_Timer.c **** *     - System_Timer_INTR_MASK_CC_MATCH - Compare count / capture mask
1328:Generated_Source\PSoC4/System_Timer.c **** *
1329:Generated_Source\PSoC4/System_Timer.c **** *******************************************************************************/
1330:Generated_Source\PSoC4/System_Timer.c **** uint32 System_Timer_GetInterruptSource(void)
1331:Generated_Source\PSoC4/System_Timer.c **** {
 1790              		.loc 1 1331 0
 1791              		.cfi_startproc
 1792 0000 80B5     		push	{r7, lr}
 1793              		.cfi_def_cfa_offset 8
 1794              		.cfi_offset 7, -8
 1795              		.cfi_offset 14, -4
 1796 0002 00AF     		add	r7, sp, #0
 1797              		.cfi_def_cfa_register 7
1332:Generated_Source\PSoC4/System_Timer.c ****     return (System_Timer_INTERRUPT_REQ_REG);
 1798              		.loc 1 1332 0
 1799 0004 024B     		ldr	r3, .L124
 1800 0006 1B68     		ldr	r3, [r3]
1333:Generated_Source\PSoC4/System_Timer.c **** }
 1801              		.loc 1 1333 0
ARM GAS  C:\Users\ADMINI~1.SC-\AppData\Local\Temp\ccEAhJMV.s 			page 56


 1802 0008 181C     		mov	r0, r3
 1803 000a BD46     		mov	sp, r7
 1804              		@ sp needed
 1805 000c 80BD     		pop	{r7, pc}
 1806              	.L125:
 1807 000e C046     		.align	2
 1808              	.L124:
 1809 0010 30012040 		.word	1075839280
 1810              		.cfi_endproc
 1811              	.LFE39:
 1812              		.size	System_Timer_GetInterruptSource, .-System_Timer_GetInterruptSource
 1813              		.section	.text.System_Timer_ClearInterrupt,"ax",%progbits
 1814              		.align	2
 1815              		.global	System_Timer_ClearInterrupt
 1816              		.code	16
 1817              		.thumb_func
 1818              		.type	System_Timer_ClearInterrupt, %function
 1819              	System_Timer_ClearInterrupt:
 1820              	.LFB40:
1334:Generated_Source\PSoC4/System_Timer.c **** 
1335:Generated_Source\PSoC4/System_Timer.c **** 
1336:Generated_Source\PSoC4/System_Timer.c **** /*******************************************************************************
1337:Generated_Source\PSoC4/System_Timer.c **** * Function Name: System_Timer_ClearInterrupt
1338:Generated_Source\PSoC4/System_Timer.c **** ********************************************************************************
1339:Generated_Source\PSoC4/System_Timer.c **** *
1340:Generated_Source\PSoC4/System_Timer.c **** * Summary:
1341:Generated_Source\PSoC4/System_Timer.c **** *  Clears the interrupt request.
1342:Generated_Source\PSoC4/System_Timer.c **** *
1343:Generated_Source\PSoC4/System_Timer.c **** * Parameters:
1344:Generated_Source\PSoC4/System_Timer.c **** *   interruptMask: Mask of interrupts to clear
1345:Generated_Source\PSoC4/System_Timer.c **** *   Values:
1346:Generated_Source\PSoC4/System_Timer.c **** *     - System_Timer_INTR_MASK_TC       - Terminal count mask
1347:Generated_Source\PSoC4/System_Timer.c **** *     - System_Timer_INTR_MASK_CC_MATCH - Compare count / capture mask
1348:Generated_Source\PSoC4/System_Timer.c **** *
1349:Generated_Source\PSoC4/System_Timer.c **** * Return:
1350:Generated_Source\PSoC4/System_Timer.c **** *  None
1351:Generated_Source\PSoC4/System_Timer.c **** *
1352:Generated_Source\PSoC4/System_Timer.c **** *******************************************************************************/
1353:Generated_Source\PSoC4/System_Timer.c **** void System_Timer_ClearInterrupt(uint32 interruptMask)
1354:Generated_Source\PSoC4/System_Timer.c **** {
 1821              		.loc 1 1354 0
 1822              		.cfi_startproc
 1823 0000 80B5     		push	{r7, lr}
 1824              		.cfi_def_cfa_offset 8
 1825              		.cfi_offset 7, -8
 1826              		.cfi_offset 14, -4
 1827 0002 82B0     		sub	sp, sp, #8
 1828              		.cfi_def_cfa_offset 16
 1829 0004 00AF     		add	r7, sp, #0
 1830              		.cfi_def_cfa_register 7
 1831 0006 7860     		str	r0, [r7, #4]
1355:Generated_Source\PSoC4/System_Timer.c ****     System_Timer_INTERRUPT_REQ_REG = interruptMask;
 1832              		.loc 1 1355 0
 1833 0008 024B     		ldr	r3, .L127
 1834 000a 7A68     		ldr	r2, [r7, #4]
 1835 000c 1A60     		str	r2, [r3]
1356:Generated_Source\PSoC4/System_Timer.c **** }
ARM GAS  C:\Users\ADMINI~1.SC-\AppData\Local\Temp\ccEAhJMV.s 			page 57


 1836              		.loc 1 1356 0
 1837 000e BD46     		mov	sp, r7
 1838 0010 02B0     		add	sp, sp, #8
 1839              		@ sp needed
 1840 0012 80BD     		pop	{r7, pc}
 1841              	.L128:
 1842              		.align	2
 1843              	.L127:
 1844 0014 30012040 		.word	1075839280
 1845              		.cfi_endproc
 1846              	.LFE40:
 1847              		.size	System_Timer_ClearInterrupt, .-System_Timer_ClearInterrupt
 1848              		.section	.text.System_Timer_SetInterrupt,"ax",%progbits
 1849              		.align	2
 1850              		.global	System_Timer_SetInterrupt
 1851              		.code	16
 1852              		.thumb_func
 1853              		.type	System_Timer_SetInterrupt, %function
 1854              	System_Timer_SetInterrupt:
 1855              	.LFB41:
1357:Generated_Source\PSoC4/System_Timer.c **** 
1358:Generated_Source\PSoC4/System_Timer.c **** 
1359:Generated_Source\PSoC4/System_Timer.c **** /*******************************************************************************
1360:Generated_Source\PSoC4/System_Timer.c **** * Function Name: System_Timer_SetInterrupt
1361:Generated_Source\PSoC4/System_Timer.c **** ********************************************************************************
1362:Generated_Source\PSoC4/System_Timer.c **** *
1363:Generated_Source\PSoC4/System_Timer.c **** * Summary:
1364:Generated_Source\PSoC4/System_Timer.c **** *  Sets a software interrupt request.
1365:Generated_Source\PSoC4/System_Timer.c **** *
1366:Generated_Source\PSoC4/System_Timer.c **** * Parameters:
1367:Generated_Source\PSoC4/System_Timer.c **** *   interruptMask: Mask of interrupts to set
1368:Generated_Source\PSoC4/System_Timer.c **** *   Values:
1369:Generated_Source\PSoC4/System_Timer.c **** *     - System_Timer_INTR_MASK_TC       - Terminal count mask
1370:Generated_Source\PSoC4/System_Timer.c **** *     - System_Timer_INTR_MASK_CC_MATCH - Compare count / capture mask
1371:Generated_Source\PSoC4/System_Timer.c **** *
1372:Generated_Source\PSoC4/System_Timer.c **** * Return:
1373:Generated_Source\PSoC4/System_Timer.c **** *  None
1374:Generated_Source\PSoC4/System_Timer.c **** *
1375:Generated_Source\PSoC4/System_Timer.c **** *******************************************************************************/
1376:Generated_Source\PSoC4/System_Timer.c **** void System_Timer_SetInterrupt(uint32 interruptMask)
1377:Generated_Source\PSoC4/System_Timer.c **** {
 1856              		.loc 1 1377 0
 1857              		.cfi_startproc
 1858 0000 80B5     		push	{r7, lr}
 1859              		.cfi_def_cfa_offset 8
 1860              		.cfi_offset 7, -8
 1861              		.cfi_offset 14, -4
 1862 0002 82B0     		sub	sp, sp, #8
 1863              		.cfi_def_cfa_offset 16
 1864 0004 00AF     		add	r7, sp, #0
 1865              		.cfi_def_cfa_register 7
 1866 0006 7860     		str	r0, [r7, #4]
1378:Generated_Source\PSoC4/System_Timer.c ****     System_Timer_INTERRUPT_SET_REG = interruptMask;
 1867              		.loc 1 1378 0
 1868 0008 024B     		ldr	r3, .L130
 1869 000a 7A68     		ldr	r2, [r7, #4]
 1870 000c 1A60     		str	r2, [r3]
ARM GAS  C:\Users\ADMINI~1.SC-\AppData\Local\Temp\ccEAhJMV.s 			page 58


1379:Generated_Source\PSoC4/System_Timer.c **** }
 1871              		.loc 1 1379 0
 1872 000e BD46     		mov	sp, r7
 1873 0010 02B0     		add	sp, sp, #8
 1874              		@ sp needed
 1875 0012 80BD     		pop	{r7, pc}
 1876              	.L131:
 1877              		.align	2
 1878              	.L130:
 1879 0014 34012040 		.word	1075839284
 1880              		.cfi_endproc
 1881              	.LFE41:
 1882              		.size	System_Timer_SetInterrupt, .-System_Timer_SetInterrupt
 1883              		.text
 1884              	.Letext0:
 1885              		.file 2 "Generated_Source\\PSoC4\\cytypes.h"
 1886              		.section	.debug_info,"",%progbits
 1887              	.Ldebug_info0:
 1888 0000 EC060000 		.4byte	0x6ec
 1889 0004 0400     		.2byte	0x4
 1890 0006 00000000 		.4byte	.Ldebug_abbrev0
 1891 000a 04       		.byte	0x4
 1892 000b 01       		.uleb128 0x1
 1893 000c 98050000 		.4byte	.LASF76
 1894 0010 01       		.byte	0x1
 1895 0011 3F060000 		.4byte	.LASF77
 1896 0015 BD030000 		.4byte	.LASF78
 1897 0019 00000000 		.4byte	.Ldebug_ranges0+0
 1898 001d 00000000 		.4byte	0
 1899 0021 00000000 		.4byte	.Ldebug_line0
 1900 0025 02       		.uleb128 0x2
 1901 0026 01       		.byte	0x1
 1902 0027 06       		.byte	0x6
 1903 0028 1D010000 		.4byte	.LASF0
 1904 002c 02       		.uleb128 0x2
 1905 002d 01       		.byte	0x1
 1906 002e 08       		.byte	0x8
 1907 002f 35040000 		.4byte	.LASF1
 1908 0033 02       		.uleb128 0x2
 1909 0034 02       		.byte	0x2
 1910 0035 05       		.byte	0x5
 1911 0036 54040000 		.4byte	.LASF2
 1912 003a 02       		.uleb128 0x2
 1913 003b 02       		.byte	0x2
 1914 003c 07       		.byte	0x7
 1915 003d B5020000 		.4byte	.LASF3
 1916 0041 02       		.uleb128 0x2
 1917 0042 04       		.byte	0x4
 1918 0043 05       		.byte	0x5
 1919 0044 6B010000 		.4byte	.LASF4
 1920 0048 02       		.uleb128 0x2
 1921 0049 04       		.byte	0x4
 1922 004a 07       		.byte	0x7
 1923 004b 85020000 		.4byte	.LASF5
 1924 004f 02       		.uleb128 0x2
 1925 0050 08       		.byte	0x8
 1926 0051 05       		.byte	0x5
ARM GAS  C:\Users\ADMINI~1.SC-\AppData\Local\Temp\ccEAhJMV.s 			page 59


 1927 0052 0F010000 		.4byte	.LASF6
 1928 0056 02       		.uleb128 0x2
 1929 0057 08       		.byte	0x8
 1930 0058 07       		.byte	0x7
 1931 0059 A1000000 		.4byte	.LASF7
 1932 005d 03       		.uleb128 0x3
 1933 005e 04       		.byte	0x4
 1934 005f 05       		.byte	0x5
 1935 0060 696E7400 		.ascii	"int\000"
 1936 0064 02       		.uleb128 0x2
 1937 0065 04       		.byte	0x4
 1938 0066 07       		.byte	0x7
 1939 0067 55020000 		.4byte	.LASF8
 1940 006b 04       		.uleb128 0x4
 1941 006c AA010000 		.4byte	.LASF9
 1942 0070 02       		.byte	0x2
 1943 0071 C2       		.byte	0xc2
 1944 0072 2C000000 		.4byte	0x2c
 1945 0076 04       		.uleb128 0x4
 1946 0077 01020000 		.4byte	.LASF10
 1947 007b 02       		.byte	0x2
 1948 007c C4       		.byte	0xc4
 1949 007d 48000000 		.4byte	0x48
 1950 0081 02       		.uleb128 0x2
 1951 0082 04       		.byte	0x4
 1952 0083 04       		.byte	0x4
 1953 0084 09040000 		.4byte	.LASF11
 1954 0088 02       		.uleb128 0x2
 1955 0089 08       		.byte	0x8
 1956 008a 04       		.byte	0x4
 1957 008b CC010000 		.4byte	.LASF12
 1958 008f 02       		.uleb128 0x2
 1959 0090 01       		.byte	0x1
 1960 0091 08       		.byte	0x8
 1961 0092 D9040000 		.4byte	.LASF13
 1962 0096 05       		.uleb128 0x5
 1963 0097 3A030000 		.4byte	.LASF14
 1964 009b 02       		.byte	0x2
 1965 009c 6E01     		.2byte	0x16e
 1966 009e A2000000 		.4byte	0xa2
 1967 00a2 06       		.uleb128 0x6
 1968 00a3 76000000 		.4byte	0x76
 1969 00a7 02       		.uleb128 0x2
 1970 00a8 04       		.byte	0x4
 1971 00a9 07       		.byte	0x7
 1972 00aa 40030000 		.4byte	.LASF15
 1973 00ae 07       		.uleb128 0x7
 1974 00af D3010000 		.4byte	.LASF16
 1975 00b3 01       		.byte	0x1
 1976 00b4 26       		.byte	0x26
 1977 00b5 00000000 		.4byte	.LFB2
 1978 00b9 38000000 		.4byte	.LFE2-.LFB2
 1979 00bd 01       		.uleb128 0x1
 1980 00be 9C       		.byte	0x9c
 1981 00bf 08       		.uleb128 0x8
 1982 00c0 C5040000 		.4byte	.LASF18
 1983 00c4 01       		.byte	0x1
ARM GAS  C:\Users\ADMINI~1.SC-\AppData\Local\Temp\ccEAhJMV.s 			page 60


 1984 00c5 B1       		.byte	0xb1
 1985 00c6 00000000 		.4byte	.LFB3
 1986 00ca 38000000 		.4byte	.LFE3-.LFB3
 1987 00ce 01       		.uleb128 0x1
 1988 00cf 9C       		.byte	0x9c
 1989 00d0 E3000000 		.4byte	0xe3
 1990 00d4 09       		.uleb128 0x9
 1991 00d5 52050000 		.4byte	.LASF20
 1992 00d9 01       		.byte	0x1
 1993 00da B3       		.byte	0xb3
 1994 00db 6B000000 		.4byte	0x6b
 1995 00df 02       		.uleb128 0x2
 1996 00e0 91       		.byte	0x91
 1997 00e1 6F       		.sleb128 -17
 1998 00e2 00       		.byte	0
 1999 00e3 07       		.uleb128 0x7
 2000 00e4 C8020000 		.4byte	.LASF17
 2001 00e8 01       		.byte	0x1
 2002 00e9 E0       		.byte	0xe0
 2003 00ea 00000000 		.4byte	.LFB4
 2004 00ee 24000000 		.4byte	.LFE4-.LFB4
 2005 00f2 01       		.uleb128 0x1
 2006 00f3 9C       		.byte	0x9c
 2007 00f4 08       		.uleb128 0x8
 2008 00f5 40050000 		.4byte	.LASF19
 2009 00f9 01       		.byte	0x1
 2010 00fa FA       		.byte	0xfa
 2011 00fb 00000000 		.4byte	.LFB5
 2012 00ff 30000000 		.4byte	.LFE5-.LFB5
 2013 0103 01       		.uleb128 0x1
 2014 0104 9C       		.byte	0x9c
 2015 0105 18010000 		.4byte	0x118
 2016 0109 09       		.uleb128 0x9
 2017 010a 52050000 		.4byte	.LASF20
 2018 010e 01       		.byte	0x1
 2019 010f FC       		.byte	0xfc
 2020 0110 6B000000 		.4byte	0x6b
 2021 0114 02       		.uleb128 0x2
 2022 0115 91       		.byte	0x91
 2023 0116 6F       		.sleb128 -17
 2024 0117 00       		.byte	0
 2025 0118 0A       		.uleb128 0xa
 2026 0119 8E030000 		.4byte	.LASF21
 2027 011d 01       		.byte	0x1
 2028 011e 1F01     		.2byte	0x11f
 2029 0120 00000000 		.4byte	.LFB6
 2030 0124 48000000 		.4byte	.LFE6-.LFB6
 2031 0128 01       		.uleb128 0x1
 2032 0129 9C       		.byte	0x9c
 2033 012a 4D010000 		.4byte	0x14d
 2034 012e 0B       		.uleb128 0xb
 2035 012f DE040000 		.4byte	.LASF23
 2036 0133 01       		.byte	0x1
 2037 0134 1F01     		.2byte	0x11f
 2038 0136 76000000 		.4byte	0x76
 2039 013a 02       		.uleb128 0x2
 2040 013b 91       		.byte	0x91
ARM GAS  C:\Users\ADMINI~1.SC-\AppData\Local\Temp\ccEAhJMV.s 			page 61


 2041 013c 64       		.sleb128 -28
 2042 013d 0C       		.uleb128 0xc
 2043 013e 52050000 		.4byte	.LASF20
 2044 0142 01       		.byte	0x1
 2045 0143 2101     		.2byte	0x121
 2046 0145 6B000000 		.4byte	0x6b
 2047 0149 02       		.uleb128 0x2
 2048 014a 91       		.byte	0x91
 2049 014b 6F       		.sleb128 -17
 2050 014c 00       		.byte	0
 2051 014d 0A       		.uleb128 0xa
 2052 014e F8000000 		.4byte	.LASF22
 2053 0152 01       		.byte	0x1
 2054 0153 4001     		.2byte	0x140
 2055 0155 00000000 		.4byte	.LFB7
 2056 0159 48000000 		.4byte	.LFE7-.LFB7
 2057 015d 01       		.uleb128 0x1
 2058 015e 9C       		.byte	0x9c
 2059 015f 82010000 		.4byte	0x182
 2060 0163 0B       		.uleb128 0xb
 2061 0164 D5000000 		.4byte	.LASF24
 2062 0168 01       		.byte	0x1
 2063 0169 4001     		.2byte	0x140
 2064 016b 76000000 		.4byte	0x76
 2065 016f 02       		.uleb128 0x2
 2066 0170 91       		.byte	0x91
 2067 0171 64       		.sleb128 -28
 2068 0172 0C       		.uleb128 0xc
 2069 0173 52050000 		.4byte	.LASF20
 2070 0177 01       		.byte	0x1
 2071 0178 4201     		.2byte	0x142
 2072 017a 6B000000 		.4byte	0x6b
 2073 017e 02       		.uleb128 0x2
 2074 017f 91       		.byte	0x91
 2075 0180 6F       		.sleb128 -17
 2076 0181 00       		.byte	0
 2077 0182 0A       		.uleb128 0xa
 2078 0183 6C040000 		.4byte	.LASF25
 2079 0187 01       		.byte	0x1
 2080 0188 6501     		.2byte	0x165
 2081 018a 00000000 		.4byte	.LFB8
 2082 018e 48000000 		.4byte	.LFE8-.LFB8
 2083 0192 01       		.uleb128 0x1
 2084 0193 9C       		.byte	0x9c
 2085 0194 B7010000 		.4byte	0x1b7
 2086 0198 0B       		.uleb128 0xb
 2087 0199 0F040000 		.4byte	.LASF26
 2088 019d 01       		.byte	0x1
 2089 019e 6501     		.2byte	0x165
 2090 01a0 76000000 		.4byte	0x76
 2091 01a4 02       		.uleb128 0x2
 2092 01a5 91       		.byte	0x91
 2093 01a6 64       		.sleb128 -28
 2094 01a7 0C       		.uleb128 0xc
 2095 01a8 52050000 		.4byte	.LASF20
 2096 01ac 01       		.byte	0x1
 2097 01ad 6701     		.2byte	0x167
ARM GAS  C:\Users\ADMINI~1.SC-\AppData\Local\Temp\ccEAhJMV.s 			page 62


 2098 01af 6B000000 		.4byte	0x6b
 2099 01b3 02       		.uleb128 0x2
 2100 01b4 91       		.byte	0x91
 2101 01b5 6F       		.sleb128 -17
 2102 01b6 00       		.byte	0
 2103 01b7 0A       		.uleb128 0xa
 2104 01b8 70000000 		.4byte	.LASF27
 2105 01bc 01       		.byte	0x1
 2106 01bd 8501     		.2byte	0x185
 2107 01bf 00000000 		.4byte	.LFB9
 2108 01c3 4C000000 		.4byte	.LFE9-.LFB9
 2109 01c7 01       		.uleb128 0x1
 2110 01c8 9C       		.byte	0x9c
 2111 01c9 EC010000 		.4byte	0x1ec
 2112 01cd 0B       		.uleb128 0xb
 2113 01ce 2C030000 		.4byte	.LASF28
 2114 01d2 01       		.byte	0x1
 2115 01d3 8501     		.2byte	0x185
 2116 01d5 76000000 		.4byte	0x76
 2117 01d9 02       		.uleb128 0x2
 2118 01da 91       		.byte	0x91
 2119 01db 64       		.sleb128 -28
 2120 01dc 0C       		.uleb128 0xc
 2121 01dd 52050000 		.4byte	.LASF20
 2122 01e1 01       		.byte	0x1
 2123 01e2 8701     		.2byte	0x187
 2124 01e4 6B000000 		.4byte	0x6b
 2125 01e8 02       		.uleb128 0x2
 2126 01e9 91       		.byte	0x91
 2127 01ea 6F       		.sleb128 -17
 2128 01eb 00       		.byte	0
 2129 01ec 0D       		.uleb128 0xd
 2130 01ed 74010000 		.4byte	.LASF29
 2131 01f1 01       		.byte	0x1
 2132 01f2 BB01     		.2byte	0x1bb
 2133 01f4 00000000 		.4byte	.LFB10
 2134 01f8 1C000000 		.4byte	.LFE10-.LFB10
 2135 01fc 01       		.uleb128 0x1
 2136 01fd 9C       		.byte	0x9c
 2137 01fe 12020000 		.4byte	0x212
 2138 0202 0B       		.uleb128 0xb
 2139 0203 97020000 		.4byte	.LASF30
 2140 0207 01       		.byte	0x1
 2141 0208 BB01     		.2byte	0x1bb
 2142 020a 76000000 		.4byte	0x76
 2143 020e 02       		.uleb128 0x2
 2144 020f 91       		.byte	0x91
 2145 0210 74       		.sleb128 -12
 2146 0211 00       		.byte	0
 2147 0212 0A       		.uleb128 0xa
 2148 0213 DC000000 		.4byte	.LASF31
 2149 0217 01       		.byte	0x1
 2150 0218 DF01     		.2byte	0x1df
 2151 021a 00000000 		.4byte	.LFB11
 2152 021e 48000000 		.4byte	.LFE11-.LFB11
 2153 0222 01       		.uleb128 0x1
 2154 0223 9C       		.byte	0x9c
ARM GAS  C:\Users\ADMINI~1.SC-\AppData\Local\Temp\ccEAhJMV.s 			page 63


 2155 0224 47020000 		.4byte	0x247
 2156 0228 0B       		.uleb128 0xb
 2157 0229 49030000 		.4byte	.LASF32
 2158 022d 01       		.byte	0x1
 2159 022e DF01     		.2byte	0x1df
 2160 0230 76000000 		.4byte	0x76
 2161 0234 02       		.uleb128 0x2
 2162 0235 91       		.byte	0x91
 2163 0236 64       		.sleb128 -28
 2164 0237 0C       		.uleb128 0xc
 2165 0238 52050000 		.4byte	.LASF20
 2166 023c 01       		.byte	0x1
 2167 023d E101     		.2byte	0x1e1
 2168 023f 6B000000 		.4byte	0x6b
 2169 0243 02       		.uleb128 0x2
 2170 0244 91       		.byte	0x91
 2171 0245 6F       		.sleb128 -17
 2172 0246 00       		.byte	0
 2173 0247 0A       		.uleb128 0xa
 2174 0248 65060000 		.4byte	.LASF33
 2175 024c 01       		.byte	0x1
 2176 024d 0102     		.2byte	0x201
 2177 024f 00000000 		.4byte	.LFB12
 2178 0253 48000000 		.4byte	.LFE12-.LFB12
 2179 0257 01       		.uleb128 0x1
 2180 0258 9C       		.byte	0x9c
 2181 0259 7C020000 		.4byte	0x27c
 2182 025d 0B       		.uleb128 0xb
 2183 025e 43040000 		.4byte	.LASF34
 2184 0262 01       		.byte	0x1
 2185 0263 0102     		.2byte	0x201
 2186 0265 76000000 		.4byte	0x76
 2187 0269 02       		.uleb128 0x2
 2188 026a 91       		.byte	0x91
 2189 026b 64       		.sleb128 -28
 2190 026c 0C       		.uleb128 0xc
 2191 026d 52050000 		.4byte	.LASF20
 2192 0271 01       		.byte	0x1
 2193 0272 0302     		.2byte	0x203
 2194 0274 6B000000 		.4byte	0x6b
 2195 0278 02       		.uleb128 0x2
 2196 0279 91       		.byte	0x91
 2197 027a 6F       		.sleb128 -17
 2198 027b 00       		.byte	0
 2199 027c 0A       		.uleb128 0xa
 2200 027d 10030000 		.4byte	.LASF35
 2201 0281 01       		.byte	0x1
 2202 0282 2202     		.2byte	0x222
 2203 0284 00000000 		.4byte	.LFB13
 2204 0288 4C000000 		.4byte	.LFE13-.LFB13
 2205 028c 01       		.uleb128 0x1
 2206 028d 9C       		.byte	0x9c
 2207 028e B1020000 		.4byte	0x2b1
 2208 0292 0B       		.uleb128 0xb
 2209 0293 4C020000 		.4byte	.LASF36
 2210 0297 01       		.byte	0x1
 2211 0298 2202     		.2byte	0x222
ARM GAS  C:\Users\ADMINI~1.SC-\AppData\Local\Temp\ccEAhJMV.s 			page 64


 2212 029a 76000000 		.4byte	0x76
 2213 029e 02       		.uleb128 0x2
 2214 029f 91       		.byte	0x91
 2215 02a0 64       		.sleb128 -28
 2216 02a1 0C       		.uleb128 0xc
 2217 02a2 52050000 		.4byte	.LASF20
 2218 02a6 01       		.byte	0x1
 2219 02a7 2402     		.2byte	0x224
 2220 02a9 6B000000 		.4byte	0x6b
 2221 02ad 02       		.uleb128 0x2
 2222 02ae 91       		.byte	0x91
 2223 02af 6F       		.sleb128 -17
 2224 02b0 00       		.byte	0
 2225 02b1 0A       		.uleb128 0xa
 2226 02b2 74030000 		.4byte	.LASF37
 2227 02b6 01       		.byte	0x1
 2228 02b7 4302     		.2byte	0x243
 2229 02b9 00000000 		.4byte	.LFB14
 2230 02bd 48000000 		.4byte	.LFE14-.LFB14
 2231 02c1 01       		.uleb128 0x1
 2232 02c2 9C       		.byte	0x9c
 2233 02c3 E6020000 		.4byte	0x2e6
 2234 02c7 0B       		.uleb128 0xb
 2235 02c8 47020000 		.4byte	.LASF38
 2236 02cc 01       		.byte	0x1
 2237 02cd 4302     		.2byte	0x243
 2238 02cf 76000000 		.4byte	0x76
 2239 02d3 02       		.uleb128 0x2
 2240 02d4 91       		.byte	0x91
 2241 02d5 64       		.sleb128 -28
 2242 02d6 0C       		.uleb128 0xc
 2243 02d7 52050000 		.4byte	.LASF20
 2244 02db 01       		.byte	0x1
 2245 02dc 4502     		.2byte	0x245
 2246 02de 6B000000 		.4byte	0x6b
 2247 02e2 02       		.uleb128 0x2
 2248 02e3 91       		.byte	0x91
 2249 02e4 6F       		.sleb128 -17
 2250 02e5 00       		.byte	0
 2251 02e6 0D       		.uleb128 0xd
 2252 02e7 DB020000 		.4byte	.LASF39
 2253 02eb 01       		.byte	0x1
 2254 02ec 6102     		.2byte	0x261
 2255 02ee 00000000 		.4byte	.LFB15
 2256 02f2 1C000000 		.4byte	.LFE15-.LFB15
 2257 02f6 01       		.uleb128 0x1
 2258 02f7 9C       		.byte	0x9c
 2259 02f8 0C030000 		.4byte	0x30c
 2260 02fc 0B       		.uleb128 0xb
 2261 02fd 00000000 		.4byte	.LASF40
 2262 0301 01       		.byte	0x1
 2263 0302 6102     		.2byte	0x261
 2264 0304 76000000 		.4byte	0x76
 2265 0308 02       		.uleb128 0x2
 2266 0309 91       		.byte	0x91
 2267 030a 74       		.sleb128 -12
 2268 030b 00       		.byte	0
ARM GAS  C:\Users\ADMINI~1.SC-\AppData\Local\Temp\ccEAhJMV.s 			page 65


 2269 030c 0E       		.uleb128 0xe
 2270 030d 88000000 		.4byte	.LASF45
 2271 0311 01       		.byte	0x1
 2272 0312 7502     		.2byte	0x275
 2273 0314 76000000 		.4byte	0x76
 2274 0318 00000000 		.4byte	.LFB16
 2275 031c 18000000 		.4byte	.LFE16-.LFB16
 2276 0320 01       		.uleb128 0x1
 2277 0321 9C       		.byte	0x9c
 2278 0322 0A       		.uleb128 0xa
 2279 0323 E3040000 		.4byte	.LASF41
 2280 0327 01       		.byte	0x1
 2281 0328 9202     		.2byte	0x292
 2282 032a 00000000 		.4byte	.LFB17
 2283 032e 48000000 		.4byte	.LFE17-.LFB17
 2284 0332 01       		.uleb128 0x1
 2285 0333 9C       		.byte	0x9c
 2286 0334 57030000 		.4byte	0x357
 2287 0338 0B       		.uleb128 0xb
 2288 0339 FF040000 		.4byte	.LASF42
 2289 033d 01       		.byte	0x1
 2290 033e 9202     		.2byte	0x292
 2291 0340 76000000 		.4byte	0x76
 2292 0344 02       		.uleb128 0x2
 2293 0345 91       		.byte	0x91
 2294 0346 64       		.sleb128 -28
 2295 0347 0C       		.uleb128 0xc
 2296 0348 52050000 		.4byte	.LASF20
 2297 034c 01       		.byte	0x1
 2298 034d 9402     		.2byte	0x294
 2299 034f 6B000000 		.4byte	0x6b
 2300 0353 02       		.uleb128 0x2
 2301 0354 91       		.byte	0x91
 2302 0355 6F       		.sleb128 -17
 2303 0356 00       		.byte	0
 2304 0357 0D       		.uleb128 0xd
 2305 0358 AC040000 		.4byte	.LASF43
 2306 035c 01       		.byte	0x1
 2307 035d AF02     		.2byte	0x2af
 2308 035f 00000000 		.4byte	.LFB18
 2309 0363 1C000000 		.4byte	.LFE18-.LFB18
 2310 0367 01       		.uleb128 0x1
 2311 0368 9C       		.byte	0x9c
 2312 0369 7D030000 		.4byte	0x37d
 2313 036d 0B       		.uleb128 0xb
 2314 036e 0B050000 		.4byte	.LASF44
 2315 0372 01       		.byte	0x1
 2316 0373 AF02     		.2byte	0x2af
 2317 0375 76000000 		.4byte	0x76
 2318 0379 02       		.uleb128 0x2
 2319 037a 91       		.byte	0x91
 2320 037b 74       		.sleb128 -12
 2321 037c 00       		.byte	0
 2322 037d 0E       		.uleb128 0xe
 2323 037e 3E000000 		.4byte	.LASF46
 2324 0382 01       		.byte	0x1
 2325 0383 C302     		.2byte	0x2c3
ARM GAS  C:\Users\ADMINI~1.SC-\AppData\Local\Temp\ccEAhJMV.s 			page 66


 2326 0385 76000000 		.4byte	0x76
 2327 0389 00000000 		.4byte	.LFB19
 2328 038d 18000000 		.4byte	.LFE19-.LFB19
 2329 0391 01       		.uleb128 0x1
 2330 0392 9C       		.byte	0x9c
 2331 0393 0A       		.uleb128 0xa
 2332 0394 22000000 		.4byte	.LASF47
 2333 0398 01       		.byte	0x1
 2334 0399 DD02     		.2byte	0x2dd
 2335 039b 00000000 		.4byte	.LFB20
 2336 039f 48000000 		.4byte	.LFE20-.LFB20
 2337 03a3 01       		.uleb128 0x1
 2338 03a4 9C       		.byte	0x9c
 2339 03a5 C8030000 		.4byte	0x3c8
 2340 03a9 0B       		.uleb128 0xb
 2341 03aa 12050000 		.4byte	.LASF48
 2342 03ae 01       		.byte	0x1
 2343 03af DD02     		.2byte	0x2dd
 2344 03b1 76000000 		.4byte	0x76
 2345 03b5 02       		.uleb128 0x2
 2346 03b6 91       		.byte	0x91
 2347 03b7 64       		.sleb128 -28
 2348 03b8 0C       		.uleb128 0xc
 2349 03b9 52050000 		.4byte	.LASF20
 2350 03bd 01       		.byte	0x1
 2351 03be DF02     		.2byte	0x2df
 2352 03c0 6B000000 		.4byte	0x6b
 2353 03c4 02       		.uleb128 0x2
 2354 03c5 91       		.byte	0x91
 2355 03c6 6F       		.sleb128 -17
 2356 03c7 00       		.byte	0
 2357 03c8 0D       		.uleb128 0xd
 2358 03c9 58030000 		.4byte	.LASF49
 2359 03cd 01       		.byte	0x1
 2360 03ce F802     		.2byte	0x2f8
 2361 03d0 00000000 		.4byte	.LFB21
 2362 03d4 1C000000 		.4byte	.LFE21-.LFB21
 2363 03d8 01       		.uleb128 0x1
 2364 03d9 9C       		.byte	0x9c
 2365 03da EE030000 		.4byte	0x3ee
 2366 03de 0B       		.uleb128 0xb
 2367 03df 83060000 		.4byte	.LASF50
 2368 03e3 01       		.byte	0x1
 2369 03e4 F802     		.2byte	0x2f8
 2370 03e6 76000000 		.4byte	0x76
 2371 03ea 02       		.uleb128 0x2
 2372 03eb 91       		.byte	0x91
 2373 03ec 74       		.sleb128 -12
 2374 03ed 00       		.byte	0
 2375 03ee 0E       		.uleb128 0xe
 2376 03ef 62020000 		.4byte	.LASF51
 2377 03f3 01       		.byte	0x1
 2378 03f4 0C03     		.2byte	0x30c
 2379 03f6 76000000 		.4byte	0x76
 2380 03fa 00000000 		.4byte	.LFB22
 2381 03fe 18000000 		.4byte	.LFE22-.LFB22
 2382 0402 01       		.uleb128 0x1
ARM GAS  C:\Users\ADMINI~1.SC-\AppData\Local\Temp\ccEAhJMV.s 			page 67


 2383 0403 9C       		.byte	0x9c
 2384 0404 0A       		.uleb128 0xa
 2385 0405 F5020000 		.4byte	.LASF52
 2386 0409 01       		.byte	0x1
 2387 040a 2603     		.2byte	0x326
 2388 040c 00000000 		.4byte	.LFB23
 2389 0410 48000000 		.4byte	.LFE23-.LFB23
 2390 0414 01       		.uleb128 0x1
 2391 0415 9C       		.byte	0x9c
 2392 0416 39040000 		.4byte	0x439
 2393 041a 0B       		.uleb128 0xb
 2394 041b 12050000 		.4byte	.LASF48
 2395 041f 01       		.byte	0x1
 2396 0420 2603     		.2byte	0x326
 2397 0422 76000000 		.4byte	0x76
 2398 0426 02       		.uleb128 0x2
 2399 0427 91       		.byte	0x91
 2400 0428 64       		.sleb128 -28
 2401 0429 0C       		.uleb128 0xc
 2402 042a 52050000 		.4byte	.LASF20
 2403 042e 01       		.byte	0x1
 2404 042f 2803     		.2byte	0x328
 2405 0431 6B000000 		.4byte	0x6b
 2406 0435 02       		.uleb128 0x2
 2407 0436 91       		.byte	0x91
 2408 0437 6F       		.sleb128 -17
 2409 0438 00       		.byte	0
 2410 0439 0D       		.uleb128 0xd
 2411 043a 08020000 		.4byte	.LASF53
 2412 043e 01       		.byte	0x1
 2413 043f 4303     		.2byte	0x343
 2414 0441 00000000 		.4byte	.LFB24
 2415 0445 1C000000 		.4byte	.LFE24-.LFB24
 2416 0449 01       		.uleb128 0x1
 2417 044a 9C       		.byte	0x9c
 2418 044b 5F040000 		.4byte	0x45f
 2419 044f 0B       		.uleb128 0xb
 2420 0450 49010000 		.4byte	.LASF54
 2421 0454 01       		.byte	0x1
 2422 0455 4303     		.2byte	0x343
 2423 0457 76000000 		.4byte	0x76
 2424 045b 02       		.uleb128 0x2
 2425 045c 91       		.byte	0x91
 2426 045d 74       		.sleb128 -12
 2427 045e 00       		.byte	0
 2428 045f 0E       		.uleb128 0xe
 2429 0460 26060000 		.4byte	.LASF55
 2430 0464 01       		.byte	0x1
 2431 0465 6E03     		.2byte	0x36e
 2432 0467 76000000 		.4byte	0x76
 2433 046b 00000000 		.4byte	.LFB25
 2434 046f 18000000 		.4byte	.LFE25-.LFB25
 2435 0473 01       		.uleb128 0x1
 2436 0474 9C       		.byte	0x9c
 2437 0475 0D       		.uleb128 0xd
 2438 0476 B8000000 		.4byte	.LASF56
 2439 047a 01       		.byte	0x1
ARM GAS  C:\Users\ADMINI~1.SC-\AppData\Local\Temp\ccEAhJMV.s 			page 68


 2440 047b 9C03     		.2byte	0x39c
 2441 047d 00000000 		.4byte	.LFB26
 2442 0481 1C000000 		.4byte	.LFE26-.LFB26
 2443 0485 01       		.uleb128 0x1
 2444 0486 9C       		.byte	0x9c
 2445 0487 9B040000 		.4byte	0x49b
 2446 048b 0B       		.uleb128 0xb
 2447 048c 35050000 		.4byte	.LASF57
 2448 0490 01       		.byte	0x1
 2449 0491 9C03     		.2byte	0x39c
 2450 0493 76000000 		.4byte	0x76
 2451 0497 02       		.uleb128 0x2
 2452 0498 91       		.byte	0x91
 2453 0499 74       		.sleb128 -12
 2454 049a 00       		.byte	0
 2455 049b 0E       		.uleb128 0xe
 2456 049c 06000000 		.4byte	.LASF58
 2457 04a0 01       		.byte	0x1
 2458 04a1 C503     		.2byte	0x3c5
 2459 04a3 76000000 		.4byte	0x76
 2460 04a7 00000000 		.4byte	.LFB27
 2461 04ab 18000000 		.4byte	.LFE27-.LFB27
 2462 04af 01       		.uleb128 0x1
 2463 04b0 9C       		.byte	0x9c
 2464 04b1 0E       		.uleb128 0xe
 2465 04b2 63050000 		.4byte	.LASF59
 2466 04b6 01       		.byte	0x1
 2467 04b7 F303     		.2byte	0x3f3
 2468 04b9 76000000 		.4byte	0x76
 2469 04bd 00000000 		.4byte	.LFB28
 2470 04c1 18000000 		.4byte	.LFE28-.LFB28
 2471 04c5 01       		.uleb128 0x1
 2472 04c6 9C       		.byte	0x9c
 2473 04c7 0E       		.uleb128 0xe
 2474 04c8 19040000 		.4byte	.LASF60
 2475 04cc 01       		.byte	0x1
 2476 04cd 0804     		.2byte	0x408
 2477 04cf 76000000 		.4byte	0x76
 2478 04d3 00000000 		.4byte	.LFB29
 2479 04d7 18000000 		.4byte	.LFE29-.LFB29
 2480 04db 01       		.uleb128 0x1
 2481 04dc 9C       		.byte	0x9c
 2482 04dd 0A       		.uleb128 0xa
 2483 04de 7C050000 		.4byte	.LASF61
 2484 04e2 01       		.byte	0x1
 2485 04e3 2304     		.2byte	0x423
 2486 04e5 00000000 		.4byte	.LFB30
 2487 04e9 44000000 		.4byte	.LFE30-.LFB30
 2488 04ed 01       		.uleb128 0x1
 2489 04ee 9C       		.byte	0x9c
 2490 04ef 12050000 		.4byte	0x512
 2491 04f3 0B       		.uleb128 0xb
 2492 04f4 22020000 		.4byte	.LASF62
 2493 04f8 01       		.byte	0x1
 2494 04f9 2304     		.2byte	0x423
 2495 04fb 76000000 		.4byte	0x76
 2496 04ff 02       		.uleb128 0x2
ARM GAS  C:\Users\ADMINI~1.SC-\AppData\Local\Temp\ccEAhJMV.s 			page 69


 2497 0500 91       		.byte	0x91
 2498 0501 64       		.sleb128 -28
 2499 0502 0C       		.uleb128 0xc
 2500 0503 52050000 		.4byte	.LASF20
 2501 0507 01       		.byte	0x1
 2502 0508 2504     		.2byte	0x425
 2503 050a 6B000000 		.4byte	0x6b
 2504 050e 02       		.uleb128 0x2
 2505 050f 91       		.byte	0x91
 2506 0510 6F       		.sleb128 -17
 2507 0511 00       		.byte	0
 2508 0512 0A       		.uleb128 0xa
 2509 0513 EE030000 		.4byte	.LASF63
 2510 0517 01       		.byte	0x1
 2511 0518 4404     		.2byte	0x444
 2512 051a 00000000 		.4byte	.LFB31
 2513 051e 44000000 		.4byte	.LFE31-.LFB31
 2514 0522 01       		.uleb128 0x1
 2515 0523 9C       		.byte	0x9c
 2516 0524 47050000 		.4byte	0x547
 2517 0528 0B       		.uleb128 0xb
 2518 0529 22020000 		.4byte	.LASF62
 2519 052d 01       		.byte	0x1
 2520 052e 4404     		.2byte	0x444
 2521 0530 76000000 		.4byte	0x76
 2522 0534 02       		.uleb128 0x2
 2523 0535 91       		.byte	0x91
 2524 0536 64       		.sleb128 -28
 2525 0537 0C       		.uleb128 0xc
 2526 0538 52050000 		.4byte	.LASF20
 2527 053c 01       		.byte	0x1
 2528 053d 4604     		.2byte	0x446
 2529 053f 6B000000 		.4byte	0x6b
 2530 0543 02       		.uleb128 0x2
 2531 0544 91       		.byte	0x91
 2532 0545 6F       		.sleb128 -17
 2533 0546 00       		.byte	0
 2534 0547 0A       		.uleb128 0xa
 2535 0548 A3030000 		.4byte	.LASF64
 2536 054c 01       		.byte	0x1
 2537 054d 6504     		.2byte	0x465
 2538 054f 00000000 		.4byte	.LFB32
 2539 0553 48000000 		.4byte	.LFE32-.LFB32
 2540 0557 01       		.uleb128 0x1
 2541 0558 9C       		.byte	0x9c
 2542 0559 7C050000 		.4byte	0x57c
 2543 055d 0B       		.uleb128 0xb
 2544 055e 22020000 		.4byte	.LASF62
 2545 0562 01       		.byte	0x1
 2546 0563 6504     		.2byte	0x465
 2547 0565 76000000 		.4byte	0x76
 2548 0569 02       		.uleb128 0x2
 2549 056a 91       		.byte	0x91
 2550 056b 64       		.sleb128 -28
 2551 056c 0C       		.uleb128 0xc
 2552 056d 52050000 		.4byte	.LASF20
 2553 0571 01       		.byte	0x1
ARM GAS  C:\Users\ADMINI~1.SC-\AppData\Local\Temp\ccEAhJMV.s 			page 70


 2554 0572 6704     		.2byte	0x467
 2555 0574 6B000000 		.4byte	0x6b
 2556 0578 02       		.uleb128 0x2
 2557 0579 91       		.byte	0x91
 2558 057a 6F       		.sleb128 -17
 2559 057b 00       		.byte	0
 2560 057c 0A       		.uleb128 0xa
 2561 057d 2E020000 		.4byte	.LASF65
 2562 0581 01       		.byte	0x1
 2563 0582 8504     		.2byte	0x485
 2564 0584 00000000 		.4byte	.LFB33
 2565 0588 44000000 		.4byte	.LFE33-.LFB33
 2566 058c 01       		.uleb128 0x1
 2567 058d 9C       		.byte	0x9c
 2568 058e B1050000 		.4byte	0x5b1
 2569 0592 0B       		.uleb128 0xb
 2570 0593 22020000 		.4byte	.LASF62
 2571 0597 01       		.byte	0x1
 2572 0598 8504     		.2byte	0x485
 2573 059a 76000000 		.4byte	0x76
 2574 059e 02       		.uleb128 0x2
 2575 059f 91       		.byte	0x91
 2576 05a0 64       		.sleb128 -28
 2577 05a1 0C       		.uleb128 0xc
 2578 05a2 52050000 		.4byte	.LASF20
 2579 05a6 01       		.byte	0x1
 2580 05a7 8704     		.2byte	0x487
 2581 05a9 6B000000 		.4byte	0x6b
 2582 05ad 02       		.uleb128 0x2
 2583 05ae 91       		.byte	0x91
 2584 05af 6F       		.sleb128 -17
 2585 05b0 00       		.byte	0
 2586 05b1 0A       		.uleb128 0xa
 2587 05b2 51010000 		.4byte	.LASF66
 2588 05b6 01       		.byte	0x1
 2589 05b7 A604     		.2byte	0x4a6
 2590 05b9 00000000 		.4byte	.LFB34
 2591 05bd 44000000 		.4byte	.LFE34-.LFB34
 2592 05c1 01       		.uleb128 0x1
 2593 05c2 9C       		.byte	0x9c
 2594 05c3 E6050000 		.4byte	0x5e6
 2595 05c7 0B       		.uleb128 0xb
 2596 05c8 22020000 		.4byte	.LASF62
 2597 05cc 01       		.byte	0x1
 2598 05cd A604     		.2byte	0x4a6
 2599 05cf 76000000 		.4byte	0x76
 2600 05d3 02       		.uleb128 0x2
 2601 05d4 91       		.byte	0x91
 2602 05d5 64       		.sleb128 -28
 2603 05d6 0C       		.uleb128 0xc
 2604 05d7 52050000 		.4byte	.LASF20
 2605 05db 01       		.byte	0x1
 2606 05dc A804     		.2byte	0x4a8
 2607 05de 6B000000 		.4byte	0x6b
 2608 05e2 02       		.uleb128 0x2
 2609 05e3 91       		.byte	0x91
 2610 05e4 6F       		.sleb128 -17
ARM GAS  C:\Users\ADMINI~1.SC-\AppData\Local\Temp\ccEAhJMV.s 			page 71


 2611 05e5 00       		.byte	0
 2612 05e6 0A       		.uleb128 0xa
 2613 05e7 B0010000 		.4byte	.LASF67
 2614 05eb 01       		.byte	0x1
 2615 05ec CE04     		.2byte	0x4ce
 2616 05ee 00000000 		.4byte	.LFB35
 2617 05f2 38000000 		.4byte	.LFE35-.LFB35
 2618 05f6 01       		.uleb128 0x1
 2619 05f7 9C       		.byte	0x9c
 2620 05f8 2A060000 		.4byte	0x62a
 2621 05fc 0B       		.uleb128 0xb
 2622 05fd 47020000 		.4byte	.LASF38
 2623 0601 01       		.byte	0x1
 2624 0602 CE04     		.2byte	0x4ce
 2625 0604 76000000 		.4byte	0x76
 2626 0608 02       		.uleb128 0x2
 2627 0609 91       		.byte	0x91
 2628 060a 64       		.sleb128 -28
 2629 060b 0B       		.uleb128 0xb
 2630 060c 7D020000 		.4byte	.LASF68
 2631 0610 01       		.byte	0x1
 2632 0611 CE04     		.2byte	0x4ce
 2633 0613 76000000 		.4byte	0x76
 2634 0617 02       		.uleb128 0x2
 2635 0618 91       		.byte	0x91
 2636 0619 60       		.sleb128 -32
 2637 061a 0C       		.uleb128 0xc
 2638 061b 52050000 		.4byte	.LASF20
 2639 061f 01       		.byte	0x1
 2640 0620 D004     		.2byte	0x4d0
 2641 0622 6B000000 		.4byte	0x6b
 2642 0626 02       		.uleb128 0x2
 2643 0627 91       		.byte	0x91
 2644 0628 6F       		.sleb128 -17
 2645 0629 00       		.byte	0
 2646 062a 0E       		.uleb128 0xe
 2647 062b 1D050000 		.4byte	.LASF69
 2648 062f 01       		.byte	0x1
 2649 0630 EB04     		.2byte	0x4eb
 2650 0632 76000000 		.4byte	0x76
 2651 0636 00000000 		.4byte	.LFB36
 2652 063a 20000000 		.4byte	.LFE36-.LFB36
 2653 063e 01       		.uleb128 0x1
 2654 063f 9C       		.byte	0x9c
 2655 0640 0D       		.uleb128 0xd
 2656 0641 8C010000 		.4byte	.LASF70
 2657 0645 01       		.byte	0x1
 2658 0646 0405     		.2byte	0x504
 2659 0648 00000000 		.4byte	.LFB37
 2660 064c 18000000 		.4byte	.LFE37-.LFB37
 2661 0650 01       		.uleb128 0x1
 2662 0651 9C       		.byte	0x9c
 2663 0652 66060000 		.4byte	0x666
 2664 0656 0B       		.uleb128 0xb
 2665 0657 5E040000 		.4byte	.LASF71
 2666 065b 01       		.byte	0x1
 2667 065c 0405     		.2byte	0x504
ARM GAS  C:\Users\ADMINI~1.SC-\AppData\Local\Temp\ccEAhJMV.s 			page 72


 2668 065e 76000000 		.4byte	0x76
 2669 0662 02       		.uleb128 0x2
 2670 0663 91       		.byte	0x91
 2671 0664 74       		.sleb128 -12
 2672 0665 00       		.byte	0
 2673 0666 0E       		.uleb128 0xe
 2674 0667 86040000 		.4byte	.LASF72
 2675 066b 01       		.byte	0x1
 2676 066c 1B05     		.2byte	0x51b
 2677 066e 76000000 		.4byte	0x76
 2678 0672 00000000 		.4byte	.LFB38
 2679 0676 14000000 		.4byte	.LFE38-.LFB38
 2680 067a 01       		.uleb128 0x1
 2681 067b 9C       		.byte	0x9c
 2682 067c 0E       		.uleb128 0xe
 2683 067d 29010000 		.4byte	.LASF73
 2684 0681 01       		.byte	0x1
 2685 0682 3205     		.2byte	0x532
 2686 0684 76000000 		.4byte	0x76
 2687 0688 00000000 		.4byte	.LFB39
 2688 068c 14000000 		.4byte	.LFE39-.LFB39
 2689 0690 01       		.uleb128 0x1
 2690 0691 9C       		.byte	0x9c
 2691 0692 0D       		.uleb128 0xd
 2692 0693 E5010000 		.4byte	.LASF74
 2693 0697 01       		.byte	0x1
 2694 0698 4905     		.2byte	0x549
 2695 069a 00000000 		.4byte	.LFB40
 2696 069e 18000000 		.4byte	.LFE40-.LFB40
 2697 06a2 01       		.uleb128 0x1
 2698 06a3 9C       		.byte	0x9c
 2699 06a4 B8060000 		.4byte	0x6b8
 2700 06a8 0B       		.uleb128 0xb
 2701 06a9 5E040000 		.4byte	.LASF71
 2702 06ad 01       		.byte	0x1
 2703 06ae 4905     		.2byte	0x549
 2704 06b0 76000000 		.4byte	0x76
 2705 06b4 02       		.uleb128 0x2
 2706 06b5 91       		.byte	0x91
 2707 06b6 74       		.sleb128 -12
 2708 06b7 00       		.byte	0
 2709 06b8 0D       		.uleb128 0xd
 2710 06b9 56000000 		.4byte	.LASF75
 2711 06bd 01       		.byte	0x1
 2712 06be 6005     		.2byte	0x560
 2713 06c0 00000000 		.4byte	.LFB41
 2714 06c4 18000000 		.4byte	.LFE41-.LFB41
 2715 06c8 01       		.uleb128 0x1
 2716 06c9 9C       		.byte	0x9c
 2717 06ca DE060000 		.4byte	0x6de
 2718 06ce 0B       		.uleb128 0xb
 2719 06cf 5E040000 		.4byte	.LASF71
 2720 06d3 01       		.byte	0x1
 2721 06d4 6005     		.2byte	0x560
 2722 06d6 76000000 		.4byte	0x76
 2723 06da 02       		.uleb128 0x2
 2724 06db 91       		.byte	0x91
ARM GAS  C:\Users\ADMINI~1.SC-\AppData\Local\Temp\ccEAhJMV.s 			page 73


 2725 06dc 74       		.sleb128 -12
 2726 06dd 00       		.byte	0
 2727 06de 0F       		.uleb128 0xf
 2728 06df A0020000 		.4byte	.LASF79
 2729 06e3 01       		.byte	0x1
 2730 06e4 15       		.byte	0x15
 2731 06e5 6B000000 		.4byte	0x6b
 2732 06e9 05       		.uleb128 0x5
 2733 06ea 03       		.byte	0x3
 2734 06eb 00000000 		.4byte	System_Timer_initVar
 2735 06ef 00       		.byte	0
 2736              		.section	.debug_abbrev,"",%progbits
 2737              	.Ldebug_abbrev0:
 2738 0000 01       		.uleb128 0x1
 2739 0001 11       		.uleb128 0x11
 2740 0002 01       		.byte	0x1
 2741 0003 25       		.uleb128 0x25
 2742 0004 0E       		.uleb128 0xe
 2743 0005 13       		.uleb128 0x13
 2744 0006 0B       		.uleb128 0xb
 2745 0007 03       		.uleb128 0x3
 2746 0008 0E       		.uleb128 0xe
 2747 0009 1B       		.uleb128 0x1b
 2748 000a 0E       		.uleb128 0xe
 2749 000b 55       		.uleb128 0x55
 2750 000c 17       		.uleb128 0x17
 2751 000d 11       		.uleb128 0x11
 2752 000e 01       		.uleb128 0x1
 2753 000f 10       		.uleb128 0x10
 2754 0010 17       		.uleb128 0x17
 2755 0011 00       		.byte	0
 2756 0012 00       		.byte	0
 2757 0013 02       		.uleb128 0x2
 2758 0014 24       		.uleb128 0x24
 2759 0015 00       		.byte	0
 2760 0016 0B       		.uleb128 0xb
 2761 0017 0B       		.uleb128 0xb
 2762 0018 3E       		.uleb128 0x3e
 2763 0019 0B       		.uleb128 0xb
 2764 001a 03       		.uleb128 0x3
 2765 001b 0E       		.uleb128 0xe
 2766 001c 00       		.byte	0
 2767 001d 00       		.byte	0
 2768 001e 03       		.uleb128 0x3
 2769 001f 24       		.uleb128 0x24
 2770 0020 00       		.byte	0
 2771 0021 0B       		.uleb128 0xb
 2772 0022 0B       		.uleb128 0xb
 2773 0023 3E       		.uleb128 0x3e
 2774 0024 0B       		.uleb128 0xb
 2775 0025 03       		.uleb128 0x3
 2776 0026 08       		.uleb128 0x8
 2777 0027 00       		.byte	0
 2778 0028 00       		.byte	0
 2779 0029 04       		.uleb128 0x4
 2780 002a 16       		.uleb128 0x16
 2781 002b 00       		.byte	0
ARM GAS  C:\Users\ADMINI~1.SC-\AppData\Local\Temp\ccEAhJMV.s 			page 74


 2782 002c 03       		.uleb128 0x3
 2783 002d 0E       		.uleb128 0xe
 2784 002e 3A       		.uleb128 0x3a
 2785 002f 0B       		.uleb128 0xb
 2786 0030 3B       		.uleb128 0x3b
 2787 0031 0B       		.uleb128 0xb
 2788 0032 49       		.uleb128 0x49
 2789 0033 13       		.uleb128 0x13
 2790 0034 00       		.byte	0
 2791 0035 00       		.byte	0
 2792 0036 05       		.uleb128 0x5
 2793 0037 16       		.uleb128 0x16
 2794 0038 00       		.byte	0
 2795 0039 03       		.uleb128 0x3
 2796 003a 0E       		.uleb128 0xe
 2797 003b 3A       		.uleb128 0x3a
 2798 003c 0B       		.uleb128 0xb
 2799 003d 3B       		.uleb128 0x3b
 2800 003e 05       		.uleb128 0x5
 2801 003f 49       		.uleb128 0x49
 2802 0040 13       		.uleb128 0x13
 2803 0041 00       		.byte	0
 2804 0042 00       		.byte	0
 2805 0043 06       		.uleb128 0x6
 2806 0044 35       		.uleb128 0x35
 2807 0045 00       		.byte	0
 2808 0046 49       		.uleb128 0x49
 2809 0047 13       		.uleb128 0x13
 2810 0048 00       		.byte	0
 2811 0049 00       		.byte	0
 2812 004a 07       		.uleb128 0x7
 2813 004b 2E       		.uleb128 0x2e
 2814 004c 00       		.byte	0
 2815 004d 3F       		.uleb128 0x3f
 2816 004e 19       		.uleb128 0x19
 2817 004f 03       		.uleb128 0x3
 2818 0050 0E       		.uleb128 0xe
 2819 0051 3A       		.uleb128 0x3a
 2820 0052 0B       		.uleb128 0xb
 2821 0053 3B       		.uleb128 0x3b
 2822 0054 0B       		.uleb128 0xb
 2823 0055 27       		.uleb128 0x27
 2824 0056 19       		.uleb128 0x19
 2825 0057 11       		.uleb128 0x11
 2826 0058 01       		.uleb128 0x1
 2827 0059 12       		.uleb128 0x12
 2828 005a 06       		.uleb128 0x6
 2829 005b 40       		.uleb128 0x40
 2830 005c 18       		.uleb128 0x18
 2831 005d 9642     		.uleb128 0x2116
 2832 005f 19       		.uleb128 0x19
 2833 0060 00       		.byte	0
 2834 0061 00       		.byte	0
 2835 0062 08       		.uleb128 0x8
 2836 0063 2E       		.uleb128 0x2e
 2837 0064 01       		.byte	0x1
 2838 0065 3F       		.uleb128 0x3f
ARM GAS  C:\Users\ADMINI~1.SC-\AppData\Local\Temp\ccEAhJMV.s 			page 75


 2839 0066 19       		.uleb128 0x19
 2840 0067 03       		.uleb128 0x3
 2841 0068 0E       		.uleb128 0xe
 2842 0069 3A       		.uleb128 0x3a
 2843 006a 0B       		.uleb128 0xb
 2844 006b 3B       		.uleb128 0x3b
 2845 006c 0B       		.uleb128 0xb
 2846 006d 27       		.uleb128 0x27
 2847 006e 19       		.uleb128 0x19
 2848 006f 11       		.uleb128 0x11
 2849 0070 01       		.uleb128 0x1
 2850 0071 12       		.uleb128 0x12
 2851 0072 06       		.uleb128 0x6
 2852 0073 40       		.uleb128 0x40
 2853 0074 18       		.uleb128 0x18
 2854 0075 9642     		.uleb128 0x2116
 2855 0077 19       		.uleb128 0x19
 2856 0078 01       		.uleb128 0x1
 2857 0079 13       		.uleb128 0x13
 2858 007a 00       		.byte	0
 2859 007b 00       		.byte	0
 2860 007c 09       		.uleb128 0x9
 2861 007d 34       		.uleb128 0x34
 2862 007e 00       		.byte	0
 2863 007f 03       		.uleb128 0x3
 2864 0080 0E       		.uleb128 0xe
 2865 0081 3A       		.uleb128 0x3a
 2866 0082 0B       		.uleb128 0xb
 2867 0083 3B       		.uleb128 0x3b
 2868 0084 0B       		.uleb128 0xb
 2869 0085 49       		.uleb128 0x49
 2870 0086 13       		.uleb128 0x13
 2871 0087 02       		.uleb128 0x2
 2872 0088 18       		.uleb128 0x18
 2873 0089 00       		.byte	0
 2874 008a 00       		.byte	0
 2875 008b 0A       		.uleb128 0xa
 2876 008c 2E       		.uleb128 0x2e
 2877 008d 01       		.byte	0x1
 2878 008e 3F       		.uleb128 0x3f
 2879 008f 19       		.uleb128 0x19
 2880 0090 03       		.uleb128 0x3
 2881 0091 0E       		.uleb128 0xe
 2882 0092 3A       		.uleb128 0x3a
 2883 0093 0B       		.uleb128 0xb
 2884 0094 3B       		.uleb128 0x3b
 2885 0095 05       		.uleb128 0x5
 2886 0096 27       		.uleb128 0x27
 2887 0097 19       		.uleb128 0x19
 2888 0098 11       		.uleb128 0x11
 2889 0099 01       		.uleb128 0x1
 2890 009a 12       		.uleb128 0x12
 2891 009b 06       		.uleb128 0x6
 2892 009c 40       		.uleb128 0x40
 2893 009d 18       		.uleb128 0x18
 2894 009e 9642     		.uleb128 0x2116
 2895 00a0 19       		.uleb128 0x19
ARM GAS  C:\Users\ADMINI~1.SC-\AppData\Local\Temp\ccEAhJMV.s 			page 76


 2896 00a1 01       		.uleb128 0x1
 2897 00a2 13       		.uleb128 0x13
 2898 00a3 00       		.byte	0
 2899 00a4 00       		.byte	0
 2900 00a5 0B       		.uleb128 0xb
 2901 00a6 05       		.uleb128 0x5
 2902 00a7 00       		.byte	0
 2903 00a8 03       		.uleb128 0x3
 2904 00a9 0E       		.uleb128 0xe
 2905 00aa 3A       		.uleb128 0x3a
 2906 00ab 0B       		.uleb128 0xb
 2907 00ac 3B       		.uleb128 0x3b
 2908 00ad 05       		.uleb128 0x5
 2909 00ae 49       		.uleb128 0x49
 2910 00af 13       		.uleb128 0x13
 2911 00b0 02       		.uleb128 0x2
 2912 00b1 18       		.uleb128 0x18
 2913 00b2 00       		.byte	0
 2914 00b3 00       		.byte	0
 2915 00b4 0C       		.uleb128 0xc
 2916 00b5 34       		.uleb128 0x34
 2917 00b6 00       		.byte	0
 2918 00b7 03       		.uleb128 0x3
 2919 00b8 0E       		.uleb128 0xe
 2920 00b9 3A       		.uleb128 0x3a
 2921 00ba 0B       		.uleb128 0xb
 2922 00bb 3B       		.uleb128 0x3b
 2923 00bc 05       		.uleb128 0x5
 2924 00bd 49       		.uleb128 0x49
 2925 00be 13       		.uleb128 0x13
 2926 00bf 02       		.uleb128 0x2
 2927 00c0 18       		.uleb128 0x18
 2928 00c1 00       		.byte	0
 2929 00c2 00       		.byte	0
 2930 00c3 0D       		.uleb128 0xd
 2931 00c4 2E       		.uleb128 0x2e
 2932 00c5 01       		.byte	0x1
 2933 00c6 3F       		.uleb128 0x3f
 2934 00c7 19       		.uleb128 0x19
 2935 00c8 03       		.uleb128 0x3
 2936 00c9 0E       		.uleb128 0xe
 2937 00ca 3A       		.uleb128 0x3a
 2938 00cb 0B       		.uleb128 0xb
 2939 00cc 3B       		.uleb128 0x3b
 2940 00cd 05       		.uleb128 0x5
 2941 00ce 27       		.uleb128 0x27
 2942 00cf 19       		.uleb128 0x19
 2943 00d0 11       		.uleb128 0x11
 2944 00d1 01       		.uleb128 0x1
 2945 00d2 12       		.uleb128 0x12
 2946 00d3 06       		.uleb128 0x6
 2947 00d4 40       		.uleb128 0x40
 2948 00d5 18       		.uleb128 0x18
 2949 00d6 9742     		.uleb128 0x2117
 2950 00d8 19       		.uleb128 0x19
 2951 00d9 01       		.uleb128 0x1
 2952 00da 13       		.uleb128 0x13
ARM GAS  C:\Users\ADMINI~1.SC-\AppData\Local\Temp\ccEAhJMV.s 			page 77


 2953 00db 00       		.byte	0
 2954 00dc 00       		.byte	0
 2955 00dd 0E       		.uleb128 0xe
 2956 00de 2E       		.uleb128 0x2e
 2957 00df 00       		.byte	0
 2958 00e0 3F       		.uleb128 0x3f
 2959 00e1 19       		.uleb128 0x19
 2960 00e2 03       		.uleb128 0x3
 2961 00e3 0E       		.uleb128 0xe
 2962 00e4 3A       		.uleb128 0x3a
 2963 00e5 0B       		.uleb128 0xb
 2964 00e6 3B       		.uleb128 0x3b
 2965 00e7 05       		.uleb128 0x5
 2966 00e8 27       		.uleb128 0x27
 2967 00e9 19       		.uleb128 0x19
 2968 00ea 49       		.uleb128 0x49
 2969 00eb 13       		.uleb128 0x13
 2970 00ec 11       		.uleb128 0x11
 2971 00ed 01       		.uleb128 0x1
 2972 00ee 12       		.uleb128 0x12
 2973 00ef 06       		.uleb128 0x6
 2974 00f0 40       		.uleb128 0x40
 2975 00f1 18       		.uleb128 0x18
 2976 00f2 9742     		.uleb128 0x2117
 2977 00f4 19       		.uleb128 0x19
 2978 00f5 00       		.byte	0
 2979 00f6 00       		.byte	0
 2980 00f7 0F       		.uleb128 0xf
 2981 00f8 34       		.uleb128 0x34
 2982 00f9 00       		.byte	0
 2983 00fa 03       		.uleb128 0x3
 2984 00fb 0E       		.uleb128 0xe
 2985 00fc 3A       		.uleb128 0x3a
 2986 00fd 0B       		.uleb128 0xb
 2987 00fe 3B       		.uleb128 0x3b
 2988 00ff 0B       		.uleb128 0xb
 2989 0100 49       		.uleb128 0x49
 2990 0101 13       		.uleb128 0x13
 2991 0102 3F       		.uleb128 0x3f
 2992 0103 19       		.uleb128 0x19
 2993 0104 02       		.uleb128 0x2
 2994 0105 18       		.uleb128 0x18
 2995 0106 00       		.byte	0
 2996 0107 00       		.byte	0
 2997 0108 00       		.byte	0
 2998              		.section	.debug_aranges,"",%progbits
 2999 0000 54010000 		.4byte	0x154
 3000 0004 0200     		.2byte	0x2
 3001 0006 00000000 		.4byte	.Ldebug_info0
 3002 000a 04       		.byte	0x4
 3003 000b 00       		.byte	0
 3004 000c 0000     		.2byte	0
 3005 000e 0000     		.2byte	0
 3006 0010 00000000 		.4byte	.LFB2
 3007 0014 38000000 		.4byte	.LFE2-.LFB2
 3008 0018 00000000 		.4byte	.LFB3
 3009 001c 38000000 		.4byte	.LFE3-.LFB3
ARM GAS  C:\Users\ADMINI~1.SC-\AppData\Local\Temp\ccEAhJMV.s 			page 78


 3010 0020 00000000 		.4byte	.LFB4
 3011 0024 24000000 		.4byte	.LFE4-.LFB4
 3012 0028 00000000 		.4byte	.LFB5
 3013 002c 30000000 		.4byte	.LFE5-.LFB5
 3014 0030 00000000 		.4byte	.LFB6
 3015 0034 48000000 		.4byte	.LFE6-.LFB6
 3016 0038 00000000 		.4byte	.LFB7
 3017 003c 48000000 		.4byte	.LFE7-.LFB7
 3018 0040 00000000 		.4byte	.LFB8
 3019 0044 48000000 		.4byte	.LFE8-.LFB8
 3020 0048 00000000 		.4byte	.LFB9
 3021 004c 4C000000 		.4byte	.LFE9-.LFB9
 3022 0050 00000000 		.4byte	.LFB10
 3023 0054 1C000000 		.4byte	.LFE10-.LFB10
 3024 0058 00000000 		.4byte	.LFB11
 3025 005c 48000000 		.4byte	.LFE11-.LFB11
 3026 0060 00000000 		.4byte	.LFB12
 3027 0064 48000000 		.4byte	.LFE12-.LFB12
 3028 0068 00000000 		.4byte	.LFB13
 3029 006c 4C000000 		.4byte	.LFE13-.LFB13
 3030 0070 00000000 		.4byte	.LFB14
 3031 0074 48000000 		.4byte	.LFE14-.LFB14
 3032 0078 00000000 		.4byte	.LFB15
 3033 007c 1C000000 		.4byte	.LFE15-.LFB15
 3034 0080 00000000 		.4byte	.LFB16
 3035 0084 18000000 		.4byte	.LFE16-.LFB16
 3036 0088 00000000 		.4byte	.LFB17
 3037 008c 48000000 		.4byte	.LFE17-.LFB17
 3038 0090 00000000 		.4byte	.LFB18
 3039 0094 1C000000 		.4byte	.LFE18-.LFB18
 3040 0098 00000000 		.4byte	.LFB19
 3041 009c 18000000 		.4byte	.LFE19-.LFB19
 3042 00a0 00000000 		.4byte	.LFB20
 3043 00a4 48000000 		.4byte	.LFE20-.LFB20
 3044 00a8 00000000 		.4byte	.LFB21
 3045 00ac 1C000000 		.4byte	.LFE21-.LFB21
 3046 00b0 00000000 		.4byte	.LFB22
 3047 00b4 18000000 		.4byte	.LFE22-.LFB22
 3048 00b8 00000000 		.4byte	.LFB23
 3049 00bc 48000000 		.4byte	.LFE23-.LFB23
 3050 00c0 00000000 		.4byte	.LFB24
 3051 00c4 1C000000 		.4byte	.LFE24-.LFB24
 3052 00c8 00000000 		.4byte	.LFB25
 3053 00cc 18000000 		.4byte	.LFE25-.LFB25
 3054 00d0 00000000 		.4byte	.LFB26
 3055 00d4 1C000000 		.4byte	.LFE26-.LFB26
 3056 00d8 00000000 		.4byte	.LFB27
 3057 00dc 18000000 		.4byte	.LFE27-.LFB27
 3058 00e0 00000000 		.4byte	.LFB28
 3059 00e4 18000000 		.4byte	.LFE28-.LFB28
 3060 00e8 00000000 		.4byte	.LFB29
 3061 00ec 18000000 		.4byte	.LFE29-.LFB29
 3062 00f0 00000000 		.4byte	.LFB30
 3063 00f4 44000000 		.4byte	.LFE30-.LFB30
 3064 00f8 00000000 		.4byte	.LFB31
 3065 00fc 44000000 		.4byte	.LFE31-.LFB31
 3066 0100 00000000 		.4byte	.LFB32
ARM GAS  C:\Users\ADMINI~1.SC-\AppData\Local\Temp\ccEAhJMV.s 			page 79


 3067 0104 48000000 		.4byte	.LFE32-.LFB32
 3068 0108 00000000 		.4byte	.LFB33
 3069 010c 44000000 		.4byte	.LFE33-.LFB33
 3070 0110 00000000 		.4byte	.LFB34
 3071 0114 44000000 		.4byte	.LFE34-.LFB34
 3072 0118 00000000 		.4byte	.LFB35
 3073 011c 38000000 		.4byte	.LFE35-.LFB35
 3074 0120 00000000 		.4byte	.LFB36
 3075 0124 20000000 		.4byte	.LFE36-.LFB36
 3076 0128 00000000 		.4byte	.LFB37
 3077 012c 18000000 		.4byte	.LFE37-.LFB37
 3078 0130 00000000 		.4byte	.LFB38
 3079 0134 14000000 		.4byte	.LFE38-.LFB38
 3080 0138 00000000 		.4byte	.LFB39
 3081 013c 14000000 		.4byte	.LFE39-.LFB39
 3082 0140 00000000 		.4byte	.LFB40
 3083 0144 18000000 		.4byte	.LFE40-.LFB40
 3084 0148 00000000 		.4byte	.LFB41
 3085 014c 18000000 		.4byte	.LFE41-.LFB41
 3086 0150 00000000 		.4byte	0
 3087 0154 00000000 		.4byte	0
 3088              		.section	.debug_ranges,"",%progbits
 3089              	.Ldebug_ranges0:
 3090 0000 00000000 		.4byte	.LFB2
 3091 0004 38000000 		.4byte	.LFE2
 3092 0008 00000000 		.4byte	.LFB3
 3093 000c 38000000 		.4byte	.LFE3
 3094 0010 00000000 		.4byte	.LFB4
 3095 0014 24000000 		.4byte	.LFE4
 3096 0018 00000000 		.4byte	.LFB5
 3097 001c 30000000 		.4byte	.LFE5
 3098 0020 00000000 		.4byte	.LFB6
 3099 0024 48000000 		.4byte	.LFE6
 3100 0028 00000000 		.4byte	.LFB7
 3101 002c 48000000 		.4byte	.LFE7
 3102 0030 00000000 		.4byte	.LFB8
 3103 0034 48000000 		.4byte	.LFE8
 3104 0038 00000000 		.4byte	.LFB9
 3105 003c 4C000000 		.4byte	.LFE9
 3106 0040 00000000 		.4byte	.LFB10
 3107 0044 1C000000 		.4byte	.LFE10
 3108 0048 00000000 		.4byte	.LFB11
 3109 004c 48000000 		.4byte	.LFE11
 3110 0050 00000000 		.4byte	.LFB12
 3111 0054 48000000 		.4byte	.LFE12
 3112 0058 00000000 		.4byte	.LFB13
 3113 005c 4C000000 		.4byte	.LFE13
 3114 0060 00000000 		.4byte	.LFB14
 3115 0064 48000000 		.4byte	.LFE14
 3116 0068 00000000 		.4byte	.LFB15
 3117 006c 1C000000 		.4byte	.LFE15
 3118 0070 00000000 		.4byte	.LFB16
 3119 0074 18000000 		.4byte	.LFE16
 3120 0078 00000000 		.4byte	.LFB17
 3121 007c 48000000 		.4byte	.LFE17
 3122 0080 00000000 		.4byte	.LFB18
 3123 0084 1C000000 		.4byte	.LFE18
ARM GAS  C:\Users\ADMINI~1.SC-\AppData\Local\Temp\ccEAhJMV.s 			page 80


 3124 0088 00000000 		.4byte	.LFB19
 3125 008c 18000000 		.4byte	.LFE19
 3126 0090 00000000 		.4byte	.LFB20
 3127 0094 48000000 		.4byte	.LFE20
 3128 0098 00000000 		.4byte	.LFB21
 3129 009c 1C000000 		.4byte	.LFE21
 3130 00a0 00000000 		.4byte	.LFB22
 3131 00a4 18000000 		.4byte	.LFE22
 3132 00a8 00000000 		.4byte	.LFB23
 3133 00ac 48000000 		.4byte	.LFE23
 3134 00b0 00000000 		.4byte	.LFB24
 3135 00b4 1C000000 		.4byte	.LFE24
 3136 00b8 00000000 		.4byte	.LFB25
 3137 00bc 18000000 		.4byte	.LFE25
 3138 00c0 00000000 		.4byte	.LFB26
 3139 00c4 1C000000 		.4byte	.LFE26
 3140 00c8 00000000 		.4byte	.LFB27
 3141 00cc 18000000 		.4byte	.LFE27
 3142 00d0 00000000 		.4byte	.LFB28
 3143 00d4 18000000 		.4byte	.LFE28
 3144 00d8 00000000 		.4byte	.LFB29
 3145 00dc 18000000 		.4byte	.LFE29
 3146 00e0 00000000 		.4byte	.LFB30
 3147 00e4 44000000 		.4byte	.LFE30
 3148 00e8 00000000 		.4byte	.LFB31
 3149 00ec 44000000 		.4byte	.LFE31
 3150 00f0 00000000 		.4byte	.LFB32
 3151 00f4 48000000 		.4byte	.LFE32
 3152 00f8 00000000 		.4byte	.LFB33
 3153 00fc 44000000 		.4byte	.LFE33
 3154 0100 00000000 		.4byte	.LFB34
 3155 0104 44000000 		.4byte	.LFE34
 3156 0108 00000000 		.4byte	.LFB35
 3157 010c 38000000 		.4byte	.LFE35
 3158 0110 00000000 		.4byte	.LFB36
 3159 0114 20000000 		.4byte	.LFE36
 3160 0118 00000000 		.4byte	.LFB37
 3161 011c 18000000 		.4byte	.LFE37
 3162 0120 00000000 		.4byte	.LFB38
 3163 0124 14000000 		.4byte	.LFE38
 3164 0128 00000000 		.4byte	.LFB39
 3165 012c 14000000 		.4byte	.LFE39
 3166 0130 00000000 		.4byte	.LFB40
 3167 0134 18000000 		.4byte	.LFE40
 3168 0138 00000000 		.4byte	.LFB41
 3169 013c 18000000 		.4byte	.LFE41
 3170 0140 00000000 		.4byte	0
 3171 0144 00000000 		.4byte	0
 3172              		.section	.debug_line,"",%progbits
 3173              	.Ldebug_line0:
 3174 0000 70030000 		.section	.debug_str,"MS",%progbits,1
 3174      02004900 
 3174      00000201 
 3174      FB0E0D00 
 3174      01010101 
 3175              	.LASF40:
 3176 0000 636F756E 		.ascii	"count\000"
ARM GAS  C:\Users\ADMINI~1.SC-\AppData\Local\Temp\ccEAhJMV.s 			page 81


 3176      7400
 3177              	.LASF58:
 3178 0006 53797374 		.ascii	"System_Timer_ReadCompareBuf\000"
 3178      656D5F54 
 3178      696D6572 
 3178      5F526561 
 3178      64436F6D 
 3179              	.LASF47:
 3180 0022 53797374 		.ascii	"System_Timer_SetCompareSwap\000"
 3180      656D5F54 
 3180      696D6572 
 3180      5F536574 
 3180      436F6D70 
 3181              	.LASF46:
 3182 003e 53797374 		.ascii	"System_Timer_ReadPeriod\000"
 3182      656D5F54 
 3182      696D6572 
 3182      5F526561 
 3182      64506572 
 3183              	.LASF75:
 3184 0056 53797374 		.ascii	"System_Timer_SetInterrupt\000"
 3184      656D5F54 
 3184      696D6572 
 3184      5F536574 
 3184      496E7465 
 3185              	.LASF27:
 3186 0070 53797374 		.ascii	"System_Timer_SetOneShot\000"
 3186      656D5F54 
 3186      696D6572 
 3186      5F536574 
 3186      4F6E6553 
 3187              	.LASF45:
 3188 0088 53797374 		.ascii	"System_Timer_ReadCounter\000"
 3188      656D5F54 
 3188      696D6572 
 3188      5F526561 
 3188      64436F75 
 3189              	.LASF7:
 3190 00a1 6C6F6E67 		.ascii	"long long unsigned int\000"
 3190      206C6F6E 
 3190      6720756E 
 3190      7369676E 
 3190      65642069 
 3191              	.LASF56:
 3192 00b8 53797374 		.ascii	"System_Timer_WriteCompareBuf\000"
 3192      656D5F54 
 3192      696D6572 
 3192      5F577269 
 3192      7465436F 
 3193              	.LASF24:
 3194 00d5 71644D6F 		.ascii	"qdMode\000"
 3194      646500
 3195              	.LASF31:
 3196 00dc 53797374 		.ascii	"System_Timer_SetPWMSyncKill\000"
 3196      656D5F54 
 3196      696D6572 
 3196      5F536574 
ARM GAS  C:\Users\ADMINI~1.SC-\AppData\Local\Temp\ccEAhJMV.s 			page 82


 3196      50574D53 
 3197              	.LASF22:
 3198 00f8 53797374 		.ascii	"System_Timer_SetQDMode\000"
 3198      656D5F54 
 3198      696D6572 
 3198      5F536574 
 3198      51444D6F 
 3199              	.LASF6:
 3200 010f 6C6F6E67 		.ascii	"long long int\000"
 3200      206C6F6E 
 3200      6720696E 
 3200      7400
 3201              	.LASF0:
 3202 011d 7369676E 		.ascii	"signed char\000"
 3202      65642063 
 3202      68617200 
 3203              	.LASF73:
 3204 0129 53797374 		.ascii	"System_Timer_GetInterruptSource\000"
 3204      656D5F54 
 3204      696D6572 
 3204      5F476574 
 3204      496E7465 
 3205              	.LASF54:
 3206 0149 636F6D70 		.ascii	"compare\000"
 3206      61726500 
 3207              	.LASF66:
 3208 0151 53797374 		.ascii	"System_Timer_SetCountMode\000"
 3208      656D5F54 
 3208      696D6572 
 3208      5F536574 
 3208      436F756E 
 3209              	.LASF4:
 3210 016b 6C6F6E67 		.ascii	"long int\000"
 3210      20696E74 
 3210      00
 3211              	.LASF29:
 3212 0174 53797374 		.ascii	"System_Timer_SetPWMMode\000"
 3212      656D5F54 
 3212      696D6572 
 3212      5F536574 
 3212      50574D4D 
 3213              	.LASF70:
 3214 018c 53797374 		.ascii	"System_Timer_SetInterruptMode\000"
 3214      656D5F54 
 3214      696D6572 
 3214      5F536574 
 3214      496E7465 
 3215              	.LASF9:
 3216 01aa 75696E74 		.ascii	"uint8\000"
 3216      3800
 3217              	.LASF67:
 3218 01b0 53797374 		.ascii	"System_Timer_TriggerCommand\000"
 3218      656D5F54 
 3218      696D6572 
 3218      5F547269 
 3218      67676572 
 3219              	.LASF12:
ARM GAS  C:\Users\ADMINI~1.SC-\AppData\Local\Temp\ccEAhJMV.s 			page 83


 3220 01cc 646F7562 		.ascii	"double\000"
 3220      6C6500
 3221              	.LASF16:
 3222 01d3 53797374 		.ascii	"System_Timer_Init\000"
 3222      656D5F54 
 3222      696D6572 
 3222      5F496E69 
 3222      7400
 3223              	.LASF74:
 3224 01e5 53797374 		.ascii	"System_Timer_ClearInterrupt\000"
 3224      656D5F54 
 3224      696D6572 
 3224      5F436C65 
 3224      6172496E 
 3225              	.LASF10:
 3226 0201 75696E74 		.ascii	"uint32\000"
 3226      333200
 3227              	.LASF53:
 3228 0208 53797374 		.ascii	"System_Timer_WriteCompare\000"
 3228      656D5F54 
 3228      696D6572 
 3228      5F577269 
 3228      7465436F 
 3229              	.LASF62:
 3230 0222 74726967 		.ascii	"triggerMode\000"
 3230      6765724D 
 3230      6F646500 
 3231              	.LASF65:
 3232 022e 53797374 		.ascii	"System_Timer_SetStopMode\000"
 3232      656D5F54 
 3232      696D6572 
 3232      5F536574 
 3232      53746F70 
 3233              	.LASF38:
 3234 0247 6D61736B 		.ascii	"mask\000"
 3234      00
 3235              	.LASF36:
 3236 024c 64656164 		.ascii	"deadTime\000"
 3236      54696D65 
 3236      00
 3237              	.LASF8:
 3238 0255 756E7369 		.ascii	"unsigned int\000"
 3238      676E6564 
 3238      20696E74 
 3238      00
 3239              	.LASF51:
 3240 0262 53797374 		.ascii	"System_Timer_ReadPeriodBuf\000"
 3240      656D5F54 
 3240      696D6572 
 3240      5F526561 
 3240      64506572 
 3241              	.LASF68:
 3242 027d 636F6D6D 		.ascii	"command\000"
 3242      616E6400 
 3243              	.LASF5:
 3244 0285 6C6F6E67 		.ascii	"long unsigned int\000"
 3244      20756E73 
ARM GAS  C:\Users\ADMINI~1.SC-\AppData\Local\Temp\ccEAhJMV.s 			page 84


 3244      69676E65 
 3244      6420696E 
 3244      7400
 3245              	.LASF30:
 3246 0297 6D6F6465 		.ascii	"modeMask\000"
 3246      4D61736B 
 3246      00
 3247              	.LASF79:
 3248 02a0 53797374 		.ascii	"System_Timer_initVar\000"
 3248      656D5F54 
 3248      696D6572 
 3248      5F696E69 
 3248      74566172 
 3249              	.LASF3:
 3250 02b5 73686F72 		.ascii	"short unsigned int\000"
 3250      7420756E 
 3250      7369676E 
 3250      65642069 
 3250      6E7400
 3251              	.LASF17:
 3252 02c8 53797374 		.ascii	"System_Timer_Start\000"
 3252      656D5F54 
 3252      696D6572 
 3252      5F537461 
 3252      727400
 3253              	.LASF39:
 3254 02db 53797374 		.ascii	"System_Timer_WriteCounter\000"
 3254      656D5F54 
 3254      696D6572 
 3254      5F577269 
 3254      7465436F 
 3255              	.LASF52:
 3256 02f5 53797374 		.ascii	"System_Timer_SetPeriodSwap\000"
 3256      656D5F54 
 3256      696D6572 
 3256      5F536574 
 3256      50657269 
 3257              	.LASF35:
 3258 0310 53797374 		.ascii	"System_Timer_SetPWMDeadTime\000"
 3258      656D5F54 
 3258      696D6572 
 3258      5F536574 
 3258      50574D44 
 3259              	.LASF28:
 3260 032c 6F6E6553 		.ascii	"oneShotEnable\000"
 3260      686F7445 
 3260      6E61626C 
 3260      6500
 3261              	.LASF14:
 3262 033a 72656733 		.ascii	"reg32\000"
 3262      3200
 3263              	.LASF15:
 3264 0340 73697A65 		.ascii	"sizetype\000"
 3264      74797065 
 3264      00
 3265              	.LASF32:
 3266 0349 73796E63 		.ascii	"syncKillEnable\000"
ARM GAS  C:\Users\ADMINI~1.SC-\AppData\Local\Temp\ccEAhJMV.s 			page 85


 3266      4B696C6C 
 3266      456E6162 
 3266      6C6500
 3267              	.LASF49:
 3268 0358 53797374 		.ascii	"System_Timer_WritePeriodBuf\000"
 3268      656D5F54 
 3268      696D6572 
 3268      5F577269 
 3268      74655065 
 3269              	.LASF37:
 3270 0374 53797374 		.ascii	"System_Timer_SetPWMInvert\000"
 3270      656D5F54 
 3270      696D6572 
 3270      5F536574 
 3270      50574D49 
 3271              	.LASF21:
 3272 038e 53797374 		.ascii	"System_Timer_SetMode\000"
 3272      656D5F54 
 3272      696D6572 
 3272      5F536574 
 3272      4D6F6465 
 3273              	.LASF64:
 3274 03a3 53797374 		.ascii	"System_Timer_SetStartMode\000"
 3274      656D5F54 
 3274      696D6572 
 3274      5F536574 
 3274      53746172 
 3275              	.LASF78:
 3276 03bd 453A5C6D 		.ascii	"E:\\my_project\\shhl\\BLE_KEY_wuyuan\\Design02.cyds"
 3276      795F7072 
 3276      6F6A6563 
 3276      745C7368 
 3276      686C5C42 
 3277 03ec 6E00     		.ascii	"n\000"
 3278              	.LASF63:
 3279 03ee 53797374 		.ascii	"System_Timer_SetReloadMode\000"
 3279      656D5F54 
 3279      696D6572 
 3279      5F536574 
 3279      52656C6F 
 3280              	.LASF11:
 3281 0409 666C6F61 		.ascii	"float\000"
 3281      7400
 3282              	.LASF26:
 3283 040f 70726573 		.ascii	"prescaler\000"
 3283      63616C65 
 3283      7200
 3284              	.LASF60:
 3285 0419 53797374 		.ascii	"System_Timer_ReadCaptureBuf\000"
 3285      656D5F54 
 3285      696D6572 
 3285      5F526561 
 3285      64436170 
 3286              	.LASF1:
 3287 0435 756E7369 		.ascii	"unsigned char\000"
 3287      676E6564 
 3287      20636861 
ARM GAS  C:\Users\ADMINI~1.SC-\AppData\Local\Temp\ccEAhJMV.s 			page 86


 3287      7200
 3288              	.LASF34:
 3289 0443 73746F70 		.ascii	"stopOnKillEnable\000"
 3289      4F6E4B69 
 3289      6C6C456E 
 3289      61626C65 
 3289      00
 3290              	.LASF2:
 3291 0454 73686F72 		.ascii	"short int\000"
 3291      7420696E 
 3291      7400
 3292              	.LASF71:
 3293 045e 696E7465 		.ascii	"interruptMask\000"
 3293      72727570 
 3293      744D6173 
 3293      6B00
 3294              	.LASF25:
 3295 046c 53797374 		.ascii	"System_Timer_SetPrescaler\000"
 3295      656D5F54 
 3295      696D6572 
 3295      5F536574 
 3295      50726573 
 3296              	.LASF72:
 3297 0486 53797374 		.ascii	"System_Timer_GetInterruptSourceMasked\000"
 3297      656D5F54 
 3297      696D6572 
 3297      5F476574 
 3297      496E7465 
 3298              	.LASF43:
 3299 04ac 53797374 		.ascii	"System_Timer_WritePeriod\000"
 3299      656D5F54 
 3299      696D6572 
 3299      5F577269 
 3299      74655065 
 3300              	.LASF18:
 3301 04c5 53797374 		.ascii	"System_Timer_Enable\000"
 3301      656D5F54 
 3301      696D6572 
 3301      5F456E61 
 3301      626C6500 
 3302              	.LASF13:
 3303 04d9 63686172 		.ascii	"char\000"
 3303      00
 3304              	.LASF23:
 3305 04de 6D6F6465 		.ascii	"mode\000"
 3305      00
 3306              	.LASF41:
 3307 04e3 53797374 		.ascii	"System_Timer_SetCounterMode\000"
 3307      656D5F54 
 3307      696D6572 
 3307      5F536574 
 3307      436F756E 
 3308              	.LASF42:
 3309 04ff 636F756E 		.ascii	"counterMode\000"
 3309      7465724D 
 3309      6F646500 
 3310              	.LASF44:
ARM GAS  C:\Users\ADMINI~1.SC-\AppData\Local\Temp\ccEAhJMV.s 			page 87


 3311 050b 70657269 		.ascii	"period\000"
 3311      6F6400
 3312              	.LASF48:
 3313 0512 73776170 		.ascii	"swapEnable\000"
 3313      456E6162 
 3313      6C6500
 3314              	.LASF69:
 3315 051d 53797374 		.ascii	"System_Timer_ReadStatus\000"
 3315      656D5F54 
 3315      696D6572 
 3315      5F526561 
 3315      64537461 
 3316              	.LASF57:
 3317 0535 636F6D70 		.ascii	"compareBuf\000"
 3317      61726542 
 3317      756600
 3318              	.LASF19:
 3319 0540 53797374 		.ascii	"System_Timer_Stop\000"
 3319      656D5F54 
 3319      696D6572 
 3319      5F53746F 
 3319      7000
 3320              	.LASF20:
 3321 0552 656E6162 		.ascii	"enableInterrupts\000"
 3321      6C65496E 
 3321      74657272 
 3321      75707473 
 3321      00
 3322              	.LASF59:
 3323 0563 53797374 		.ascii	"System_Timer_ReadCapture\000"
 3323      656D5F54 
 3323      696D6572 
 3323      5F526561 
 3323      64436170 
 3324              	.LASF61:
 3325 057c 53797374 		.ascii	"System_Timer_SetCaptureMode\000"
 3325      656D5F54 
 3325      696D6572 
 3325      5F536574 
 3325      43617074 
 3326              	.LASF76:
 3327 0598 474E5520 		.ascii	"GNU C 4.9.3 20150303 (release) [ARM/embedded-4_9-br"
 3327      4320342E 
 3327      392E3320 
 3327      32303135 
 3327      30333033 
 3328 05cb 616E6368 		.ascii	"anch revision 221220] -mcpu=cortex-m0 -mthumb -g -O"
 3328      20726576 
 3328      6973696F 
 3328      6E203232 
 3328      31323230 
 3329 05fe 30202D66 		.ascii	"0 -ffunction-sections -ffat-lto-objects\000"
 3329      66756E63 
 3329      74696F6E 
 3329      2D736563 
 3329      74696F6E 
 3330              	.LASF55:
ARM GAS  C:\Users\ADMINI~1.SC-\AppData\Local\Temp\ccEAhJMV.s 			page 88


 3331 0626 53797374 		.ascii	"System_Timer_ReadCompare\000"
 3331      656D5F54 
 3331      696D6572 
 3331      5F526561 
 3331      64436F6D 
 3332              	.LASF77:
 3333 063f 47656E65 		.ascii	"Generated_Source\\PSoC4\\System_Timer.c\000"
 3333      72617465 
 3333      645F536F 
 3333      75726365 
 3333      5C50536F 
 3334              	.LASF33:
 3335 0665 53797374 		.ascii	"System_Timer_SetPWMStopOnKill\000"
 3335      656D5F54 
 3335      696D6572 
 3335      5F536574 
 3335      50574D53 
 3336              	.LASF50:
 3337 0683 70657269 		.ascii	"periodBuf\000"
 3337      6F644275 
 3337      6600
 3338              		.ident	"GCC: (GNU Tools for ARM Embedded Processors) 4.9.3 20150303 (release) [ARM/embedded-4_9-br
