ARM GAS  C:\Users\ADMINI~1\AppData\Local\Temp\ccoooWSG.s 			page 1


   1              		.cpu cortex-m0
   2              		.fpu softvfp
   3              		.eabi_attribute 20, 1
   4              		.eabi_attribute 21, 1
   5              		.eabi_attribute 23, 3
   6              		.eabi_attribute 24, 1
   7              		.eabi_attribute 25, 1
   8              		.eabi_attribute 26, 1
   9              		.eabi_attribute 30, 6
  10              		.eabi_attribute 34, 0
  11              		.eabi_attribute 18, 4
  12              		.code	16
  13              		.file	"WriteUserSFlash.c"
  14              		.text
  15              	.Ltext0:
  16              		.cfi_sections	.debug_frame
  17              		.section	.text.WriteUserSFlashRow,"ax",%progbits
  18              		.align	2
  19              		.global	WriteUserSFlashRow
  20              		.code	16
  21              		.thumb_func
  22              		.type	WriteUserSFlashRow, %function
  23              	WriteUserSFlashRow:
  24              	.LFB35:
  25              		.file 1 ".\\WriteUserSFlash.c"
   1:.\WriteUserSFlash.c **** /*******************************************************************************
   2:.\WriteUserSFlash.c **** * File Name: WriteUserSFlash.c
   3:.\WriteUserSFlash.c **** *
   4:.\WriteUserSFlash.c **** * Version: 1.0
   5:.\WriteUserSFlash.c **** *
   6:.\WriteUserSFlash.c **** * Description:
   7:.\WriteUserSFlash.c **** *  This file contains the source code for User SFlash Write API.
   8:.\WriteUserSFlash.c **** *
   9:.\WriteUserSFlash.c **** * Owner:
  10:.\WriteUserSFlash.c **** *  sey@cypress.com, kris@cypress.com
  11:.\WriteUserSFlash.c **** *
  12:.\WriteUserSFlash.c **** * Hardware Dependency:
  13:.\WriteUserSFlash.c **** *  1. PSoC 4 BLE device
  14:.\WriteUserSFlash.c **** *
  15:.\WriteUserSFlash.c **** * Code Tested With:
  16:.\WriteUserSFlash.c **** *  1. PSoC Creator 3.1 SP1
  17:.\WriteUserSFlash.c **** *  2. ARM GCC 4.8.4
  18:.\WriteUserSFlash.c **** *
  19:.\WriteUserSFlash.c **** ********************************************************************************
  20:.\WriteUserSFlash.c **** * Copyright 2015, Cypress Semiconductor Corporation.  All rights reserved.
  21:.\WriteUserSFlash.c **** * You may use this file only in accordance with the license, terms, conditions,
  22:.\WriteUserSFlash.c **** * disclaimers, and limitations in the end user license agreement accompanying
  23:.\WriteUserSFlash.c **** * the software package with which this file was provided.
  24:.\WriteUserSFlash.c **** *******************************************************************************/
  25:.\WriteUserSFlash.c **** 
  26:.\WriteUserSFlash.c **** #include <Project.h>
  27:.\WriteUserSFlash.c **** #include <WriteUserSFlash.h>
  28:.\WriteUserSFlash.c **** /*******************************************************************************
  29:.\WriteUserSFlash.c **** * Function Name: WriteUserSFlashRow
  30:.\WriteUserSFlash.c **** ********************************************************************************
  31:.\WriteUserSFlash.c **** * Summary:
  32:.\WriteUserSFlash.c **** *        This routine calls the PSoC 4 BLE device supervisory ROM APIs to update
ARM GAS  C:\Users\ADMINI~1\AppData\Local\Temp\ccoooWSG.s 			page 2


  33:.\WriteUserSFlash.c **** * the user configuration area of Supervisory Flash (SFlash).  
  34:.\WriteUserSFlash.c **** *
  35:.\WriteUserSFlash.c **** * Parameters:
  36:.\WriteUserSFlash.c **** *  userRowNUmber - User config SFlash row number to which data is to be written
  37:.\WriteUserSFlash.c **** *  dataPointer - Pointer to the data to be written. This API writes one row of
  38:.\WriteUserSFlash.c **** *                user config SFlash row at a time.
  39:.\WriteUserSFlash.c **** *
  40:.\WriteUserSFlash.c **** * Return:
  41:.\WriteUserSFlash.c **** *  uint32 - state of the user config SFlash write operation.
  42:.\WriteUserSFlash.c **** *
  43:.\WriteUserSFlash.c **** *******************************************************************************/
  44:.\WriteUserSFlash.c **** #if defined (__GNUC__)
  45:.\WriteUserSFlash.c **** #pragma GCC optimize ("O0")
  46:.\WriteUserSFlash.c **** #endif /* End of #if defined (__GNUC__) */
  47:.\WriteUserSFlash.c **** uint32 WriteUserSFlashRow(uint8 userRowNUmber, uint32 *dataPointer)
  48:.\WriteUserSFlash.c **** {
  26              		.loc 1 48 0
  27              		.cfi_startproc
  28 0000 80B5     		push	{r7, lr}
  29              		.cfi_def_cfa_offset 8
  30              		.cfi_offset 7, -8
  31              		.cfi_offset 14, -4
  32 0002 ACB0     		sub	sp, sp, #176
  33              		.cfi_def_cfa_offset 184
  34 0004 00AF     		add	r7, sp, #0
  35              		.cfi_def_cfa_register 7
  36 0006 021C     		mov	r2, r0
  37 0008 3960     		str	r1, [r7]
  38 000a FB1D     		add	r3, r7, #7
  39 000c 1A70     		strb	r2, [r3]
  49:.\WriteUserSFlash.c ****     uint8 localCount;
  50:.\WriteUserSFlash.c **** 	volatile uint32 retValue=0;
  40              		.loc 1 50 0
  41 000e 0023     		mov	r3, #0
  42 0010 A822     		mov	r2, #168
  43 0012 BA18     		add	r2, r7, r2
  44 0014 1360     		str	r3, [r2]
  51:.\WriteUserSFlash.c **** 	volatile uint32 cmdDataBuffer[(CY_FLASH_SIZEOF_ROW/4) + 2];
  52:.\WriteUserSFlash.c **** 	volatile uint32 reg1,reg2,reg3,reg4,reg5,reg6;
  53:.\WriteUserSFlash.c **** 	
  54:.\WriteUserSFlash.c **** 	/* Store the clock settings temporarily */
  55:.\WriteUserSFlash.c ****     reg1 =	CY_GET_XTND_REG32((void CYFAR *)(CYREG_CLK_SELECT));
  45              		.loc 1 55 0
  46 0016 3A4B     		ldr	r3, .L5
  47 0018 1B68     		ldr	r3, [r3]
  48 001a FB61     		str	r3, [r7, #28]
  56:.\WriteUserSFlash.c ****     reg2 =  CY_GET_XTND_REG32((void CYFAR *)(CYREG_CLK_IMO_CONFIG));
  49              		.loc 1 56 0
  50 001c 394B     		ldr	r3, .L5+4
  51 001e 1B68     		ldr	r3, [r3]
  52 0020 BB61     		str	r3, [r7, #24]
  57:.\WriteUserSFlash.c ****     reg3 =  CY_GET_XTND_REG32((void CYFAR *)(CYREG_PWR_BG_TRIM4));
  53              		.loc 1 57 0
  54 0022 394B     		ldr	r3, .L5+8
  55 0024 1B68     		ldr	r3, [r3]
  56 0026 7B61     		str	r3, [r7, #20]
  58:.\WriteUserSFlash.c ****     reg4 =  CY_GET_XTND_REG32((void CYFAR *)(CYREG_PWR_BG_TRIM5));
ARM GAS  C:\Users\ADMINI~1\AppData\Local\Temp\ccoooWSG.s 			page 3


  57              		.loc 1 58 0
  58 0028 384B     		ldr	r3, .L5+12
  59 002a 1B68     		ldr	r3, [r3]
  60 002c 3B61     		str	r3, [r7, #16]
  59:.\WriteUserSFlash.c ****     reg5 =  CY_GET_XTND_REG32((void CYFAR *)(CYREG_CLK_IMO_TRIM1));
  61              		.loc 1 59 0
  62 002e 384B     		ldr	r3, .L5+16
  63 0030 1B68     		ldr	r3, [r3]
  64 0032 FB60     		str	r3, [r7, #12]
  60:.\WriteUserSFlash.c ****     reg6 =  CY_GET_XTND_REG32((void CYFAR *)(CYREG_CLK_IMO_TRIM2));
  65              		.loc 1 60 0
  66 0034 374B     		ldr	r3, .L5+20
  67 0036 1B68     		ldr	r3, [r3]
  68 0038 BB60     		str	r3, [r7, #8]
  61:.\WriteUserSFlash.c **** 	
  62:.\WriteUserSFlash.c **** 	/* Initialize the clock necessary for flash programming */
  63:.\WriteUserSFlash.c **** 	CY_SET_REG32(CYREG_CPUSS_SYSARG, 0x0000e8b6);
  69              		.loc 1 63 0
  70 003a 374B     		ldr	r3, .L5+24
  71 003c 374A     		ldr	r2, .L5+28
  72 003e 1A60     		str	r2, [r3]
  64:.\WriteUserSFlash.c **** 	CY_SET_REG32(CYREG_CPUSS_SYSREQ, 0x80000015);
  73              		.loc 1 64 0
  74 0040 374B     		ldr	r3, .L5+32
  75 0042 384A     		ldr	r2, .L5+36
  76 0044 1A60     		str	r2, [r3]
  65:.\WriteUserSFlash.c **** 	
  66:.\WriteUserSFlash.c **** 	/******* Initialize SRAM parameters for the LOAD FLASH command ******/
  67:.\WriteUserSFlash.c **** 	/* byte 3 (i.e. 00) is the Macro_select */
  68:.\WriteUserSFlash.c **** 	/* byte 2 (i.e. 00) is the Start addr of page latch */
  69:.\WriteUserSFlash.c **** 	/* byte 1 (i.e. d7) is the key 2  */
  70:.\WriteUserSFlash.c **** 	/* byte 0 (i.e. b6) is the key 1  */
  71:.\WriteUserSFlash.c ****   	cmdDataBuffer[0]=0x0000d7b6;
  77              		.loc 1 71 0
  78 0046 2023     		mov	r3, #32
  79 0048 FB18     		add	r3, r7, r3
  80 004a 374A     		ldr	r2, .L5+40
  81 004c 1A60     		str	r2, [r3]
  72:.\WriteUserSFlash.c **** 	
  73:.\WriteUserSFlash.c **** 	/****** Initialize SRAM parameters for the LOAD FLASH command ******/
  74:.\WriteUserSFlash.c **** 	/* byte 3,2 and 1 are null */
  75:.\WriteUserSFlash.c **** 	/* byte 0 (i.e. 7F) is the number of bytes to be written */
  76:.\WriteUserSFlash.c **** 	cmdDataBuffer[1]=0x0000007F;	 
  82              		.loc 1 76 0
  83 004e 2023     		mov	r3, #32
  84 0050 FB18     		add	r3, r7, r3
  85 0052 7F22     		mov	r2, #127
  86 0054 5A60     		str	r2, [r3, #4]
  77:.\WriteUserSFlash.c ****     
  78:.\WriteUserSFlash.c **** 	/* Initialize the SRAM buffer with data bytes */
  79:.\WriteUserSFlash.c ****     for(localCount = 0; localCount < (CY_FLASH_SIZEOF_ROW/4); localCount++)    
  87              		.loc 1 79 0
  88 0056 AF23     		mov	r3, #175
  89 0058 FB18     		add	r3, r7, r3
  90 005a 0022     		mov	r2, #0
  91 005c 1A70     		strb	r2, [r3]
  92 005e 15E0     		b	.L2
ARM GAS  C:\Users\ADMINI~1\AppData\Local\Temp\ccoooWSG.s 			page 4


  93              	.L3:
  80:.\WriteUserSFlash.c **** 	{
  81:.\WriteUserSFlash.c **** 		cmdDataBuffer[localCount + 2] = dataPointer[localCount]; 
  94              		.loc 1 81 0 discriminator 3
  95 0060 AF23     		mov	r3, #175
  96 0062 FB18     		add	r3, r7, r3
  97 0064 1B78     		ldrb	r3, [r3]
  98 0066 9A1C     		add	r2, r3, #2
  99 0068 AF23     		mov	r3, #175
 100 006a FB18     		add	r3, r7, r3
 101 006c 1B78     		ldrb	r3, [r3]
 102 006e 9B00     		lsl	r3, r3, #2
 103 0070 3968     		ldr	r1, [r7]
 104 0072 CB18     		add	r3, r1, r3
 105 0074 1968     		ldr	r1, [r3]
 106 0076 2023     		mov	r3, #32
 107 0078 FB18     		add	r3, r7, r3
 108 007a 9200     		lsl	r2, r2, #2
 109 007c D150     		str	r1, [r2, r3]
  79:.\WriteUserSFlash.c **** 	{
 110              		.loc 1 79 0 discriminator 3
 111 007e AF23     		mov	r3, #175
 112 0080 FB18     		add	r3, r7, r3
 113 0082 1A78     		ldrb	r2, [r3]
 114 0084 AF23     		mov	r3, #175
 115 0086 FB18     		add	r3, r7, r3
 116 0088 0132     		add	r2, r2, #1
 117 008a 1A70     		strb	r2, [r3]
 118              	.L2:
  79:.\WriteUserSFlash.c **** 	{
 119              		.loc 1 79 0 is_stmt 0 discriminator 1
 120 008c AF23     		mov	r3, #175
 121 008e FB18     		add	r3, r7, r3
 122 0090 1B78     		ldrb	r3, [r3]
 123 0092 1F2B     		cmp	r3, #31
 124 0094 E4D9     		bls	.L3
  82:.\WriteUserSFlash.c **** 	}
  83:.\WriteUserSFlash.c **** 	
  84:.\WriteUserSFlash.c **** 	/* Write the following to registers to execute a LOAD FLASH bytes */
  85:.\WriteUserSFlash.c **** 	CY_SET_REG32(CYREG_CPUSS_SYSARG, &cmdDataBuffer[0]);
 125              		.loc 1 85 0 is_stmt 1
 126 0096 204B     		ldr	r3, .L5+24
 127 0098 2022     		mov	r2, #32
 128 009a BA18     		add	r2, r7, r2
 129 009c 1A60     		str	r2, [r3]
  86:.\WriteUserSFlash.c **** 	CY_SET_REG32(CYREG_CPUSS_SYSREQ, LOAD_FLASH);
 130              		.loc 1 86 0
 131 009e 204B     		ldr	r3, .L5+32
 132 00a0 224A     		ldr	r2, .L5+44
 133 00a2 1A60     		str	r2, [r3]
  87:.\WriteUserSFlash.c **** 	
  88:.\WriteUserSFlash.c ****     /****** Initialize SRAM parameters for the WRITE ROW command ******/
  89:.\WriteUserSFlash.c **** 	/* byte 3 & 2 are null */
  90:.\WriteUserSFlash.c **** 	/* byte 1 (i.e. 0xeb) is the key 2  */
  91:.\WriteUserSFlash.c **** 	/* byte 0 (i.e. 0xb6) is the key 1  */
  92:.\WriteUserSFlash.c **** 	cmdDataBuffer[0] = 0x0000ebb6;
 134              		.loc 1 92 0
ARM GAS  C:\Users\ADMINI~1\AppData\Local\Temp\ccoooWSG.s 			page 5


 135 00a4 2023     		mov	r3, #32
 136 00a6 FB18     		add	r3, r7, r3
 137 00a8 214A     		ldr	r2, .L5+48
 138 00aa 1A60     		str	r2, [r3]
  93:.\WriteUserSFlash.c ****     
  94:.\WriteUserSFlash.c **** 	/* byte 7,6 and 5 are null */
  95:.\WriteUserSFlash.c **** 	/* byte 4 is desired SFlash user row 
  96:.\WriteUserSFlash.c **** 	 * Allowed values 0 - row 4
  97:.\WriteUserSFlash.c **** 	                  1 - row 5 
  98:.\WriteUserSFlash.c **** 					  2 - row 6
  99:.\WriteUserSFlash.c **** 					  3 - row 7 */
 100:.\WriteUserSFlash.c **** 	cmdDataBuffer[1] = (uint32) userRowNUmber;
 139              		.loc 1 100 0
 140 00ac FB1D     		add	r3, r7, #7
 141 00ae 1A78     		ldrb	r2, [r3]
 142 00b0 2023     		mov	r3, #32
 143 00b2 FB18     		add	r3, r7, r3
 144 00b4 5A60     		str	r2, [r3, #4]
 101:.\WriteUserSFlash.c **** 	
 102:.\WriteUserSFlash.c **** 	/* Write the following to registers to execute a WRITE USER SFlash ROW command */
 103:.\WriteUserSFlash.c **** 	CY_SET_REG32(CYREG_CPUSS_SYSARG, &cmdDataBuffer[0]);
 145              		.loc 1 103 0
 146 00b6 184B     		ldr	r3, .L5+24
 147 00b8 2022     		mov	r2, #32
 148 00ba BA18     		add	r2, r7, r2
 149 00bc 1A60     		str	r2, [r3]
 104:.\WriteUserSFlash.c **** 	CY_SET_REG32(CYREG_CPUSS_SYSREQ, WRITE_USER_SFLASH_ROW);
 150              		.loc 1 104 0
 151 00be 184B     		ldr	r3, .L5+32
 152 00c0 1C4A     		ldr	r2, .L5+52
 153 00c2 1A60     		str	r2, [r3]
 105:.\WriteUserSFlash.c ****     
 106:.\WriteUserSFlash.c **** 	/* Read back SYSARG for the result. 0xA0000000 = SUCCESS; */
 107:.\WriteUserSFlash.c **** 	retValue = CY_GET_REG32(CYREG_CPUSS_SYSARG);
 154              		.loc 1 107 0
 155 00c4 144B     		ldr	r3, .L5+24
 156 00c6 1B68     		ldr	r3, [r3]
 157 00c8 A822     		mov	r2, #168
 158 00ca BA18     		add	r2, r7, r2
 159 00cc 1360     		str	r3, [r2]
 108:.\WriteUserSFlash.c **** 	
 109:.\WriteUserSFlash.c **** 	/* Restore the clock settings after the flash programming is done */
 110:.\WriteUserSFlash.c ****     CY_SET_XTND_REG32((void CYFAR *)(CYREG_CLK_SELECT),reg1);
 160              		.loc 1 110 0
 161 00ce 0C4B     		ldr	r3, .L5
 162 00d0 FA69     		ldr	r2, [r7, #28]
 163 00d2 1A60     		str	r2, [r3]
 111:.\WriteUserSFlash.c ****     CY_SET_XTND_REG32((void CYFAR *)(CYREG_CLK_IMO_CONFIG),reg2);
 164              		.loc 1 111 0
 165 00d4 0B4B     		ldr	r3, .L5+4
 166 00d6 BA69     		ldr	r2, [r7, #24]
 167 00d8 1A60     		str	r2, [r3]
 112:.\WriteUserSFlash.c ****     CY_SET_XTND_REG32((void CYFAR *)(CYREG_PWR_BG_TRIM4),reg3);
 168              		.loc 1 112 0
 169 00da 0B4B     		ldr	r3, .L5+8
 170 00dc 7A69     		ldr	r2, [r7, #20]
 171 00de 1A60     		str	r2, [r3]
ARM GAS  C:\Users\ADMINI~1\AppData\Local\Temp\ccoooWSG.s 			page 6


 113:.\WriteUserSFlash.c ****     CY_SET_XTND_REG32((void CYFAR *)(CYREG_PWR_BG_TRIM5),reg4);
 172              		.loc 1 113 0
 173 00e0 0A4B     		ldr	r3, .L5+12
 174 00e2 3A69     		ldr	r2, [r7, #16]
 175 00e4 1A60     		str	r2, [r3]
 114:.\WriteUserSFlash.c ****     CY_SET_XTND_REG32((void CYFAR *)(CYREG_CLK_IMO_TRIM1),reg5);
 176              		.loc 1 114 0
 177 00e6 0A4B     		ldr	r3, .L5+16
 178 00e8 FA68     		ldr	r2, [r7, #12]
 179 00ea 1A60     		str	r2, [r3]
 115:.\WriteUserSFlash.c ****     CY_SET_XTND_REG32((void CYFAR *)(CYREG_CLK_IMO_TRIM2),reg6);  
 180              		.loc 1 115 0
 181 00ec 094B     		ldr	r3, .L5+20
 182 00ee BA68     		ldr	r2, [r7, #8]
 183 00f0 1A60     		str	r2, [r3]
 116:.\WriteUserSFlash.c **** 	
 117:.\WriteUserSFlash.c **** 	return retValue;
 184              		.loc 1 117 0
 185 00f2 A823     		mov	r3, #168
 186 00f4 FB18     		add	r3, r7, r3
 187 00f6 1B68     		ldr	r3, [r3]
 118:.\WriteUserSFlash.c **** }
 188              		.loc 1 118 0
 189 00f8 181C     		mov	r0, r3
 190 00fa BD46     		mov	sp, r7
 191 00fc 2CB0     		add	sp, sp, #176
 192              		@ sp needed
 193 00fe 80BD     		pop	{r7, pc}
 194              	.L6:
 195              		.align	2
 196              	.L5:
 197 0100 00010B40 		.word	1074462976
 198 0104 08010B40 		.word	1074462984
 199 0108 1CFF0B40 		.word	1074528028
 200 010c 20FF0B40 		.word	1074528032
 201 0110 28FF0B40 		.word	1074528040
 202 0114 2CFF0B40 		.word	1074528044
 203 0118 08001040 		.word	1074790408
 204 011c B6E80000 		.word	59574
 205 0120 04001040 		.word	1074790404
 206 0124 15000080 		.word	-2147483627
 207 0128 B6D70000 		.word	55222
 208 012c 04000080 		.word	-2147483644
 209 0130 B6EB0000 		.word	60342
 210 0134 18000080 		.word	-2147483624
 211              		.cfi_endproc
 212              	.LFE35:
 213              		.size	WriteUserSFlashRow, .-WriteUserSFlashRow
 214              		.comm	ble_name_temp,60,4
 215              		.comm	ble_macid_temp,16,4
 216              		.comm	BLEDeviceName,15,4
 217              		.section	.text.sflash_write_ble_name,"ax",%progbits
 218              		.align	2
 219              		.global	sflash_write_ble_name
 220              		.code	16
 221              		.thumb_func
 222              		.type	sflash_write_ble_name, %function
ARM GAS  C:\Users\ADMINI~1\AppData\Local\Temp\ccoooWSG.s 			page 7


 223              	sflash_write_ble_name:
 224              	.LFB36:
 119:.\WriteUserSFlash.c **** uint32 ble_name_temp[15];
 120:.\WriteUserSFlash.c **** uint32 ble_macid_temp[4];
 121:.\WriteUserSFlash.c **** char BLEDeviceName[15];
 122:.\WriteUserSFlash.c **** void sflash_write_ble_name(void)
 123:.\WriteUserSFlash.c **** {
 225              		.loc 1 123 0
 226              		.cfi_startproc
 227 0000 80B5     		push	{r7, lr}
 228              		.cfi_def_cfa_offset 8
 229              		.cfi_offset 7, -8
 230              		.cfi_offset 14, -4
 231 0002 00AF     		add	r7, sp, #0
 232              		.cfi_def_cfa_register 7
 124:.\WriteUserSFlash.c ****     WriteUserSFlashRow(FLASH_BLE_NAME, ble_name_temp);    
 233              		.loc 1 124 0
 234 0004 034B     		ldr	r3, .L8
 235 0006 0020     		mov	r0, #0
 236 0008 191C     		mov	r1, r3
 237 000a FFF7FEFF 		bl	WriteUserSFlashRow
 125:.\WriteUserSFlash.c **** }
 238              		.loc 1 125 0
 239 000e BD46     		mov	sp, r7
 240              		@ sp needed
 241 0010 80BD     		pop	{r7, pc}
 242              	.L9:
 243 0012 C046     		.align	2
 244              	.L8:
 245 0014 00000000 		.word	ble_name_temp
 246              		.cfi_endproc
 247              	.LFE36:
 248              		.size	sflash_write_ble_name, .-sflash_write_ble_name
 249              		.section	.text.sflash_write_macid,"ax",%progbits
 250              		.align	2
 251              		.global	sflash_write_macid
 252              		.code	16
 253              		.thumb_func
 254              		.type	sflash_write_macid, %function
 255              	sflash_write_macid:
 256              	.LFB37:
 126:.\WriteUserSFlash.c **** void sflash_write_macid(void)
 127:.\WriteUserSFlash.c **** {
 257              		.loc 1 127 0
 258              		.cfi_startproc
 259 0000 80B5     		push	{r7, lr}
 260              		.cfi_def_cfa_offset 8
 261              		.cfi_offset 7, -8
 262              		.cfi_offset 14, -4
 263 0002 00AF     		add	r7, sp, #0
 264              		.cfi_def_cfa_register 7
 128:.\WriteUserSFlash.c ****     WriteUserSFlashRow(FLASH_MACID, ble_macid_temp);    
 265              		.loc 1 128 0
 266 0004 034B     		ldr	r3, .L11
 267 0006 1420     		mov	r0, #20
 268 0008 191C     		mov	r1, r3
 269 000a FFF7FEFF 		bl	WriteUserSFlashRow
ARM GAS  C:\Users\ADMINI~1\AppData\Local\Temp\ccoooWSG.s 			page 8


 129:.\WriteUserSFlash.c **** }
 270              		.loc 1 129 0
 271 000e BD46     		mov	sp, r7
 272              		@ sp needed
 273 0010 80BD     		pop	{r7, pc}
 274              	.L12:
 275 0012 C046     		.align	2
 276              	.L11:
 277 0014 00000000 		.word	ble_macid_temp
 278              		.cfi_endproc
 279              	.LFE37:
 280              		.size	sflash_write_macid, .-sflash_write_macid
 281              		.section	.text.sflash_read_ble_name,"ax",%progbits
 282              		.align	2
 283              		.global	sflash_read_ble_name
 284              		.code	16
 285              		.thumb_func
 286              		.type	sflash_read_ble_name, %function
 287              	sflash_read_ble_name:
 288              	.LFB38:
 130:.\WriteUserSFlash.c **** 
 131:.\WriteUserSFlash.c **** void sflash_read_ble_name(void)
 132:.\WriteUserSFlash.c **** {
 289              		.loc 1 132 0
 290              		.cfi_startproc
 291 0000 80B5     		push	{r7, lr}
 292              		.cfi_def_cfa_offset 8
 293              		.cfi_offset 7, -8
 294              		.cfi_offset 14, -4
 295 0002 92B0     		sub	sp, sp, #72
 296              		.cfi_def_cfa_offset 80
 297 0004 00AF     		add	r7, sp, #0
 298              		.cfi_def_cfa_register 7
 133:.\WriteUserSFlash.c ****     uint8 *sflashPtr;
 134:.\WriteUserSFlash.c ****     uint32 dataIndex;
 135:.\WriteUserSFlash.c ****     uint32 readData[15]; 
 136:.\WriteUserSFlash.c ****     sflashPtr = (uint8 *)USER_SFLASH_BASE_ADDRESS; /* User SFlash read is direct memory read using 
 299              		.loc 1 136 0
 300 0006 114B     		ldr	r3, .L16
 301 0008 3B64     		str	r3, [r7, #64]
 137:.\WriteUserSFlash.c ****     for(dataIndex = FLASH_BLE_NAME; dataIndex < FLASH_BLE_NAME+15; dataIndex++)
 302              		.loc 1 137 0
 303 000a 0023     		mov	r3, #0
 304 000c 7B64     		str	r3, [r7, #68]
 305 000e 16E0     		b	.L14
 306              	.L15:
 138:.\WriteUserSFlash.c ****     {
 139:.\WriteUserSFlash.c ****         readData[dataIndex] = *(sflashPtr+(dataIndex*4));
 307              		.loc 1 139 0 discriminator 3
 308 0010 7B6C     		ldr	r3, [r7, #68]
 309 0012 9B00     		lsl	r3, r3, #2
 310 0014 3A6C     		ldr	r2, [r7, #64]
 311 0016 D318     		add	r3, r2, r3
 312 0018 1B78     		ldrb	r3, [r3]
 313 001a 191C     		mov	r1, r3
 314 001c 3B1D     		add	r3, r7, #4
 315 001e 7A6C     		ldr	r2, [r7, #68]
ARM GAS  C:\Users\ADMINI~1\AppData\Local\Temp\ccoooWSG.s 			page 9


 316 0020 9200     		lsl	r2, r2, #2
 317 0022 D150     		str	r1, [r2, r3]
 140:.\WriteUserSFlash.c ****         BLEDeviceName[dataIndex]=(char)readData[dataIndex];
 318              		.loc 1 140 0 discriminator 3
 319 0024 3B1D     		add	r3, r7, #4
 320 0026 7A6C     		ldr	r2, [r7, #68]
 321 0028 9200     		lsl	r2, r2, #2
 322 002a D358     		ldr	r3, [r2, r3]
 323 002c D9B2     		uxtb	r1, r3
 324 002e 084A     		ldr	r2, .L16+4
 325 0030 7B6C     		ldr	r3, [r7, #68]
 326 0032 D318     		add	r3, r2, r3
 327 0034 0A1C     		add	r2, r1, #0
 328 0036 1A70     		strb	r2, [r3]
 137:.\WriteUserSFlash.c ****     for(dataIndex = FLASH_BLE_NAME; dataIndex < FLASH_BLE_NAME+15; dataIndex++)
 329              		.loc 1 137 0 discriminator 3
 330 0038 7B6C     		ldr	r3, [r7, #68]
 331 003a 0133     		add	r3, r3, #1
 332 003c 7B64     		str	r3, [r7, #68]
 333              	.L14:
 137:.\WriteUserSFlash.c ****     for(dataIndex = FLASH_BLE_NAME; dataIndex < FLASH_BLE_NAME+15; dataIndex++)
 334              		.loc 1 137 0 is_stmt 0 discriminator 1
 335 003e 7B6C     		ldr	r3, [r7, #68]
 336 0040 0E2B     		cmp	r3, #14
 337 0042 E5D9     		bls	.L15
 141:.\WriteUserSFlash.c ****     }    
 142:.\WriteUserSFlash.c **** }
 338              		.loc 1 142 0 is_stmt 1
 339 0044 BD46     		mov	sp, r7
 340 0046 12B0     		add	sp, sp, #72
 341              		@ sp needed
 342 0048 80BD     		pop	{r7, pc}
 343              	.L17:
 344 004a C046     		.align	2
 345              	.L16:
 346 004c 00F2FF0F 		.word	268431872
 347 0050 00000000 		.word	BLEDeviceName
 348              		.cfi_endproc
 349              	.LFE38:
 350              		.size	sflash_read_ble_name, .-sflash_read_ble_name
 351              		.section	.text.sflash_read_macid,"ax",%progbits
 352              		.align	2
 353              		.global	sflash_read_macid
 354              		.code	16
 355              		.thumb_func
 356              		.type	sflash_read_macid, %function
 357              	sflash_read_macid:
 358              	.LFB39:
 143:.\WriteUserSFlash.c **** void sflash_read_macid(void)
 144:.\WriteUserSFlash.c **** {
 359              		.loc 1 144 0
 360              		.cfi_startproc
 361 0000 80B5     		push	{r7, lr}
 362              		.cfi_def_cfa_offset 8
 363              		.cfi_offset 7, -8
 364              		.cfi_offset 14, -4
 365 0002 86B0     		sub	sp, sp, #24
ARM GAS  C:\Users\ADMINI~1\AppData\Local\Temp\ccoooWSG.s 			page 10


 366              		.cfi_def_cfa_offset 32
 367 0004 00AF     		add	r7, sp, #0
 368              		.cfi_def_cfa_register 7
 145:.\WriteUserSFlash.c ****     uint8 *sflashPtr;
 146:.\WriteUserSFlash.c ****     uint32 dataIndex;
 147:.\WriteUserSFlash.c ****     uint32 readData[4]; 
 148:.\WriteUserSFlash.c ****     sflashPtr = (uint8 *)USER_SFLASH_BASE_ADDRESS; /* User SFlash read is direct memory read using 
 369              		.loc 1 148 0
 370 0006 0C4B     		ldr	r3, .L21
 371 0008 3B61     		str	r3, [r7, #16]
 149:.\WriteUserSFlash.c ****     for(dataIndex = FLASH_MACID; dataIndex < FLASH_MACID+4; dataIndex++)
 372              		.loc 1 149 0
 373 000a 1423     		mov	r3, #20
 374 000c 7B61     		str	r3, [r7, #20]
 375 000e 0CE0     		b	.L19
 376              	.L20:
 150:.\WriteUserSFlash.c ****     {
 151:.\WriteUserSFlash.c ****         readData[dataIndex] = *(sflashPtr+(dataIndex*4));
 377              		.loc 1 151 0 discriminator 3
 378 0010 7B69     		ldr	r3, [r7, #20]
 379 0012 9B00     		lsl	r3, r3, #2
 380 0014 3A69     		ldr	r2, [r7, #16]
 381 0016 D318     		add	r3, r2, r3
 382 0018 1B78     		ldrb	r3, [r3]
 383 001a 191C     		mov	r1, r3
 384 001c 3B1C     		mov	r3, r7
 385 001e 7A69     		ldr	r2, [r7, #20]
 386 0020 9200     		lsl	r2, r2, #2
 387 0022 D150     		str	r1, [r2, r3]
 149:.\WriteUserSFlash.c ****     for(dataIndex = FLASH_MACID; dataIndex < FLASH_MACID+4; dataIndex++)
 388              		.loc 1 149 0 discriminator 3
 389 0024 7B69     		ldr	r3, [r7, #20]
 390 0026 0133     		add	r3, r3, #1
 391 0028 7B61     		str	r3, [r7, #20]
 392              	.L19:
 149:.\WriteUserSFlash.c ****     for(dataIndex = FLASH_MACID; dataIndex < FLASH_MACID+4; dataIndex++)
 393              		.loc 1 149 0 is_stmt 0 discriminator 1
 394 002a 7B69     		ldr	r3, [r7, #20]
 395 002c 172B     		cmp	r3, #23
 396 002e EFD9     		bls	.L20
 152:.\WriteUserSFlash.c ****         
 153:.\WriteUserSFlash.c ****     } 
 154:.\WriteUserSFlash.c **** }
 397              		.loc 1 154 0 is_stmt 1
 398 0030 BD46     		mov	sp, r7
 399 0032 06B0     		add	sp, sp, #24
 400              		@ sp needed
 401 0034 80BD     		pop	{r7, pc}
 402              	.L22:
 403 0036 C046     		.align	2
 404              	.L21:
 405 0038 00F2FF0F 		.word	268431872
 406              		.cfi_endproc
 407              	.LFE39:
 408              		.size	sflash_read_macid, .-sflash_read_macid
 409              		.text
 410              	.Letext0:
ARM GAS  C:\Users\ADMINI~1\AppData\Local\Temp\ccoooWSG.s 			page 11


 411              		.file 2 "Generated_Source\\PSoC4/cytypes.h"
 412              		.file 3 "Generated_Source\\PSoC4/BLE_Stack.h"